ARM GAS  D:\apps\VSCode\data\tmp\ccjbw8Rj.s 			page 1


   1              		.cpu cortex-m4
   2              		.eabi_attribute 27, 1
   3              		.eabi_attribute 28, 1
   4              		.eabi_attribute 20, 1
   5              		.eabi_attribute 21, 1
   6              		.eabi_attribute 23, 3
   7              		.eabi_attribute 24, 1
   8              		.eabi_attribute 25, 1
   9              		.eabi_attribute 26, 1
  10              		.eabi_attribute 30, 2
  11              		.eabi_attribute 34, 1
  12              		.eabi_attribute 18, 4
  13              		.file	"comp.c"
  14              		.text
  15              	.Ltext0:
  16              		.cfi_sections	.debug_frame
  17              		.section	.text.cmpr_start,"ax",%progbits
  18              		.align	1
  19              		.p2align 2,,3
  20              		.global	cmpr_start
  21              		.arch armv7e-m
  22              		.syntax unified
  23              		.thumb
  24              		.thumb_func
  25              		.fpu fpv4-sp-d16
  27              	cmpr_start:
  28              	.LFB2126:
  29              		.file 1 "Src/comp.c"
   1:Src/comp.c    **** /**
   2:Src/comp.c    ****   ******************************************************************************
   3:Src/comp.c    ****   * @file    comp.c
   4:Src/comp.c    ****   * @brief   This file provides code for the configuration
   5:Src/comp.c    ****   *          of the COMP instances.
   6:Src/comp.c    ****   ******************************************************************************
   7:Src/comp.c    ****   * @attention
   8:Src/comp.c    ****   *
   9:Src/comp.c    ****   * <h2><center>&copy; Copyright (c) 2021 STMicroelectronics.
  10:Src/comp.c    ****   * All rights reserved.</center></h2>
  11:Src/comp.c    ****   *
  12:Src/comp.c    ****   * This software component is licensed by ST under BSD 3-Clause license,
  13:Src/comp.c    ****   * the "License"; You may not use this file except in compliance with the
  14:Src/comp.c    ****   * License. You may obtain a copy of the License at:
  15:Src/comp.c    ****   *                        opensource.org/licenses/BSD-3-Clause
  16:Src/comp.c    ****   *
  17:Src/comp.c    ****   ******************************************************************************
  18:Src/comp.c    ****   */
  19:Src/comp.c    **** 
  20:Src/comp.c    **** /* Includes ------------------------------------------------------------------*/
  21:Src/comp.c    **** #include "comp.h"
  22:Src/comp.c    **** 
  23:Src/comp.c    **** /* USER CODE BEGIN 0 */
  24:Src/comp.c    **** void cmpr_start(void)
  25:Src/comp.c    **** {
  30              		.loc 1 25 1 view -0
  31              		.cfi_startproc
  32              		@ args = 0, pretend = 0, frame = 8
  33              		@ frame_needed = 0, uses_anonymous_args = 0
ARM GAS  D:\apps\VSCode\data\tmp\ccjbw8Rj.s 			page 2


  34              		@ link register save eliminated.
  26:Src/comp.c    ****   __IO uint32_t wait_loop_index = 0;
  35              		.loc 1 26 3 view .LVU1
  25:Src/comp.c    ****   __IO uint32_t wait_loop_index = 0;
  36              		.loc 1 25 1 is_stmt 0 view .LVU2
  37 0000 30B4     		push	{r4, r5}
  38              	.LCFI0:
  39              		.cfi_def_cfa_offset 8
  40              		.cfi_offset 4, -8
  41              		.cfi_offset 5, -4
  42 0002 82B0     		sub	sp, sp, #8
  43              	.LCFI1:
  44              		.cfi_def_cfa_offset 16
  45              	.LBB32:
  46              	.LBB33:
  47              		.file 2 "Drivers/STM32G4xx_HAL_Driver/Inc/stm32g4xx_ll_comp.h"
   1:Drivers/STM32G4xx_HAL_Driver/Inc/stm32g4xx_ll_comp.h **** /**
   2:Drivers/STM32G4xx_HAL_Driver/Inc/stm32g4xx_ll_comp.h ****   ******************************************************************************
   3:Drivers/STM32G4xx_HAL_Driver/Inc/stm32g4xx_ll_comp.h ****   * @file    stm32g4xx_ll_comp.h
   4:Drivers/STM32G4xx_HAL_Driver/Inc/stm32g4xx_ll_comp.h ****   * @author  MCD Application Team
   5:Drivers/STM32G4xx_HAL_Driver/Inc/stm32g4xx_ll_comp.h ****   * @brief   Header file of COMP LL module.
   6:Drivers/STM32G4xx_HAL_Driver/Inc/stm32g4xx_ll_comp.h ****   ******************************************************************************
   7:Drivers/STM32G4xx_HAL_Driver/Inc/stm32g4xx_ll_comp.h ****   * @attention
   8:Drivers/STM32G4xx_HAL_Driver/Inc/stm32g4xx_ll_comp.h ****   *
   9:Drivers/STM32G4xx_HAL_Driver/Inc/stm32g4xx_ll_comp.h ****   * <h2><center>&copy; Copyright (c) 2019 STMicroelectronics.
  10:Drivers/STM32G4xx_HAL_Driver/Inc/stm32g4xx_ll_comp.h ****   * All rights reserved.</center></h2>
  11:Drivers/STM32G4xx_HAL_Driver/Inc/stm32g4xx_ll_comp.h ****   *
  12:Drivers/STM32G4xx_HAL_Driver/Inc/stm32g4xx_ll_comp.h ****   * This software component is licensed by ST under BSD 3-Clause license,
  13:Drivers/STM32G4xx_HAL_Driver/Inc/stm32g4xx_ll_comp.h ****   * the "License"; You may not use this file except in compliance with the
  14:Drivers/STM32G4xx_HAL_Driver/Inc/stm32g4xx_ll_comp.h ****   * License. You may obtain a copy of the License at:
  15:Drivers/STM32G4xx_HAL_Driver/Inc/stm32g4xx_ll_comp.h ****   *                        opensource.org/licenses/BSD-3-Clause
  16:Drivers/STM32G4xx_HAL_Driver/Inc/stm32g4xx_ll_comp.h ****   *
  17:Drivers/STM32G4xx_HAL_Driver/Inc/stm32g4xx_ll_comp.h ****   ******************************************************************************
  18:Drivers/STM32G4xx_HAL_Driver/Inc/stm32g4xx_ll_comp.h ****   */
  19:Drivers/STM32G4xx_HAL_Driver/Inc/stm32g4xx_ll_comp.h **** 
  20:Drivers/STM32G4xx_HAL_Driver/Inc/stm32g4xx_ll_comp.h **** /* Define to prevent recursive inclusion -------------------------------------*/
  21:Drivers/STM32G4xx_HAL_Driver/Inc/stm32g4xx_ll_comp.h **** #ifndef STM32G4xx_LL_COMP_H
  22:Drivers/STM32G4xx_HAL_Driver/Inc/stm32g4xx_ll_comp.h **** #define STM32G4xx_LL_COMP_H
  23:Drivers/STM32G4xx_HAL_Driver/Inc/stm32g4xx_ll_comp.h **** 
  24:Drivers/STM32G4xx_HAL_Driver/Inc/stm32g4xx_ll_comp.h **** #ifdef __cplusplus
  25:Drivers/STM32G4xx_HAL_Driver/Inc/stm32g4xx_ll_comp.h **** extern "C" {
  26:Drivers/STM32G4xx_HAL_Driver/Inc/stm32g4xx_ll_comp.h **** #endif
  27:Drivers/STM32G4xx_HAL_Driver/Inc/stm32g4xx_ll_comp.h **** 
  28:Drivers/STM32G4xx_HAL_Driver/Inc/stm32g4xx_ll_comp.h **** /* Includes ------------------------------------------------------------------*/
  29:Drivers/STM32G4xx_HAL_Driver/Inc/stm32g4xx_ll_comp.h **** #include "stm32g4xx.h"
  30:Drivers/STM32G4xx_HAL_Driver/Inc/stm32g4xx_ll_comp.h **** 
  31:Drivers/STM32G4xx_HAL_Driver/Inc/stm32g4xx_ll_comp.h **** /** @addtogroup STM32G4xx_LL_Driver
  32:Drivers/STM32G4xx_HAL_Driver/Inc/stm32g4xx_ll_comp.h ****   * @{
  33:Drivers/STM32G4xx_HAL_Driver/Inc/stm32g4xx_ll_comp.h ****   */
  34:Drivers/STM32G4xx_HAL_Driver/Inc/stm32g4xx_ll_comp.h **** 
  35:Drivers/STM32G4xx_HAL_Driver/Inc/stm32g4xx_ll_comp.h **** 
  36:Drivers/STM32G4xx_HAL_Driver/Inc/stm32g4xx_ll_comp.h **** 
  37:Drivers/STM32G4xx_HAL_Driver/Inc/stm32g4xx_ll_comp.h **** /** @defgroup COMP_LL COMP
  38:Drivers/STM32G4xx_HAL_Driver/Inc/stm32g4xx_ll_comp.h ****   * @{
  39:Drivers/STM32G4xx_HAL_Driver/Inc/stm32g4xx_ll_comp.h ****   */
  40:Drivers/STM32G4xx_HAL_Driver/Inc/stm32g4xx_ll_comp.h **** 
  41:Drivers/STM32G4xx_HAL_Driver/Inc/stm32g4xx_ll_comp.h **** /* Private types -------------------------------------------------------------*/
ARM GAS  D:\apps\VSCode\data\tmp\ccjbw8Rj.s 			page 3


  42:Drivers/STM32G4xx_HAL_Driver/Inc/stm32g4xx_ll_comp.h **** /* Private variables ---------------------------------------------------------*/
  43:Drivers/STM32G4xx_HAL_Driver/Inc/stm32g4xx_ll_comp.h **** /* Private constants ---------------------------------------------------------*/
  44:Drivers/STM32G4xx_HAL_Driver/Inc/stm32g4xx_ll_comp.h **** 
  45:Drivers/STM32G4xx_HAL_Driver/Inc/stm32g4xx_ll_comp.h **** /* Private macros ------------------------------------------------------------*/
  46:Drivers/STM32G4xx_HAL_Driver/Inc/stm32g4xx_ll_comp.h **** /** @defgroup COMP_LL_Private_Macros COMP Private Macros
  47:Drivers/STM32G4xx_HAL_Driver/Inc/stm32g4xx_ll_comp.h ****   * @{
  48:Drivers/STM32G4xx_HAL_Driver/Inc/stm32g4xx_ll_comp.h ****   */
  49:Drivers/STM32G4xx_HAL_Driver/Inc/stm32g4xx_ll_comp.h **** 
  50:Drivers/STM32G4xx_HAL_Driver/Inc/stm32g4xx_ll_comp.h **** /**
  51:Drivers/STM32G4xx_HAL_Driver/Inc/stm32g4xx_ll_comp.h ****   * @}
  52:Drivers/STM32G4xx_HAL_Driver/Inc/stm32g4xx_ll_comp.h ****   */
  53:Drivers/STM32G4xx_HAL_Driver/Inc/stm32g4xx_ll_comp.h **** 
  54:Drivers/STM32G4xx_HAL_Driver/Inc/stm32g4xx_ll_comp.h **** /* Exported types ------------------------------------------------------------*/
  55:Drivers/STM32G4xx_HAL_Driver/Inc/stm32g4xx_ll_comp.h **** #if defined(USE_FULL_LL_DRIVER)
  56:Drivers/STM32G4xx_HAL_Driver/Inc/stm32g4xx_ll_comp.h **** /** @defgroup COMP_LL_ES_INIT COMP Exported Init structure
  57:Drivers/STM32G4xx_HAL_Driver/Inc/stm32g4xx_ll_comp.h ****   * @{
  58:Drivers/STM32G4xx_HAL_Driver/Inc/stm32g4xx_ll_comp.h ****   */
  59:Drivers/STM32G4xx_HAL_Driver/Inc/stm32g4xx_ll_comp.h **** 
  60:Drivers/STM32G4xx_HAL_Driver/Inc/stm32g4xx_ll_comp.h **** /**
  61:Drivers/STM32G4xx_HAL_Driver/Inc/stm32g4xx_ll_comp.h ****   * @brief  Structure definition of some features of COMP instance.
  62:Drivers/STM32G4xx_HAL_Driver/Inc/stm32g4xx_ll_comp.h ****   */
  63:Drivers/STM32G4xx_HAL_Driver/Inc/stm32g4xx_ll_comp.h **** typedef struct
  64:Drivers/STM32G4xx_HAL_Driver/Inc/stm32g4xx_ll_comp.h **** {
  65:Drivers/STM32G4xx_HAL_Driver/Inc/stm32g4xx_ll_comp.h ****   uint32_t InputPlus;                   /*!< Set comparator input plus (non-inverting input).
  66:Drivers/STM32G4xx_HAL_Driver/Inc/stm32g4xx_ll_comp.h ****                                              This parameter can be a value of @ref COMP_LL_EC_INPUT
  67:Drivers/STM32G4xx_HAL_Driver/Inc/stm32g4xx_ll_comp.h **** 
  68:Drivers/STM32G4xx_HAL_Driver/Inc/stm32g4xx_ll_comp.h ****                                              This feature can be modified afterwards using unitary 
  69:Drivers/STM32G4xx_HAL_Driver/Inc/stm32g4xx_ll_comp.h **** 
  70:Drivers/STM32G4xx_HAL_Driver/Inc/stm32g4xx_ll_comp.h ****   uint32_t InputMinus;                  /*!< Set comparator input minus (inverting input).
  71:Drivers/STM32G4xx_HAL_Driver/Inc/stm32g4xx_ll_comp.h ****                                              This parameter can be a value of @ref COMP_LL_EC_INPUT
  72:Drivers/STM32G4xx_HAL_Driver/Inc/stm32g4xx_ll_comp.h **** 
  73:Drivers/STM32G4xx_HAL_Driver/Inc/stm32g4xx_ll_comp.h ****                                              This feature can be modified afterwards using unitary 
  74:Drivers/STM32G4xx_HAL_Driver/Inc/stm32g4xx_ll_comp.h **** 
  75:Drivers/STM32G4xx_HAL_Driver/Inc/stm32g4xx_ll_comp.h ****   uint32_t InputHysteresis;             /*!< Set comparator hysteresis mode of the input minus.
  76:Drivers/STM32G4xx_HAL_Driver/Inc/stm32g4xx_ll_comp.h ****                                              This parameter can be a value of @ref COMP_LL_EC_INPUT
  77:Drivers/STM32G4xx_HAL_Driver/Inc/stm32g4xx_ll_comp.h **** 
  78:Drivers/STM32G4xx_HAL_Driver/Inc/stm32g4xx_ll_comp.h ****                                              This feature can be modified afterwards using unitary 
  79:Drivers/STM32G4xx_HAL_Driver/Inc/stm32g4xx_ll_comp.h **** 
  80:Drivers/STM32G4xx_HAL_Driver/Inc/stm32g4xx_ll_comp.h ****   uint32_t OutputPolarity;              /*!< Set comparator output polarity.
  81:Drivers/STM32G4xx_HAL_Driver/Inc/stm32g4xx_ll_comp.h ****                                              This parameter can be a value of @ref COMP_LL_EC_OUTPU
  82:Drivers/STM32G4xx_HAL_Driver/Inc/stm32g4xx_ll_comp.h **** 
  83:Drivers/STM32G4xx_HAL_Driver/Inc/stm32g4xx_ll_comp.h ****                                              This feature can be modified afterwards using unitary 
  84:Drivers/STM32G4xx_HAL_Driver/Inc/stm32g4xx_ll_comp.h **** 
  85:Drivers/STM32G4xx_HAL_Driver/Inc/stm32g4xx_ll_comp.h ****   uint32_t OutputBlankingSource;        /*!< Set comparator blanking source.
  86:Drivers/STM32G4xx_HAL_Driver/Inc/stm32g4xx_ll_comp.h ****                                              This parameter can be a value of @ref COMP_LL_EC_OUTPU
  87:Drivers/STM32G4xx_HAL_Driver/Inc/stm32g4xx_ll_comp.h **** 
  88:Drivers/STM32G4xx_HAL_Driver/Inc/stm32g4xx_ll_comp.h ****                                              This feature can be modified afterwards using unitary 
  89:Drivers/STM32G4xx_HAL_Driver/Inc/stm32g4xx_ll_comp.h **** 
  90:Drivers/STM32G4xx_HAL_Driver/Inc/stm32g4xx_ll_comp.h **** } LL_COMP_InitTypeDef;
  91:Drivers/STM32G4xx_HAL_Driver/Inc/stm32g4xx_ll_comp.h **** 
  92:Drivers/STM32G4xx_HAL_Driver/Inc/stm32g4xx_ll_comp.h **** /**
  93:Drivers/STM32G4xx_HAL_Driver/Inc/stm32g4xx_ll_comp.h ****   * @}
  94:Drivers/STM32G4xx_HAL_Driver/Inc/stm32g4xx_ll_comp.h ****   */
  95:Drivers/STM32G4xx_HAL_Driver/Inc/stm32g4xx_ll_comp.h **** #endif /* USE_FULL_LL_DRIVER */
  96:Drivers/STM32G4xx_HAL_Driver/Inc/stm32g4xx_ll_comp.h **** 
  97:Drivers/STM32G4xx_HAL_Driver/Inc/stm32g4xx_ll_comp.h **** /* Exported constants --------------------------------------------------------*/
  98:Drivers/STM32G4xx_HAL_Driver/Inc/stm32g4xx_ll_comp.h **** /** @defgroup COMP_LL_Exported_Constants COMP Exported Constants
ARM GAS  D:\apps\VSCode\data\tmp\ccjbw8Rj.s 			page 4


  99:Drivers/STM32G4xx_HAL_Driver/Inc/stm32g4xx_ll_comp.h ****   * @{
 100:Drivers/STM32G4xx_HAL_Driver/Inc/stm32g4xx_ll_comp.h ****   */
 101:Drivers/STM32G4xx_HAL_Driver/Inc/stm32g4xx_ll_comp.h **** 
 102:Drivers/STM32G4xx_HAL_Driver/Inc/stm32g4xx_ll_comp.h **** /** @defgroup COMP_LL_EC_INPUT_PLUS Comparator inputs - Input plus (input non-inverting) selection
 103:Drivers/STM32G4xx_HAL_Driver/Inc/stm32g4xx_ll_comp.h ****   * @{
 104:Drivers/STM32G4xx_HAL_Driver/Inc/stm32g4xx_ll_comp.h ****   */
 105:Drivers/STM32G4xx_HAL_Driver/Inc/stm32g4xx_ll_comp.h **** #define LL_COMP_INPUT_PLUS_IO1          (0x00000000UL)                          /*!< Comparator inp
 106:Drivers/STM32G4xx_HAL_Driver/Inc/stm32g4xx_ll_comp.h **** #define LL_COMP_INPUT_PLUS_IO2          (COMP_CSR_INPSEL)                       /*!< Comparator inp
 107:Drivers/STM32G4xx_HAL_Driver/Inc/stm32g4xx_ll_comp.h **** /**
 108:Drivers/STM32G4xx_HAL_Driver/Inc/stm32g4xx_ll_comp.h ****   * @}
 109:Drivers/STM32G4xx_HAL_Driver/Inc/stm32g4xx_ll_comp.h ****   */
 110:Drivers/STM32G4xx_HAL_Driver/Inc/stm32g4xx_ll_comp.h **** 
 111:Drivers/STM32G4xx_HAL_Driver/Inc/stm32g4xx_ll_comp.h **** /** @defgroup COMP_LL_EC_INPUT_MINUS Comparator inputs - Input minus (input inverting) selection
 112:Drivers/STM32G4xx_HAL_Driver/Inc/stm32g4xx_ll_comp.h ****   * @{
 113:Drivers/STM32G4xx_HAL_Driver/Inc/stm32g4xx_ll_comp.h ****   */
 114:Drivers/STM32G4xx_HAL_Driver/Inc/stm32g4xx_ll_comp.h **** #define LL_COMP_INPUT_MINUS_1_4VREFINT  (                                                          
 115:Drivers/STM32G4xx_HAL_Driver/Inc/stm32g4xx_ll_comp.h **** #define LL_COMP_INPUT_MINUS_1_2VREFINT  (                                        COMP_CSR_INMSEL_0 
 116:Drivers/STM32G4xx_HAL_Driver/Inc/stm32g4xx_ll_comp.h **** #define LL_COMP_INPUT_MINUS_3_4VREFINT  (                    COMP_CSR_INMSEL_1                     
 117:Drivers/STM32G4xx_HAL_Driver/Inc/stm32g4xx_ll_comp.h **** #define LL_COMP_INPUT_MINUS_VREFINT     (                    COMP_CSR_INMSEL_1 | COMP_CSR_INMSEL_0 
 118:Drivers/STM32G4xx_HAL_Driver/Inc/stm32g4xx_ll_comp.h **** #define LL_COMP_INPUT_MINUS_DAC1_CH1    (COMP_CSR_INMSEL_2                     | COMP_CSR_INMSEL_0)
 119:Drivers/STM32G4xx_HAL_Driver/Inc/stm32g4xx_ll_comp.h **** #define LL_COMP_INPUT_MINUS_DAC1_CH2    (COMP_CSR_INMSEL_2                     | COMP_CSR_INMSEL_0)
 120:Drivers/STM32G4xx_HAL_Driver/Inc/stm32g4xx_ll_comp.h **** #define LL_COMP_INPUT_MINUS_DAC2_CH1    (COMP_CSR_INMSEL_2                     | COMP_CSR_INMSEL_0)
 121:Drivers/STM32G4xx_HAL_Driver/Inc/stm32g4xx_ll_comp.h **** #define LL_COMP_INPUT_MINUS_DAC3_CH1    (COMP_CSR_INMSEL_2                                        )
 122:Drivers/STM32G4xx_HAL_Driver/Inc/stm32g4xx_ll_comp.h **** #define LL_COMP_INPUT_MINUS_DAC3_CH2    (COMP_CSR_INMSEL_2                                        )
 123:Drivers/STM32G4xx_HAL_Driver/Inc/stm32g4xx_ll_comp.h **** #define LL_COMP_INPUT_MINUS_DAC4_CH1    (COMP_CSR_INMSEL_2                                        )
 124:Drivers/STM32G4xx_HAL_Driver/Inc/stm32g4xx_ll_comp.h **** #define LL_COMP_INPUT_MINUS_DAC4_CH2    (COMP_CSR_INMSEL_2                                        )
 125:Drivers/STM32G4xx_HAL_Driver/Inc/stm32g4xx_ll_comp.h **** #define LL_COMP_INPUT_MINUS_IO1         (COMP_CSR_INMSEL_2 | COMP_CSR_INMSEL_1                    )
 126:Drivers/STM32G4xx_HAL_Driver/Inc/stm32g4xx_ll_comp.h **** #define LL_COMP_INPUT_MINUS_IO2         (COMP_CSR_INMSEL_2 | COMP_CSR_INMSEL_1 | COMP_CSR_INMSEL_0)
 127:Drivers/STM32G4xx_HAL_Driver/Inc/stm32g4xx_ll_comp.h **** 
 128:Drivers/STM32G4xx_HAL_Driver/Inc/stm32g4xx_ll_comp.h **** /**
 129:Drivers/STM32G4xx_HAL_Driver/Inc/stm32g4xx_ll_comp.h ****   * @}
 130:Drivers/STM32G4xx_HAL_Driver/Inc/stm32g4xx_ll_comp.h ****   */
 131:Drivers/STM32G4xx_HAL_Driver/Inc/stm32g4xx_ll_comp.h **** 
 132:Drivers/STM32G4xx_HAL_Driver/Inc/stm32g4xx_ll_comp.h **** /** @defgroup COMP_LL_EC_INPUT_HYSTERESIS Comparator input - Hysteresis
 133:Drivers/STM32G4xx_HAL_Driver/Inc/stm32g4xx_ll_comp.h ****   * @{
 134:Drivers/STM32G4xx_HAL_Driver/Inc/stm32g4xx_ll_comp.h ****   */
 135:Drivers/STM32G4xx_HAL_Driver/Inc/stm32g4xx_ll_comp.h **** #define LL_COMP_HYSTERESIS_NONE         (0x00000000UL)                                       /*!< N
 136:Drivers/STM32G4xx_HAL_Driver/Inc/stm32g4xx_ll_comp.h **** #define LL_COMP_HYSTERESIS_10MV         (                                    COMP_CSR_HYST_0) /*!< 
 137:Drivers/STM32G4xx_HAL_Driver/Inc/stm32g4xx_ll_comp.h **** #define LL_COMP_HYSTERESIS_20MV         (                  COMP_CSR_HYST_1                  ) /*!< 
 138:Drivers/STM32G4xx_HAL_Driver/Inc/stm32g4xx_ll_comp.h **** #define LL_COMP_HYSTERESIS_30MV         (                  COMP_CSR_HYST_1 | COMP_CSR_HYST_0) /*!< 
 139:Drivers/STM32G4xx_HAL_Driver/Inc/stm32g4xx_ll_comp.h **** #define LL_COMP_HYSTERESIS_40MV         (COMP_CSR_HYST_2                                    ) /*!< 
 140:Drivers/STM32G4xx_HAL_Driver/Inc/stm32g4xx_ll_comp.h **** #define LL_COMP_HYSTERESIS_50MV         (COMP_CSR_HYST_2                   | COMP_CSR_HYST_0) /*!< 
 141:Drivers/STM32G4xx_HAL_Driver/Inc/stm32g4xx_ll_comp.h **** #define LL_COMP_HYSTERESIS_60MV         (COMP_CSR_HYST_2 | COMP_CSR_HYST_1                  ) /*!< 
 142:Drivers/STM32G4xx_HAL_Driver/Inc/stm32g4xx_ll_comp.h **** #define LL_COMP_HYSTERESIS_70MV         (COMP_CSR_HYST_2 | COMP_CSR_HYST_1 | COMP_CSR_HYST_0) /*!< 
 143:Drivers/STM32G4xx_HAL_Driver/Inc/stm32g4xx_ll_comp.h **** #define LL_COMP_HYSTERESIS_LOW          LL_COMP_HYSTERESIS_10MV /*!< Hysteresis level low */
 144:Drivers/STM32G4xx_HAL_Driver/Inc/stm32g4xx_ll_comp.h **** #define LL_COMP_HYSTERESIS_MEDIUM       LL_COMP_HYSTERESIS_40MV /*!< Hysteresis level medium */
 145:Drivers/STM32G4xx_HAL_Driver/Inc/stm32g4xx_ll_comp.h **** #define LL_COMP_HYSTERESIS_HIGH         LL_COMP_HYSTERESIS_70MV /*!< Hysteresis level high */
 146:Drivers/STM32G4xx_HAL_Driver/Inc/stm32g4xx_ll_comp.h **** /**
 147:Drivers/STM32G4xx_HAL_Driver/Inc/stm32g4xx_ll_comp.h ****   * @}
 148:Drivers/STM32G4xx_HAL_Driver/Inc/stm32g4xx_ll_comp.h ****   */
 149:Drivers/STM32G4xx_HAL_Driver/Inc/stm32g4xx_ll_comp.h **** 
 150:Drivers/STM32G4xx_HAL_Driver/Inc/stm32g4xx_ll_comp.h **** /** @defgroup COMP_LL_EC_OUTPUT_POLARITY Comparator output - Output polarity
 151:Drivers/STM32G4xx_HAL_Driver/Inc/stm32g4xx_ll_comp.h ****   * @{
 152:Drivers/STM32G4xx_HAL_Driver/Inc/stm32g4xx_ll_comp.h ****   */
 153:Drivers/STM32G4xx_HAL_Driver/Inc/stm32g4xx_ll_comp.h **** #define LL_COMP_OUTPUTPOL_NONINVERTED   (0x00000000UL)          /*!< COMP output polarity is not in
 154:Drivers/STM32G4xx_HAL_Driver/Inc/stm32g4xx_ll_comp.h **** #define LL_COMP_OUTPUTPOL_INVERTED      (COMP_CSR_POLARITY)     /*!< COMP output polarity is invert
 155:Drivers/STM32G4xx_HAL_Driver/Inc/stm32g4xx_ll_comp.h **** /**
ARM GAS  D:\apps\VSCode\data\tmp\ccjbw8Rj.s 			page 5


 156:Drivers/STM32G4xx_HAL_Driver/Inc/stm32g4xx_ll_comp.h ****   * @}
 157:Drivers/STM32G4xx_HAL_Driver/Inc/stm32g4xx_ll_comp.h ****   */
 158:Drivers/STM32G4xx_HAL_Driver/Inc/stm32g4xx_ll_comp.h **** 
 159:Drivers/STM32G4xx_HAL_Driver/Inc/stm32g4xx_ll_comp.h **** /** @defgroup COMP_LL_EC_OUTPUT_BLANKING_SOURCE Comparator output - Blanking source
 160:Drivers/STM32G4xx_HAL_Driver/Inc/stm32g4xx_ll_comp.h ****   * @{
 161:Drivers/STM32G4xx_HAL_Driver/Inc/stm32g4xx_ll_comp.h ****   */
 162:Drivers/STM32G4xx_HAL_Driver/Inc/stm32g4xx_ll_comp.h **** #define LL_COMP_BLANKINGSRC_NONE            (0x00000000UL)          /*!<Comparator output without b
 163:Drivers/STM32G4xx_HAL_Driver/Inc/stm32g4xx_ll_comp.h **** #define LL_COMP_BLANKINGSRC_TIM1_OC5_COMP1  (                                            COMP_CSR_B
 164:Drivers/STM32G4xx_HAL_Driver/Inc/stm32g4xx_ll_comp.h **** #define LL_COMP_BLANKINGSRC_TIM1_OC5_COMP2  (                                            COMP_CSR_B
 165:Drivers/STM32G4xx_HAL_Driver/Inc/stm32g4xx_ll_comp.h **** #define LL_COMP_BLANKINGSRC_TIM1_OC5_COMP3  (                                            COMP_CSR_B
 166:Drivers/STM32G4xx_HAL_Driver/Inc/stm32g4xx_ll_comp.h **** #define LL_COMP_BLANKINGSRC_TIM1_OC5_COMP4  (COMP_CSR_BLANKING_2                                   
 167:Drivers/STM32G4xx_HAL_Driver/Inc/stm32g4xx_ll_comp.h **** #define LL_COMP_BLANKINGSRC_TIM1_OC5_COMP5  (COMP_CSR_BLANKING_2                                   
 168:Drivers/STM32G4xx_HAL_Driver/Inc/stm32g4xx_ll_comp.h **** #define LL_COMP_BLANKINGSRC_TIM1_OC5_COMP6  (COMP_CSR_BLANKING_2                                   
 169:Drivers/STM32G4xx_HAL_Driver/Inc/stm32g4xx_ll_comp.h **** #define LL_COMP_BLANKINGSRC_TIM1_OC5_COMP7  (                                            COMP_CSR_B
 170:Drivers/STM32G4xx_HAL_Driver/Inc/stm32g4xx_ll_comp.h **** #define LL_COMP_BLANKINGSRC_TIM2_OC3_COMP1  (                      COMP_CSR_BLANKING_1             
 171:Drivers/STM32G4xx_HAL_Driver/Inc/stm32g4xx_ll_comp.h **** #define LL_COMP_BLANKINGSRC_TIM2_OC3_COMP2  (                      COMP_CSR_BLANKING_1             
 172:Drivers/STM32G4xx_HAL_Driver/Inc/stm32g4xx_ll_comp.h **** #define LL_COMP_BLANKINGSRC_TIM2_OC3_COMP5  (                                            COMP_CSR_B
 173:Drivers/STM32G4xx_HAL_Driver/Inc/stm32g4xx_ll_comp.h **** #define LL_COMP_BLANKINGSRC_TIM2_OC4_COMP3  (                      COMP_CSR_BLANKING_1 | COMP_CSR_B
 174:Drivers/STM32G4xx_HAL_Driver/Inc/stm32g4xx_ll_comp.h **** #define LL_COMP_BLANKINGSRC_TIM2_OC4_COMP6  (                      COMP_CSR_BLANKING_1             
 175:Drivers/STM32G4xx_HAL_Driver/Inc/stm32g4xx_ll_comp.h **** #define LL_COMP_BLANKINGSRC_TIM3_OC3_COMP1  (                      COMP_CSR_BLANKING_1 | COMP_CSR_B
 176:Drivers/STM32G4xx_HAL_Driver/Inc/stm32g4xx_ll_comp.h **** #define LL_COMP_BLANKINGSRC_TIM3_OC3_COMP2  (                      COMP_CSR_BLANKING_1 | COMP_CSR_B
 177:Drivers/STM32G4xx_HAL_Driver/Inc/stm32g4xx_ll_comp.h **** #define LL_COMP_BLANKINGSRC_TIM3_OC3_COMP3  (                      COMP_CSR_BLANKING_1             
 178:Drivers/STM32G4xx_HAL_Driver/Inc/stm32g4xx_ll_comp.h **** #define LL_COMP_BLANKINGSRC_TIM3_OC3_COMP5  (                      COMP_CSR_BLANKING_1 | COMP_CSR_B
 179:Drivers/STM32G4xx_HAL_Driver/Inc/stm32g4xx_ll_comp.h **** #define LL_COMP_BLANKINGSRC_TIM3_OC3_COMP7  (                      COMP_CSR_BLANKING_1 | COMP_CSR_B
 180:Drivers/STM32G4xx_HAL_Driver/Inc/stm32g4xx_ll_comp.h **** #define LL_COMP_BLANKINGSRC_TIM3_OC4_COMP4  (                                            COMP_CSR_B
 181:Drivers/STM32G4xx_HAL_Driver/Inc/stm32g4xx_ll_comp.h **** #define LL_COMP_BLANKINGSRC_TIM8_OC5_COMP1  (COMP_CSR_BLANKING_2                                   
 182:Drivers/STM32G4xx_HAL_Driver/Inc/stm32g4xx_ll_comp.h **** #define LL_COMP_BLANKINGSRC_TIM8_OC5_COMP2  (COMP_CSR_BLANKING_2                                   
 183:Drivers/STM32G4xx_HAL_Driver/Inc/stm32g4xx_ll_comp.h **** #define LL_COMP_BLANKINGSRC_TIM8_OC5_COMP3  (COMP_CSR_BLANKING_2                                   
 184:Drivers/STM32G4xx_HAL_Driver/Inc/stm32g4xx_ll_comp.h **** #define LL_COMP_BLANKINGSRC_TIM8_OC5_COMP4  (                      COMP_CSR_BLANKING_1             
 185:Drivers/STM32G4xx_HAL_Driver/Inc/stm32g4xx_ll_comp.h **** #define LL_COMP_BLANKINGSRC_TIM8_OC5_COMP5  (                      COMP_CSR_BLANKING_1             
 186:Drivers/STM32G4xx_HAL_Driver/Inc/stm32g4xx_ll_comp.h **** #define LL_COMP_BLANKINGSRC_TIM8_OC5_COMP6  (                                            COMP_CSR_B
 187:Drivers/STM32G4xx_HAL_Driver/Inc/stm32g4xx_ll_comp.h **** #define LL_COMP_BLANKINGSRC_TIM8_OC5_COMP7  (                      COMP_CSR_BLANKING_1             
 188:Drivers/STM32G4xx_HAL_Driver/Inc/stm32g4xx_ll_comp.h **** #define LL_COMP_BLANKINGSRC_TIM15_OC1_COMP4 (                      COMP_CSR_BLANKING_1 | COMP_CSR_B
 189:Drivers/STM32G4xx_HAL_Driver/Inc/stm32g4xx_ll_comp.h **** #define LL_COMP_BLANKINGSRC_TIM15_OC2_COMP6 (                      COMP_CSR_BLANKING_1 | COMP_CSR_B
 190:Drivers/STM32G4xx_HAL_Driver/Inc/stm32g4xx_ll_comp.h **** #define LL_COMP_BLANKINGSRC_TIM15_OC2_COMP7 (COMP_CSR_BLANKING_2                                   
 191:Drivers/STM32G4xx_HAL_Driver/Inc/stm32g4xx_ll_comp.h **** #define LL_COMP_BLANKINGSRC_TIM20_OC5       (COMP_CSR_BLANKING_2 |                       COMP_CSR_B
 192:Drivers/STM32G4xx_HAL_Driver/Inc/stm32g4xx_ll_comp.h **** #define LL_COMP_BLANKINGSRC_TIM15_OC1       (COMP_CSR_BLANKING_2 | COMP_CSR_BLANKING_1             
 193:Drivers/STM32G4xx_HAL_Driver/Inc/stm32g4xx_ll_comp.h **** #define LL_COMP_BLANKINGSRC_TIM4_OC3        (COMP_CSR_BLANKING_2 | COMP_CSR_BLANKING_1 | COMP_CSR_B
 194:Drivers/STM32G4xx_HAL_Driver/Inc/stm32g4xx_ll_comp.h **** 
 195:Drivers/STM32G4xx_HAL_Driver/Inc/stm32g4xx_ll_comp.h **** /**
 196:Drivers/STM32G4xx_HAL_Driver/Inc/stm32g4xx_ll_comp.h ****   * @}
 197:Drivers/STM32G4xx_HAL_Driver/Inc/stm32g4xx_ll_comp.h ****   */
 198:Drivers/STM32G4xx_HAL_Driver/Inc/stm32g4xx_ll_comp.h **** 
 199:Drivers/STM32G4xx_HAL_Driver/Inc/stm32g4xx_ll_comp.h **** /** @defgroup COMP_LL_EC_OUTPUT_LEVEL Comparator output - Output level
 200:Drivers/STM32G4xx_HAL_Driver/Inc/stm32g4xx_ll_comp.h ****   * @{
 201:Drivers/STM32G4xx_HAL_Driver/Inc/stm32g4xx_ll_comp.h ****   */
 202:Drivers/STM32G4xx_HAL_Driver/Inc/stm32g4xx_ll_comp.h **** #define LL_COMP_OUTPUT_LEVEL_LOW        (0x00000000UL)          /*!< Comparator output level low (i
 203:Drivers/STM32G4xx_HAL_Driver/Inc/stm32g4xx_ll_comp.h **** #define LL_COMP_OUTPUT_LEVEL_HIGH       (0x00000001UL)          /*!< Comparator output level high (
 204:Drivers/STM32G4xx_HAL_Driver/Inc/stm32g4xx_ll_comp.h **** /**
 205:Drivers/STM32G4xx_HAL_Driver/Inc/stm32g4xx_ll_comp.h ****   * @}
 206:Drivers/STM32G4xx_HAL_Driver/Inc/stm32g4xx_ll_comp.h ****   */
 207:Drivers/STM32G4xx_HAL_Driver/Inc/stm32g4xx_ll_comp.h **** 
 208:Drivers/STM32G4xx_HAL_Driver/Inc/stm32g4xx_ll_comp.h **** /** @defgroup COMP_LL_EC_HW_DELAYS  Definitions of COMP hardware constraints delays
 209:Drivers/STM32G4xx_HAL_Driver/Inc/stm32g4xx_ll_comp.h ****   * @note   Only COMP peripheral HW delays are defined in COMP LL driver driver,
 210:Drivers/STM32G4xx_HAL_Driver/Inc/stm32g4xx_ll_comp.h ****   *         not timeout values.
 211:Drivers/STM32G4xx_HAL_Driver/Inc/stm32g4xx_ll_comp.h ****   *         For details on delays values, refer to descriptions in source code
 212:Drivers/STM32G4xx_HAL_Driver/Inc/stm32g4xx_ll_comp.h ****   *         above each literal definition.
ARM GAS  D:\apps\VSCode\data\tmp\ccjbw8Rj.s 			page 6


 213:Drivers/STM32G4xx_HAL_Driver/Inc/stm32g4xx_ll_comp.h ****   * @{
 214:Drivers/STM32G4xx_HAL_Driver/Inc/stm32g4xx_ll_comp.h ****   */
 215:Drivers/STM32G4xx_HAL_Driver/Inc/stm32g4xx_ll_comp.h **** 
 216:Drivers/STM32G4xx_HAL_Driver/Inc/stm32g4xx_ll_comp.h **** /* Delay for comparator startup time.                                         */
 217:Drivers/STM32G4xx_HAL_Driver/Inc/stm32g4xx_ll_comp.h **** /* Note: Delay required to reach propagation delay specification.             */
 218:Drivers/STM32G4xx_HAL_Driver/Inc/stm32g4xx_ll_comp.h **** /* Literal set to maximum value (refer to device datasheet,                   */
 219:Drivers/STM32G4xx_HAL_Driver/Inc/stm32g4xx_ll_comp.h **** /* parameter "tSTART").                                                       */
 220:Drivers/STM32G4xx_HAL_Driver/Inc/stm32g4xx_ll_comp.h **** /* Unit: us                                                                   */
 221:Drivers/STM32G4xx_HAL_Driver/Inc/stm32g4xx_ll_comp.h **** #define LL_COMP_DELAY_STARTUP_US          (  5UL) /*!< Delay for COMP startup time */
 222:Drivers/STM32G4xx_HAL_Driver/Inc/stm32g4xx_ll_comp.h **** 
 223:Drivers/STM32G4xx_HAL_Driver/Inc/stm32g4xx_ll_comp.h **** /* Delay for comparator voltage scaler stabilization time.                    */
 224:Drivers/STM32G4xx_HAL_Driver/Inc/stm32g4xx_ll_comp.h **** /* Note: Voltage scaler is used when selecting comparator input               */
 225:Drivers/STM32G4xx_HAL_Driver/Inc/stm32g4xx_ll_comp.h **** /*       based on VrefInt: VrefInt or subdivision of VrefInt.                 */
 226:Drivers/STM32G4xx_HAL_Driver/Inc/stm32g4xx_ll_comp.h **** /* Literal set to maximum value (refer to device datasheet,                   */
 227:Drivers/STM32G4xx_HAL_Driver/Inc/stm32g4xx_ll_comp.h **** /* parameter "tSTART_SCALER").                                                */
 228:Drivers/STM32G4xx_HAL_Driver/Inc/stm32g4xx_ll_comp.h **** /* Unit: us                                                                   */
 229:Drivers/STM32G4xx_HAL_Driver/Inc/stm32g4xx_ll_comp.h **** #define LL_COMP_DELAY_VOLTAGE_SCALER_STAB_US ( 200UL) /*!< Delay for COMP voltage scaler stabilizat
 230:Drivers/STM32G4xx_HAL_Driver/Inc/stm32g4xx_ll_comp.h **** 
 231:Drivers/STM32G4xx_HAL_Driver/Inc/stm32g4xx_ll_comp.h **** /**
 232:Drivers/STM32G4xx_HAL_Driver/Inc/stm32g4xx_ll_comp.h ****   * @}
 233:Drivers/STM32G4xx_HAL_Driver/Inc/stm32g4xx_ll_comp.h ****   */
 234:Drivers/STM32G4xx_HAL_Driver/Inc/stm32g4xx_ll_comp.h **** 
 235:Drivers/STM32G4xx_HAL_Driver/Inc/stm32g4xx_ll_comp.h **** /**
 236:Drivers/STM32G4xx_HAL_Driver/Inc/stm32g4xx_ll_comp.h ****   * @}
 237:Drivers/STM32G4xx_HAL_Driver/Inc/stm32g4xx_ll_comp.h ****   */
 238:Drivers/STM32G4xx_HAL_Driver/Inc/stm32g4xx_ll_comp.h **** 
 239:Drivers/STM32G4xx_HAL_Driver/Inc/stm32g4xx_ll_comp.h **** /* Exported macro ------------------------------------------------------------*/
 240:Drivers/STM32G4xx_HAL_Driver/Inc/stm32g4xx_ll_comp.h **** /** @defgroup COMP_LL_Exported_Macros COMP Exported Macros
 241:Drivers/STM32G4xx_HAL_Driver/Inc/stm32g4xx_ll_comp.h ****   * @{
 242:Drivers/STM32G4xx_HAL_Driver/Inc/stm32g4xx_ll_comp.h ****   */
 243:Drivers/STM32G4xx_HAL_Driver/Inc/stm32g4xx_ll_comp.h **** /** @defgroup COMP_LL_EM_WRITE_READ Common write and read registers macro
 244:Drivers/STM32G4xx_HAL_Driver/Inc/stm32g4xx_ll_comp.h ****   * @{
 245:Drivers/STM32G4xx_HAL_Driver/Inc/stm32g4xx_ll_comp.h ****   */
 246:Drivers/STM32G4xx_HAL_Driver/Inc/stm32g4xx_ll_comp.h **** 
 247:Drivers/STM32G4xx_HAL_Driver/Inc/stm32g4xx_ll_comp.h **** /**
 248:Drivers/STM32G4xx_HAL_Driver/Inc/stm32g4xx_ll_comp.h ****   * @brief  Write a value in COMP register
 249:Drivers/STM32G4xx_HAL_Driver/Inc/stm32g4xx_ll_comp.h ****   * @param  __INSTANCE__ comparator instance
 250:Drivers/STM32G4xx_HAL_Driver/Inc/stm32g4xx_ll_comp.h ****   * @param  __REG__ Register to be written
 251:Drivers/STM32G4xx_HAL_Driver/Inc/stm32g4xx_ll_comp.h ****   * @param  __VALUE__ Value to be written in the register
 252:Drivers/STM32G4xx_HAL_Driver/Inc/stm32g4xx_ll_comp.h ****   * @retval None
 253:Drivers/STM32G4xx_HAL_Driver/Inc/stm32g4xx_ll_comp.h ****   */
 254:Drivers/STM32G4xx_HAL_Driver/Inc/stm32g4xx_ll_comp.h **** #define LL_COMP_WriteReg(__INSTANCE__, __REG__, __VALUE__) WRITE_REG((__INSTANCE__)->__REG__, (__VA
 255:Drivers/STM32G4xx_HAL_Driver/Inc/stm32g4xx_ll_comp.h **** 
 256:Drivers/STM32G4xx_HAL_Driver/Inc/stm32g4xx_ll_comp.h **** /**
 257:Drivers/STM32G4xx_HAL_Driver/Inc/stm32g4xx_ll_comp.h ****   * @brief  Read a value in COMP register
 258:Drivers/STM32G4xx_HAL_Driver/Inc/stm32g4xx_ll_comp.h ****   * @param  __INSTANCE__ comparator instance
 259:Drivers/STM32G4xx_HAL_Driver/Inc/stm32g4xx_ll_comp.h ****   * @param  __REG__ Register to be read
 260:Drivers/STM32G4xx_HAL_Driver/Inc/stm32g4xx_ll_comp.h ****   * @retval Register value
 261:Drivers/STM32G4xx_HAL_Driver/Inc/stm32g4xx_ll_comp.h ****   */
 262:Drivers/STM32G4xx_HAL_Driver/Inc/stm32g4xx_ll_comp.h **** #define LL_COMP_ReadReg(__INSTANCE__, __REG__) READ_REG((__INSTANCE__)->__REG__)
 263:Drivers/STM32G4xx_HAL_Driver/Inc/stm32g4xx_ll_comp.h **** /**
 264:Drivers/STM32G4xx_HAL_Driver/Inc/stm32g4xx_ll_comp.h ****   * @}
 265:Drivers/STM32G4xx_HAL_Driver/Inc/stm32g4xx_ll_comp.h ****   */
 266:Drivers/STM32G4xx_HAL_Driver/Inc/stm32g4xx_ll_comp.h **** 
 267:Drivers/STM32G4xx_HAL_Driver/Inc/stm32g4xx_ll_comp.h **** /** @defgroup COMP_LL_EM_HELPER_MACRO COMP helper macro
 268:Drivers/STM32G4xx_HAL_Driver/Inc/stm32g4xx_ll_comp.h ****   * @{
 269:Drivers/STM32G4xx_HAL_Driver/Inc/stm32g4xx_ll_comp.h ****   */
ARM GAS  D:\apps\VSCode\data\tmp\ccjbw8Rj.s 			page 7


 270:Drivers/STM32G4xx_HAL_Driver/Inc/stm32g4xx_ll_comp.h **** 
 271:Drivers/STM32G4xx_HAL_Driver/Inc/stm32g4xx_ll_comp.h **** /**
 272:Drivers/STM32G4xx_HAL_Driver/Inc/stm32g4xx_ll_comp.h ****   * @}
 273:Drivers/STM32G4xx_HAL_Driver/Inc/stm32g4xx_ll_comp.h ****   */
 274:Drivers/STM32G4xx_HAL_Driver/Inc/stm32g4xx_ll_comp.h **** 
 275:Drivers/STM32G4xx_HAL_Driver/Inc/stm32g4xx_ll_comp.h **** /**
 276:Drivers/STM32G4xx_HAL_Driver/Inc/stm32g4xx_ll_comp.h ****   * @}
 277:Drivers/STM32G4xx_HAL_Driver/Inc/stm32g4xx_ll_comp.h ****   */
 278:Drivers/STM32G4xx_HAL_Driver/Inc/stm32g4xx_ll_comp.h **** 
 279:Drivers/STM32G4xx_HAL_Driver/Inc/stm32g4xx_ll_comp.h **** /* Exported functions --------------------------------------------------------*/
 280:Drivers/STM32G4xx_HAL_Driver/Inc/stm32g4xx_ll_comp.h **** /** @defgroup COMP_LL_Exported_Functions COMP Exported Functions
 281:Drivers/STM32G4xx_HAL_Driver/Inc/stm32g4xx_ll_comp.h ****   * @{
 282:Drivers/STM32G4xx_HAL_Driver/Inc/stm32g4xx_ll_comp.h ****   */
 283:Drivers/STM32G4xx_HAL_Driver/Inc/stm32g4xx_ll_comp.h **** 
 284:Drivers/STM32G4xx_HAL_Driver/Inc/stm32g4xx_ll_comp.h **** /** @defgroup COMP_LL_EF_Configuration_comparator_inputs Configuration of comparator inputs
 285:Drivers/STM32G4xx_HAL_Driver/Inc/stm32g4xx_ll_comp.h ****   * @{
 286:Drivers/STM32G4xx_HAL_Driver/Inc/stm32g4xx_ll_comp.h ****   */
 287:Drivers/STM32G4xx_HAL_Driver/Inc/stm32g4xx_ll_comp.h **** 
 288:Drivers/STM32G4xx_HAL_Driver/Inc/stm32g4xx_ll_comp.h **** /**
 289:Drivers/STM32G4xx_HAL_Driver/Inc/stm32g4xx_ll_comp.h ****   * @brief  Set comparator inputs minus (inverting) and plus (non-inverting).
 290:Drivers/STM32G4xx_HAL_Driver/Inc/stm32g4xx_ll_comp.h ****   * @note   In case of comparator input selected to be connected to IO:
 291:Drivers/STM32G4xx_HAL_Driver/Inc/stm32g4xx_ll_comp.h ****   *         GPIO pins are specific to each comparator instance.
 292:Drivers/STM32G4xx_HAL_Driver/Inc/stm32g4xx_ll_comp.h ****   *         Refer to description of parameters or to reference manual.
 293:Drivers/STM32G4xx_HAL_Driver/Inc/stm32g4xx_ll_comp.h ****   * @note   On this STM32 series, scaler bridge is configurable:
 294:Drivers/STM32G4xx_HAL_Driver/Inc/stm32g4xx_ll_comp.h ****   *         to optimize power consumption, this function enables the
 295:Drivers/STM32G4xx_HAL_Driver/Inc/stm32g4xx_ll_comp.h ****   *         voltage scaler bridge only when required
 296:Drivers/STM32G4xx_HAL_Driver/Inc/stm32g4xx_ll_comp.h ****   *         (when selecting comparator input based on VrefInt: VrefInt or
 297:Drivers/STM32G4xx_HAL_Driver/Inc/stm32g4xx_ll_comp.h ****   *         subdivision of VrefInt).
 298:Drivers/STM32G4xx_HAL_Driver/Inc/stm32g4xx_ll_comp.h ****   *         - For scaler bridge power consumption values,
 299:Drivers/STM32G4xx_HAL_Driver/Inc/stm32g4xx_ll_comp.h ****   *           refer to device datasheet, parameter "IDDA(SCALER)".
 300:Drivers/STM32G4xx_HAL_Driver/Inc/stm32g4xx_ll_comp.h ****   *         - Voltage scaler requires a delay for voltage stabilization.
 301:Drivers/STM32G4xx_HAL_Driver/Inc/stm32g4xx_ll_comp.h ****   *           Refer to device datasheet, parameter "tSTART_SCALER".
 302:Drivers/STM32G4xx_HAL_Driver/Inc/stm32g4xx_ll_comp.h ****   *         - Scaler bridge is common for all comparator instances,
 303:Drivers/STM32G4xx_HAL_Driver/Inc/stm32g4xx_ll_comp.h ****   *           therefore if at least one of the comparator instance
 304:Drivers/STM32G4xx_HAL_Driver/Inc/stm32g4xx_ll_comp.h ****   *           is requiring the scaler bridge, it remains enabled.
 305:Drivers/STM32G4xx_HAL_Driver/Inc/stm32g4xx_ll_comp.h ****   * @rmtoll CSR      INMSEL         LL_COMP_ConfigInputs\n
 306:Drivers/STM32G4xx_HAL_Driver/Inc/stm32g4xx_ll_comp.h ****   *         CSR      INPSEL         LL_COMP_ConfigInputs\n
 307:Drivers/STM32G4xx_HAL_Driver/Inc/stm32g4xx_ll_comp.h ****   *         CSR      BRGEN          LL_COMP_ConfigInputs\n
 308:Drivers/STM32G4xx_HAL_Driver/Inc/stm32g4xx_ll_comp.h ****   *         CSR      SCALEN         LL_COMP_ConfigInputs
 309:Drivers/STM32G4xx_HAL_Driver/Inc/stm32g4xx_ll_comp.h ****   * @param  COMPx Comparator instance
 310:Drivers/STM32G4xx_HAL_Driver/Inc/stm32g4xx_ll_comp.h ****   * @param  InputMinus This parameter can be one of the following values:
 311:Drivers/STM32G4xx_HAL_Driver/Inc/stm32g4xx_ll_comp.h ****   *         @arg @ref LL_COMP_INPUT_MINUS_1_4VREFINT
 312:Drivers/STM32G4xx_HAL_Driver/Inc/stm32g4xx_ll_comp.h ****   *         @arg @ref LL_COMP_INPUT_MINUS_1_2VREFINT
 313:Drivers/STM32G4xx_HAL_Driver/Inc/stm32g4xx_ll_comp.h ****   *         @arg @ref LL_COMP_INPUT_MINUS_3_4VREFINT
 314:Drivers/STM32G4xx_HAL_Driver/Inc/stm32g4xx_ll_comp.h ****   *         @arg @ref LL_COMP_INPUT_MINUS_VREFINT
 315:Drivers/STM32G4xx_HAL_Driver/Inc/stm32g4xx_ll_comp.h ****   *         @arg @ref LL_COMP_INPUT_MINUS_DAC1_CH1   (1,3,4)
 316:Drivers/STM32G4xx_HAL_Driver/Inc/stm32g4xx_ll_comp.h ****   *         @arg @ref LL_COMP_INPUT_MINUS_DAC1_CH2   (2,5)
 317:Drivers/STM32G4xx_HAL_Driver/Inc/stm32g4xx_ll_comp.h ****   *         @arg @ref LL_COMP_INPUT_MINUS_DAC2_CH1   (6,7)
 318:Drivers/STM32G4xx_HAL_Driver/Inc/stm32g4xx_ll_comp.h ****   *         @arg @ref LL_COMP_INPUT_MINUS_DAC3_CH1   (1,3)
 319:Drivers/STM32G4xx_HAL_Driver/Inc/stm32g4xx_ll_comp.h ****   *         @arg @ref LL_COMP_INPUT_MINUS_DAC3_CH2   (2,4)
 320:Drivers/STM32G4xx_HAL_Driver/Inc/stm32g4xx_ll_comp.h ****   *         @arg @ref LL_COMP_INPUT_MINUS_DAC4_CH1   (5,7)
 321:Drivers/STM32G4xx_HAL_Driver/Inc/stm32g4xx_ll_comp.h ****   *         @arg @ref LL_COMP_INPUT_MINUS_DAC4_CH2   (6)
 322:Drivers/STM32G4xx_HAL_Driver/Inc/stm32g4xx_ll_comp.h ****   *         (a,b...) Only available for COMPa, COMPb...
 323:Drivers/STM32G4xx_HAL_Driver/Inc/stm32g4xx_ll_comp.h ****   *                  For COMPx & DACx instances availability, please refer to datasheet
 324:Drivers/STM32G4xx_HAL_Driver/Inc/stm32g4xx_ll_comp.h ****   *         @arg @ref LL_COMP_INPUT_MINUS_IO1
 325:Drivers/STM32G4xx_HAL_Driver/Inc/stm32g4xx_ll_comp.h ****   *         @arg @ref LL_COMP_INPUT_MINUS_IO2
 326:Drivers/STM32G4xx_HAL_Driver/Inc/stm32g4xx_ll_comp.h ****   * @param  InputPlus This parameter can be one of the following values:
ARM GAS  D:\apps\VSCode\data\tmp\ccjbw8Rj.s 			page 8


 327:Drivers/STM32G4xx_HAL_Driver/Inc/stm32g4xx_ll_comp.h ****   *         @arg @ref LL_COMP_INPUT_PLUS_IO1
 328:Drivers/STM32G4xx_HAL_Driver/Inc/stm32g4xx_ll_comp.h ****   *         @arg @ref LL_COMP_INPUT_PLUS_IO2
 329:Drivers/STM32G4xx_HAL_Driver/Inc/stm32g4xx_ll_comp.h ****   * @retval None
 330:Drivers/STM32G4xx_HAL_Driver/Inc/stm32g4xx_ll_comp.h ****   */
 331:Drivers/STM32G4xx_HAL_Driver/Inc/stm32g4xx_ll_comp.h **** __STATIC_INLINE void LL_COMP_ConfigInputs(COMP_TypeDef *COMPx, uint32_t InputMinus, uint32_t InputP
 332:Drivers/STM32G4xx_HAL_Driver/Inc/stm32g4xx_ll_comp.h **** {
 333:Drivers/STM32G4xx_HAL_Driver/Inc/stm32g4xx_ll_comp.h ****   MODIFY_REG(COMPx->CSR,
 334:Drivers/STM32G4xx_HAL_Driver/Inc/stm32g4xx_ll_comp.h ****              COMP_CSR_INMSEL | COMP_CSR_INPSEL | COMP_CSR_SCALEN | COMP_CSR_BRGEN,
 335:Drivers/STM32G4xx_HAL_Driver/Inc/stm32g4xx_ll_comp.h ****              InputMinus | InputPlus);
 336:Drivers/STM32G4xx_HAL_Driver/Inc/stm32g4xx_ll_comp.h **** }
 337:Drivers/STM32G4xx_HAL_Driver/Inc/stm32g4xx_ll_comp.h **** 
 338:Drivers/STM32G4xx_HAL_Driver/Inc/stm32g4xx_ll_comp.h **** /**
 339:Drivers/STM32G4xx_HAL_Driver/Inc/stm32g4xx_ll_comp.h ****   * @brief  Set comparator input plus (non-inverting).
 340:Drivers/STM32G4xx_HAL_Driver/Inc/stm32g4xx_ll_comp.h ****   * @note   In case of comparator input selected to be connected to IO:
 341:Drivers/STM32G4xx_HAL_Driver/Inc/stm32g4xx_ll_comp.h ****   *         GPIO pins are specific to each comparator instance.
 342:Drivers/STM32G4xx_HAL_Driver/Inc/stm32g4xx_ll_comp.h ****   *         Refer to description of parameters or to reference manual.
 343:Drivers/STM32G4xx_HAL_Driver/Inc/stm32g4xx_ll_comp.h ****   * @rmtoll CSR      INPSEL         LL_COMP_SetInputPlus
 344:Drivers/STM32G4xx_HAL_Driver/Inc/stm32g4xx_ll_comp.h ****   * @param  COMPx Comparator instance
 345:Drivers/STM32G4xx_HAL_Driver/Inc/stm32g4xx_ll_comp.h ****   * @param  InputPlus This parameter can be one of the following values:
 346:Drivers/STM32G4xx_HAL_Driver/Inc/stm32g4xx_ll_comp.h ****   *         @arg @ref LL_COMP_INPUT_PLUS_IO1
 347:Drivers/STM32G4xx_HAL_Driver/Inc/stm32g4xx_ll_comp.h ****   *         @arg @ref LL_COMP_INPUT_PLUS_IO2
 348:Drivers/STM32G4xx_HAL_Driver/Inc/stm32g4xx_ll_comp.h ****   * @retval None
 349:Drivers/STM32G4xx_HAL_Driver/Inc/stm32g4xx_ll_comp.h ****   */
 350:Drivers/STM32G4xx_HAL_Driver/Inc/stm32g4xx_ll_comp.h **** __STATIC_INLINE void LL_COMP_SetInputPlus(COMP_TypeDef *COMPx, uint32_t InputPlus)
 351:Drivers/STM32G4xx_HAL_Driver/Inc/stm32g4xx_ll_comp.h **** {
 352:Drivers/STM32G4xx_HAL_Driver/Inc/stm32g4xx_ll_comp.h ****   MODIFY_REG(COMPx->CSR, COMP_CSR_INPSEL, InputPlus);
 353:Drivers/STM32G4xx_HAL_Driver/Inc/stm32g4xx_ll_comp.h **** }
 354:Drivers/STM32G4xx_HAL_Driver/Inc/stm32g4xx_ll_comp.h **** 
 355:Drivers/STM32G4xx_HAL_Driver/Inc/stm32g4xx_ll_comp.h **** /**
 356:Drivers/STM32G4xx_HAL_Driver/Inc/stm32g4xx_ll_comp.h ****   * @brief  Get comparator input plus (non-inverting).
 357:Drivers/STM32G4xx_HAL_Driver/Inc/stm32g4xx_ll_comp.h ****   * @note   In case of comparator input selected to be connected to IO:
 358:Drivers/STM32G4xx_HAL_Driver/Inc/stm32g4xx_ll_comp.h ****   *         GPIO pins are specific to each comparator instance.
 359:Drivers/STM32G4xx_HAL_Driver/Inc/stm32g4xx_ll_comp.h ****   *         Refer to description of parameters or to reference manual.
 360:Drivers/STM32G4xx_HAL_Driver/Inc/stm32g4xx_ll_comp.h ****   * @rmtoll CSR      INPSEL         LL_COMP_GetInputPlus
 361:Drivers/STM32G4xx_HAL_Driver/Inc/stm32g4xx_ll_comp.h ****   * @param  COMPx Comparator instance
 362:Drivers/STM32G4xx_HAL_Driver/Inc/stm32g4xx_ll_comp.h ****   * @retval Returned value can be one of the following values:
 363:Drivers/STM32G4xx_HAL_Driver/Inc/stm32g4xx_ll_comp.h ****   *         @arg @ref LL_COMP_INPUT_PLUS_IO1
 364:Drivers/STM32G4xx_HAL_Driver/Inc/stm32g4xx_ll_comp.h ****   *         @arg @ref LL_COMP_INPUT_PLUS_IO2
 365:Drivers/STM32G4xx_HAL_Driver/Inc/stm32g4xx_ll_comp.h ****   */
 366:Drivers/STM32G4xx_HAL_Driver/Inc/stm32g4xx_ll_comp.h **** __STATIC_INLINE uint32_t LL_COMP_GetInputPlus(COMP_TypeDef *COMPx)
 367:Drivers/STM32G4xx_HAL_Driver/Inc/stm32g4xx_ll_comp.h **** {
 368:Drivers/STM32G4xx_HAL_Driver/Inc/stm32g4xx_ll_comp.h ****   return (uint32_t)(READ_BIT(COMPx->CSR, COMP_CSR_INPSEL));
 369:Drivers/STM32G4xx_HAL_Driver/Inc/stm32g4xx_ll_comp.h **** }
 370:Drivers/STM32G4xx_HAL_Driver/Inc/stm32g4xx_ll_comp.h **** 
 371:Drivers/STM32G4xx_HAL_Driver/Inc/stm32g4xx_ll_comp.h **** /**
 372:Drivers/STM32G4xx_HAL_Driver/Inc/stm32g4xx_ll_comp.h ****   * @brief  Set comparator input minus (inverting).
 373:Drivers/STM32G4xx_HAL_Driver/Inc/stm32g4xx_ll_comp.h ****   * @note   In case of comparator input selected to be connected to IO:
 374:Drivers/STM32G4xx_HAL_Driver/Inc/stm32g4xx_ll_comp.h ****   *         GPIO pins are specific to each comparator instance.
 375:Drivers/STM32G4xx_HAL_Driver/Inc/stm32g4xx_ll_comp.h ****   *         Refer to description of parameters or to reference manual.
 376:Drivers/STM32G4xx_HAL_Driver/Inc/stm32g4xx_ll_comp.h ****   * @note   On this STM32 series, scaler bridge is configurable:
 377:Drivers/STM32G4xx_HAL_Driver/Inc/stm32g4xx_ll_comp.h ****   *         to optimize power consumption, this function enables the
 378:Drivers/STM32G4xx_HAL_Driver/Inc/stm32g4xx_ll_comp.h ****   *         voltage scaler bridge only when required
 379:Drivers/STM32G4xx_HAL_Driver/Inc/stm32g4xx_ll_comp.h ****   *         (when selecting comparator input based on VrefInt: VrefInt or
 380:Drivers/STM32G4xx_HAL_Driver/Inc/stm32g4xx_ll_comp.h ****   *         subdivision of VrefInt).
 381:Drivers/STM32G4xx_HAL_Driver/Inc/stm32g4xx_ll_comp.h ****   *         - For scaler bridge power consumption values,
 382:Drivers/STM32G4xx_HAL_Driver/Inc/stm32g4xx_ll_comp.h ****   *           refer to device datasheet, parameter "IDDA(SCALER)".
 383:Drivers/STM32G4xx_HAL_Driver/Inc/stm32g4xx_ll_comp.h ****   *         - Voltage scaler requires a delay for voltage stabilization.
ARM GAS  D:\apps\VSCode\data\tmp\ccjbw8Rj.s 			page 9


 384:Drivers/STM32G4xx_HAL_Driver/Inc/stm32g4xx_ll_comp.h ****   *           Refer to device datasheet, parameter "tSTART_SCALER".
 385:Drivers/STM32G4xx_HAL_Driver/Inc/stm32g4xx_ll_comp.h ****   *         - Scaler bridge is common for all comparator instances,
 386:Drivers/STM32G4xx_HAL_Driver/Inc/stm32g4xx_ll_comp.h ****   *           therefore if at least one of the comparator instance
 387:Drivers/STM32G4xx_HAL_Driver/Inc/stm32g4xx_ll_comp.h ****   *           is requiring the scaler bridge, it remains enabled.
 388:Drivers/STM32G4xx_HAL_Driver/Inc/stm32g4xx_ll_comp.h ****   * @rmtoll CSR      INMSEL         LL_COMP_SetInputMinus\n
 389:Drivers/STM32G4xx_HAL_Driver/Inc/stm32g4xx_ll_comp.h ****   *         CSR      BRGEN          LL_COMP_SetInputMinus\n
 390:Drivers/STM32G4xx_HAL_Driver/Inc/stm32g4xx_ll_comp.h ****   *         CSR      SCALEN         LL_COMP_SetInputMinus
 391:Drivers/STM32G4xx_HAL_Driver/Inc/stm32g4xx_ll_comp.h ****   * @param  COMPx Comparator instance
 392:Drivers/STM32G4xx_HAL_Driver/Inc/stm32g4xx_ll_comp.h ****   * @param  InputMinus This parameter can be one of the following values:
 393:Drivers/STM32G4xx_HAL_Driver/Inc/stm32g4xx_ll_comp.h ****   *         @arg @ref LL_COMP_INPUT_MINUS_1_4VREFINT
 394:Drivers/STM32G4xx_HAL_Driver/Inc/stm32g4xx_ll_comp.h ****   *         @arg @ref LL_COMP_INPUT_MINUS_1_2VREFINT
 395:Drivers/STM32G4xx_HAL_Driver/Inc/stm32g4xx_ll_comp.h ****   *         @arg @ref LL_COMP_INPUT_MINUS_3_4VREFINT
 396:Drivers/STM32G4xx_HAL_Driver/Inc/stm32g4xx_ll_comp.h ****   *         @arg @ref LL_COMP_INPUT_MINUS_VREFINT
 397:Drivers/STM32G4xx_HAL_Driver/Inc/stm32g4xx_ll_comp.h ****   *         @arg @ref LL_COMP_INPUT_MINUS_DAC1_CH1   (1,3,4)
 398:Drivers/STM32G4xx_HAL_Driver/Inc/stm32g4xx_ll_comp.h ****   *         @arg @ref LL_COMP_INPUT_MINUS_DAC1_CH2   (2,5)
 399:Drivers/STM32G4xx_HAL_Driver/Inc/stm32g4xx_ll_comp.h ****   *         @arg @ref LL_COMP_INPUT_MINUS_DAC2_CH1   (6,7)
 400:Drivers/STM32G4xx_HAL_Driver/Inc/stm32g4xx_ll_comp.h ****   *         @arg @ref LL_COMP_INPUT_MINUS_DAC3_CH1   (1,3)
 401:Drivers/STM32G4xx_HAL_Driver/Inc/stm32g4xx_ll_comp.h ****   *         @arg @ref LL_COMP_INPUT_MINUS_DAC3_CH2   (2,4)
 402:Drivers/STM32G4xx_HAL_Driver/Inc/stm32g4xx_ll_comp.h ****   *         @arg @ref LL_COMP_INPUT_MINUS_DAC4_CH1   (5,7)
 403:Drivers/STM32G4xx_HAL_Driver/Inc/stm32g4xx_ll_comp.h ****   *         @arg @ref LL_COMP_INPUT_MINUS_DAC4_CH2   (6)
 404:Drivers/STM32G4xx_HAL_Driver/Inc/stm32g4xx_ll_comp.h ****   *         (a,b...) Only available for COMPa, COMPb...
 405:Drivers/STM32G4xx_HAL_Driver/Inc/stm32g4xx_ll_comp.h ****   *                  For COMPx & DACx instances availability, please refer to datasheet
 406:Drivers/STM32G4xx_HAL_Driver/Inc/stm32g4xx_ll_comp.h ****   *         @arg @ref LL_COMP_INPUT_MINUS_IO1
 407:Drivers/STM32G4xx_HAL_Driver/Inc/stm32g4xx_ll_comp.h ****   *         @arg @ref LL_COMP_INPUT_MINUS_IO2
 408:Drivers/STM32G4xx_HAL_Driver/Inc/stm32g4xx_ll_comp.h ****   * @retval None
 409:Drivers/STM32G4xx_HAL_Driver/Inc/stm32g4xx_ll_comp.h ****   */
 410:Drivers/STM32G4xx_HAL_Driver/Inc/stm32g4xx_ll_comp.h **** __STATIC_INLINE void LL_COMP_SetInputMinus(COMP_TypeDef *COMPx, uint32_t InputMinus)
 411:Drivers/STM32G4xx_HAL_Driver/Inc/stm32g4xx_ll_comp.h **** {
 412:Drivers/STM32G4xx_HAL_Driver/Inc/stm32g4xx_ll_comp.h ****   MODIFY_REG(COMPx->CSR, COMP_CSR_INMSEL | COMP_CSR_SCALEN | COMP_CSR_BRGEN, InputMinus);
 413:Drivers/STM32G4xx_HAL_Driver/Inc/stm32g4xx_ll_comp.h **** }
 414:Drivers/STM32G4xx_HAL_Driver/Inc/stm32g4xx_ll_comp.h **** 
 415:Drivers/STM32G4xx_HAL_Driver/Inc/stm32g4xx_ll_comp.h **** /**
 416:Drivers/STM32G4xx_HAL_Driver/Inc/stm32g4xx_ll_comp.h ****   * @brief  Get comparator input minus (inverting).
 417:Drivers/STM32G4xx_HAL_Driver/Inc/stm32g4xx_ll_comp.h ****   * @note   In case of comparator input selected to be connected to IO:
 418:Drivers/STM32G4xx_HAL_Driver/Inc/stm32g4xx_ll_comp.h ****   *         GPIO pins are specific to each comparator instance.
 419:Drivers/STM32G4xx_HAL_Driver/Inc/stm32g4xx_ll_comp.h ****   *         Refer to description of parameters or to reference manual.
 420:Drivers/STM32G4xx_HAL_Driver/Inc/stm32g4xx_ll_comp.h ****   * @rmtoll CSR      INMSEL         LL_COMP_GetInputMinus\n
 421:Drivers/STM32G4xx_HAL_Driver/Inc/stm32g4xx_ll_comp.h ****   *         CSR      BRGEN          LL_COMP_GetInputMinus\n
 422:Drivers/STM32G4xx_HAL_Driver/Inc/stm32g4xx_ll_comp.h ****   *         CSR      SCALEN         LL_COMP_GetInputMinus
 423:Drivers/STM32G4xx_HAL_Driver/Inc/stm32g4xx_ll_comp.h ****   * @param  COMPx Comparator instance
 424:Drivers/STM32G4xx_HAL_Driver/Inc/stm32g4xx_ll_comp.h ****   * @retval Returned value can be one of the following values:
 425:Drivers/STM32G4xx_HAL_Driver/Inc/stm32g4xx_ll_comp.h ****   *         @arg @ref LL_COMP_INPUT_MINUS_1_4VREFINT
 426:Drivers/STM32G4xx_HAL_Driver/Inc/stm32g4xx_ll_comp.h ****   *         @arg @ref LL_COMP_INPUT_MINUS_1_2VREFINT
 427:Drivers/STM32G4xx_HAL_Driver/Inc/stm32g4xx_ll_comp.h ****   *         @arg @ref LL_COMP_INPUT_MINUS_3_4VREFINT
 428:Drivers/STM32G4xx_HAL_Driver/Inc/stm32g4xx_ll_comp.h ****   *         @arg @ref LL_COMP_INPUT_MINUS_VREFINT
 429:Drivers/STM32G4xx_HAL_Driver/Inc/stm32g4xx_ll_comp.h ****   *         @arg @ref LL_COMP_INPUT_MINUS_DAC1_CH1   (1,3,4)
 430:Drivers/STM32G4xx_HAL_Driver/Inc/stm32g4xx_ll_comp.h ****   *         @arg @ref LL_COMP_INPUT_MINUS_DAC1_CH2   (2,5)
 431:Drivers/STM32G4xx_HAL_Driver/Inc/stm32g4xx_ll_comp.h ****   *         @arg @ref LL_COMP_INPUT_MINUS_DAC2_CH1   (6,7)
 432:Drivers/STM32G4xx_HAL_Driver/Inc/stm32g4xx_ll_comp.h ****   *         @arg @ref LL_COMP_INPUT_MINUS_DAC3_CH1   (1,3)
 433:Drivers/STM32G4xx_HAL_Driver/Inc/stm32g4xx_ll_comp.h ****   *         @arg @ref LL_COMP_INPUT_MINUS_DAC3_CH2   (2,4)
 434:Drivers/STM32G4xx_HAL_Driver/Inc/stm32g4xx_ll_comp.h ****   *         @arg @ref LL_COMP_INPUT_MINUS_DAC4_CH1   (5,7)
 435:Drivers/STM32G4xx_HAL_Driver/Inc/stm32g4xx_ll_comp.h ****   *         @arg @ref LL_COMP_INPUT_MINUS_DAC4_CH2   (6)
 436:Drivers/STM32G4xx_HAL_Driver/Inc/stm32g4xx_ll_comp.h ****   *         (a,b...) Only available for COMPa, COMPb...
 437:Drivers/STM32G4xx_HAL_Driver/Inc/stm32g4xx_ll_comp.h ****   *                  For COMPx & DACx instances availability, please refer to datasheet
 438:Drivers/STM32G4xx_HAL_Driver/Inc/stm32g4xx_ll_comp.h ****   *         @arg @ref LL_COMP_INPUT_MINUS_IO1
 439:Drivers/STM32G4xx_HAL_Driver/Inc/stm32g4xx_ll_comp.h ****   *         @arg @ref LL_COMP_INPUT_MINUS_IO2
 440:Drivers/STM32G4xx_HAL_Driver/Inc/stm32g4xx_ll_comp.h ****   */
ARM GAS  D:\apps\VSCode\data\tmp\ccjbw8Rj.s 			page 10


 441:Drivers/STM32G4xx_HAL_Driver/Inc/stm32g4xx_ll_comp.h **** __STATIC_INLINE uint32_t LL_COMP_GetInputMinus(COMP_TypeDef *COMPx)
 442:Drivers/STM32G4xx_HAL_Driver/Inc/stm32g4xx_ll_comp.h **** {
 443:Drivers/STM32G4xx_HAL_Driver/Inc/stm32g4xx_ll_comp.h ****   return (uint32_t)(READ_BIT(COMPx->CSR, COMP_CSR_INMSEL | COMP_CSR_SCALEN | COMP_CSR_BRGEN));
 444:Drivers/STM32G4xx_HAL_Driver/Inc/stm32g4xx_ll_comp.h **** }
 445:Drivers/STM32G4xx_HAL_Driver/Inc/stm32g4xx_ll_comp.h **** 
 446:Drivers/STM32G4xx_HAL_Driver/Inc/stm32g4xx_ll_comp.h **** /**
 447:Drivers/STM32G4xx_HAL_Driver/Inc/stm32g4xx_ll_comp.h ****   * @brief  Set comparator instance hysteresis mode of the input minus (inverting input).
 448:Drivers/STM32G4xx_HAL_Driver/Inc/stm32g4xx_ll_comp.h ****   * @rmtoll CSR      HYST           LL_COMP_SetInputHysteresis
 449:Drivers/STM32G4xx_HAL_Driver/Inc/stm32g4xx_ll_comp.h ****   * @param  COMPx Comparator instance
 450:Drivers/STM32G4xx_HAL_Driver/Inc/stm32g4xx_ll_comp.h ****   * @param  InputHysteresis This parameter can be one of the following values:
 451:Drivers/STM32G4xx_HAL_Driver/Inc/stm32g4xx_ll_comp.h ****   *         @arg @ref LL_COMP_HYSTERESIS_NONE
 452:Drivers/STM32G4xx_HAL_Driver/Inc/stm32g4xx_ll_comp.h ****   *         @arg @ref LL_COMP_HYSTERESIS_10MV
 453:Drivers/STM32G4xx_HAL_Driver/Inc/stm32g4xx_ll_comp.h ****   *         @arg @ref LL_COMP_HYSTERESIS_20MV
 454:Drivers/STM32G4xx_HAL_Driver/Inc/stm32g4xx_ll_comp.h ****   *         @arg @ref LL_COMP_HYSTERESIS_30MV
 455:Drivers/STM32G4xx_HAL_Driver/Inc/stm32g4xx_ll_comp.h ****   *         @arg @ref LL_COMP_HYSTERESIS_40MV
 456:Drivers/STM32G4xx_HAL_Driver/Inc/stm32g4xx_ll_comp.h ****   *         @arg @ref LL_COMP_HYSTERESIS_50MV
 457:Drivers/STM32G4xx_HAL_Driver/Inc/stm32g4xx_ll_comp.h ****   *         @arg @ref LL_COMP_HYSTERESIS_60MV
 458:Drivers/STM32G4xx_HAL_Driver/Inc/stm32g4xx_ll_comp.h ****   *         @arg @ref LL_COMP_HYSTERESIS_70MV
 459:Drivers/STM32G4xx_HAL_Driver/Inc/stm32g4xx_ll_comp.h ****   *         @arg @ref LL_COMP_HYSTERESIS_LOW
 460:Drivers/STM32G4xx_HAL_Driver/Inc/stm32g4xx_ll_comp.h ****   *         @arg @ref LL_COMP_HYSTERESIS_MEDIUM
 461:Drivers/STM32G4xx_HAL_Driver/Inc/stm32g4xx_ll_comp.h ****   *         @arg @ref LL_COMP_HYSTERESIS_HIGH
 462:Drivers/STM32G4xx_HAL_Driver/Inc/stm32g4xx_ll_comp.h ****   * @retval None
 463:Drivers/STM32G4xx_HAL_Driver/Inc/stm32g4xx_ll_comp.h ****   */
 464:Drivers/STM32G4xx_HAL_Driver/Inc/stm32g4xx_ll_comp.h **** __STATIC_INLINE void LL_COMP_SetInputHysteresis(COMP_TypeDef *COMPx, uint32_t InputHysteresis)
 465:Drivers/STM32G4xx_HAL_Driver/Inc/stm32g4xx_ll_comp.h **** {
 466:Drivers/STM32G4xx_HAL_Driver/Inc/stm32g4xx_ll_comp.h ****   MODIFY_REG(COMPx->CSR, COMP_CSR_HYST, InputHysteresis);
 467:Drivers/STM32G4xx_HAL_Driver/Inc/stm32g4xx_ll_comp.h **** }
 468:Drivers/STM32G4xx_HAL_Driver/Inc/stm32g4xx_ll_comp.h **** 
 469:Drivers/STM32G4xx_HAL_Driver/Inc/stm32g4xx_ll_comp.h **** /**
 470:Drivers/STM32G4xx_HAL_Driver/Inc/stm32g4xx_ll_comp.h ****   * @brief  Get comparator instance hysteresis mode of the minus (inverting) input.
 471:Drivers/STM32G4xx_HAL_Driver/Inc/stm32g4xx_ll_comp.h ****   * @rmtoll CSR      HYST           LL_COMP_GetInputHysteresis
 472:Drivers/STM32G4xx_HAL_Driver/Inc/stm32g4xx_ll_comp.h ****   * @param  COMPx Comparator instance
 473:Drivers/STM32G4xx_HAL_Driver/Inc/stm32g4xx_ll_comp.h ****   * @retval Returned value can be one of the following values:
 474:Drivers/STM32G4xx_HAL_Driver/Inc/stm32g4xx_ll_comp.h ****   *         @arg @ref LL_COMP_HYSTERESIS_NONE
 475:Drivers/STM32G4xx_HAL_Driver/Inc/stm32g4xx_ll_comp.h ****   *         @arg @ref LL_COMP_HYSTERESIS_10MV
 476:Drivers/STM32G4xx_HAL_Driver/Inc/stm32g4xx_ll_comp.h ****   *         @arg @ref LL_COMP_HYSTERESIS_20MV
 477:Drivers/STM32G4xx_HAL_Driver/Inc/stm32g4xx_ll_comp.h ****   *         @arg @ref LL_COMP_HYSTERESIS_30MV
 478:Drivers/STM32G4xx_HAL_Driver/Inc/stm32g4xx_ll_comp.h ****   *         @arg @ref LL_COMP_HYSTERESIS_40MV
 479:Drivers/STM32G4xx_HAL_Driver/Inc/stm32g4xx_ll_comp.h ****   *         @arg @ref LL_COMP_HYSTERESIS_50MV
 480:Drivers/STM32G4xx_HAL_Driver/Inc/stm32g4xx_ll_comp.h ****   *         @arg @ref LL_COMP_HYSTERESIS_60MV
 481:Drivers/STM32G4xx_HAL_Driver/Inc/stm32g4xx_ll_comp.h ****   *         @arg @ref LL_COMP_HYSTERESIS_70MV
 482:Drivers/STM32G4xx_HAL_Driver/Inc/stm32g4xx_ll_comp.h ****   */
 483:Drivers/STM32G4xx_HAL_Driver/Inc/stm32g4xx_ll_comp.h **** __STATIC_INLINE uint32_t LL_COMP_GetInputHysteresis(COMP_TypeDef *COMPx)
 484:Drivers/STM32G4xx_HAL_Driver/Inc/stm32g4xx_ll_comp.h **** {
 485:Drivers/STM32G4xx_HAL_Driver/Inc/stm32g4xx_ll_comp.h ****   return (uint32_t)(READ_BIT(COMPx->CSR, COMP_CSR_HYST));
 486:Drivers/STM32G4xx_HAL_Driver/Inc/stm32g4xx_ll_comp.h **** }
 487:Drivers/STM32G4xx_HAL_Driver/Inc/stm32g4xx_ll_comp.h **** 
 488:Drivers/STM32G4xx_HAL_Driver/Inc/stm32g4xx_ll_comp.h **** /**
 489:Drivers/STM32G4xx_HAL_Driver/Inc/stm32g4xx_ll_comp.h ****   * @}
 490:Drivers/STM32G4xx_HAL_Driver/Inc/stm32g4xx_ll_comp.h ****   */
 491:Drivers/STM32G4xx_HAL_Driver/Inc/stm32g4xx_ll_comp.h **** 
 492:Drivers/STM32G4xx_HAL_Driver/Inc/stm32g4xx_ll_comp.h **** /** @defgroup COMP_LL_EF_Configuration_comparator_output Configuration of comparator output
 493:Drivers/STM32G4xx_HAL_Driver/Inc/stm32g4xx_ll_comp.h ****   * @{
 494:Drivers/STM32G4xx_HAL_Driver/Inc/stm32g4xx_ll_comp.h ****   */
 495:Drivers/STM32G4xx_HAL_Driver/Inc/stm32g4xx_ll_comp.h **** 
 496:Drivers/STM32G4xx_HAL_Driver/Inc/stm32g4xx_ll_comp.h **** /**
 497:Drivers/STM32G4xx_HAL_Driver/Inc/stm32g4xx_ll_comp.h ****   * @brief  Set comparator instance output polarity.
ARM GAS  D:\apps\VSCode\data\tmp\ccjbw8Rj.s 			page 11


 498:Drivers/STM32G4xx_HAL_Driver/Inc/stm32g4xx_ll_comp.h ****   * @rmtoll CSR      POLARITY       LL_COMP_SetOutputPolarity
 499:Drivers/STM32G4xx_HAL_Driver/Inc/stm32g4xx_ll_comp.h ****   * @param  COMPx Comparator instance
 500:Drivers/STM32G4xx_HAL_Driver/Inc/stm32g4xx_ll_comp.h ****   * @param  OutputPolarity This parameter can be one of the following values:
 501:Drivers/STM32G4xx_HAL_Driver/Inc/stm32g4xx_ll_comp.h ****   *         @arg @ref LL_COMP_OUTPUTPOL_NONINVERTED
 502:Drivers/STM32G4xx_HAL_Driver/Inc/stm32g4xx_ll_comp.h ****   *         @arg @ref LL_COMP_OUTPUTPOL_INVERTED
 503:Drivers/STM32G4xx_HAL_Driver/Inc/stm32g4xx_ll_comp.h ****   * @retval None
 504:Drivers/STM32G4xx_HAL_Driver/Inc/stm32g4xx_ll_comp.h ****   */
 505:Drivers/STM32G4xx_HAL_Driver/Inc/stm32g4xx_ll_comp.h **** __STATIC_INLINE void LL_COMP_SetOutputPolarity(COMP_TypeDef *COMPx, uint32_t OutputPolarity)
 506:Drivers/STM32G4xx_HAL_Driver/Inc/stm32g4xx_ll_comp.h **** {
 507:Drivers/STM32G4xx_HAL_Driver/Inc/stm32g4xx_ll_comp.h ****   MODIFY_REG(COMPx->CSR, COMP_CSR_POLARITY, OutputPolarity);
 508:Drivers/STM32G4xx_HAL_Driver/Inc/stm32g4xx_ll_comp.h **** }
 509:Drivers/STM32G4xx_HAL_Driver/Inc/stm32g4xx_ll_comp.h **** 
 510:Drivers/STM32G4xx_HAL_Driver/Inc/stm32g4xx_ll_comp.h **** /**
 511:Drivers/STM32G4xx_HAL_Driver/Inc/stm32g4xx_ll_comp.h ****   * @brief  Get comparator instance output polarity.
 512:Drivers/STM32G4xx_HAL_Driver/Inc/stm32g4xx_ll_comp.h ****   * @rmtoll CSR      POLARITY       LL_COMP_GetOutputPolarity
 513:Drivers/STM32G4xx_HAL_Driver/Inc/stm32g4xx_ll_comp.h ****   * @param  COMPx Comparator instance
 514:Drivers/STM32G4xx_HAL_Driver/Inc/stm32g4xx_ll_comp.h ****   * @retval Returned value can be one of the following values:
 515:Drivers/STM32G4xx_HAL_Driver/Inc/stm32g4xx_ll_comp.h ****   *         @arg @ref LL_COMP_OUTPUTPOL_NONINVERTED
 516:Drivers/STM32G4xx_HAL_Driver/Inc/stm32g4xx_ll_comp.h ****   *         @arg @ref LL_COMP_OUTPUTPOL_INVERTED
 517:Drivers/STM32G4xx_HAL_Driver/Inc/stm32g4xx_ll_comp.h ****   */
 518:Drivers/STM32G4xx_HAL_Driver/Inc/stm32g4xx_ll_comp.h **** __STATIC_INLINE uint32_t LL_COMP_GetOutputPolarity(COMP_TypeDef *COMPx)
 519:Drivers/STM32G4xx_HAL_Driver/Inc/stm32g4xx_ll_comp.h **** {
 520:Drivers/STM32G4xx_HAL_Driver/Inc/stm32g4xx_ll_comp.h ****   return (uint32_t)(READ_BIT(COMPx->CSR, COMP_CSR_POLARITY));
 521:Drivers/STM32G4xx_HAL_Driver/Inc/stm32g4xx_ll_comp.h **** }
 522:Drivers/STM32G4xx_HAL_Driver/Inc/stm32g4xx_ll_comp.h **** 
 523:Drivers/STM32G4xx_HAL_Driver/Inc/stm32g4xx_ll_comp.h **** /**
 524:Drivers/STM32G4xx_HAL_Driver/Inc/stm32g4xx_ll_comp.h ****   * @brief  Set comparator instance blanking source.
 525:Drivers/STM32G4xx_HAL_Driver/Inc/stm32g4xx_ll_comp.h ****   * @note   Blanking source may be specific to each comparator instance.
 526:Drivers/STM32G4xx_HAL_Driver/Inc/stm32g4xx_ll_comp.h ****   *         Refer to description of parameters or to reference manual.
 527:Drivers/STM32G4xx_HAL_Driver/Inc/stm32g4xx_ll_comp.h ****   * @note   Availability of parameters of blanking source from timer
 528:Drivers/STM32G4xx_HAL_Driver/Inc/stm32g4xx_ll_comp.h ****   *         depends on timers availability on the selected device.
 529:Drivers/STM32G4xx_HAL_Driver/Inc/stm32g4xx_ll_comp.h ****   * @rmtoll CSR      BLANKING       LL_COMP_SetOutputBlankingSource
 530:Drivers/STM32G4xx_HAL_Driver/Inc/stm32g4xx_ll_comp.h ****   * @param  COMPx Comparator instance
 531:Drivers/STM32G4xx_HAL_Driver/Inc/stm32g4xx_ll_comp.h ****   * @param  BlankingSource This parameter can be one of the following values:
 532:Drivers/STM32G4xx_HAL_Driver/Inc/stm32g4xx_ll_comp.h ****   *         @arg @ref LL_COMP_BLANKINGSRC_NONE
 533:Drivers/STM32G4xx_HAL_Driver/Inc/stm32g4xx_ll_comp.h ****   *         @arg @ref LL_COMP_BLANKINGSRC_TIM1_OC5_COMP1
 534:Drivers/STM32G4xx_HAL_Driver/Inc/stm32g4xx_ll_comp.h ****   *         @arg @ref LL_COMP_BLANKINGSRC_TIM1_OC5_COMP2
 535:Drivers/STM32G4xx_HAL_Driver/Inc/stm32g4xx_ll_comp.h ****   *         @arg @ref LL_COMP_BLANKINGSRC_TIM1_OC5_COMP3
 536:Drivers/STM32G4xx_HAL_Driver/Inc/stm32g4xx_ll_comp.h ****   *         @arg @ref LL_COMP_BLANKINGSRC_TIM1_OC5_COMP4
 537:Drivers/STM32G4xx_HAL_Driver/Inc/stm32g4xx_ll_comp.h ****   *         @arg @ref LL_COMP_BLANKINGSRC_TIM1_OC5_COMP5
 538:Drivers/STM32G4xx_HAL_Driver/Inc/stm32g4xx_ll_comp.h ****   *         @arg @ref LL_COMP_BLANKINGSRC_TIM1_OC5_COMP6
 539:Drivers/STM32G4xx_HAL_Driver/Inc/stm32g4xx_ll_comp.h ****   *         @arg @ref LL_COMP_BLANKINGSRC_TIM1_OC5_COMP7
 540:Drivers/STM32G4xx_HAL_Driver/Inc/stm32g4xx_ll_comp.h ****   *         @arg @ref LL_COMP_BLANKINGSRC_TIM2_OC3_COMP1
 541:Drivers/STM32G4xx_HAL_Driver/Inc/stm32g4xx_ll_comp.h ****   *         @arg @ref LL_COMP_BLANKINGSRC_TIM2_OC3_COMP2
 542:Drivers/STM32G4xx_HAL_Driver/Inc/stm32g4xx_ll_comp.h ****   *         @arg @ref LL_COMP_BLANKINGSRC_TIM2_OC3_COMP5
 543:Drivers/STM32G4xx_HAL_Driver/Inc/stm32g4xx_ll_comp.h ****   *         @arg @ref LL_COMP_BLANKINGSRC_TIM2_OC4_COMP3
 544:Drivers/STM32G4xx_HAL_Driver/Inc/stm32g4xx_ll_comp.h ****   *         @arg @ref LL_COMP_BLANKINGSRC_TIM2_OC4_COMP6
 545:Drivers/STM32G4xx_HAL_Driver/Inc/stm32g4xx_ll_comp.h ****   *         @arg @ref LL_COMP_BLANKINGSRC_TIM3_OC3_COMP1
 546:Drivers/STM32G4xx_HAL_Driver/Inc/stm32g4xx_ll_comp.h ****   *         @arg @ref LL_COMP_BLANKINGSRC_TIM3_OC3_COMP2
 547:Drivers/STM32G4xx_HAL_Driver/Inc/stm32g4xx_ll_comp.h ****   *         @arg @ref LL_COMP_BLANKINGSRC_TIM3_OC3_COMP3
 548:Drivers/STM32G4xx_HAL_Driver/Inc/stm32g4xx_ll_comp.h ****   *         @arg @ref LL_COMP_BLANKINGSRC_TIM3_OC3_COMP5
 549:Drivers/STM32G4xx_HAL_Driver/Inc/stm32g4xx_ll_comp.h ****   *         @arg @ref LL_COMP_BLANKINGSRC_TIM3_OC3_COMP7
 550:Drivers/STM32G4xx_HAL_Driver/Inc/stm32g4xx_ll_comp.h ****   *         @arg @ref LL_COMP_BLANKINGSRC_TIM3_OC4_COMP4
 551:Drivers/STM32G4xx_HAL_Driver/Inc/stm32g4xx_ll_comp.h ****   *         @arg @ref LL_COMP_BLANKINGSRC_TIM8_OC5_COMP1
 552:Drivers/STM32G4xx_HAL_Driver/Inc/stm32g4xx_ll_comp.h ****   *         @arg @ref LL_COMP_BLANKINGSRC_TIM8_OC5_COMP2
 553:Drivers/STM32G4xx_HAL_Driver/Inc/stm32g4xx_ll_comp.h ****   *         @arg @ref LL_COMP_BLANKINGSRC_TIM8_OC5_COMP3
 554:Drivers/STM32G4xx_HAL_Driver/Inc/stm32g4xx_ll_comp.h ****   *         @arg @ref LL_COMP_BLANKINGSRC_TIM8_OC5_COMP4
ARM GAS  D:\apps\VSCode\data\tmp\ccjbw8Rj.s 			page 12


 555:Drivers/STM32G4xx_HAL_Driver/Inc/stm32g4xx_ll_comp.h ****   *         @arg @ref LL_COMP_BLANKINGSRC_TIM8_OC5_COMP5
 556:Drivers/STM32G4xx_HAL_Driver/Inc/stm32g4xx_ll_comp.h ****   *         @arg @ref LL_COMP_BLANKINGSRC_TIM8_OC5_COMP6
 557:Drivers/STM32G4xx_HAL_Driver/Inc/stm32g4xx_ll_comp.h ****   *         @arg @ref LL_COMP_BLANKINGSRC_TIM8_OC5_COMP7
 558:Drivers/STM32G4xx_HAL_Driver/Inc/stm32g4xx_ll_comp.h ****   *         @arg @ref LL_COMP_BLANKINGSRC_TIM15_OC1_COMP4
 559:Drivers/STM32G4xx_HAL_Driver/Inc/stm32g4xx_ll_comp.h ****   *         @arg @ref LL_COMP_BLANKINGSRC_TIM15_OC2_COMP6
 560:Drivers/STM32G4xx_HAL_Driver/Inc/stm32g4xx_ll_comp.h ****   *         @arg @ref LL_COMP_BLANKINGSRC_TIM15_OC2_COMP7
 561:Drivers/STM32G4xx_HAL_Driver/Inc/stm32g4xx_ll_comp.h ****   *         @arg @ref LL_COMP_BLANKINGSRC_TIM20_OC5
 562:Drivers/STM32G4xx_HAL_Driver/Inc/stm32g4xx_ll_comp.h ****   *         @arg @ref LL_COMP_BLANKINGSRC_TIM15_OC1
 563:Drivers/STM32G4xx_HAL_Driver/Inc/stm32g4xx_ll_comp.h ****   *         @arg @ref LL_COMP_BLANKINGSRC_TIM4_OC3
 564:Drivers/STM32G4xx_HAL_Driver/Inc/stm32g4xx_ll_comp.h ****   *
 565:Drivers/STM32G4xx_HAL_Driver/Inc/stm32g4xx_ll_comp.h ****   *         On STM32G4 series, blanking sources are linked to COMP instance (except
 566:Drivers/STM32G4xx_HAL_Driver/Inc/stm32g4xx_ll_comp.h ****   *         those without COMPx suffix that are common to all instances)
 567:Drivers/STM32G4xx_HAL_Driver/Inc/stm32g4xx_ll_comp.h ****   *         Note: For COMPx & TIMx instances availability, please refer to datasheet
 568:Drivers/STM32G4xx_HAL_Driver/Inc/stm32g4xx_ll_comp.h ****   * @retval None
 569:Drivers/STM32G4xx_HAL_Driver/Inc/stm32g4xx_ll_comp.h ****   */
 570:Drivers/STM32G4xx_HAL_Driver/Inc/stm32g4xx_ll_comp.h **** __STATIC_INLINE void LL_COMP_SetOutputBlankingSource(COMP_TypeDef *COMPx, uint32_t BlankingSource)
 571:Drivers/STM32G4xx_HAL_Driver/Inc/stm32g4xx_ll_comp.h **** {
 572:Drivers/STM32G4xx_HAL_Driver/Inc/stm32g4xx_ll_comp.h ****   MODIFY_REG(COMPx->CSR, COMP_CSR_BLANKING, BlankingSource);
 573:Drivers/STM32G4xx_HAL_Driver/Inc/stm32g4xx_ll_comp.h **** }
 574:Drivers/STM32G4xx_HAL_Driver/Inc/stm32g4xx_ll_comp.h **** 
 575:Drivers/STM32G4xx_HAL_Driver/Inc/stm32g4xx_ll_comp.h **** /**
 576:Drivers/STM32G4xx_HAL_Driver/Inc/stm32g4xx_ll_comp.h ****   * @brief  Get comparator instance blanking source.
 577:Drivers/STM32G4xx_HAL_Driver/Inc/stm32g4xx_ll_comp.h ****   * @note   Availability of parameters of blanking source from timer
 578:Drivers/STM32G4xx_HAL_Driver/Inc/stm32g4xx_ll_comp.h ****   *         depends on timers availability on the selected device.
 579:Drivers/STM32G4xx_HAL_Driver/Inc/stm32g4xx_ll_comp.h ****   * @note   Blanking source may be specific to each comparator instance.
 580:Drivers/STM32G4xx_HAL_Driver/Inc/stm32g4xx_ll_comp.h ****   *         Refer to description of parameters or to reference manual.
 581:Drivers/STM32G4xx_HAL_Driver/Inc/stm32g4xx_ll_comp.h ****   * @rmtoll CSR      BLANKING       LL_COMP_GetOutputBlankingSource
 582:Drivers/STM32G4xx_HAL_Driver/Inc/stm32g4xx_ll_comp.h ****   * @param  COMPx Comparator instance
 583:Drivers/STM32G4xx_HAL_Driver/Inc/stm32g4xx_ll_comp.h ****   * @retval Returned value can be one of the following values:
 584:Drivers/STM32G4xx_HAL_Driver/Inc/stm32g4xx_ll_comp.h ****   *         @arg @ref LL_COMP_BLANKINGSRC_NONE
 585:Drivers/STM32G4xx_HAL_Driver/Inc/stm32g4xx_ll_comp.h ****   *         @arg @ref LL_COMP_BLANKINGSRC_TIM1_OC5_COMP1
 586:Drivers/STM32G4xx_HAL_Driver/Inc/stm32g4xx_ll_comp.h ****   *         @arg @ref LL_COMP_BLANKINGSRC_TIM1_OC5_COMP2
 587:Drivers/STM32G4xx_HAL_Driver/Inc/stm32g4xx_ll_comp.h ****   *         @arg @ref LL_COMP_BLANKINGSRC_TIM1_OC5_COMP3
 588:Drivers/STM32G4xx_HAL_Driver/Inc/stm32g4xx_ll_comp.h ****   *         @arg @ref LL_COMP_BLANKINGSRC_TIM1_OC5_COMP4
 589:Drivers/STM32G4xx_HAL_Driver/Inc/stm32g4xx_ll_comp.h ****   *         @arg @ref LL_COMP_BLANKINGSRC_TIM1_OC5_COMP5
 590:Drivers/STM32G4xx_HAL_Driver/Inc/stm32g4xx_ll_comp.h ****   *         @arg @ref LL_COMP_BLANKINGSRC_TIM1_OC5_COMP6
 591:Drivers/STM32G4xx_HAL_Driver/Inc/stm32g4xx_ll_comp.h ****   *         @arg @ref LL_COMP_BLANKINGSRC_TIM1_OC5_COMP7
 592:Drivers/STM32G4xx_HAL_Driver/Inc/stm32g4xx_ll_comp.h ****   *         @arg @ref LL_COMP_BLANKINGSRC_TIM2_OC3_COMP1
 593:Drivers/STM32G4xx_HAL_Driver/Inc/stm32g4xx_ll_comp.h ****   *         @arg @ref LL_COMP_BLANKINGSRC_TIM2_OC3_COMP2
 594:Drivers/STM32G4xx_HAL_Driver/Inc/stm32g4xx_ll_comp.h ****   *         @arg @ref LL_COMP_BLANKINGSRC_TIM2_OC3_COMP5
 595:Drivers/STM32G4xx_HAL_Driver/Inc/stm32g4xx_ll_comp.h ****   *         @arg @ref LL_COMP_BLANKINGSRC_TIM2_OC4_COMP3
 596:Drivers/STM32G4xx_HAL_Driver/Inc/stm32g4xx_ll_comp.h ****   *         @arg @ref LL_COMP_BLANKINGSRC_TIM2_OC4_COMP6
 597:Drivers/STM32G4xx_HAL_Driver/Inc/stm32g4xx_ll_comp.h ****   *         @arg @ref LL_COMP_BLANKINGSRC_TIM3_OC3_COMP1
 598:Drivers/STM32G4xx_HAL_Driver/Inc/stm32g4xx_ll_comp.h ****   *         @arg @ref LL_COMP_BLANKINGSRC_TIM3_OC3_COMP2
 599:Drivers/STM32G4xx_HAL_Driver/Inc/stm32g4xx_ll_comp.h ****   *         @arg @ref LL_COMP_BLANKINGSRC_TIM3_OC3_COMP3
 600:Drivers/STM32G4xx_HAL_Driver/Inc/stm32g4xx_ll_comp.h ****   *         @arg @ref LL_COMP_BLANKINGSRC_TIM3_OC3_COMP5
 601:Drivers/STM32G4xx_HAL_Driver/Inc/stm32g4xx_ll_comp.h ****   *         @arg @ref LL_COMP_BLANKINGSRC_TIM3_OC3_COMP7
 602:Drivers/STM32G4xx_HAL_Driver/Inc/stm32g4xx_ll_comp.h ****   *         @arg @ref LL_COMP_BLANKINGSRC_TIM3_OC4_COMP4
 603:Drivers/STM32G4xx_HAL_Driver/Inc/stm32g4xx_ll_comp.h ****   *         @arg @ref LL_COMP_BLANKINGSRC_TIM8_OC5_COMP1
 604:Drivers/STM32G4xx_HAL_Driver/Inc/stm32g4xx_ll_comp.h ****   *         @arg @ref LL_COMP_BLANKINGSRC_TIM8_OC5_COMP2
 605:Drivers/STM32G4xx_HAL_Driver/Inc/stm32g4xx_ll_comp.h ****   *         @arg @ref LL_COMP_BLANKINGSRC_TIM8_OC5_COMP3
 606:Drivers/STM32G4xx_HAL_Driver/Inc/stm32g4xx_ll_comp.h ****   *         @arg @ref LL_COMP_BLANKINGSRC_TIM8_OC5_COMP4
 607:Drivers/STM32G4xx_HAL_Driver/Inc/stm32g4xx_ll_comp.h ****   *         @arg @ref LL_COMP_BLANKINGSRC_TIM8_OC5_COMP5
 608:Drivers/STM32G4xx_HAL_Driver/Inc/stm32g4xx_ll_comp.h ****   *         @arg @ref LL_COMP_BLANKINGSRC_TIM8_OC5_COMP6
 609:Drivers/STM32G4xx_HAL_Driver/Inc/stm32g4xx_ll_comp.h ****   *         @arg @ref LL_COMP_BLANKINGSRC_TIM8_OC5_COMP7
 610:Drivers/STM32G4xx_HAL_Driver/Inc/stm32g4xx_ll_comp.h ****   *         @arg @ref LL_COMP_BLANKINGSRC_TIM15_OC1_COMP4
 611:Drivers/STM32G4xx_HAL_Driver/Inc/stm32g4xx_ll_comp.h ****   *         @arg @ref LL_COMP_BLANKINGSRC_TIM15_OC2_COMP6
ARM GAS  D:\apps\VSCode\data\tmp\ccjbw8Rj.s 			page 13


 612:Drivers/STM32G4xx_HAL_Driver/Inc/stm32g4xx_ll_comp.h ****   *         @arg @ref LL_COMP_BLANKINGSRC_TIM15_OC2_COMP7
 613:Drivers/STM32G4xx_HAL_Driver/Inc/stm32g4xx_ll_comp.h ****   *         @arg @ref LL_COMP_BLANKINGSRC_TIM20_OC5
 614:Drivers/STM32G4xx_HAL_Driver/Inc/stm32g4xx_ll_comp.h ****   *         @arg @ref LL_COMP_BLANKINGSRC_TIM15_OC1
 615:Drivers/STM32G4xx_HAL_Driver/Inc/stm32g4xx_ll_comp.h ****   *         @arg @ref LL_COMP_BLANKINGSRC_TIM4_OC3
 616:Drivers/STM32G4xx_HAL_Driver/Inc/stm32g4xx_ll_comp.h ****   *
 617:Drivers/STM32G4xx_HAL_Driver/Inc/stm32g4xx_ll_comp.h ****   *         On STM32G4 series, blanking sources are linked to COMP instance (except
 618:Drivers/STM32G4xx_HAL_Driver/Inc/stm32g4xx_ll_comp.h ****   *         those without COMPx suffix that are common to all instances)
 619:Drivers/STM32G4xx_HAL_Driver/Inc/stm32g4xx_ll_comp.h ****   *         Note: For COMPx & TIMx instances availability, please refer to datasheet
 620:Drivers/STM32G4xx_HAL_Driver/Inc/stm32g4xx_ll_comp.h ****   */
 621:Drivers/STM32G4xx_HAL_Driver/Inc/stm32g4xx_ll_comp.h **** __STATIC_INLINE uint32_t LL_COMP_GetOutputBlankingSource(COMP_TypeDef *COMPx)
 622:Drivers/STM32G4xx_HAL_Driver/Inc/stm32g4xx_ll_comp.h **** {
 623:Drivers/STM32G4xx_HAL_Driver/Inc/stm32g4xx_ll_comp.h ****   return (uint32_t)(READ_BIT(COMPx->CSR, COMP_CSR_BLANKING));
 624:Drivers/STM32G4xx_HAL_Driver/Inc/stm32g4xx_ll_comp.h **** }
 625:Drivers/STM32G4xx_HAL_Driver/Inc/stm32g4xx_ll_comp.h **** 
 626:Drivers/STM32G4xx_HAL_Driver/Inc/stm32g4xx_ll_comp.h **** /**
 627:Drivers/STM32G4xx_HAL_Driver/Inc/stm32g4xx_ll_comp.h ****   * @}
 628:Drivers/STM32G4xx_HAL_Driver/Inc/stm32g4xx_ll_comp.h ****   */
 629:Drivers/STM32G4xx_HAL_Driver/Inc/stm32g4xx_ll_comp.h **** 
 630:Drivers/STM32G4xx_HAL_Driver/Inc/stm32g4xx_ll_comp.h **** /** @defgroup COMP_LL_EF_Operation Operation on comparator instance
 631:Drivers/STM32G4xx_HAL_Driver/Inc/stm32g4xx_ll_comp.h ****   * @{
 632:Drivers/STM32G4xx_HAL_Driver/Inc/stm32g4xx_ll_comp.h ****   */
 633:Drivers/STM32G4xx_HAL_Driver/Inc/stm32g4xx_ll_comp.h **** 
 634:Drivers/STM32G4xx_HAL_Driver/Inc/stm32g4xx_ll_comp.h **** /**
 635:Drivers/STM32G4xx_HAL_Driver/Inc/stm32g4xx_ll_comp.h ****   * @brief  Enable comparator instance.
 636:Drivers/STM32G4xx_HAL_Driver/Inc/stm32g4xx_ll_comp.h ****   * @note   After enable from off state, comparator requires a delay
 637:Drivers/STM32G4xx_HAL_Driver/Inc/stm32g4xx_ll_comp.h ****   *         to reach reach propagation delay specification.
 638:Drivers/STM32G4xx_HAL_Driver/Inc/stm32g4xx_ll_comp.h ****   *         Refer to device datasheet, parameter "tSTART".
 639:Drivers/STM32G4xx_HAL_Driver/Inc/stm32g4xx_ll_comp.h ****   * @rmtoll CSR      EN             LL_COMP_Enable
 640:Drivers/STM32G4xx_HAL_Driver/Inc/stm32g4xx_ll_comp.h ****   * @param  COMPx Comparator instance
 641:Drivers/STM32G4xx_HAL_Driver/Inc/stm32g4xx_ll_comp.h ****   * @retval None
 642:Drivers/STM32G4xx_HAL_Driver/Inc/stm32g4xx_ll_comp.h ****   */
 643:Drivers/STM32G4xx_HAL_Driver/Inc/stm32g4xx_ll_comp.h **** __STATIC_INLINE void LL_COMP_Enable(COMP_TypeDef *COMPx)
 644:Drivers/STM32G4xx_HAL_Driver/Inc/stm32g4xx_ll_comp.h **** {
 645:Drivers/STM32G4xx_HAL_Driver/Inc/stm32g4xx_ll_comp.h ****   SET_BIT(COMPx->CSR, COMP_CSR_EN);
  48              		.loc 2 645 3 view .LVU3
  49 0004 144C     		ldr	r4, .L10
  50              	.LBE33:
  51              	.LBE32:
  52              	.LBB36:
  53              	.LBB37:
  54 0006 1548     		ldr	r0, .L10+4
  55              	.LBE37:
  56              	.LBE36:
  57              	.LBB40:
  58              	.LBB41:
  59 0008 1549     		ldr	r1, .L10+8
  60              	.LBE41:
  61              	.LBE40:
  27:Src/comp.c    ****   
  28:Src/comp.c    ****   /* Enable comparator */
  29:Src/comp.c    ****   LL_COMP_Enable(COMP1);
  30:Src/comp.c    ****   LL_COMP_Enable(COMP4);
  31:Src/comp.c    ****   LL_COMP_Enable(COMP6);
  32:Src/comp.c    ****   
  33:Src/comp.c    ****   /* Delay for comparator startup time.                                       */
  34:Src/comp.c    ****   /* Compute number of CPU cycles to wait for, from delay in us.              */
  35:Src/comp.c    ****   /* Note: Variable divided by 2 to compensate partially                      */
ARM GAS  D:\apps\VSCode\data\tmp\ccjbw8Rj.s 			page 14


  36:Src/comp.c    ****   /*       CPU processing cycles (depends on compilation optimization).       */
  37:Src/comp.c    ****   /* Note: If system core clock frequency is below 200kHz, wait time          */
  38:Src/comp.c    ****   /*       is only a few CPU processing cycles.                               */
  39:Src/comp.c    ****   wait_loop_index = ((LL_COMP_DELAY_STARTUP_US * (SystemCoreClock / (100000 * 2))) / 10);
  62              		.loc 1 39 67 view .LVU4
  63 000a 164D     		ldr	r5, .L10+12
  26:Src/comp.c    ****   
  64              		.loc 1 26 17 view .LVU5
  65 000c 0023     		movs	r3, #0
  66 000e 0193     		str	r3, [sp, #4]
  29:Src/comp.c    ****   LL_COMP_Enable(COMP4);
  67              		.loc 1 29 3 is_stmt 1 view .LVU6
  68              	.LVL0:
  69              	.LBB43:
  70              	.LBI32:
 643:Drivers/STM32G4xx_HAL_Driver/Inc/stm32g4xx_ll_comp.h **** {
  71              		.loc 2 643 22 view .LVU7
  72              	.LBB34:
  73              		.loc 2 645 3 view .LVU8
  74 0010 2268     		ldr	r2, [r4]
  75              	.LBE34:
  76              	.LBE43:
  77              		.loc 1 39 67 is_stmt 0 view .LVU9
  78 0012 154B     		ldr	r3, .L10+16
  79              	.LBB44:
  80              	.LBB35:
  81              		.loc 2 645 3 view .LVU10
  82 0014 42F00102 		orr	r2, r2, #1
  83 0018 2260     		str	r2, [r4]
  84              	.LVL1:
  85              		.loc 2 645 3 view .LVU11
  86              	.LBE35:
  87              	.LBE44:
  30:Src/comp.c    ****   LL_COMP_Enable(COMP6);
  88              		.loc 1 30 3 is_stmt 1 view .LVU12
  89              	.LBB45:
  90              	.LBI36:
 643:Drivers/STM32G4xx_HAL_Driver/Inc/stm32g4xx_ll_comp.h **** {
  91              		.loc 2 643 22 view .LVU13
  92              	.LBB38:
  93              		.loc 2 645 3 view .LVU14
  94 001a 0268     		ldr	r2, [r0]
  95              	.LBE38:
  96              	.LBE45:
  97              		.loc 1 39 84 is_stmt 0 view .LVU15
  98 001c 134C     		ldr	r4, .L10+20
  99              	.LBB46:
 100              	.LBB39:
 101              		.loc 2 645 3 view .LVU16
 102 001e 42F00102 		orr	r2, r2, #1
 103 0022 0260     		str	r2, [r0]
 104              	.LVL2:
 105              		.loc 2 645 3 view .LVU17
 106              	.LBE39:
 107              	.LBE46:
  31:Src/comp.c    ****   
 108              		.loc 1 31 3 is_stmt 1 view .LVU18
ARM GAS  D:\apps\VSCode\data\tmp\ccjbw8Rj.s 			page 15


 109              	.LBB47:
 110              	.LBI40:
 643:Drivers/STM32G4xx_HAL_Driver/Inc/stm32g4xx_ll_comp.h **** {
 111              		.loc 2 643 22 view .LVU19
 112              	.LBB42:
 113              		.loc 2 645 3 view .LVU20
 114 0024 0A68     		ldr	r2, [r1]
 115 0026 42F00102 		orr	r2, r2, #1
 116 002a 0A60     		str	r2, [r1]
 117              	.LVL3:
 118              		.loc 2 645 3 is_stmt 0 view .LVU21
 119              	.LBE42:
 120              	.LBE47:
 121              		.loc 1 39 3 is_stmt 1 view .LVU22
 122              		.loc 1 39 67 is_stmt 0 view .LVU23
 123 002c 1B68     		ldr	r3, [r3]
 124 002e 9B09     		lsrs	r3, r3, #6
 125 0030 A5FB0323 		umull	r2, r3, r5, r3
 126 0034 9B09     		lsrs	r3, r3, #6
 127              		.loc 1 39 48 view .LVU24
 128 0036 03EB8303 		add	r3, r3, r3, lsl #2
 129              		.loc 1 39 84 view .LVU25
 130 003a A4FB0323 		umull	r2, r3, r4, r3
 131 003e DB08     		lsrs	r3, r3, #3
 132              		.loc 1 39 19 view .LVU26
 133 0040 0193     		str	r3, [sp, #4]
  40:Src/comp.c    ****   while(wait_loop_index != 0)
 134              		.loc 1 40 3 is_stmt 1 view .LVU27
 135              		.loc 1 40 25 is_stmt 0 view .LVU28
 136 0042 019B     		ldr	r3, [sp, #4]
 137              		.loc 1 40 8 view .LVU29
 138 0044 2BB1     		cbz	r3, .L1
 139              	.L3:
  41:Src/comp.c    ****   {
  42:Src/comp.c    ****     wait_loop_index--;
 140              		.loc 1 42 5 is_stmt 1 view .LVU30
 141              		.loc 1 42 20 is_stmt 0 view .LVU31
 142 0046 019B     		ldr	r3, [sp, #4]
 143 0048 013B     		subs	r3, r3, #1
 144 004a 0193     		str	r3, [sp, #4]
  40:Src/comp.c    ****   while(wait_loop_index != 0)
 145              		.loc 1 40 25 view .LVU32
 146 004c 019B     		ldr	r3, [sp, #4]
  40:Src/comp.c    ****   while(wait_loop_index != 0)
 147              		.loc 1 40 8 view .LVU33
 148 004e 002B     		cmp	r3, #0
 149 0050 F9D1     		bne	.L3
 150              	.L1:
  43:Src/comp.c    ****   }
  44:Src/comp.c    ****   
  45:Src/comp.c    **** }
 151              		.loc 1 45 1 view .LVU34
 152 0052 02B0     		add	sp, sp, #8
 153              	.LCFI2:
 154              		.cfi_def_cfa_offset 8
 155              		@ sp needed
 156 0054 30BC     		pop	{r4, r5}
ARM GAS  D:\apps\VSCode\data\tmp\ccjbw8Rj.s 			page 16


 157              	.LCFI3:
 158              		.cfi_restore 5
 159              		.cfi_restore 4
 160              		.cfi_def_cfa_offset 0
 161 0056 7047     		bx	lr
 162              	.L11:
 163              		.align	2
 164              	.L10:
 165 0058 00020140 		.word	1073807872
 166 005c 0C020140 		.word	1073807884
 167 0060 14020140 		.word	1073807892
 168 0064 632D3E05 		.word	87960931
 169 0068 00000000 		.word	SystemCoreClock
 170 006c CDCCCCCC 		.word	-858993459
 171              		.cfi_endproc
 172              	.LFE2126:
 174              		.section	.text.MX_COMP1_Init,"ax",%progbits
 175              		.align	1
 176              		.p2align 2,,3
 177              		.global	MX_COMP1_Init
 178              		.syntax unified
 179              		.thumb
 180              		.thumb_func
 181              		.fpu fpv4-sp-d16
 183              	MX_COMP1_Init:
 184              	.LFB2127:
  46:Src/comp.c    **** /* USER CODE END 0 */
  47:Src/comp.c    **** 
  48:Src/comp.c    **** /* COMP1 init function */
  49:Src/comp.c    **** void MX_COMP1_Init(void)
  50:Src/comp.c    **** {
 185              		.loc 1 50 1 is_stmt 1 view -0
 186              		.cfi_startproc
 187              		@ args = 0, pretend = 0, frame = 56
 188              		@ frame_needed = 0, uses_anonymous_args = 0
  51:Src/comp.c    **** 
  52:Src/comp.c    ****   /* USER CODE BEGIN COMP1_Init 0 */
  53:Src/comp.c    **** 
  54:Src/comp.c    ****   /* USER CODE END COMP1_Init 0 */
  55:Src/comp.c    **** 
  56:Src/comp.c    ****   LL_COMP_InitTypeDef COMP_InitStruct = {0};
 189              		.loc 1 56 3 view .LVU36
  50:Src/comp.c    **** 
 190              		.loc 1 50 1 is_stmt 0 view .LVU37
 191 0000 30B5     		push	{r4, r5, lr}
 192              	.LCFI4:
 193              		.cfi_def_cfa_offset 12
 194              		.cfi_offset 4, -12
 195              		.cfi_offset 5, -8
 196              		.cfi_offset 14, -4
 197              		.loc 1 56 23 view .LVU38
 198 0002 0024     		movs	r4, #0
  50:Src/comp.c    **** 
 199              		.loc 1 50 1 view .LVU39
 200 0004 8FB0     		sub	sp, sp, #60
 201              	.LCFI5:
 202              		.cfi_def_cfa_offset 72
ARM GAS  D:\apps\VSCode\data\tmp\ccjbw8Rj.s 			page 17


 203              		.loc 1 56 23 view .LVU40
 204 0006 CDE90344 		strd	r4, r4, [sp, #12]
 205 000a CDE90544 		strd	r4, r4, [sp, #20]
  57:Src/comp.c    **** 
  58:Src/comp.c    ****   LL_GPIO_InitTypeDef GPIO_InitStruct = {0};
 206              		.loc 1 58 23 view .LVU41
 207 000e CDE90A44 		strd	r4, r4, [sp, #40]
 208 0012 CDE90C44 		strd	r4, r4, [sp, #48]
 209              	.LBB48:
 210              	.LBB49:
 211              		.file 3 "Drivers/STM32G4xx_HAL_Driver/Inc/stm32g4xx_ll_bus.h"
   1:Drivers/STM32G4xx_HAL_Driver/Inc/stm32g4xx_ll_bus.h **** /**
   2:Drivers/STM32G4xx_HAL_Driver/Inc/stm32g4xx_ll_bus.h ****   ******************************************************************************
   3:Drivers/STM32G4xx_HAL_Driver/Inc/stm32g4xx_ll_bus.h ****   * @file    stm32g4xx_ll_bus.h
   4:Drivers/STM32G4xx_HAL_Driver/Inc/stm32g4xx_ll_bus.h ****   * @author  MCD Application Team
   5:Drivers/STM32G4xx_HAL_Driver/Inc/stm32g4xx_ll_bus.h ****   * @brief   Header file of BUS LL module.
   6:Drivers/STM32G4xx_HAL_Driver/Inc/stm32g4xx_ll_bus.h **** 
   7:Drivers/STM32G4xx_HAL_Driver/Inc/stm32g4xx_ll_bus.h ****   @verbatim
   8:Drivers/STM32G4xx_HAL_Driver/Inc/stm32g4xx_ll_bus.h ****                       ##### RCC Limitations #####
   9:Drivers/STM32G4xx_HAL_Driver/Inc/stm32g4xx_ll_bus.h ****   ==============================================================================
  10:Drivers/STM32G4xx_HAL_Driver/Inc/stm32g4xx_ll_bus.h ****     [..]
  11:Drivers/STM32G4xx_HAL_Driver/Inc/stm32g4xx_ll_bus.h ****       A delay between an RCC peripheral clock enable and the effective peripheral
  12:Drivers/STM32G4xx_HAL_Driver/Inc/stm32g4xx_ll_bus.h ****       enabling should be taken into account in order to manage the peripheral read/write
  13:Drivers/STM32G4xx_HAL_Driver/Inc/stm32g4xx_ll_bus.h ****       from/to registers.
  14:Drivers/STM32G4xx_HAL_Driver/Inc/stm32g4xx_ll_bus.h ****       (+) This delay depends on the peripheral mapping.
  15:Drivers/STM32G4xx_HAL_Driver/Inc/stm32g4xx_ll_bus.h ****         (++) AHB & APB peripherals, 1 dummy read is necessary
  16:Drivers/STM32G4xx_HAL_Driver/Inc/stm32g4xx_ll_bus.h **** 
  17:Drivers/STM32G4xx_HAL_Driver/Inc/stm32g4xx_ll_bus.h ****     [..]
  18:Drivers/STM32G4xx_HAL_Driver/Inc/stm32g4xx_ll_bus.h ****       Workarounds:
  19:Drivers/STM32G4xx_HAL_Driver/Inc/stm32g4xx_ll_bus.h ****       (#) For AHB & APB peripherals, a dummy read to the peripheral register has been
  20:Drivers/STM32G4xx_HAL_Driver/Inc/stm32g4xx_ll_bus.h ****           inserted in each LL_{BUS}_GRP{x}_EnableClock() function.
  21:Drivers/STM32G4xx_HAL_Driver/Inc/stm32g4xx_ll_bus.h **** 
  22:Drivers/STM32G4xx_HAL_Driver/Inc/stm32g4xx_ll_bus.h ****   @endverbatim
  23:Drivers/STM32G4xx_HAL_Driver/Inc/stm32g4xx_ll_bus.h ****   ******************************************************************************
  24:Drivers/STM32G4xx_HAL_Driver/Inc/stm32g4xx_ll_bus.h ****   * @attention
  25:Drivers/STM32G4xx_HAL_Driver/Inc/stm32g4xx_ll_bus.h ****   *
  26:Drivers/STM32G4xx_HAL_Driver/Inc/stm32g4xx_ll_bus.h ****   * <h2><center>&copy; Copyright (c) 2019 STMicroelectronics.
  27:Drivers/STM32G4xx_HAL_Driver/Inc/stm32g4xx_ll_bus.h ****   * All rights reserved.</center></h2>
  28:Drivers/STM32G4xx_HAL_Driver/Inc/stm32g4xx_ll_bus.h ****   *
  29:Drivers/STM32G4xx_HAL_Driver/Inc/stm32g4xx_ll_bus.h ****   * This software component is licensed by ST under BSD 3-Clause license,
  30:Drivers/STM32G4xx_HAL_Driver/Inc/stm32g4xx_ll_bus.h ****   * the "License"; You may not use this file except in compliance with the
  31:Drivers/STM32G4xx_HAL_Driver/Inc/stm32g4xx_ll_bus.h ****   * License. You may obtain a copy of the License at:
  32:Drivers/STM32G4xx_HAL_Driver/Inc/stm32g4xx_ll_bus.h ****   *                        opensource.org/licenses/BSD-3-Clause
  33:Drivers/STM32G4xx_HAL_Driver/Inc/stm32g4xx_ll_bus.h ****   *
  34:Drivers/STM32G4xx_HAL_Driver/Inc/stm32g4xx_ll_bus.h ****   ******************************************************************************
  35:Drivers/STM32G4xx_HAL_Driver/Inc/stm32g4xx_ll_bus.h ****   */
  36:Drivers/STM32G4xx_HAL_Driver/Inc/stm32g4xx_ll_bus.h **** 
  37:Drivers/STM32G4xx_HAL_Driver/Inc/stm32g4xx_ll_bus.h **** /* Define to prevent recursive inclusion -------------------------------------*/
  38:Drivers/STM32G4xx_HAL_Driver/Inc/stm32g4xx_ll_bus.h **** #ifndef STM32G4xx_LL_BUS_H
  39:Drivers/STM32G4xx_HAL_Driver/Inc/stm32g4xx_ll_bus.h **** #define STM32G4xx_LL_BUS_H
  40:Drivers/STM32G4xx_HAL_Driver/Inc/stm32g4xx_ll_bus.h **** 
  41:Drivers/STM32G4xx_HAL_Driver/Inc/stm32g4xx_ll_bus.h **** #ifdef __cplusplus
  42:Drivers/STM32G4xx_HAL_Driver/Inc/stm32g4xx_ll_bus.h **** extern "C" {
  43:Drivers/STM32G4xx_HAL_Driver/Inc/stm32g4xx_ll_bus.h **** #endif
  44:Drivers/STM32G4xx_HAL_Driver/Inc/stm32g4xx_ll_bus.h **** 
  45:Drivers/STM32G4xx_HAL_Driver/Inc/stm32g4xx_ll_bus.h **** /* Includes ------------------------------------------------------------------*/
  46:Drivers/STM32G4xx_HAL_Driver/Inc/stm32g4xx_ll_bus.h **** #include "stm32g4xx.h"
ARM GAS  D:\apps\VSCode\data\tmp\ccjbw8Rj.s 			page 18


  47:Drivers/STM32G4xx_HAL_Driver/Inc/stm32g4xx_ll_bus.h **** 
  48:Drivers/STM32G4xx_HAL_Driver/Inc/stm32g4xx_ll_bus.h **** /** @addtogroup STM32G4xx_LL_Driver
  49:Drivers/STM32G4xx_HAL_Driver/Inc/stm32g4xx_ll_bus.h ****   * @{
  50:Drivers/STM32G4xx_HAL_Driver/Inc/stm32g4xx_ll_bus.h ****   */
  51:Drivers/STM32G4xx_HAL_Driver/Inc/stm32g4xx_ll_bus.h **** 
  52:Drivers/STM32G4xx_HAL_Driver/Inc/stm32g4xx_ll_bus.h **** #if defined(RCC)
  53:Drivers/STM32G4xx_HAL_Driver/Inc/stm32g4xx_ll_bus.h **** 
  54:Drivers/STM32G4xx_HAL_Driver/Inc/stm32g4xx_ll_bus.h **** /** @defgroup BUS_LL BUS
  55:Drivers/STM32G4xx_HAL_Driver/Inc/stm32g4xx_ll_bus.h ****   * @{
  56:Drivers/STM32G4xx_HAL_Driver/Inc/stm32g4xx_ll_bus.h ****   */
  57:Drivers/STM32G4xx_HAL_Driver/Inc/stm32g4xx_ll_bus.h **** 
  58:Drivers/STM32G4xx_HAL_Driver/Inc/stm32g4xx_ll_bus.h **** /* Private types -------------------------------------------------------------*/
  59:Drivers/STM32G4xx_HAL_Driver/Inc/stm32g4xx_ll_bus.h **** /* Private variables ---------------------------------------------------------*/
  60:Drivers/STM32G4xx_HAL_Driver/Inc/stm32g4xx_ll_bus.h **** 
  61:Drivers/STM32G4xx_HAL_Driver/Inc/stm32g4xx_ll_bus.h **** /* Private constants ---------------------------------------------------------*/
  62:Drivers/STM32G4xx_HAL_Driver/Inc/stm32g4xx_ll_bus.h **** 
  63:Drivers/STM32G4xx_HAL_Driver/Inc/stm32g4xx_ll_bus.h **** /* Private macros ------------------------------------------------------------*/
  64:Drivers/STM32G4xx_HAL_Driver/Inc/stm32g4xx_ll_bus.h **** 
  65:Drivers/STM32G4xx_HAL_Driver/Inc/stm32g4xx_ll_bus.h **** /* Exported types ------------------------------------------------------------*/
  66:Drivers/STM32G4xx_HAL_Driver/Inc/stm32g4xx_ll_bus.h **** /* Exported constants --------------------------------------------------------*/
  67:Drivers/STM32G4xx_HAL_Driver/Inc/stm32g4xx_ll_bus.h **** /** @defgroup BUS_LL_Exported_Constants BUS Exported Constants
  68:Drivers/STM32G4xx_HAL_Driver/Inc/stm32g4xx_ll_bus.h ****   * @{
  69:Drivers/STM32G4xx_HAL_Driver/Inc/stm32g4xx_ll_bus.h ****   */
  70:Drivers/STM32G4xx_HAL_Driver/Inc/stm32g4xx_ll_bus.h **** 
  71:Drivers/STM32G4xx_HAL_Driver/Inc/stm32g4xx_ll_bus.h **** /** @defgroup BUS_LL_EC_AHB1_GRP1_PERIPH  AHB1 GRP1 PERIPH
  72:Drivers/STM32G4xx_HAL_Driver/Inc/stm32g4xx_ll_bus.h ****   * @{
  73:Drivers/STM32G4xx_HAL_Driver/Inc/stm32g4xx_ll_bus.h ****   */
  74:Drivers/STM32G4xx_HAL_Driver/Inc/stm32g4xx_ll_bus.h **** #define LL_AHB1_GRP1_PERIPH_ALL            0xFFFFFFFFU
  75:Drivers/STM32G4xx_HAL_Driver/Inc/stm32g4xx_ll_bus.h **** #define LL_AHB1_GRP1_PERIPH_DMA1           RCC_AHB1ENR_DMA1EN
  76:Drivers/STM32G4xx_HAL_Driver/Inc/stm32g4xx_ll_bus.h **** #define LL_AHB1_GRP1_PERIPH_DMA2           RCC_AHB1ENR_DMA2EN
  77:Drivers/STM32G4xx_HAL_Driver/Inc/stm32g4xx_ll_bus.h **** #define LL_AHB1_GRP1_PERIPH_DMAMUX1        RCC_AHB1ENR_DMAMUX1EN
  78:Drivers/STM32G4xx_HAL_Driver/Inc/stm32g4xx_ll_bus.h **** #define LL_AHB1_GRP1_PERIPH_CORDIC         RCC_AHB1ENR_CORDICEN
  79:Drivers/STM32G4xx_HAL_Driver/Inc/stm32g4xx_ll_bus.h **** #define LL_AHB1_GRP1_PERIPH_FMAC           RCC_AHB1ENR_FMACEN
  80:Drivers/STM32G4xx_HAL_Driver/Inc/stm32g4xx_ll_bus.h **** #define LL_AHB1_GRP1_PERIPH_FLASH          RCC_AHB1ENR_FLASHEN
  81:Drivers/STM32G4xx_HAL_Driver/Inc/stm32g4xx_ll_bus.h **** #define LL_AHB1_GRP1_PERIPH_SRAM1          RCC_AHB1SMENR_SRAM1SMEN
  82:Drivers/STM32G4xx_HAL_Driver/Inc/stm32g4xx_ll_bus.h **** #define LL_AHB1_GRP1_PERIPH_CRC            RCC_AHB1ENR_CRCEN
  83:Drivers/STM32G4xx_HAL_Driver/Inc/stm32g4xx_ll_bus.h **** /**
  84:Drivers/STM32G4xx_HAL_Driver/Inc/stm32g4xx_ll_bus.h ****   * @}
  85:Drivers/STM32G4xx_HAL_Driver/Inc/stm32g4xx_ll_bus.h ****   */
  86:Drivers/STM32G4xx_HAL_Driver/Inc/stm32g4xx_ll_bus.h **** 
  87:Drivers/STM32G4xx_HAL_Driver/Inc/stm32g4xx_ll_bus.h **** /** @defgroup BUS_LL_EC_AHB2_GRP1_PERIPH  AHB2 GRP1 PERIPH
  88:Drivers/STM32G4xx_HAL_Driver/Inc/stm32g4xx_ll_bus.h ****   * @{
  89:Drivers/STM32G4xx_HAL_Driver/Inc/stm32g4xx_ll_bus.h ****   */
  90:Drivers/STM32G4xx_HAL_Driver/Inc/stm32g4xx_ll_bus.h **** #define LL_AHB2_GRP1_PERIPH_ALL            0xFFFFFFFFU
  91:Drivers/STM32G4xx_HAL_Driver/Inc/stm32g4xx_ll_bus.h **** #define LL_AHB2_GRP1_PERIPH_GPIOA          RCC_AHB2ENR_GPIOAEN
  92:Drivers/STM32G4xx_HAL_Driver/Inc/stm32g4xx_ll_bus.h **** #define LL_AHB2_GRP1_PERIPH_GPIOB          RCC_AHB2ENR_GPIOBEN
  93:Drivers/STM32G4xx_HAL_Driver/Inc/stm32g4xx_ll_bus.h **** #define LL_AHB2_GRP1_PERIPH_GPIOC          RCC_AHB2ENR_GPIOCEN
  94:Drivers/STM32G4xx_HAL_Driver/Inc/stm32g4xx_ll_bus.h **** #define LL_AHB2_GRP1_PERIPH_GPIOD          RCC_AHB2ENR_GPIODEN
  95:Drivers/STM32G4xx_HAL_Driver/Inc/stm32g4xx_ll_bus.h **** #define LL_AHB2_GRP1_PERIPH_GPIOE          RCC_AHB2ENR_GPIOEEN
  96:Drivers/STM32G4xx_HAL_Driver/Inc/stm32g4xx_ll_bus.h **** #define LL_AHB2_GRP1_PERIPH_GPIOF          RCC_AHB2ENR_GPIOFEN
  97:Drivers/STM32G4xx_HAL_Driver/Inc/stm32g4xx_ll_bus.h **** #define LL_AHB2_GRP1_PERIPH_GPIOG          RCC_AHB2ENR_GPIOGEN
  98:Drivers/STM32G4xx_HAL_Driver/Inc/stm32g4xx_ll_bus.h **** #define LL_AHB2_GRP1_PERIPH_CCM            RCC_AHB2SMENR_CCMSMEN
  99:Drivers/STM32G4xx_HAL_Driver/Inc/stm32g4xx_ll_bus.h **** #define LL_AHB2_GRP1_PERIPH_SRAM2          RCC_AHB2SMENR_SRAM2SMEN
 100:Drivers/STM32G4xx_HAL_Driver/Inc/stm32g4xx_ll_bus.h **** #define LL_AHB2_GRP1_PERIPH_ADC12          RCC_AHB2ENR_ADC12EN
 101:Drivers/STM32G4xx_HAL_Driver/Inc/stm32g4xx_ll_bus.h **** #if defined(ADC345_COMMON)
 102:Drivers/STM32G4xx_HAL_Driver/Inc/stm32g4xx_ll_bus.h **** #define LL_AHB2_GRP1_PERIPH_ADC345         RCC_AHB2ENR_ADC345EN
 103:Drivers/STM32G4xx_HAL_Driver/Inc/stm32g4xx_ll_bus.h **** #endif /* ADC345_COMMON */
ARM GAS  D:\apps\VSCode\data\tmp\ccjbw8Rj.s 			page 19


 104:Drivers/STM32G4xx_HAL_Driver/Inc/stm32g4xx_ll_bus.h **** #define LL_AHB2_GRP1_PERIPH_DAC1           RCC_AHB2ENR_DAC1EN
 105:Drivers/STM32G4xx_HAL_Driver/Inc/stm32g4xx_ll_bus.h **** #if defined(DAC2)
 106:Drivers/STM32G4xx_HAL_Driver/Inc/stm32g4xx_ll_bus.h **** #define LL_AHB2_GRP1_PERIPH_DAC2           RCC_AHB2ENR_DAC2EN
 107:Drivers/STM32G4xx_HAL_Driver/Inc/stm32g4xx_ll_bus.h **** #endif /* DAC2 */
 108:Drivers/STM32G4xx_HAL_Driver/Inc/stm32g4xx_ll_bus.h **** #define LL_AHB2_GRP1_PERIPH_DAC3           RCC_AHB2ENR_DAC3EN
 109:Drivers/STM32G4xx_HAL_Driver/Inc/stm32g4xx_ll_bus.h **** #if defined(DAC4)
 110:Drivers/STM32G4xx_HAL_Driver/Inc/stm32g4xx_ll_bus.h **** #define LL_AHB2_GRP1_PERIPH_DAC4           RCC_AHB2ENR_DAC4EN
 111:Drivers/STM32G4xx_HAL_Driver/Inc/stm32g4xx_ll_bus.h **** #endif /* DAC4 */
 112:Drivers/STM32G4xx_HAL_Driver/Inc/stm32g4xx_ll_bus.h **** #if defined(AES)
 113:Drivers/STM32G4xx_HAL_Driver/Inc/stm32g4xx_ll_bus.h **** #define LL_AHB2_GRP1_PERIPH_AES            RCC_AHB2ENR_AESEN
 114:Drivers/STM32G4xx_HAL_Driver/Inc/stm32g4xx_ll_bus.h **** #endif /* AES */
 115:Drivers/STM32G4xx_HAL_Driver/Inc/stm32g4xx_ll_bus.h **** #define LL_AHB2_GRP1_PERIPH_RNG            RCC_AHB2ENR_RNGEN
 116:Drivers/STM32G4xx_HAL_Driver/Inc/stm32g4xx_ll_bus.h **** /**
 117:Drivers/STM32G4xx_HAL_Driver/Inc/stm32g4xx_ll_bus.h ****   * @}
 118:Drivers/STM32G4xx_HAL_Driver/Inc/stm32g4xx_ll_bus.h ****   */
 119:Drivers/STM32G4xx_HAL_Driver/Inc/stm32g4xx_ll_bus.h **** 
 120:Drivers/STM32G4xx_HAL_Driver/Inc/stm32g4xx_ll_bus.h **** /** @defgroup BUS_LL_EC_AHB3_GRP1_PERIPH  AHB3 GRP1 PERIPH
 121:Drivers/STM32G4xx_HAL_Driver/Inc/stm32g4xx_ll_bus.h ****   * @{
 122:Drivers/STM32G4xx_HAL_Driver/Inc/stm32g4xx_ll_bus.h ****   */
 123:Drivers/STM32G4xx_HAL_Driver/Inc/stm32g4xx_ll_bus.h **** #define LL_AHB3_GRP1_PERIPH_ALL            0xFFFFFFFFU
 124:Drivers/STM32G4xx_HAL_Driver/Inc/stm32g4xx_ll_bus.h **** #if defined(FMC_Bank1_R)
 125:Drivers/STM32G4xx_HAL_Driver/Inc/stm32g4xx_ll_bus.h **** #define LL_AHB3_GRP1_PERIPH_FMC            RCC_AHB3ENR_FMCEN
 126:Drivers/STM32G4xx_HAL_Driver/Inc/stm32g4xx_ll_bus.h **** #endif /* FMC_Bank1_R */
 127:Drivers/STM32G4xx_HAL_Driver/Inc/stm32g4xx_ll_bus.h **** #if defined(QUADSPI)
 128:Drivers/STM32G4xx_HAL_Driver/Inc/stm32g4xx_ll_bus.h **** #define LL_AHB3_GRP1_PERIPH_QSPI           RCC_AHB3ENR_QSPIEN
 129:Drivers/STM32G4xx_HAL_Driver/Inc/stm32g4xx_ll_bus.h **** #endif /* QUADSPI */
 130:Drivers/STM32G4xx_HAL_Driver/Inc/stm32g4xx_ll_bus.h **** /**
 131:Drivers/STM32G4xx_HAL_Driver/Inc/stm32g4xx_ll_bus.h ****   * @}
 132:Drivers/STM32G4xx_HAL_Driver/Inc/stm32g4xx_ll_bus.h ****   */
 133:Drivers/STM32G4xx_HAL_Driver/Inc/stm32g4xx_ll_bus.h **** 
 134:Drivers/STM32G4xx_HAL_Driver/Inc/stm32g4xx_ll_bus.h **** /** @defgroup BUS_LL_EC_APB1_GRP1_PERIPH  APB1 GRP1 PERIPH
 135:Drivers/STM32G4xx_HAL_Driver/Inc/stm32g4xx_ll_bus.h ****   * @{
 136:Drivers/STM32G4xx_HAL_Driver/Inc/stm32g4xx_ll_bus.h ****   */
 137:Drivers/STM32G4xx_HAL_Driver/Inc/stm32g4xx_ll_bus.h **** #define LL_APB1_GRP1_PERIPH_ALL            0xFFFFFFFFU
 138:Drivers/STM32G4xx_HAL_Driver/Inc/stm32g4xx_ll_bus.h **** #define LL_APB1_GRP1_PERIPH_TIM2           RCC_APB1ENR1_TIM2EN
 139:Drivers/STM32G4xx_HAL_Driver/Inc/stm32g4xx_ll_bus.h **** #define LL_APB1_GRP1_PERIPH_TIM3           RCC_APB1ENR1_TIM3EN
 140:Drivers/STM32G4xx_HAL_Driver/Inc/stm32g4xx_ll_bus.h **** #define LL_APB1_GRP1_PERIPH_TIM4           RCC_APB1ENR1_TIM4EN
 141:Drivers/STM32G4xx_HAL_Driver/Inc/stm32g4xx_ll_bus.h **** #if defined(TIM5)
 142:Drivers/STM32G4xx_HAL_Driver/Inc/stm32g4xx_ll_bus.h **** #define LL_APB1_GRP1_PERIPH_TIM5           RCC_APB1ENR1_TIM5EN
 143:Drivers/STM32G4xx_HAL_Driver/Inc/stm32g4xx_ll_bus.h **** #endif /* TIM5 */
 144:Drivers/STM32G4xx_HAL_Driver/Inc/stm32g4xx_ll_bus.h **** #define LL_APB1_GRP1_PERIPH_TIM6           RCC_APB1ENR1_TIM6EN
 145:Drivers/STM32G4xx_HAL_Driver/Inc/stm32g4xx_ll_bus.h **** #define LL_APB1_GRP1_PERIPH_TIM7           RCC_APB1ENR1_TIM7EN
 146:Drivers/STM32G4xx_HAL_Driver/Inc/stm32g4xx_ll_bus.h **** #define LL_APB1_GRP1_PERIPH_CRS            RCC_APB1ENR1_CRSEN
 147:Drivers/STM32G4xx_HAL_Driver/Inc/stm32g4xx_ll_bus.h **** #define LL_APB1_GRP1_PERIPH_RTCAPB         RCC_APB1ENR1_RTCAPBEN
 148:Drivers/STM32G4xx_HAL_Driver/Inc/stm32g4xx_ll_bus.h **** #define LL_APB1_GRP1_PERIPH_WWDG           RCC_APB1ENR1_WWDGEN
 149:Drivers/STM32G4xx_HAL_Driver/Inc/stm32g4xx_ll_bus.h **** #define LL_APB1_GRP1_PERIPH_SPI2           RCC_APB1ENR1_SPI2EN
 150:Drivers/STM32G4xx_HAL_Driver/Inc/stm32g4xx_ll_bus.h **** #define LL_APB1_GRP1_PERIPH_SPI3           RCC_APB1ENR1_SPI3EN
 151:Drivers/STM32G4xx_HAL_Driver/Inc/stm32g4xx_ll_bus.h **** #define LL_APB1_GRP1_PERIPH_USART2         RCC_APB1ENR1_USART2EN
 152:Drivers/STM32G4xx_HAL_Driver/Inc/stm32g4xx_ll_bus.h **** #define LL_APB1_GRP1_PERIPH_USART3         RCC_APB1ENR1_USART3EN
 153:Drivers/STM32G4xx_HAL_Driver/Inc/stm32g4xx_ll_bus.h **** #if defined(UART4)
 154:Drivers/STM32G4xx_HAL_Driver/Inc/stm32g4xx_ll_bus.h **** #define LL_APB1_GRP1_PERIPH_UART4          RCC_APB1ENR1_UART4EN
 155:Drivers/STM32G4xx_HAL_Driver/Inc/stm32g4xx_ll_bus.h **** #endif /* UART4 */
 156:Drivers/STM32G4xx_HAL_Driver/Inc/stm32g4xx_ll_bus.h **** #if defined(UART5)
 157:Drivers/STM32G4xx_HAL_Driver/Inc/stm32g4xx_ll_bus.h **** #define LL_APB1_GRP1_PERIPH_UART5          RCC_APB1ENR1_UART5EN
 158:Drivers/STM32G4xx_HAL_Driver/Inc/stm32g4xx_ll_bus.h **** #endif /* UART5 */
 159:Drivers/STM32G4xx_HAL_Driver/Inc/stm32g4xx_ll_bus.h **** #define LL_APB1_GRP1_PERIPH_I2C1           RCC_APB1ENR1_I2C1EN
 160:Drivers/STM32G4xx_HAL_Driver/Inc/stm32g4xx_ll_bus.h **** #define LL_APB1_GRP1_PERIPH_I2C2           RCC_APB1ENR1_I2C2EN
ARM GAS  D:\apps\VSCode\data\tmp\ccjbw8Rj.s 			page 20


 161:Drivers/STM32G4xx_HAL_Driver/Inc/stm32g4xx_ll_bus.h **** #define LL_APB1_GRP1_PERIPH_USB            RCC_APB1ENR1_USBEN
 162:Drivers/STM32G4xx_HAL_Driver/Inc/stm32g4xx_ll_bus.h **** #if defined(FDCAN1)
 163:Drivers/STM32G4xx_HAL_Driver/Inc/stm32g4xx_ll_bus.h **** #define LL_APB1_GRP1_PERIPH_FDCAN          RCC_APB1ENR1_FDCANEN
 164:Drivers/STM32G4xx_HAL_Driver/Inc/stm32g4xx_ll_bus.h **** #endif /* FDCAN1 */
 165:Drivers/STM32G4xx_HAL_Driver/Inc/stm32g4xx_ll_bus.h **** #define LL_APB1_GRP1_PERIPH_PWR            RCC_APB1ENR1_PWREN
 166:Drivers/STM32G4xx_HAL_Driver/Inc/stm32g4xx_ll_bus.h **** #define LL_APB1_GRP1_PERIPH_I2C3           RCC_APB1ENR1_I2C3EN
 167:Drivers/STM32G4xx_HAL_Driver/Inc/stm32g4xx_ll_bus.h **** #define LL_APB1_GRP1_PERIPH_LPTIM1         RCC_APB1ENR1_LPTIM1EN
 168:Drivers/STM32G4xx_HAL_Driver/Inc/stm32g4xx_ll_bus.h **** /**
 169:Drivers/STM32G4xx_HAL_Driver/Inc/stm32g4xx_ll_bus.h ****   * @}
 170:Drivers/STM32G4xx_HAL_Driver/Inc/stm32g4xx_ll_bus.h ****   */
 171:Drivers/STM32G4xx_HAL_Driver/Inc/stm32g4xx_ll_bus.h **** 
 172:Drivers/STM32G4xx_HAL_Driver/Inc/stm32g4xx_ll_bus.h **** 
 173:Drivers/STM32G4xx_HAL_Driver/Inc/stm32g4xx_ll_bus.h **** /** @defgroup BUS_LL_EC_APB1_GRP2_PERIPH  APB1 GRP2 PERIPH
 174:Drivers/STM32G4xx_HAL_Driver/Inc/stm32g4xx_ll_bus.h ****   * @{
 175:Drivers/STM32G4xx_HAL_Driver/Inc/stm32g4xx_ll_bus.h ****   */
 176:Drivers/STM32G4xx_HAL_Driver/Inc/stm32g4xx_ll_bus.h **** #define LL_APB1_GRP2_PERIPH_ALL            0xFFFFFFFFU
 177:Drivers/STM32G4xx_HAL_Driver/Inc/stm32g4xx_ll_bus.h **** #define LL_APB1_GRP2_PERIPH_LPUART1        RCC_APB1ENR2_LPUART1EN
 178:Drivers/STM32G4xx_HAL_Driver/Inc/stm32g4xx_ll_bus.h **** #if defined(I2C4)
 179:Drivers/STM32G4xx_HAL_Driver/Inc/stm32g4xx_ll_bus.h **** #define LL_APB1_GRP2_PERIPH_I2C4           RCC_APB1ENR2_I2C4EN
 180:Drivers/STM32G4xx_HAL_Driver/Inc/stm32g4xx_ll_bus.h **** #endif /* I2C4 */
 181:Drivers/STM32G4xx_HAL_Driver/Inc/stm32g4xx_ll_bus.h **** #define LL_APB1_GRP2_PERIPH_UCPD1         RCC_APB1ENR2_UCPD1EN
 182:Drivers/STM32G4xx_HAL_Driver/Inc/stm32g4xx_ll_bus.h **** /**
 183:Drivers/STM32G4xx_HAL_Driver/Inc/stm32g4xx_ll_bus.h ****   * @}
 184:Drivers/STM32G4xx_HAL_Driver/Inc/stm32g4xx_ll_bus.h ****   */
 185:Drivers/STM32G4xx_HAL_Driver/Inc/stm32g4xx_ll_bus.h **** 
 186:Drivers/STM32G4xx_HAL_Driver/Inc/stm32g4xx_ll_bus.h **** /** @defgroup BUS_LL_EC_APB2_GRP1_PERIPH  APB2 GRP1 PERIPH
 187:Drivers/STM32G4xx_HAL_Driver/Inc/stm32g4xx_ll_bus.h ****   * @{
 188:Drivers/STM32G4xx_HAL_Driver/Inc/stm32g4xx_ll_bus.h ****   */
 189:Drivers/STM32G4xx_HAL_Driver/Inc/stm32g4xx_ll_bus.h **** #define LL_APB2_GRP1_PERIPH_ALL            0xFFFFFFFFU
 190:Drivers/STM32G4xx_HAL_Driver/Inc/stm32g4xx_ll_bus.h **** #define LL_APB2_GRP1_PERIPH_SYSCFG         RCC_APB2ENR_SYSCFGEN
 191:Drivers/STM32G4xx_HAL_Driver/Inc/stm32g4xx_ll_bus.h **** #define LL_APB2_GRP1_PERIPH_TIM1           RCC_APB2ENR_TIM1EN
 192:Drivers/STM32G4xx_HAL_Driver/Inc/stm32g4xx_ll_bus.h **** #define LL_APB2_GRP1_PERIPH_SPI1           RCC_APB2ENR_SPI1EN
 193:Drivers/STM32G4xx_HAL_Driver/Inc/stm32g4xx_ll_bus.h **** #define LL_APB2_GRP1_PERIPH_TIM8           RCC_APB2ENR_TIM8EN
 194:Drivers/STM32G4xx_HAL_Driver/Inc/stm32g4xx_ll_bus.h **** #define LL_APB2_GRP1_PERIPH_USART1         RCC_APB2ENR_USART1EN
 195:Drivers/STM32G4xx_HAL_Driver/Inc/stm32g4xx_ll_bus.h **** #if defined(SPI4)
 196:Drivers/STM32G4xx_HAL_Driver/Inc/stm32g4xx_ll_bus.h **** #define LL_APB2_GRP1_PERIPH_SPI4           RCC_APB2ENR_SPI4EN
 197:Drivers/STM32G4xx_HAL_Driver/Inc/stm32g4xx_ll_bus.h **** #endif /* SPI4 */
 198:Drivers/STM32G4xx_HAL_Driver/Inc/stm32g4xx_ll_bus.h **** #define LL_APB2_GRP1_PERIPH_TIM15          RCC_APB2ENR_TIM15EN
 199:Drivers/STM32G4xx_HAL_Driver/Inc/stm32g4xx_ll_bus.h **** #define LL_APB2_GRP1_PERIPH_TIM16          RCC_APB2ENR_TIM16EN
 200:Drivers/STM32G4xx_HAL_Driver/Inc/stm32g4xx_ll_bus.h **** #define LL_APB2_GRP1_PERIPH_TIM17          RCC_APB2ENR_TIM17EN
 201:Drivers/STM32G4xx_HAL_Driver/Inc/stm32g4xx_ll_bus.h **** #if defined(TIM20)
 202:Drivers/STM32G4xx_HAL_Driver/Inc/stm32g4xx_ll_bus.h **** #define LL_APB2_GRP1_PERIPH_TIM20          RCC_APB2ENR_TIM20EN
 203:Drivers/STM32G4xx_HAL_Driver/Inc/stm32g4xx_ll_bus.h **** #endif /* TIM20 */
 204:Drivers/STM32G4xx_HAL_Driver/Inc/stm32g4xx_ll_bus.h **** #define LL_APB2_GRP1_PERIPH_SAI1           RCC_APB2ENR_SAI1EN
 205:Drivers/STM32G4xx_HAL_Driver/Inc/stm32g4xx_ll_bus.h **** #if defined(HRTIM1)
 206:Drivers/STM32G4xx_HAL_Driver/Inc/stm32g4xx_ll_bus.h **** #define LL_APB2_GRP1_PERIPH_HRTIM1         RCC_APB2ENR_HRTIM1EN
 207:Drivers/STM32G4xx_HAL_Driver/Inc/stm32g4xx_ll_bus.h **** #endif /* HRTIM1 */
 208:Drivers/STM32G4xx_HAL_Driver/Inc/stm32g4xx_ll_bus.h **** /**
 209:Drivers/STM32G4xx_HAL_Driver/Inc/stm32g4xx_ll_bus.h ****   * @}
 210:Drivers/STM32G4xx_HAL_Driver/Inc/stm32g4xx_ll_bus.h ****   */
 211:Drivers/STM32G4xx_HAL_Driver/Inc/stm32g4xx_ll_bus.h **** 
 212:Drivers/STM32G4xx_HAL_Driver/Inc/stm32g4xx_ll_bus.h **** /**
 213:Drivers/STM32G4xx_HAL_Driver/Inc/stm32g4xx_ll_bus.h ****   * @}
 214:Drivers/STM32G4xx_HAL_Driver/Inc/stm32g4xx_ll_bus.h ****   */
 215:Drivers/STM32G4xx_HAL_Driver/Inc/stm32g4xx_ll_bus.h **** 
 216:Drivers/STM32G4xx_HAL_Driver/Inc/stm32g4xx_ll_bus.h **** /* Exported macro ------------------------------------------------------------*/
 217:Drivers/STM32G4xx_HAL_Driver/Inc/stm32g4xx_ll_bus.h **** /* Exported functions --------------------------------------------------------*/
ARM GAS  D:\apps\VSCode\data\tmp\ccjbw8Rj.s 			page 21


 218:Drivers/STM32G4xx_HAL_Driver/Inc/stm32g4xx_ll_bus.h **** /** @defgroup BUS_LL_Exported_Functions BUS Exported Functions
 219:Drivers/STM32G4xx_HAL_Driver/Inc/stm32g4xx_ll_bus.h ****   * @{
 220:Drivers/STM32G4xx_HAL_Driver/Inc/stm32g4xx_ll_bus.h ****   */
 221:Drivers/STM32G4xx_HAL_Driver/Inc/stm32g4xx_ll_bus.h **** 
 222:Drivers/STM32G4xx_HAL_Driver/Inc/stm32g4xx_ll_bus.h **** /** @defgroup BUS_LL_EF_AHB1 AHB1
 223:Drivers/STM32G4xx_HAL_Driver/Inc/stm32g4xx_ll_bus.h ****   * @{
 224:Drivers/STM32G4xx_HAL_Driver/Inc/stm32g4xx_ll_bus.h ****   */
 225:Drivers/STM32G4xx_HAL_Driver/Inc/stm32g4xx_ll_bus.h **** 
 226:Drivers/STM32G4xx_HAL_Driver/Inc/stm32g4xx_ll_bus.h **** /**
 227:Drivers/STM32G4xx_HAL_Driver/Inc/stm32g4xx_ll_bus.h ****   * @brief  Enable AHB1 peripherals clock.
 228:Drivers/STM32G4xx_HAL_Driver/Inc/stm32g4xx_ll_bus.h ****   * @rmtoll AHB1ENR      DMA1EN        LL_AHB1_GRP1_EnableClock\n
 229:Drivers/STM32G4xx_HAL_Driver/Inc/stm32g4xx_ll_bus.h ****   *         AHB1ENR      DMA2EN        LL_AHB1_GRP1_EnableClock\n
 230:Drivers/STM32G4xx_HAL_Driver/Inc/stm32g4xx_ll_bus.h ****   *         AHB1ENR      DMAMMUXEN     LL_AHB1_GRP1_EnableClock\n
 231:Drivers/STM32G4xx_HAL_Driver/Inc/stm32g4xx_ll_bus.h ****   *         AHB1ENR      CORDICEN      LL_AHB1_GRP1_EnableClock\n
 232:Drivers/STM32G4xx_HAL_Driver/Inc/stm32g4xx_ll_bus.h ****   *         AHB1ENR      FMACEN        LL_AHB1_GRP1_EnableClock\n
 233:Drivers/STM32G4xx_HAL_Driver/Inc/stm32g4xx_ll_bus.h ****   *         AHB1ENR      FLASHEN       LL_AHB1_GRP1_EnableClock\n
 234:Drivers/STM32G4xx_HAL_Driver/Inc/stm32g4xx_ll_bus.h ****   *         AHB1ENR      CRCEN         LL_AHB1_GRP1_EnableClock
 235:Drivers/STM32G4xx_HAL_Driver/Inc/stm32g4xx_ll_bus.h ****   * @param  Periphs This parameter can be a combination of the following values:
 236:Drivers/STM32G4xx_HAL_Driver/Inc/stm32g4xx_ll_bus.h ****   *         @arg @ref LL_AHB1_GRP1_PERIPH_DMA1
 237:Drivers/STM32G4xx_HAL_Driver/Inc/stm32g4xx_ll_bus.h ****   *         @arg @ref LL_AHB1_GRP1_PERIPH_DMA2
 238:Drivers/STM32G4xx_HAL_Driver/Inc/stm32g4xx_ll_bus.h ****   *         @arg @ref LL_AHB1_GRP1_PERIPH_DMAMUX1
 239:Drivers/STM32G4xx_HAL_Driver/Inc/stm32g4xx_ll_bus.h ****   *         @arg @ref LL_AHB1_GRP1_PERIPH_CORDIC
 240:Drivers/STM32G4xx_HAL_Driver/Inc/stm32g4xx_ll_bus.h ****   *         @arg @ref LL_AHB1_GRP1_PERIPH_FMAC
 241:Drivers/STM32G4xx_HAL_Driver/Inc/stm32g4xx_ll_bus.h ****   *         @arg @ref LL_AHB1_GRP1_PERIPH_FLASH
 242:Drivers/STM32G4xx_HAL_Driver/Inc/stm32g4xx_ll_bus.h ****   *         @arg @ref LL_AHB1_GRP1_PERIPH_CRC
 243:Drivers/STM32G4xx_HAL_Driver/Inc/stm32g4xx_ll_bus.h ****   * @retval None
 244:Drivers/STM32G4xx_HAL_Driver/Inc/stm32g4xx_ll_bus.h ****   */
 245:Drivers/STM32G4xx_HAL_Driver/Inc/stm32g4xx_ll_bus.h **** __STATIC_INLINE void LL_AHB1_GRP1_EnableClock(uint32_t Periphs)
 246:Drivers/STM32G4xx_HAL_Driver/Inc/stm32g4xx_ll_bus.h **** {
 247:Drivers/STM32G4xx_HAL_Driver/Inc/stm32g4xx_ll_bus.h ****   __IO uint32_t tmpreg;
 248:Drivers/STM32G4xx_HAL_Driver/Inc/stm32g4xx_ll_bus.h ****   SET_BIT(RCC->AHB1ENR, Periphs);
 249:Drivers/STM32G4xx_HAL_Driver/Inc/stm32g4xx_ll_bus.h ****   /* Delay after an RCC peripheral clock enabling */
 250:Drivers/STM32G4xx_HAL_Driver/Inc/stm32g4xx_ll_bus.h ****   tmpreg = READ_BIT(RCC->AHB1ENR, Periphs);
 251:Drivers/STM32G4xx_HAL_Driver/Inc/stm32g4xx_ll_bus.h ****   (void)tmpreg;
 252:Drivers/STM32G4xx_HAL_Driver/Inc/stm32g4xx_ll_bus.h **** }
 253:Drivers/STM32G4xx_HAL_Driver/Inc/stm32g4xx_ll_bus.h **** 
 254:Drivers/STM32G4xx_HAL_Driver/Inc/stm32g4xx_ll_bus.h **** /**
 255:Drivers/STM32G4xx_HAL_Driver/Inc/stm32g4xx_ll_bus.h ****   * @brief  Check if AHB1 peripheral clock is enabled or not
 256:Drivers/STM32G4xx_HAL_Driver/Inc/stm32g4xx_ll_bus.h ****   * @rmtoll AHB1ENR      DMA1EN        LL_AHB1_GRP1_IsEnabledClock\n
 257:Drivers/STM32G4xx_HAL_Driver/Inc/stm32g4xx_ll_bus.h ****   *         AHB1ENR      DMA2EN        LL_AHB1_GRP1_IsEnabledClock\n
 258:Drivers/STM32G4xx_HAL_Driver/Inc/stm32g4xx_ll_bus.h ****   *         AHB1ENR      DMAMUXEN      LL_AHB1_GRP1_IsEnabledClock\n
 259:Drivers/STM32G4xx_HAL_Driver/Inc/stm32g4xx_ll_bus.h ****   *         AHB1ENR      CORDICEN      LL_AHB1_GRP1_IsEnabledClock\n
 260:Drivers/STM32G4xx_HAL_Driver/Inc/stm32g4xx_ll_bus.h ****   *         AHB1ENR      FMACEN        LL_AHB1_GRP1_IsEnabledClock\n
 261:Drivers/STM32G4xx_HAL_Driver/Inc/stm32g4xx_ll_bus.h ****   *         AHB1ENR      FLASHEN       LL_AHB1_GRP1_IsEnabledClock\n
 262:Drivers/STM32G4xx_HAL_Driver/Inc/stm32g4xx_ll_bus.h ****   *         AHB1ENR      CRCEN         LL_AHB1_GRP1_IsEnabledClock
 263:Drivers/STM32G4xx_HAL_Driver/Inc/stm32g4xx_ll_bus.h ****   * @param  Periphs This parameter can be a combination of the following values:
 264:Drivers/STM32G4xx_HAL_Driver/Inc/stm32g4xx_ll_bus.h ****   *         @arg @ref LL_AHB1_GRP1_PERIPH_DMA1
 265:Drivers/STM32G4xx_HAL_Driver/Inc/stm32g4xx_ll_bus.h ****   *         @arg @ref LL_AHB1_GRP1_PERIPH_DMA2
 266:Drivers/STM32G4xx_HAL_Driver/Inc/stm32g4xx_ll_bus.h ****   *         @arg @ref LL_AHB1_GRP1_PERIPH_DMAMUX1
 267:Drivers/STM32G4xx_HAL_Driver/Inc/stm32g4xx_ll_bus.h ****   *         @arg @ref LL_AHB1_GRP1_PERIPH_CORDIC
 268:Drivers/STM32G4xx_HAL_Driver/Inc/stm32g4xx_ll_bus.h ****   *         @arg @ref LL_AHB1_GRP1_PERIPH_FMAC
 269:Drivers/STM32G4xx_HAL_Driver/Inc/stm32g4xx_ll_bus.h ****   *         @arg @ref LL_AHB1_GRP1_PERIPH_FLASH
 270:Drivers/STM32G4xx_HAL_Driver/Inc/stm32g4xx_ll_bus.h ****   *         @arg @ref LL_AHB1_GRP1_PERIPH_CRC
 271:Drivers/STM32G4xx_HAL_Driver/Inc/stm32g4xx_ll_bus.h ****   * @retval State of Periphs (1 or 0).
 272:Drivers/STM32G4xx_HAL_Driver/Inc/stm32g4xx_ll_bus.h ****   */
 273:Drivers/STM32G4xx_HAL_Driver/Inc/stm32g4xx_ll_bus.h **** __STATIC_INLINE uint32_t LL_AHB1_GRP1_IsEnabledClock(uint32_t Periphs)
 274:Drivers/STM32G4xx_HAL_Driver/Inc/stm32g4xx_ll_bus.h **** {
ARM GAS  D:\apps\VSCode\data\tmp\ccjbw8Rj.s 			page 22


 275:Drivers/STM32G4xx_HAL_Driver/Inc/stm32g4xx_ll_bus.h ****   return ((READ_BIT(RCC->AHB1ENR, Periphs) == Periphs) ? 1UL : 0UL);
 276:Drivers/STM32G4xx_HAL_Driver/Inc/stm32g4xx_ll_bus.h **** }
 277:Drivers/STM32G4xx_HAL_Driver/Inc/stm32g4xx_ll_bus.h **** 
 278:Drivers/STM32G4xx_HAL_Driver/Inc/stm32g4xx_ll_bus.h **** /**
 279:Drivers/STM32G4xx_HAL_Driver/Inc/stm32g4xx_ll_bus.h ****   * @brief  Disable AHB1 peripherals clock.
 280:Drivers/STM32G4xx_HAL_Driver/Inc/stm32g4xx_ll_bus.h ****   * @rmtoll AHB1ENR      DMA1EN        LL_AHB1_GRP1_DisableClock\n
 281:Drivers/STM32G4xx_HAL_Driver/Inc/stm32g4xx_ll_bus.h ****   *         AHB1ENR      DMA2EN        LL_AHB1_GRP1_DisableClock\n
 282:Drivers/STM32G4xx_HAL_Driver/Inc/stm32g4xx_ll_bus.h ****   *         AHB1ENR      DMAMUXEN      LL_AHB1_GRP1_DisableClock\n
 283:Drivers/STM32G4xx_HAL_Driver/Inc/stm32g4xx_ll_bus.h ****   *         AHB1ENR      CORDICEN      LL_AHB1_GRP1_DisableClock\n
 284:Drivers/STM32G4xx_HAL_Driver/Inc/stm32g4xx_ll_bus.h ****   *         AHB1ENR      FMACEN        LL_AHB1_GRP1_DisableClock\n
 285:Drivers/STM32G4xx_HAL_Driver/Inc/stm32g4xx_ll_bus.h ****   *         AHB1ENR      FLASHEN       LL_AHB1_GRP1_DisableClock\n
 286:Drivers/STM32G4xx_HAL_Driver/Inc/stm32g4xx_ll_bus.h ****   *         AHB1ENR      CRCEN         LL_AHB1_GRP1_DisableClock
 287:Drivers/STM32G4xx_HAL_Driver/Inc/stm32g4xx_ll_bus.h ****   * @param  Periphs This parameter can be a combination of the following values:
 288:Drivers/STM32G4xx_HAL_Driver/Inc/stm32g4xx_ll_bus.h ****   *         @arg @ref LL_AHB1_GRP1_PERIPH_DMA1
 289:Drivers/STM32G4xx_HAL_Driver/Inc/stm32g4xx_ll_bus.h ****   *         @arg @ref LL_AHB1_GRP1_PERIPH_DMA2
 290:Drivers/STM32G4xx_HAL_Driver/Inc/stm32g4xx_ll_bus.h ****   *         @arg @ref LL_AHB1_GRP1_PERIPH_DMAMUX1
 291:Drivers/STM32G4xx_HAL_Driver/Inc/stm32g4xx_ll_bus.h ****   *         @arg @ref LL_AHB1_GRP1_PERIPH_CORDIC
 292:Drivers/STM32G4xx_HAL_Driver/Inc/stm32g4xx_ll_bus.h ****   *         @arg @ref LL_AHB1_GRP1_PERIPH_FMAC
 293:Drivers/STM32G4xx_HAL_Driver/Inc/stm32g4xx_ll_bus.h ****   *         @arg @ref LL_AHB1_GRP1_PERIPH_FLASH
 294:Drivers/STM32G4xx_HAL_Driver/Inc/stm32g4xx_ll_bus.h ****   *         @arg @ref LL_AHB1_GRP1_PERIPH_CRC
 295:Drivers/STM32G4xx_HAL_Driver/Inc/stm32g4xx_ll_bus.h ****   * @retval None
 296:Drivers/STM32G4xx_HAL_Driver/Inc/stm32g4xx_ll_bus.h ****   */
 297:Drivers/STM32G4xx_HAL_Driver/Inc/stm32g4xx_ll_bus.h **** __STATIC_INLINE void LL_AHB1_GRP1_DisableClock(uint32_t Periphs)
 298:Drivers/STM32G4xx_HAL_Driver/Inc/stm32g4xx_ll_bus.h **** {
 299:Drivers/STM32G4xx_HAL_Driver/Inc/stm32g4xx_ll_bus.h ****   CLEAR_BIT(RCC->AHB1ENR, Periphs);
 300:Drivers/STM32G4xx_HAL_Driver/Inc/stm32g4xx_ll_bus.h **** }
 301:Drivers/STM32G4xx_HAL_Driver/Inc/stm32g4xx_ll_bus.h **** 
 302:Drivers/STM32G4xx_HAL_Driver/Inc/stm32g4xx_ll_bus.h **** /**
 303:Drivers/STM32G4xx_HAL_Driver/Inc/stm32g4xx_ll_bus.h ****   * @brief  Force AHB1 peripherals reset.
 304:Drivers/STM32G4xx_HAL_Driver/Inc/stm32g4xx_ll_bus.h ****   * @rmtoll AHB1RSTR     DMA1RST       LL_AHB1_GRP1_ForceReset\n
 305:Drivers/STM32G4xx_HAL_Driver/Inc/stm32g4xx_ll_bus.h ****   *         AHB1RSTR     DMA2RST       LL_AHB1_GRP1_ForceReset\n
 306:Drivers/STM32G4xx_HAL_Driver/Inc/stm32g4xx_ll_bus.h ****   *         AHB1RSTR     DMAMUXRST     LL_AHB1_GRP1_ForceReset\n
 307:Drivers/STM32G4xx_HAL_Driver/Inc/stm32g4xx_ll_bus.h ****   *         AHB1RSTR     CORDICRST     LL_AHB1_GRP1_ForceReset\n
 308:Drivers/STM32G4xx_HAL_Driver/Inc/stm32g4xx_ll_bus.h ****   *         AHB1RSTR     FMACRST       LL_AHB1_GRP1_ForceReset\n
 309:Drivers/STM32G4xx_HAL_Driver/Inc/stm32g4xx_ll_bus.h ****   *         AHB1RSTR     FLASHRST      LL_AHB1_GRP1_ForceReset\n
 310:Drivers/STM32G4xx_HAL_Driver/Inc/stm32g4xx_ll_bus.h ****   *         AHB1RSTR     CRCRST        LL_AHB1_GRP1_ForceReset
 311:Drivers/STM32G4xx_HAL_Driver/Inc/stm32g4xx_ll_bus.h ****   * @param  Periphs This parameter can be a combination of the following values:
 312:Drivers/STM32G4xx_HAL_Driver/Inc/stm32g4xx_ll_bus.h ****   *         @arg @ref LL_AHB1_GRP1_PERIPH_ALL
 313:Drivers/STM32G4xx_HAL_Driver/Inc/stm32g4xx_ll_bus.h ****   *         @arg @ref LL_AHB1_GRP1_PERIPH_DMA1
 314:Drivers/STM32G4xx_HAL_Driver/Inc/stm32g4xx_ll_bus.h ****   *         @arg @ref LL_AHB1_GRP1_PERIPH_DMA2
 315:Drivers/STM32G4xx_HAL_Driver/Inc/stm32g4xx_ll_bus.h ****   *         @arg @ref LL_AHB1_GRP1_PERIPH_DMAMUX1
 316:Drivers/STM32G4xx_HAL_Driver/Inc/stm32g4xx_ll_bus.h ****   *         @arg @ref LL_AHB1_GRP1_PERIPH_CORDIC
 317:Drivers/STM32G4xx_HAL_Driver/Inc/stm32g4xx_ll_bus.h ****   *         @arg @ref LL_AHB1_GRP1_PERIPH_FMAC
 318:Drivers/STM32G4xx_HAL_Driver/Inc/stm32g4xx_ll_bus.h ****   *         @arg @ref LL_AHB1_GRP1_PERIPH_FLASH
 319:Drivers/STM32G4xx_HAL_Driver/Inc/stm32g4xx_ll_bus.h ****   *         @arg @ref LL_AHB1_GRP1_PERIPH_CRC
 320:Drivers/STM32G4xx_HAL_Driver/Inc/stm32g4xx_ll_bus.h ****   * @retval None
 321:Drivers/STM32G4xx_HAL_Driver/Inc/stm32g4xx_ll_bus.h ****   */
 322:Drivers/STM32G4xx_HAL_Driver/Inc/stm32g4xx_ll_bus.h **** __STATIC_INLINE void LL_AHB1_GRP1_ForceReset(uint32_t Periphs)
 323:Drivers/STM32G4xx_HAL_Driver/Inc/stm32g4xx_ll_bus.h **** {
 324:Drivers/STM32G4xx_HAL_Driver/Inc/stm32g4xx_ll_bus.h ****   SET_BIT(RCC->AHB1RSTR, Periphs);
 325:Drivers/STM32G4xx_HAL_Driver/Inc/stm32g4xx_ll_bus.h **** }
 326:Drivers/STM32G4xx_HAL_Driver/Inc/stm32g4xx_ll_bus.h **** 
 327:Drivers/STM32G4xx_HAL_Driver/Inc/stm32g4xx_ll_bus.h **** /**
 328:Drivers/STM32G4xx_HAL_Driver/Inc/stm32g4xx_ll_bus.h ****   * @brief  Release AHB1 peripherals reset.
 329:Drivers/STM32G4xx_HAL_Driver/Inc/stm32g4xx_ll_bus.h ****   * @rmtoll AHB1RSTR     DMA1RST       LL_AHB1_GRP1_ReleaseReset\n
 330:Drivers/STM32G4xx_HAL_Driver/Inc/stm32g4xx_ll_bus.h ****   *         AHB1RSTR     DMA2RST       LL_AHB1_GRP1_ReleaseReset\n
 331:Drivers/STM32G4xx_HAL_Driver/Inc/stm32g4xx_ll_bus.h ****   *         AHB1RSTR     DMAMUXRST     LL_AHB1_GRP1_ReleaseReset\n
ARM GAS  D:\apps\VSCode\data\tmp\ccjbw8Rj.s 			page 23


 332:Drivers/STM32G4xx_HAL_Driver/Inc/stm32g4xx_ll_bus.h ****   *         AHB1RSTR     CORDICRST     LL_AHB1_GRP1_ReleaseReset\n
 333:Drivers/STM32G4xx_HAL_Driver/Inc/stm32g4xx_ll_bus.h ****   *         AHB1RSTR     FMACRST       LL_AHB1_GRP1_ReleaseReset\n
 334:Drivers/STM32G4xx_HAL_Driver/Inc/stm32g4xx_ll_bus.h ****   *         AHB1RSTR     FLASHRST      LL_AHB1_GRP1_ReleaseReset\n
 335:Drivers/STM32G4xx_HAL_Driver/Inc/stm32g4xx_ll_bus.h ****   *         AHB1RSTR     CRCRST        LL_AHB1_GRP1_ReleaseReset
 336:Drivers/STM32G4xx_HAL_Driver/Inc/stm32g4xx_ll_bus.h ****   * @param  Periphs This parameter can be a combination of the following values:
 337:Drivers/STM32G4xx_HAL_Driver/Inc/stm32g4xx_ll_bus.h ****   *         @arg @ref LL_AHB1_GRP1_PERIPH_ALL
 338:Drivers/STM32G4xx_HAL_Driver/Inc/stm32g4xx_ll_bus.h ****   *         @arg @ref LL_AHB1_GRP1_PERIPH_DMA1
 339:Drivers/STM32G4xx_HAL_Driver/Inc/stm32g4xx_ll_bus.h ****   *         @arg @ref LL_AHB1_GRP1_PERIPH_DMA2
 340:Drivers/STM32G4xx_HAL_Driver/Inc/stm32g4xx_ll_bus.h ****   *         @arg @ref LL_AHB1_GRP1_PERIPH_DMAMUX1
 341:Drivers/STM32G4xx_HAL_Driver/Inc/stm32g4xx_ll_bus.h ****   *         @arg @ref LL_AHB1_GRP1_PERIPH_CORDIC
 342:Drivers/STM32G4xx_HAL_Driver/Inc/stm32g4xx_ll_bus.h ****   *         @arg @ref LL_AHB1_GRP1_PERIPH_FMAC
 343:Drivers/STM32G4xx_HAL_Driver/Inc/stm32g4xx_ll_bus.h ****   *         @arg @ref LL_AHB1_GRP1_PERIPH_FLASH
 344:Drivers/STM32G4xx_HAL_Driver/Inc/stm32g4xx_ll_bus.h ****   *         @arg @ref LL_AHB1_GRP1_PERIPH_CRC
 345:Drivers/STM32G4xx_HAL_Driver/Inc/stm32g4xx_ll_bus.h ****   * @retval None
 346:Drivers/STM32G4xx_HAL_Driver/Inc/stm32g4xx_ll_bus.h ****   */
 347:Drivers/STM32G4xx_HAL_Driver/Inc/stm32g4xx_ll_bus.h **** __STATIC_INLINE void LL_AHB1_GRP1_ReleaseReset(uint32_t Periphs)
 348:Drivers/STM32G4xx_HAL_Driver/Inc/stm32g4xx_ll_bus.h **** {
 349:Drivers/STM32G4xx_HAL_Driver/Inc/stm32g4xx_ll_bus.h ****   CLEAR_BIT(RCC->AHB1RSTR, Periphs);
 350:Drivers/STM32G4xx_HAL_Driver/Inc/stm32g4xx_ll_bus.h **** }
 351:Drivers/STM32G4xx_HAL_Driver/Inc/stm32g4xx_ll_bus.h **** 
 352:Drivers/STM32G4xx_HAL_Driver/Inc/stm32g4xx_ll_bus.h **** /**
 353:Drivers/STM32G4xx_HAL_Driver/Inc/stm32g4xx_ll_bus.h ****   * @brief  Enable AHB1 peripheral clocks in Sleep and Stop modes
 354:Drivers/STM32G4xx_HAL_Driver/Inc/stm32g4xx_ll_bus.h ****   * @rmtoll AHB1SMENR    DMA1SMEN      LL_AHB1_GRP1_EnableClockStopSleep\n
 355:Drivers/STM32G4xx_HAL_Driver/Inc/stm32g4xx_ll_bus.h ****   *         AHB1SMENR    DMA2SMEN      LL_AHB1_GRP1_EnableClockStopSleep\n
 356:Drivers/STM32G4xx_HAL_Driver/Inc/stm32g4xx_ll_bus.h ****   *         AHB1SMENR    DMAMUXSMEN    LL_AHB1_GRP1_EnableClockStopSleep\n
 357:Drivers/STM32G4xx_HAL_Driver/Inc/stm32g4xx_ll_bus.h ****   *         AHB1SMENR    CORDICSMEN    LL_AHB1_GRP1_EnableClockStopSleep\n
 358:Drivers/STM32G4xx_HAL_Driver/Inc/stm32g4xx_ll_bus.h ****   *         AHB1SMENR    FMACSMEN      LL_AHB1_GRP1_EnableClockStopSleep\n
 359:Drivers/STM32G4xx_HAL_Driver/Inc/stm32g4xx_ll_bus.h ****   *         AHB1SMENR    FLASHSMEN     LL_AHB1_GRP1_EnableClockStopSleep\n
 360:Drivers/STM32G4xx_HAL_Driver/Inc/stm32g4xx_ll_bus.h ****   *         AHB1SMENR    SRAM1SMEN     LL_AHB1_GRP1_DisableClockStopSleep\n
 361:Drivers/STM32G4xx_HAL_Driver/Inc/stm32g4xx_ll_bus.h ****   *         AHB1SMENR    CRCSMEN       LL_AHB1_GRP1_EnableClockStopSleep
 362:Drivers/STM32G4xx_HAL_Driver/Inc/stm32g4xx_ll_bus.h ****   * @param  Periphs This parameter can be a combination of the following values:
 363:Drivers/STM32G4xx_HAL_Driver/Inc/stm32g4xx_ll_bus.h ****   *         @arg @ref LL_AHB1_GRP1_PERIPH_DMA1
 364:Drivers/STM32G4xx_HAL_Driver/Inc/stm32g4xx_ll_bus.h ****   *         @arg @ref LL_AHB1_GRP1_PERIPH_DMA2
 365:Drivers/STM32G4xx_HAL_Driver/Inc/stm32g4xx_ll_bus.h ****   *         @arg @ref LL_AHB1_GRP1_PERIPH_DMAMUX1
 366:Drivers/STM32G4xx_HAL_Driver/Inc/stm32g4xx_ll_bus.h ****   *         @arg @ref LL_AHB1_GRP1_PERIPH_CORDIC
 367:Drivers/STM32G4xx_HAL_Driver/Inc/stm32g4xx_ll_bus.h ****   *         @arg @ref LL_AHB1_GRP1_PERIPH_FMAC
 368:Drivers/STM32G4xx_HAL_Driver/Inc/stm32g4xx_ll_bus.h ****   *         @arg @ref LL_AHB1_GRP1_PERIPH_FLASH
 369:Drivers/STM32G4xx_HAL_Driver/Inc/stm32g4xx_ll_bus.h ****   *         @arg @ref LL_AHB1_GRP1_PERIPH_SRAM1
 370:Drivers/STM32G4xx_HAL_Driver/Inc/stm32g4xx_ll_bus.h ****   *         @arg @ref LL_AHB1_GRP1_PERIPH_CRC
 371:Drivers/STM32G4xx_HAL_Driver/Inc/stm32g4xx_ll_bus.h ****   * @retval None
 372:Drivers/STM32G4xx_HAL_Driver/Inc/stm32g4xx_ll_bus.h ****   */
 373:Drivers/STM32G4xx_HAL_Driver/Inc/stm32g4xx_ll_bus.h **** __STATIC_INLINE void LL_AHB1_GRP1_EnableClockStopSleep(uint32_t Periphs)
 374:Drivers/STM32G4xx_HAL_Driver/Inc/stm32g4xx_ll_bus.h **** {
 375:Drivers/STM32G4xx_HAL_Driver/Inc/stm32g4xx_ll_bus.h ****   __IO uint32_t tmpreg;
 376:Drivers/STM32G4xx_HAL_Driver/Inc/stm32g4xx_ll_bus.h ****   SET_BIT(RCC->AHB1SMENR, Periphs);
 377:Drivers/STM32G4xx_HAL_Driver/Inc/stm32g4xx_ll_bus.h ****   /* Delay after an RCC peripheral clock enabling */
 378:Drivers/STM32G4xx_HAL_Driver/Inc/stm32g4xx_ll_bus.h ****   tmpreg = READ_BIT(RCC->AHB1SMENR, Periphs);
 379:Drivers/STM32G4xx_HAL_Driver/Inc/stm32g4xx_ll_bus.h ****   (void)tmpreg;
 380:Drivers/STM32G4xx_HAL_Driver/Inc/stm32g4xx_ll_bus.h **** }
 381:Drivers/STM32G4xx_HAL_Driver/Inc/stm32g4xx_ll_bus.h **** 
 382:Drivers/STM32G4xx_HAL_Driver/Inc/stm32g4xx_ll_bus.h **** /**
 383:Drivers/STM32G4xx_HAL_Driver/Inc/stm32g4xx_ll_bus.h ****   * @brief  Disable AHB1 peripheral clocks in Sleep and Stop modes
 384:Drivers/STM32G4xx_HAL_Driver/Inc/stm32g4xx_ll_bus.h ****   * @rmtoll AHB1SMENR    DMA1SMEN      LL_AHB1_GRP1_DisableClockStopSleep\n
 385:Drivers/STM32G4xx_HAL_Driver/Inc/stm32g4xx_ll_bus.h ****   *         AHB1SMENR    DMA2SMEN      LL_AHB1_GRP1_DisableClockStopSleep\n
 386:Drivers/STM32G4xx_HAL_Driver/Inc/stm32g4xx_ll_bus.h ****   *         AHB1SMENR    DMAMUXSMEN    LL_AHB1_GRP1_DisableClockStopSleep\n
 387:Drivers/STM32G4xx_HAL_Driver/Inc/stm32g4xx_ll_bus.h ****   *         AHB1SMENR    CORDICSMEN    LL_AHB1_GRP1_DisableClockStopSleep\n
 388:Drivers/STM32G4xx_HAL_Driver/Inc/stm32g4xx_ll_bus.h ****   *         AHB1SMENR    FMACSMEN      LL_AHB1_GRP1_DisableClockStopSleep\n
ARM GAS  D:\apps\VSCode\data\tmp\ccjbw8Rj.s 			page 24


 389:Drivers/STM32G4xx_HAL_Driver/Inc/stm32g4xx_ll_bus.h ****   *         AHB1SMENR    FLASHSMEN     LL_AHB1_GRP1_DisableClockStopSleep\n
 390:Drivers/STM32G4xx_HAL_Driver/Inc/stm32g4xx_ll_bus.h ****   *         AHB1SMENR    SRAM1SMEN     LL_AHB1_GRP1_DisableClockStopSleep\n
 391:Drivers/STM32G4xx_HAL_Driver/Inc/stm32g4xx_ll_bus.h ****   *         AHB1SMENR    CRCSMEN       LL_AHB1_GRP1_DisableClockStopSleep
 392:Drivers/STM32G4xx_HAL_Driver/Inc/stm32g4xx_ll_bus.h ****   * @param  Periphs This parameter can be a combination of the following values:
 393:Drivers/STM32G4xx_HAL_Driver/Inc/stm32g4xx_ll_bus.h ****   *         @arg @ref LL_AHB1_GRP1_PERIPH_DMA1
 394:Drivers/STM32G4xx_HAL_Driver/Inc/stm32g4xx_ll_bus.h ****   *         @arg @ref LL_AHB1_GRP1_PERIPH_DMA2
 395:Drivers/STM32G4xx_HAL_Driver/Inc/stm32g4xx_ll_bus.h ****   *         @arg @ref LL_AHB1_GRP1_PERIPH_DMAMUX1
 396:Drivers/STM32G4xx_HAL_Driver/Inc/stm32g4xx_ll_bus.h ****   *         @arg @ref LL_AHB1_GRP1_PERIPH_CORDIC
 397:Drivers/STM32G4xx_HAL_Driver/Inc/stm32g4xx_ll_bus.h ****   *         @arg @ref LL_AHB1_GRP1_PERIPH_FMAC
 398:Drivers/STM32G4xx_HAL_Driver/Inc/stm32g4xx_ll_bus.h ****   *         @arg @ref LL_AHB1_GRP1_PERIPH_FLASH
 399:Drivers/STM32G4xx_HAL_Driver/Inc/stm32g4xx_ll_bus.h ****   *         @arg @ref LL_AHB1_GRP1_PERIPH_SRAM1
 400:Drivers/STM32G4xx_HAL_Driver/Inc/stm32g4xx_ll_bus.h ****   *         @arg @ref LL_AHB1_GRP1_PERIPH_CRC
 401:Drivers/STM32G4xx_HAL_Driver/Inc/stm32g4xx_ll_bus.h ****   * @retval None
 402:Drivers/STM32G4xx_HAL_Driver/Inc/stm32g4xx_ll_bus.h ****   */
 403:Drivers/STM32G4xx_HAL_Driver/Inc/stm32g4xx_ll_bus.h **** __STATIC_INLINE void LL_AHB1_GRP1_DisableClockStopSleep(uint32_t Periphs)
 404:Drivers/STM32G4xx_HAL_Driver/Inc/stm32g4xx_ll_bus.h **** {
 405:Drivers/STM32G4xx_HAL_Driver/Inc/stm32g4xx_ll_bus.h ****   CLEAR_BIT(RCC->AHB1SMENR, Periphs);
 406:Drivers/STM32G4xx_HAL_Driver/Inc/stm32g4xx_ll_bus.h **** }
 407:Drivers/STM32G4xx_HAL_Driver/Inc/stm32g4xx_ll_bus.h **** 
 408:Drivers/STM32G4xx_HAL_Driver/Inc/stm32g4xx_ll_bus.h **** /**
 409:Drivers/STM32G4xx_HAL_Driver/Inc/stm32g4xx_ll_bus.h ****   * @}
 410:Drivers/STM32G4xx_HAL_Driver/Inc/stm32g4xx_ll_bus.h ****   */
 411:Drivers/STM32G4xx_HAL_Driver/Inc/stm32g4xx_ll_bus.h **** 
 412:Drivers/STM32G4xx_HAL_Driver/Inc/stm32g4xx_ll_bus.h **** /** @defgroup BUS_LL_EF_AHB2 AHB2
 413:Drivers/STM32G4xx_HAL_Driver/Inc/stm32g4xx_ll_bus.h ****   * @{
 414:Drivers/STM32G4xx_HAL_Driver/Inc/stm32g4xx_ll_bus.h ****   */
 415:Drivers/STM32G4xx_HAL_Driver/Inc/stm32g4xx_ll_bus.h **** 
 416:Drivers/STM32G4xx_HAL_Driver/Inc/stm32g4xx_ll_bus.h **** /**
 417:Drivers/STM32G4xx_HAL_Driver/Inc/stm32g4xx_ll_bus.h ****   * @brief  Enable AHB2 peripherals clock.
 418:Drivers/STM32G4xx_HAL_Driver/Inc/stm32g4xx_ll_bus.h ****   * @rmtoll AHB2ENR      GPIOAEN       LL_AHB2_GRP1_EnableClock\n
 419:Drivers/STM32G4xx_HAL_Driver/Inc/stm32g4xx_ll_bus.h ****   *         AHB2ENR      GPIOBEN       LL_AHB2_GRP1_EnableClock\n
 420:Drivers/STM32G4xx_HAL_Driver/Inc/stm32g4xx_ll_bus.h ****   *         AHB2ENR      GPIOCEN       LL_AHB2_GRP1_EnableClock\n
 421:Drivers/STM32G4xx_HAL_Driver/Inc/stm32g4xx_ll_bus.h ****   *         AHB2ENR      GPIODEN       LL_AHB2_GRP1_EnableClock\n
 422:Drivers/STM32G4xx_HAL_Driver/Inc/stm32g4xx_ll_bus.h ****   *         AHB2ENR      GPIOEEN       LL_AHB2_GRP1_EnableClock\n
 423:Drivers/STM32G4xx_HAL_Driver/Inc/stm32g4xx_ll_bus.h ****   *         AHB2ENR      GPIOFEN       LL_AHB2_GRP1_EnableClock\n
 424:Drivers/STM32G4xx_HAL_Driver/Inc/stm32g4xx_ll_bus.h ****   *         AHB2ENR      GPIOGEN       LL_AHB2_GRP1_EnableClock\n
 425:Drivers/STM32G4xx_HAL_Driver/Inc/stm32g4xx_ll_bus.h ****   *         AHB2ENR      ADC12EN       LL_AHB2_GRP1_EnableClock\n
 426:Drivers/STM32G4xx_HAL_Driver/Inc/stm32g4xx_ll_bus.h ****   *         AHB2ENR      ADC345EN      LL_AHB2_GRP1_EnableClock\n
 427:Drivers/STM32G4xx_HAL_Driver/Inc/stm32g4xx_ll_bus.h ****   *         AHB2ENR      DAC1EN        LL_AHB2_GRP1_EnableClock\n
 428:Drivers/STM32G4xx_HAL_Driver/Inc/stm32g4xx_ll_bus.h ****   *         AHB2ENR      DAC2EN        LL_AHB2_GRP1_EnableClock\n
 429:Drivers/STM32G4xx_HAL_Driver/Inc/stm32g4xx_ll_bus.h ****   *         AHB2ENR      DAC3EN        LL_AHB2_GRP1_EnableClock\n
 430:Drivers/STM32G4xx_HAL_Driver/Inc/stm32g4xx_ll_bus.h ****   *         AHB2ENR      DAC4EN        LL_AHB2_GRP1_EnableClock\n
 431:Drivers/STM32G4xx_HAL_Driver/Inc/stm32g4xx_ll_bus.h ****   *         AHB2ENR      AESEN         LL_AHB2_GRP1_EnableClock\n
 432:Drivers/STM32G4xx_HAL_Driver/Inc/stm32g4xx_ll_bus.h ****   *         AHB2ENR      RNGEN         LL_AHB2_GRP1_EnableClock
 433:Drivers/STM32G4xx_HAL_Driver/Inc/stm32g4xx_ll_bus.h ****   * @param  Periphs This parameter can be a combination of the following values:
 434:Drivers/STM32G4xx_HAL_Driver/Inc/stm32g4xx_ll_bus.h ****   *         @arg @ref LL_AHB2_GRP1_PERIPH_GPIOA
 435:Drivers/STM32G4xx_HAL_Driver/Inc/stm32g4xx_ll_bus.h ****   *         @arg @ref LL_AHB2_GRP1_PERIPH_GPIOB
 436:Drivers/STM32G4xx_HAL_Driver/Inc/stm32g4xx_ll_bus.h ****   *         @arg @ref LL_AHB2_GRP1_PERIPH_GPIOC
 437:Drivers/STM32G4xx_HAL_Driver/Inc/stm32g4xx_ll_bus.h ****   *         @arg @ref LL_AHB2_GRP1_PERIPH_GPIOD
 438:Drivers/STM32G4xx_HAL_Driver/Inc/stm32g4xx_ll_bus.h ****   *         @arg @ref LL_AHB2_GRP1_PERIPH_GPIOE
 439:Drivers/STM32G4xx_HAL_Driver/Inc/stm32g4xx_ll_bus.h ****   *         @arg @ref LL_AHB2_GRP1_PERIPH_GPIOF
 440:Drivers/STM32G4xx_HAL_Driver/Inc/stm32g4xx_ll_bus.h ****   *         @arg @ref LL_AHB2_GRP1_PERIPH_GPIOG
 441:Drivers/STM32G4xx_HAL_Driver/Inc/stm32g4xx_ll_bus.h ****   *         @arg @ref LL_AHB2_GRP1_PERIPH_ADC12
 442:Drivers/STM32G4xx_HAL_Driver/Inc/stm32g4xx_ll_bus.h ****   *         @arg @ref LL_AHB2_GRP1_PERIPH_ADC345 (*)
 443:Drivers/STM32G4xx_HAL_Driver/Inc/stm32g4xx_ll_bus.h ****   *         @arg @ref LL_AHB2_GRP1_PERIPH_DAC1
 444:Drivers/STM32G4xx_HAL_Driver/Inc/stm32g4xx_ll_bus.h ****   *         @arg @ref LL_AHB2_GRP1_PERIPH_DAC2 (*)
 445:Drivers/STM32G4xx_HAL_Driver/Inc/stm32g4xx_ll_bus.h ****   *         @arg @ref LL_AHB2_GRP1_PERIPH_DAC3
ARM GAS  D:\apps\VSCode\data\tmp\ccjbw8Rj.s 			page 25


 446:Drivers/STM32G4xx_HAL_Driver/Inc/stm32g4xx_ll_bus.h ****   *         @arg @ref LL_AHB2_GRP1_PERIPH_DAC4 (*)
 447:Drivers/STM32G4xx_HAL_Driver/Inc/stm32g4xx_ll_bus.h ****   *         @arg @ref LL_AHB2_GRP1_PERIPH_AES (*)
 448:Drivers/STM32G4xx_HAL_Driver/Inc/stm32g4xx_ll_bus.h ****   *         @arg @ref LL_AHB2_GRP1_PERIPH_RNG
 449:Drivers/STM32G4xx_HAL_Driver/Inc/stm32g4xx_ll_bus.h ****   *
 450:Drivers/STM32G4xx_HAL_Driver/Inc/stm32g4xx_ll_bus.h ****   *         (*) value not defined in all devices.
 451:Drivers/STM32G4xx_HAL_Driver/Inc/stm32g4xx_ll_bus.h ****   * @retval None
 452:Drivers/STM32G4xx_HAL_Driver/Inc/stm32g4xx_ll_bus.h ****   */
 453:Drivers/STM32G4xx_HAL_Driver/Inc/stm32g4xx_ll_bus.h **** __STATIC_INLINE void LL_AHB2_GRP1_EnableClock(uint32_t Periphs)
 454:Drivers/STM32G4xx_HAL_Driver/Inc/stm32g4xx_ll_bus.h **** {
 455:Drivers/STM32G4xx_HAL_Driver/Inc/stm32g4xx_ll_bus.h ****   __IO uint32_t tmpreg;
 456:Drivers/STM32G4xx_HAL_Driver/Inc/stm32g4xx_ll_bus.h ****   SET_BIT(RCC->AHB2ENR, Periphs);
 212              		.loc 3 456 3 view .LVU42
 213 0016 234B     		ldr	r3, .L20
 214              	.LBE49:
 215              	.LBE48:
  56:Src/comp.c    **** 
 216              		.loc 1 56 23 view .LVU43
 217 0018 0794     		str	r4, [sp, #28]
 218              		.loc 1 58 3 is_stmt 1 view .LVU44
  59:Src/comp.c    **** 
  60:Src/comp.c    ****   LL_AHB2_GRP1_EnableClock(LL_AHB2_GRP1_PERIPH_GPIOB);
 219              		.loc 1 60 3 view .LVU45
 220              	.LVL4:
 221              	.LBB53:
 222              	.LBI48:
 453:Drivers/STM32G4xx_HAL_Driver/Inc/stm32g4xx_ll_bus.h **** {
 223              		.loc 3 453 22 view .LVU46
 224              	.LBB50:
 455:Drivers/STM32G4xx_HAL_Driver/Inc/stm32g4xx_ll_bus.h ****   SET_BIT(RCC->AHB2ENR, Periphs);
 225              		.loc 3 455 3 view .LVU47
 226              		.loc 3 456 3 view .LVU48
 227 001a DA6C     		ldr	r2, [r3, #76]
 228              	.LBE50:
 229              	.LBE53:
  61:Src/comp.c    ****   /**COMP1 GPIO Configuration
  62:Src/comp.c    ****   PB1   ------> COMP1_INP
  63:Src/comp.c    ****   */
  64:Src/comp.c    ****   GPIO_InitStruct.Pin = CMPR_IB_Pin;
  65:Src/comp.c    ****   GPIO_InitStruct.Mode = LL_GPIO_MODE_ANALOG;
  66:Src/comp.c    ****   GPIO_InitStruct.Pull = LL_GPIO_PULL_NO;
  67:Src/comp.c    ****   LL_GPIO_Init(CMPR_IB_GPIO_Port, &GPIO_InitStruct);
 230              		.loc 1 67 3 is_stmt 0 view .LVU49
 231 001c 2248     		ldr	r0, .L20+4
 232              	.LBB54:
 233              	.LBB51:
 234              		.loc 3 456 3 view .LVU50
 235 001e 42F00202 		orr	r2, r2, #2
 236 0022 DA64     		str	r2, [r3, #76]
 457:Drivers/STM32G4xx_HAL_Driver/Inc/stm32g4xx_ll_bus.h ****   /* Delay after an RCC peripheral clock enabling */
 458:Drivers/STM32G4xx_HAL_Driver/Inc/stm32g4xx_ll_bus.h ****   tmpreg = READ_BIT(RCC->AHB2ENR, Periphs);
 237              		.loc 3 458 3 is_stmt 1 view .LVU51
 238              		.loc 3 458 12 is_stmt 0 view .LVU52
 239 0024 DB6C     		ldr	r3, [r3, #76]
 240 0026 03F00203 		and	r3, r3, #2
 241              		.loc 3 458 10 view .LVU53
 242 002a 0293     		str	r3, [sp, #8]
 459:Drivers/STM32G4xx_HAL_Driver/Inc/stm32g4xx_ll_bus.h ****   (void)tmpreg;
ARM GAS  D:\apps\VSCode\data\tmp\ccjbw8Rj.s 			page 26


 243              		.loc 3 459 3 is_stmt 1 view .LVU54
 244              	.LBE51:
 245              	.LBE54:
  64:Src/comp.c    ****   GPIO_InitStruct.Mode = LL_GPIO_MODE_ANALOG;
 246              		.loc 1 64 23 is_stmt 0 view .LVU55
 247 002c 0222     		movs	r2, #2
  65:Src/comp.c    ****   GPIO_InitStruct.Pull = LL_GPIO_PULL_NO;
 248              		.loc 1 65 24 view .LVU56
 249 002e 0323     		movs	r3, #3
 250              		.loc 1 67 3 view .LVU57
 251 0030 08A9     		add	r1, sp, #32
  65:Src/comp.c    ****   GPIO_InitStruct.Pull = LL_GPIO_PULL_NO;
 252              		.loc 1 65 24 view .LVU58
 253 0032 CDE90823 		strd	r2, r3, [sp, #32]
 254              	.LBB55:
 255              	.LBB52:
 256              		.loc 3 459 3 view .LVU59
 257 0036 029D     		ldr	r5, [sp, #8]
 258              	.LVL5:
 259              		.loc 3 459 3 view .LVU60
 260              	.LBE52:
 261              	.LBE55:
  64:Src/comp.c    ****   GPIO_InitStruct.Mode = LL_GPIO_MODE_ANALOG;
 262              		.loc 1 64 3 is_stmt 1 view .LVU61
  66:Src/comp.c    ****   LL_GPIO_Init(CMPR_IB_GPIO_Port, &GPIO_InitStruct);
 263              		.loc 1 66 3 view .LVU62
 264              		.loc 1 67 3 view .LVU63
 265 0038 FFF7FEFF 		bl	LL_GPIO_Init
 266              	.LVL6:
  68:Src/comp.c    **** 
  69:Src/comp.c    ****   /* USER CODE BEGIN COMP1_Init 1 */
  70:Src/comp.c    **** 
  71:Src/comp.c    ****   /* USER CODE END COMP1_Init 1 */
  72:Src/comp.c    ****   COMP_InitStruct.InputPlus = LL_COMP_INPUT_PLUS_IO2;
 267              		.loc 1 72 3 view .LVU64
 268              		.loc 1 72 29 is_stmt 0 view .LVU65
 269 003c 4FF48072 		mov	r2, #256
  73:Src/comp.c    ****   COMP_InitStruct.InputMinus = LL_COMP_INPUT_MINUS_DAC3_CH1;
 270              		.loc 1 73 30 view .LVU66
 271 0040 4023     		movs	r3, #64
  74:Src/comp.c    ****   COMP_InitStruct.InputHysteresis = LL_COMP_HYSTERESIS_NONE;
  75:Src/comp.c    ****   COMP_InitStruct.OutputPolarity = LL_COMP_OUTPUTPOL_NONINVERTED;
  76:Src/comp.c    ****   COMP_InitStruct.OutputBlankingSource = LL_COMP_BLANKINGSRC_NONE;
  77:Src/comp.c    ****   LL_COMP_Init(COMP1, &COMP_InitStruct);
 272              		.loc 1 77 3 view .LVU67
 273 0042 03A9     		add	r1, sp, #12
 274 0044 1948     		ldr	r0, .L20+8
  76:Src/comp.c    ****   LL_COMP_Init(COMP1, &COMP_InitStruct);
 275              		.loc 1 76 40 view .LVU68
 276 0046 0794     		str	r4, [sp, #28]
  73:Src/comp.c    ****   COMP_InitStruct.InputMinus = LL_COMP_INPUT_MINUS_DAC3_CH1;
 277              		.loc 1 73 30 view .LVU69
 278 0048 CDE90323 		strd	r2, r3, [sp, #12]
  74:Src/comp.c    ****   COMP_InitStruct.InputHysteresis = LL_COMP_HYSTERESIS_NONE;
 279              		.loc 1 74 3 is_stmt 1 view .LVU70
  75:Src/comp.c    ****   COMP_InitStruct.OutputBlankingSource = LL_COMP_BLANKINGSRC_NONE;
 280              		.loc 1 75 3 view .LVU71
ARM GAS  D:\apps\VSCode\data\tmp\ccjbw8Rj.s 			page 27


  76:Src/comp.c    ****   LL_COMP_Init(COMP1, &COMP_InitStruct);
 281              		.loc 1 76 3 view .LVU72
 282              		.loc 1 77 3 view .LVU73
  75:Src/comp.c    ****   COMP_InitStruct.OutputBlankingSource = LL_COMP_BLANKINGSRC_NONE;
 283              		.loc 1 75 34 is_stmt 0 view .LVU74
 284 004c CDE90544 		strd	r4, r4, [sp, #20]
 285              		.loc 1 77 3 view .LVU75
 286 0050 FFF7FEFF 		bl	LL_COMP_Init
 287              	.LVL7:
  78:Src/comp.c    **** 
  79:Src/comp.c    ****   /* Wait loop initialization and execution */
  80:Src/comp.c    ****   /* Note: Variable divided by 2 to compensate partially CPU processing cycles */
  81:Src/comp.c    ****   __IO uint32_t wait_loop_index = 0;
 288              		.loc 1 81 3 is_stmt 1 view .LVU76
  82:Src/comp.c    ****   wait_loop_index = (LL_COMP_DELAY_VOLTAGE_SCALER_STAB_US * (SystemCoreClock / (1000000 * 2)));
 289              		.loc 1 82 78 is_stmt 0 view .LVU77
 290 0054 164B     		ldr	r3, .L20+12
 291 0056 174A     		ldr	r2, .L20+16
 292 0058 1B68     		ldr	r3, [r3]
  81:Src/comp.c    ****   wait_loop_index = (LL_COMP_DELAY_VOLTAGE_SCALER_STAB_US * (SystemCoreClock / (1000000 * 2)));
 293              		.loc 1 81 17 view .LVU78
 294 005a 0194     		str	r4, [sp, #4]
 295              		.loc 1 82 3 is_stmt 1 view .LVU79
 296              		.loc 1 82 78 is_stmt 0 view .LVU80
 297 005c A2FB0323 		umull	r2, r3, r2, r3
 298 0060 DB0C     		lsrs	r3, r3, #19
 299              		.loc 1 82 59 view .LVU81
 300 0062 C822     		movs	r2, #200
 301 0064 02FB03F3 		mul	r3, r2, r3
 302              		.loc 1 82 19 view .LVU82
 303 0068 0193     		str	r3, [sp, #4]
  83:Src/comp.c    ****   while(wait_loop_index != 0)
 304              		.loc 1 83 3 is_stmt 1 view .LVU83
 305              		.loc 1 83 25 is_stmt 0 view .LVU84
 306 006a 019B     		ldr	r3, [sp, #4]
 307              		.loc 1 83 8 view .LVU85
 308 006c 2BB1     		cbz	r3, .L13
 309              	.L14:
  84:Src/comp.c    ****   {
  85:Src/comp.c    ****     wait_loop_index--;
 310              		.loc 1 85 5 is_stmt 1 view .LVU86
 311              		.loc 1 85 20 is_stmt 0 view .LVU87
 312 006e 019B     		ldr	r3, [sp, #4]
 313 0070 013B     		subs	r3, r3, #1
 314 0072 0193     		str	r3, [sp, #4]
  83:Src/comp.c    ****   while(wait_loop_index != 0)
 315              		.loc 1 83 25 view .LVU88
 316 0074 019B     		ldr	r3, [sp, #4]
  83:Src/comp.c    ****   while(wait_loop_index != 0)
 317              		.loc 1 83 8 view .LVU89
 318 0076 002B     		cmp	r3, #0
 319 0078 F9D1     		bne	.L14
 320              	.L13:
  86:Src/comp.c    ****   }
  87:Src/comp.c    ****   LL_EXTI_EnableRisingTrig_0_31(LL_EXTI_LINE_21);
 321              		.loc 1 87 3 is_stmt 1 view .LVU90
 322              	.LVL8:
ARM GAS  D:\apps\VSCode\data\tmp\ccjbw8Rj.s 			page 28


 323              	.LBB56:
 324              	.LBI56:
 325              		.file 4 "Drivers/STM32G4xx_HAL_Driver/Inc/stm32g4xx_ll_exti.h"
   1:Drivers/STM32G4xx_HAL_Driver/Inc/stm32g4xx_ll_exti.h **** /**
   2:Drivers/STM32G4xx_HAL_Driver/Inc/stm32g4xx_ll_exti.h ****   ******************************************************************************
   3:Drivers/STM32G4xx_HAL_Driver/Inc/stm32g4xx_ll_exti.h ****   * @file    stm32g4xx_ll_exti.h
   4:Drivers/STM32G4xx_HAL_Driver/Inc/stm32g4xx_ll_exti.h ****   * @author  MCD Application Team
   5:Drivers/STM32G4xx_HAL_Driver/Inc/stm32g4xx_ll_exti.h ****   * @brief   Header file of EXTI LL module.
   6:Drivers/STM32G4xx_HAL_Driver/Inc/stm32g4xx_ll_exti.h ****   ******************************************************************************
   7:Drivers/STM32G4xx_HAL_Driver/Inc/stm32g4xx_ll_exti.h ****   * @attention
   8:Drivers/STM32G4xx_HAL_Driver/Inc/stm32g4xx_ll_exti.h ****   *
   9:Drivers/STM32G4xx_HAL_Driver/Inc/stm32g4xx_ll_exti.h ****   * <h2><center>&copy; Copyright (c) 2019 STMicroelectronics.
  10:Drivers/STM32G4xx_HAL_Driver/Inc/stm32g4xx_ll_exti.h ****   * All rights reserved.</center></h2>
  11:Drivers/STM32G4xx_HAL_Driver/Inc/stm32g4xx_ll_exti.h ****   *
  12:Drivers/STM32G4xx_HAL_Driver/Inc/stm32g4xx_ll_exti.h ****   * This software component is licensed by ST under BSD 3-Clause license,
  13:Drivers/STM32G4xx_HAL_Driver/Inc/stm32g4xx_ll_exti.h ****   * the "License"; You may not use this file except in compliance with the
  14:Drivers/STM32G4xx_HAL_Driver/Inc/stm32g4xx_ll_exti.h ****   * License. You may obtain a copy of the License at:
  15:Drivers/STM32G4xx_HAL_Driver/Inc/stm32g4xx_ll_exti.h ****   *                        opensource.org/licenses/BSD-3-Clause
  16:Drivers/STM32G4xx_HAL_Driver/Inc/stm32g4xx_ll_exti.h ****   *
  17:Drivers/STM32G4xx_HAL_Driver/Inc/stm32g4xx_ll_exti.h ****   ******************************************************************************
  18:Drivers/STM32G4xx_HAL_Driver/Inc/stm32g4xx_ll_exti.h ****   */
  19:Drivers/STM32G4xx_HAL_Driver/Inc/stm32g4xx_ll_exti.h **** 
  20:Drivers/STM32G4xx_HAL_Driver/Inc/stm32g4xx_ll_exti.h **** /* Define to prevent recursive inclusion -------------------------------------*/
  21:Drivers/STM32G4xx_HAL_Driver/Inc/stm32g4xx_ll_exti.h **** #ifndef __STM32G4xx_LL_EXTI_H
  22:Drivers/STM32G4xx_HAL_Driver/Inc/stm32g4xx_ll_exti.h **** #define __STM32G4xx_LL_EXTI_H
  23:Drivers/STM32G4xx_HAL_Driver/Inc/stm32g4xx_ll_exti.h **** 
  24:Drivers/STM32G4xx_HAL_Driver/Inc/stm32g4xx_ll_exti.h **** #ifdef __cplusplus
  25:Drivers/STM32G4xx_HAL_Driver/Inc/stm32g4xx_ll_exti.h **** extern "C" {
  26:Drivers/STM32G4xx_HAL_Driver/Inc/stm32g4xx_ll_exti.h **** #endif
  27:Drivers/STM32G4xx_HAL_Driver/Inc/stm32g4xx_ll_exti.h **** 
  28:Drivers/STM32G4xx_HAL_Driver/Inc/stm32g4xx_ll_exti.h **** /* Includes ------------------------------------------------------------------*/
  29:Drivers/STM32G4xx_HAL_Driver/Inc/stm32g4xx_ll_exti.h **** #include "stm32g4xx.h"
  30:Drivers/STM32G4xx_HAL_Driver/Inc/stm32g4xx_ll_exti.h **** 
  31:Drivers/STM32G4xx_HAL_Driver/Inc/stm32g4xx_ll_exti.h **** /** @addtogroup STM32G4xx_LL_Driver
  32:Drivers/STM32G4xx_HAL_Driver/Inc/stm32g4xx_ll_exti.h ****   * @{
  33:Drivers/STM32G4xx_HAL_Driver/Inc/stm32g4xx_ll_exti.h ****   */
  34:Drivers/STM32G4xx_HAL_Driver/Inc/stm32g4xx_ll_exti.h **** 
  35:Drivers/STM32G4xx_HAL_Driver/Inc/stm32g4xx_ll_exti.h **** #if defined (EXTI)
  36:Drivers/STM32G4xx_HAL_Driver/Inc/stm32g4xx_ll_exti.h **** 
  37:Drivers/STM32G4xx_HAL_Driver/Inc/stm32g4xx_ll_exti.h **** /** @defgroup EXTI_LL EXTI
  38:Drivers/STM32G4xx_HAL_Driver/Inc/stm32g4xx_ll_exti.h ****   * @{
  39:Drivers/STM32G4xx_HAL_Driver/Inc/stm32g4xx_ll_exti.h ****   */
  40:Drivers/STM32G4xx_HAL_Driver/Inc/stm32g4xx_ll_exti.h **** 
  41:Drivers/STM32G4xx_HAL_Driver/Inc/stm32g4xx_ll_exti.h **** /* Private types -------------------------------------------------------------*/
  42:Drivers/STM32G4xx_HAL_Driver/Inc/stm32g4xx_ll_exti.h **** /* Private variables ---------------------------------------------------------*/
  43:Drivers/STM32G4xx_HAL_Driver/Inc/stm32g4xx_ll_exti.h **** /* Private constants ---------------------------------------------------------*/
  44:Drivers/STM32G4xx_HAL_Driver/Inc/stm32g4xx_ll_exti.h **** /* Private Macros ------------------------------------------------------------*/
  45:Drivers/STM32G4xx_HAL_Driver/Inc/stm32g4xx_ll_exti.h **** #if defined(USE_FULL_LL_DRIVER)
  46:Drivers/STM32G4xx_HAL_Driver/Inc/stm32g4xx_ll_exti.h **** /** @defgroup EXTI_LL_Private_Macros EXTI Private Macros
  47:Drivers/STM32G4xx_HAL_Driver/Inc/stm32g4xx_ll_exti.h ****   * @{
  48:Drivers/STM32G4xx_HAL_Driver/Inc/stm32g4xx_ll_exti.h ****   */
  49:Drivers/STM32G4xx_HAL_Driver/Inc/stm32g4xx_ll_exti.h **** /**
  50:Drivers/STM32G4xx_HAL_Driver/Inc/stm32g4xx_ll_exti.h ****   * @}
  51:Drivers/STM32G4xx_HAL_Driver/Inc/stm32g4xx_ll_exti.h ****   */
  52:Drivers/STM32G4xx_HAL_Driver/Inc/stm32g4xx_ll_exti.h **** #endif /*USE_FULL_LL_DRIVER*/
  53:Drivers/STM32G4xx_HAL_Driver/Inc/stm32g4xx_ll_exti.h **** /* Exported types ------------------------------------------------------------*/
  54:Drivers/STM32G4xx_HAL_Driver/Inc/stm32g4xx_ll_exti.h **** #if defined(USE_FULL_LL_DRIVER)
ARM GAS  D:\apps\VSCode\data\tmp\ccjbw8Rj.s 			page 29


  55:Drivers/STM32G4xx_HAL_Driver/Inc/stm32g4xx_ll_exti.h **** /** @defgroup EXTI_LL_ES_INIT EXTI Exported Init structure
  56:Drivers/STM32G4xx_HAL_Driver/Inc/stm32g4xx_ll_exti.h ****   * @{
  57:Drivers/STM32G4xx_HAL_Driver/Inc/stm32g4xx_ll_exti.h ****   */
  58:Drivers/STM32G4xx_HAL_Driver/Inc/stm32g4xx_ll_exti.h **** typedef struct
  59:Drivers/STM32G4xx_HAL_Driver/Inc/stm32g4xx_ll_exti.h **** {
  60:Drivers/STM32G4xx_HAL_Driver/Inc/stm32g4xx_ll_exti.h **** 
  61:Drivers/STM32G4xx_HAL_Driver/Inc/stm32g4xx_ll_exti.h ****   uint32_t Line_0_31;           /*!< Specifies the EXTI lines to be enabled or disabled for Lines i
  62:Drivers/STM32G4xx_HAL_Driver/Inc/stm32g4xx_ll_exti.h ****                                      This parameter can be any combination of @ref EXTI_LL_EC_LINE 
  63:Drivers/STM32G4xx_HAL_Driver/Inc/stm32g4xx_ll_exti.h **** 
  64:Drivers/STM32G4xx_HAL_Driver/Inc/stm32g4xx_ll_exti.h ****   uint32_t Line_32_63;          /*!< Specifies the EXTI lines to be enabled or disabled for Lines i
  65:Drivers/STM32G4xx_HAL_Driver/Inc/stm32g4xx_ll_exti.h ****                                      This parameter can be any combination of @ref EXTI_LL_EC_LINE 
  66:Drivers/STM32G4xx_HAL_Driver/Inc/stm32g4xx_ll_exti.h **** 
  67:Drivers/STM32G4xx_HAL_Driver/Inc/stm32g4xx_ll_exti.h ****   FunctionalState LineCommand;  /*!< Specifies the new state of the selected EXTI lines.
  68:Drivers/STM32G4xx_HAL_Driver/Inc/stm32g4xx_ll_exti.h ****                                      This parameter can be set either to ENABLE or DISABLE */
  69:Drivers/STM32G4xx_HAL_Driver/Inc/stm32g4xx_ll_exti.h **** 
  70:Drivers/STM32G4xx_HAL_Driver/Inc/stm32g4xx_ll_exti.h ****   uint8_t Mode;                 /*!< Specifies the mode for the EXTI lines.
  71:Drivers/STM32G4xx_HAL_Driver/Inc/stm32g4xx_ll_exti.h ****                                      This parameter can be a value of @ref EXTI_LL_EC_MODE. */
  72:Drivers/STM32G4xx_HAL_Driver/Inc/stm32g4xx_ll_exti.h **** 
  73:Drivers/STM32G4xx_HAL_Driver/Inc/stm32g4xx_ll_exti.h ****   uint8_t Trigger;              /*!< Specifies the trigger signal active edge for the EXTI lines.
  74:Drivers/STM32G4xx_HAL_Driver/Inc/stm32g4xx_ll_exti.h ****                                      This parameter can be a value of @ref EXTI_LL_EC_TRIGGER. */
  75:Drivers/STM32G4xx_HAL_Driver/Inc/stm32g4xx_ll_exti.h **** } LL_EXTI_InitTypeDef;
  76:Drivers/STM32G4xx_HAL_Driver/Inc/stm32g4xx_ll_exti.h **** 
  77:Drivers/STM32G4xx_HAL_Driver/Inc/stm32g4xx_ll_exti.h **** /**
  78:Drivers/STM32G4xx_HAL_Driver/Inc/stm32g4xx_ll_exti.h ****   * @}
  79:Drivers/STM32G4xx_HAL_Driver/Inc/stm32g4xx_ll_exti.h ****   */
  80:Drivers/STM32G4xx_HAL_Driver/Inc/stm32g4xx_ll_exti.h **** #endif /*USE_FULL_LL_DRIVER*/
  81:Drivers/STM32G4xx_HAL_Driver/Inc/stm32g4xx_ll_exti.h **** 
  82:Drivers/STM32G4xx_HAL_Driver/Inc/stm32g4xx_ll_exti.h **** /* Exported constants --------------------------------------------------------*/
  83:Drivers/STM32G4xx_HAL_Driver/Inc/stm32g4xx_ll_exti.h **** /** @defgroup EXTI_LL_Exported_Constants EXTI Exported Constants
  84:Drivers/STM32G4xx_HAL_Driver/Inc/stm32g4xx_ll_exti.h ****   * @{
  85:Drivers/STM32G4xx_HAL_Driver/Inc/stm32g4xx_ll_exti.h ****   */
  86:Drivers/STM32G4xx_HAL_Driver/Inc/stm32g4xx_ll_exti.h **** 
  87:Drivers/STM32G4xx_HAL_Driver/Inc/stm32g4xx_ll_exti.h **** /** @defgroup EXTI_LL_EC_LINE LINE
  88:Drivers/STM32G4xx_HAL_Driver/Inc/stm32g4xx_ll_exti.h ****   * @{
  89:Drivers/STM32G4xx_HAL_Driver/Inc/stm32g4xx_ll_exti.h ****   */
  90:Drivers/STM32G4xx_HAL_Driver/Inc/stm32g4xx_ll_exti.h **** #define LL_EXTI_LINE_0                 EXTI_IMR1_IM0           /*!< Extended line 0 */
  91:Drivers/STM32G4xx_HAL_Driver/Inc/stm32g4xx_ll_exti.h **** #define LL_EXTI_LINE_1                 EXTI_IMR1_IM1           /*!< Extended line 1 */
  92:Drivers/STM32G4xx_HAL_Driver/Inc/stm32g4xx_ll_exti.h **** #define LL_EXTI_LINE_2                 EXTI_IMR1_IM2           /*!< Extended line 2 */
  93:Drivers/STM32G4xx_HAL_Driver/Inc/stm32g4xx_ll_exti.h **** #define LL_EXTI_LINE_3                 EXTI_IMR1_IM3           /*!< Extended line 3 */
  94:Drivers/STM32G4xx_HAL_Driver/Inc/stm32g4xx_ll_exti.h **** #define LL_EXTI_LINE_4                 EXTI_IMR1_IM4           /*!< Extended line 4 */
  95:Drivers/STM32G4xx_HAL_Driver/Inc/stm32g4xx_ll_exti.h **** #define LL_EXTI_LINE_5                 EXTI_IMR1_IM5           /*!< Extended line 5 */
  96:Drivers/STM32G4xx_HAL_Driver/Inc/stm32g4xx_ll_exti.h **** #define LL_EXTI_LINE_6                 EXTI_IMR1_IM6           /*!< Extended line 6 */
  97:Drivers/STM32G4xx_HAL_Driver/Inc/stm32g4xx_ll_exti.h **** #define LL_EXTI_LINE_7                 EXTI_IMR1_IM7           /*!< Extended line 7 */
  98:Drivers/STM32G4xx_HAL_Driver/Inc/stm32g4xx_ll_exti.h **** #define LL_EXTI_LINE_8                 EXTI_IMR1_IM8           /*!< Extended line 8 */
  99:Drivers/STM32G4xx_HAL_Driver/Inc/stm32g4xx_ll_exti.h **** #define LL_EXTI_LINE_9                 EXTI_IMR1_IM9           /*!< Extended line 9 */
 100:Drivers/STM32G4xx_HAL_Driver/Inc/stm32g4xx_ll_exti.h **** #define LL_EXTI_LINE_10                EXTI_IMR1_IM10          /*!< Extended line 10 */
 101:Drivers/STM32G4xx_HAL_Driver/Inc/stm32g4xx_ll_exti.h **** #define LL_EXTI_LINE_11                EXTI_IMR1_IM11          /*!< Extended line 11 */
 102:Drivers/STM32G4xx_HAL_Driver/Inc/stm32g4xx_ll_exti.h **** #define LL_EXTI_LINE_12                EXTI_IMR1_IM12          /*!< Extended line 12 */
 103:Drivers/STM32G4xx_HAL_Driver/Inc/stm32g4xx_ll_exti.h **** #define LL_EXTI_LINE_13                EXTI_IMR1_IM13          /*!< Extended line 13 */
 104:Drivers/STM32G4xx_HAL_Driver/Inc/stm32g4xx_ll_exti.h **** #define LL_EXTI_LINE_14                EXTI_IMR1_IM14          /*!< Extended line 14 */
 105:Drivers/STM32G4xx_HAL_Driver/Inc/stm32g4xx_ll_exti.h **** #define LL_EXTI_LINE_15                EXTI_IMR1_IM15          /*!< Extended line 15 */
 106:Drivers/STM32G4xx_HAL_Driver/Inc/stm32g4xx_ll_exti.h **** #if defined(EXTI_IMR1_IM16)
 107:Drivers/STM32G4xx_HAL_Driver/Inc/stm32g4xx_ll_exti.h **** #define LL_EXTI_LINE_16                EXTI_IMR1_IM16          /*!< Extended line 16 */
 108:Drivers/STM32G4xx_HAL_Driver/Inc/stm32g4xx_ll_exti.h **** #endif /* EXTI_IMR1_IM16 */
 109:Drivers/STM32G4xx_HAL_Driver/Inc/stm32g4xx_ll_exti.h **** #define LL_EXTI_LINE_17                EXTI_IMR1_IM17          /*!< Extended line 17 */
 110:Drivers/STM32G4xx_HAL_Driver/Inc/stm32g4xx_ll_exti.h **** #if defined(EXTI_IMR1_IM18)
 111:Drivers/STM32G4xx_HAL_Driver/Inc/stm32g4xx_ll_exti.h **** #define LL_EXTI_LINE_18                EXTI_IMR1_IM18          /*!< Extended line 18 */
ARM GAS  D:\apps\VSCode\data\tmp\ccjbw8Rj.s 			page 30


 112:Drivers/STM32G4xx_HAL_Driver/Inc/stm32g4xx_ll_exti.h **** #endif /* EXTI_IMR1_IM18 */
 113:Drivers/STM32G4xx_HAL_Driver/Inc/stm32g4xx_ll_exti.h **** #define LL_EXTI_LINE_19                EXTI_IMR1_IM19          /*!< Extended line 19 */
 114:Drivers/STM32G4xx_HAL_Driver/Inc/stm32g4xx_ll_exti.h **** #if defined(EXTI_IMR1_IM20)
 115:Drivers/STM32G4xx_HAL_Driver/Inc/stm32g4xx_ll_exti.h **** #define LL_EXTI_LINE_20                EXTI_IMR1_IM20          /*!< Extended line 20 */
 116:Drivers/STM32G4xx_HAL_Driver/Inc/stm32g4xx_ll_exti.h **** #endif /* EXTI_IMR1_IM20 */
 117:Drivers/STM32G4xx_HAL_Driver/Inc/stm32g4xx_ll_exti.h **** #if defined(EXTI_IMR1_IM21)
 118:Drivers/STM32G4xx_HAL_Driver/Inc/stm32g4xx_ll_exti.h **** #define LL_EXTI_LINE_21                EXTI_IMR1_IM21          /*!< Extended line 21 */
 119:Drivers/STM32G4xx_HAL_Driver/Inc/stm32g4xx_ll_exti.h **** #endif /* EXTI_IMR1_IM21 */
 120:Drivers/STM32G4xx_HAL_Driver/Inc/stm32g4xx_ll_exti.h **** #if defined(EXTI_IMR1_IM22)
 121:Drivers/STM32G4xx_HAL_Driver/Inc/stm32g4xx_ll_exti.h **** #define LL_EXTI_LINE_22                EXTI_IMR1_IM22          /*!< Extended line 22 */
 122:Drivers/STM32G4xx_HAL_Driver/Inc/stm32g4xx_ll_exti.h **** #endif /* EXTI_IMR1_IM22 */
 123:Drivers/STM32G4xx_HAL_Driver/Inc/stm32g4xx_ll_exti.h **** #define LL_EXTI_LINE_23                EXTI_IMR1_IM23          /*!< Extended line 23 */
 124:Drivers/STM32G4xx_HAL_Driver/Inc/stm32g4xx_ll_exti.h **** #if defined(EXTI_IMR1_IM24)
 125:Drivers/STM32G4xx_HAL_Driver/Inc/stm32g4xx_ll_exti.h **** #define LL_EXTI_LINE_24                EXTI_IMR1_IM24          /*!< Extended line 24 */
 126:Drivers/STM32G4xx_HAL_Driver/Inc/stm32g4xx_ll_exti.h **** #endif /* EXTI_IMR1_IM24 */
 127:Drivers/STM32G4xx_HAL_Driver/Inc/stm32g4xx_ll_exti.h **** #if defined(EXTI_IMR1_IM25)
 128:Drivers/STM32G4xx_HAL_Driver/Inc/stm32g4xx_ll_exti.h **** #define LL_EXTI_LINE_25                EXTI_IMR1_IM25          /*!< Extended line 25 */
 129:Drivers/STM32G4xx_HAL_Driver/Inc/stm32g4xx_ll_exti.h **** #endif /* EXTI_IMR1_IM25 */
 130:Drivers/STM32G4xx_HAL_Driver/Inc/stm32g4xx_ll_exti.h **** #if defined(EXTI_IMR1_IM26)
 131:Drivers/STM32G4xx_HAL_Driver/Inc/stm32g4xx_ll_exti.h **** #define LL_EXTI_LINE_26                EXTI_IMR1_IM26          /*!< Extended line 26 */
 132:Drivers/STM32G4xx_HAL_Driver/Inc/stm32g4xx_ll_exti.h **** #endif /* EXTI_IMR1_IM26 */
 133:Drivers/STM32G4xx_HAL_Driver/Inc/stm32g4xx_ll_exti.h **** #if defined(EXTI_IMR1_IM27)
 134:Drivers/STM32G4xx_HAL_Driver/Inc/stm32g4xx_ll_exti.h **** #define LL_EXTI_LINE_27                EXTI_IMR1_IM27          /*!< Extended line 27 */
 135:Drivers/STM32G4xx_HAL_Driver/Inc/stm32g4xx_ll_exti.h **** #endif /* EXTI_IMR1_IM27 */
 136:Drivers/STM32G4xx_HAL_Driver/Inc/stm32g4xx_ll_exti.h **** #if defined(EXTI_IMR1_IM28)
 137:Drivers/STM32G4xx_HAL_Driver/Inc/stm32g4xx_ll_exti.h **** #define LL_EXTI_LINE_28                EXTI_IMR1_IM28          /*!< Extended line 28 */
 138:Drivers/STM32G4xx_HAL_Driver/Inc/stm32g4xx_ll_exti.h **** #endif /* EXTI_IMR1_IM28 */
 139:Drivers/STM32G4xx_HAL_Driver/Inc/stm32g4xx_ll_exti.h **** #if defined(EXTI_IMR1_IM29)
 140:Drivers/STM32G4xx_HAL_Driver/Inc/stm32g4xx_ll_exti.h **** #define LL_EXTI_LINE_29                EXTI_IMR1_IM29          /*!< Extended line 29 */
 141:Drivers/STM32G4xx_HAL_Driver/Inc/stm32g4xx_ll_exti.h **** #endif /* EXTI_IMR1_IM29 */
 142:Drivers/STM32G4xx_HAL_Driver/Inc/stm32g4xx_ll_exti.h **** #if defined(EXTI_IMR1_IM30)
 143:Drivers/STM32G4xx_HAL_Driver/Inc/stm32g4xx_ll_exti.h **** #define LL_EXTI_LINE_30                EXTI_IMR1_IM30          /*!< Extended line 30 */
 144:Drivers/STM32G4xx_HAL_Driver/Inc/stm32g4xx_ll_exti.h **** #endif /* EXTI_IMR1_IM30 */
 145:Drivers/STM32G4xx_HAL_Driver/Inc/stm32g4xx_ll_exti.h **** #if defined(EXTI_IMR1_IM31)
 146:Drivers/STM32G4xx_HAL_Driver/Inc/stm32g4xx_ll_exti.h **** #define LL_EXTI_LINE_31                EXTI_IMR1_IM31          /*!< Extended line 31 */
 147:Drivers/STM32G4xx_HAL_Driver/Inc/stm32g4xx_ll_exti.h **** #endif /* EXTI_IMR1_IM31 */
 148:Drivers/STM32G4xx_HAL_Driver/Inc/stm32g4xx_ll_exti.h **** #define LL_EXTI_LINE_ALL_0_31          EXTI_IMR1_IM            /*!< All Extended line not reserved*
 149:Drivers/STM32G4xx_HAL_Driver/Inc/stm32g4xx_ll_exti.h **** 
 150:Drivers/STM32G4xx_HAL_Driver/Inc/stm32g4xx_ll_exti.h **** #if defined(EXTI_IMR2_IM32)
 151:Drivers/STM32G4xx_HAL_Driver/Inc/stm32g4xx_ll_exti.h **** #define LL_EXTI_LINE_32                EXTI_IMR2_IM32          /*!< Extended line 32 */
 152:Drivers/STM32G4xx_HAL_Driver/Inc/stm32g4xx_ll_exti.h **** #endif /* EXTI_IMR2_IM32 */
 153:Drivers/STM32G4xx_HAL_Driver/Inc/stm32g4xx_ll_exti.h **** #if defined(EXTI_IMR2_IM33)
 154:Drivers/STM32G4xx_HAL_Driver/Inc/stm32g4xx_ll_exti.h **** #define LL_EXTI_LINE_33                EXTI_IMR2_IM33          /*!< Extended line 33 */
 155:Drivers/STM32G4xx_HAL_Driver/Inc/stm32g4xx_ll_exti.h **** #endif /* EXTI_IMR2_IM33 */
 156:Drivers/STM32G4xx_HAL_Driver/Inc/stm32g4xx_ll_exti.h **** #if defined(EXTI_IMR2_IM34)
 157:Drivers/STM32G4xx_HAL_Driver/Inc/stm32g4xx_ll_exti.h **** #define LL_EXTI_LINE_34                EXTI_IMR2_IM34          /*!< Extended line 34 */
 158:Drivers/STM32G4xx_HAL_Driver/Inc/stm32g4xx_ll_exti.h **** #endif /* EXTI_IMR2_IM34 */
 159:Drivers/STM32G4xx_HAL_Driver/Inc/stm32g4xx_ll_exti.h **** #if defined(EXTI_IMR2_IM35)
 160:Drivers/STM32G4xx_HAL_Driver/Inc/stm32g4xx_ll_exti.h **** #define LL_EXTI_LINE_35                EXTI_IMR2_IM35          /*!< Extended line 35 */
 161:Drivers/STM32G4xx_HAL_Driver/Inc/stm32g4xx_ll_exti.h **** #endif /* EXTI_IMR2_IM35 */
 162:Drivers/STM32G4xx_HAL_Driver/Inc/stm32g4xx_ll_exti.h **** #if defined(EXTI_IMR2_IM36)
 163:Drivers/STM32G4xx_HAL_Driver/Inc/stm32g4xx_ll_exti.h **** #define LL_EXTI_LINE_36                EXTI_IMR2_IM36          /*!< Extended line 36 */
 164:Drivers/STM32G4xx_HAL_Driver/Inc/stm32g4xx_ll_exti.h **** #endif /* EXTI_IMR2_IM36 */
 165:Drivers/STM32G4xx_HAL_Driver/Inc/stm32g4xx_ll_exti.h **** #if defined(EXTI_IMR2_IM37)
 166:Drivers/STM32G4xx_HAL_Driver/Inc/stm32g4xx_ll_exti.h **** #define LL_EXTI_LINE_37                EXTI_IMR2_IM37          /*!< Extended line 37 */
 167:Drivers/STM32G4xx_HAL_Driver/Inc/stm32g4xx_ll_exti.h **** #endif /* EXTI_IMR2_IM37 */
 168:Drivers/STM32G4xx_HAL_Driver/Inc/stm32g4xx_ll_exti.h **** #if defined(EXTI_IMR2_IM38)
ARM GAS  D:\apps\VSCode\data\tmp\ccjbw8Rj.s 			page 31


 169:Drivers/STM32G4xx_HAL_Driver/Inc/stm32g4xx_ll_exti.h **** #define LL_EXTI_LINE_38                EXTI_IMR2_IM38          /*!< Extended line 38 */
 170:Drivers/STM32G4xx_HAL_Driver/Inc/stm32g4xx_ll_exti.h **** #endif /* EXTI_IMR2_IM38 */
 171:Drivers/STM32G4xx_HAL_Driver/Inc/stm32g4xx_ll_exti.h **** #if defined(EXTI_IMR2_IM39)
 172:Drivers/STM32G4xx_HAL_Driver/Inc/stm32g4xx_ll_exti.h **** #define LL_EXTI_LINE_39                EXTI_IMR2_IM39          /*!< Extended line 39 */
 173:Drivers/STM32G4xx_HAL_Driver/Inc/stm32g4xx_ll_exti.h **** #endif /* EXTI_IMR2_IM39 */
 174:Drivers/STM32G4xx_HAL_Driver/Inc/stm32g4xx_ll_exti.h **** #if defined(EXTI_IMR2_IM40)
 175:Drivers/STM32G4xx_HAL_Driver/Inc/stm32g4xx_ll_exti.h **** #define LL_EXTI_LINE_40                EXTI_IMR2_IM40          /*!< Extended line 40 */
 176:Drivers/STM32G4xx_HAL_Driver/Inc/stm32g4xx_ll_exti.h **** #endif /* EXTI_IMR2_IM40 */
 177:Drivers/STM32G4xx_HAL_Driver/Inc/stm32g4xx_ll_exti.h **** #if defined(EXTI_IMR2_IM41)
 178:Drivers/STM32G4xx_HAL_Driver/Inc/stm32g4xx_ll_exti.h **** #define LL_EXTI_LINE_41                EXTI_IMR2_IM41          /*!< Extended line 41 */
 179:Drivers/STM32G4xx_HAL_Driver/Inc/stm32g4xx_ll_exti.h **** #endif /* EXTI_IMR2_IM41 */
 180:Drivers/STM32G4xx_HAL_Driver/Inc/stm32g4xx_ll_exti.h **** #if defined(EXTI_IMR2_IM42)
 181:Drivers/STM32G4xx_HAL_Driver/Inc/stm32g4xx_ll_exti.h **** #define LL_EXTI_LINE_42                EXTI_IMR2_IM42          /*!< Extended line 42 */
 182:Drivers/STM32G4xx_HAL_Driver/Inc/stm32g4xx_ll_exti.h **** #endif /* EXTI_IMR2_IM42 */
 183:Drivers/STM32G4xx_HAL_Driver/Inc/stm32g4xx_ll_exti.h **** #define LL_EXTI_LINE_ALL_32_63         EXTI_IMR2_IM            /*!< All Extended line not reserved*
 184:Drivers/STM32G4xx_HAL_Driver/Inc/stm32g4xx_ll_exti.h **** 
 185:Drivers/STM32G4xx_HAL_Driver/Inc/stm32g4xx_ll_exti.h **** 
 186:Drivers/STM32G4xx_HAL_Driver/Inc/stm32g4xx_ll_exti.h **** #define LL_EXTI_LINE_ALL               (0xFFFFFFFFU)  /*!< All Extended line */
 187:Drivers/STM32G4xx_HAL_Driver/Inc/stm32g4xx_ll_exti.h **** 
 188:Drivers/STM32G4xx_HAL_Driver/Inc/stm32g4xx_ll_exti.h **** #if defined(USE_FULL_LL_DRIVER)
 189:Drivers/STM32G4xx_HAL_Driver/Inc/stm32g4xx_ll_exti.h **** #define LL_EXTI_LINE_NONE              0x00000000U             /*!< None Extended line */
 190:Drivers/STM32G4xx_HAL_Driver/Inc/stm32g4xx_ll_exti.h **** #endif /*USE_FULL_LL_DRIVER*/
 191:Drivers/STM32G4xx_HAL_Driver/Inc/stm32g4xx_ll_exti.h **** 
 192:Drivers/STM32G4xx_HAL_Driver/Inc/stm32g4xx_ll_exti.h **** /**
 193:Drivers/STM32G4xx_HAL_Driver/Inc/stm32g4xx_ll_exti.h ****   * @}
 194:Drivers/STM32G4xx_HAL_Driver/Inc/stm32g4xx_ll_exti.h ****   */
 195:Drivers/STM32G4xx_HAL_Driver/Inc/stm32g4xx_ll_exti.h **** #if defined(USE_FULL_LL_DRIVER)
 196:Drivers/STM32G4xx_HAL_Driver/Inc/stm32g4xx_ll_exti.h **** 
 197:Drivers/STM32G4xx_HAL_Driver/Inc/stm32g4xx_ll_exti.h **** /** @defgroup EXTI_LL_EC_MODE Mode
 198:Drivers/STM32G4xx_HAL_Driver/Inc/stm32g4xx_ll_exti.h ****   * @{
 199:Drivers/STM32G4xx_HAL_Driver/Inc/stm32g4xx_ll_exti.h ****   */
 200:Drivers/STM32G4xx_HAL_Driver/Inc/stm32g4xx_ll_exti.h **** #define LL_EXTI_MODE_IT                 ((uint8_t)0x00U) /*!< Interrupt Mode */
 201:Drivers/STM32G4xx_HAL_Driver/Inc/stm32g4xx_ll_exti.h **** #define LL_EXTI_MODE_EVENT              ((uint8_t)0x01U) /*!< Event Mode */
 202:Drivers/STM32G4xx_HAL_Driver/Inc/stm32g4xx_ll_exti.h **** #define LL_EXTI_MODE_IT_EVENT           ((uint8_t)0x02U) /*!< Interrupt & Event Mode */
 203:Drivers/STM32G4xx_HAL_Driver/Inc/stm32g4xx_ll_exti.h **** /**
 204:Drivers/STM32G4xx_HAL_Driver/Inc/stm32g4xx_ll_exti.h ****   * @}
 205:Drivers/STM32G4xx_HAL_Driver/Inc/stm32g4xx_ll_exti.h ****   */
 206:Drivers/STM32G4xx_HAL_Driver/Inc/stm32g4xx_ll_exti.h **** 
 207:Drivers/STM32G4xx_HAL_Driver/Inc/stm32g4xx_ll_exti.h **** /** @defgroup EXTI_LL_EC_TRIGGER Edge Trigger
 208:Drivers/STM32G4xx_HAL_Driver/Inc/stm32g4xx_ll_exti.h ****   * @{
 209:Drivers/STM32G4xx_HAL_Driver/Inc/stm32g4xx_ll_exti.h ****   */
 210:Drivers/STM32G4xx_HAL_Driver/Inc/stm32g4xx_ll_exti.h **** #define LL_EXTI_TRIGGER_NONE            ((uint8_t)0x00U) /*!< No Trigger Mode */
 211:Drivers/STM32G4xx_HAL_Driver/Inc/stm32g4xx_ll_exti.h **** #define LL_EXTI_TRIGGER_RISING          ((uint8_t)0x01U) /*!< Trigger Rising Mode */
 212:Drivers/STM32G4xx_HAL_Driver/Inc/stm32g4xx_ll_exti.h **** #define LL_EXTI_TRIGGER_FALLING         ((uint8_t)0x02U) /*!< Trigger Falling Mode */
 213:Drivers/STM32G4xx_HAL_Driver/Inc/stm32g4xx_ll_exti.h **** #define LL_EXTI_TRIGGER_RISING_FALLING  ((uint8_t)0x03U) /*!< Trigger Rising & Falling Mode */
 214:Drivers/STM32G4xx_HAL_Driver/Inc/stm32g4xx_ll_exti.h **** 
 215:Drivers/STM32G4xx_HAL_Driver/Inc/stm32g4xx_ll_exti.h **** /**
 216:Drivers/STM32G4xx_HAL_Driver/Inc/stm32g4xx_ll_exti.h ****   * @}
 217:Drivers/STM32G4xx_HAL_Driver/Inc/stm32g4xx_ll_exti.h ****   */
 218:Drivers/STM32G4xx_HAL_Driver/Inc/stm32g4xx_ll_exti.h **** 
 219:Drivers/STM32G4xx_HAL_Driver/Inc/stm32g4xx_ll_exti.h **** 
 220:Drivers/STM32G4xx_HAL_Driver/Inc/stm32g4xx_ll_exti.h **** #endif /*USE_FULL_LL_DRIVER*/
 221:Drivers/STM32G4xx_HAL_Driver/Inc/stm32g4xx_ll_exti.h **** 
 222:Drivers/STM32G4xx_HAL_Driver/Inc/stm32g4xx_ll_exti.h **** 
 223:Drivers/STM32G4xx_HAL_Driver/Inc/stm32g4xx_ll_exti.h **** /**
 224:Drivers/STM32G4xx_HAL_Driver/Inc/stm32g4xx_ll_exti.h ****   * @}
 225:Drivers/STM32G4xx_HAL_Driver/Inc/stm32g4xx_ll_exti.h ****   */
ARM GAS  D:\apps\VSCode\data\tmp\ccjbw8Rj.s 			page 32


 226:Drivers/STM32G4xx_HAL_Driver/Inc/stm32g4xx_ll_exti.h **** 
 227:Drivers/STM32G4xx_HAL_Driver/Inc/stm32g4xx_ll_exti.h **** /* Exported macro ------------------------------------------------------------*/
 228:Drivers/STM32G4xx_HAL_Driver/Inc/stm32g4xx_ll_exti.h **** /** @defgroup EXTI_LL_Exported_Macros EXTI Exported Macros
 229:Drivers/STM32G4xx_HAL_Driver/Inc/stm32g4xx_ll_exti.h ****   * @{
 230:Drivers/STM32G4xx_HAL_Driver/Inc/stm32g4xx_ll_exti.h ****   */
 231:Drivers/STM32G4xx_HAL_Driver/Inc/stm32g4xx_ll_exti.h **** 
 232:Drivers/STM32G4xx_HAL_Driver/Inc/stm32g4xx_ll_exti.h **** /** @defgroup EXTI_LL_EM_WRITE_READ Common Write and read registers Macros
 233:Drivers/STM32G4xx_HAL_Driver/Inc/stm32g4xx_ll_exti.h ****   * @{
 234:Drivers/STM32G4xx_HAL_Driver/Inc/stm32g4xx_ll_exti.h ****   */
 235:Drivers/STM32G4xx_HAL_Driver/Inc/stm32g4xx_ll_exti.h **** 
 236:Drivers/STM32G4xx_HAL_Driver/Inc/stm32g4xx_ll_exti.h **** /**
 237:Drivers/STM32G4xx_HAL_Driver/Inc/stm32g4xx_ll_exti.h ****   * @brief  Write a value in EXTI register
 238:Drivers/STM32G4xx_HAL_Driver/Inc/stm32g4xx_ll_exti.h ****   * @param  __REG__ Register to be written
 239:Drivers/STM32G4xx_HAL_Driver/Inc/stm32g4xx_ll_exti.h ****   * @param  __VALUE__ Value to be written in the register
 240:Drivers/STM32G4xx_HAL_Driver/Inc/stm32g4xx_ll_exti.h ****   * @retval None
 241:Drivers/STM32G4xx_HAL_Driver/Inc/stm32g4xx_ll_exti.h ****   */
 242:Drivers/STM32G4xx_HAL_Driver/Inc/stm32g4xx_ll_exti.h **** #define LL_EXTI_WriteReg(__REG__, __VALUE__) WRITE_REG(EXTI->__REG__, (__VALUE__))
 243:Drivers/STM32G4xx_HAL_Driver/Inc/stm32g4xx_ll_exti.h **** 
 244:Drivers/STM32G4xx_HAL_Driver/Inc/stm32g4xx_ll_exti.h **** /**
 245:Drivers/STM32G4xx_HAL_Driver/Inc/stm32g4xx_ll_exti.h ****   * @brief  Read a value in EXTI register
 246:Drivers/STM32G4xx_HAL_Driver/Inc/stm32g4xx_ll_exti.h ****   * @param  __REG__ Register to be read
 247:Drivers/STM32G4xx_HAL_Driver/Inc/stm32g4xx_ll_exti.h ****   * @retval Register value
 248:Drivers/STM32G4xx_HAL_Driver/Inc/stm32g4xx_ll_exti.h ****   */
 249:Drivers/STM32G4xx_HAL_Driver/Inc/stm32g4xx_ll_exti.h **** #define LL_EXTI_ReadReg(__REG__) READ_REG(EXTI->__REG__)
 250:Drivers/STM32G4xx_HAL_Driver/Inc/stm32g4xx_ll_exti.h **** /**
 251:Drivers/STM32G4xx_HAL_Driver/Inc/stm32g4xx_ll_exti.h ****   * @}
 252:Drivers/STM32G4xx_HAL_Driver/Inc/stm32g4xx_ll_exti.h ****   */
 253:Drivers/STM32G4xx_HAL_Driver/Inc/stm32g4xx_ll_exti.h **** 
 254:Drivers/STM32G4xx_HAL_Driver/Inc/stm32g4xx_ll_exti.h **** 
 255:Drivers/STM32G4xx_HAL_Driver/Inc/stm32g4xx_ll_exti.h **** /**
 256:Drivers/STM32G4xx_HAL_Driver/Inc/stm32g4xx_ll_exti.h ****   * @}
 257:Drivers/STM32G4xx_HAL_Driver/Inc/stm32g4xx_ll_exti.h ****   */
 258:Drivers/STM32G4xx_HAL_Driver/Inc/stm32g4xx_ll_exti.h **** 
 259:Drivers/STM32G4xx_HAL_Driver/Inc/stm32g4xx_ll_exti.h **** 
 260:Drivers/STM32G4xx_HAL_Driver/Inc/stm32g4xx_ll_exti.h **** 
 261:Drivers/STM32G4xx_HAL_Driver/Inc/stm32g4xx_ll_exti.h **** /* Exported functions --------------------------------------------------------*/
 262:Drivers/STM32G4xx_HAL_Driver/Inc/stm32g4xx_ll_exti.h **** /** @defgroup EXTI_LL_Exported_Functions EXTI Exported Functions
 263:Drivers/STM32G4xx_HAL_Driver/Inc/stm32g4xx_ll_exti.h ****   * @{
 264:Drivers/STM32G4xx_HAL_Driver/Inc/stm32g4xx_ll_exti.h ****   */
 265:Drivers/STM32G4xx_HAL_Driver/Inc/stm32g4xx_ll_exti.h **** /** @defgroup EXTI_LL_EF_IT_Management IT_Management
 266:Drivers/STM32G4xx_HAL_Driver/Inc/stm32g4xx_ll_exti.h ****   * @{
 267:Drivers/STM32G4xx_HAL_Driver/Inc/stm32g4xx_ll_exti.h ****   */
 268:Drivers/STM32G4xx_HAL_Driver/Inc/stm32g4xx_ll_exti.h **** 
 269:Drivers/STM32G4xx_HAL_Driver/Inc/stm32g4xx_ll_exti.h **** /**
 270:Drivers/STM32G4xx_HAL_Driver/Inc/stm32g4xx_ll_exti.h ****   * @brief  Enable ExtiLine Interrupt request for Lines in range 0 to 31
 271:Drivers/STM32G4xx_HAL_Driver/Inc/stm32g4xx_ll_exti.h ****   * @note The reset value for the direct or internal lines (see RM)
 272:Drivers/STM32G4xx_HAL_Driver/Inc/stm32g4xx_ll_exti.h ****   *       is set to 1 in order to enable the interrupt by default.
 273:Drivers/STM32G4xx_HAL_Driver/Inc/stm32g4xx_ll_exti.h ****   *       Bits are set automatically at Power on.
 274:Drivers/STM32G4xx_HAL_Driver/Inc/stm32g4xx_ll_exti.h ****   * @rmtoll IMR1         IMx           LL_EXTI_EnableIT_0_31
 275:Drivers/STM32G4xx_HAL_Driver/Inc/stm32g4xx_ll_exti.h ****   * @param  ExtiLine This parameter can be one of the following values:
 276:Drivers/STM32G4xx_HAL_Driver/Inc/stm32g4xx_ll_exti.h ****   *         @arg @ref LL_EXTI_LINE_0
 277:Drivers/STM32G4xx_HAL_Driver/Inc/stm32g4xx_ll_exti.h ****   *         @arg @ref LL_EXTI_LINE_1
 278:Drivers/STM32G4xx_HAL_Driver/Inc/stm32g4xx_ll_exti.h ****   *         @arg @ref LL_EXTI_LINE_2
 279:Drivers/STM32G4xx_HAL_Driver/Inc/stm32g4xx_ll_exti.h ****   *         @arg @ref LL_EXTI_LINE_3
 280:Drivers/STM32G4xx_HAL_Driver/Inc/stm32g4xx_ll_exti.h ****   *         @arg @ref LL_EXTI_LINE_4
 281:Drivers/STM32G4xx_HAL_Driver/Inc/stm32g4xx_ll_exti.h ****   *         @arg @ref LL_EXTI_LINE_5
 282:Drivers/STM32G4xx_HAL_Driver/Inc/stm32g4xx_ll_exti.h ****   *         @arg @ref LL_EXTI_LINE_6
ARM GAS  D:\apps\VSCode\data\tmp\ccjbw8Rj.s 			page 33


 283:Drivers/STM32G4xx_HAL_Driver/Inc/stm32g4xx_ll_exti.h ****   *         @arg @ref LL_EXTI_LINE_7
 284:Drivers/STM32G4xx_HAL_Driver/Inc/stm32g4xx_ll_exti.h ****   *         @arg @ref LL_EXTI_LINE_8
 285:Drivers/STM32G4xx_HAL_Driver/Inc/stm32g4xx_ll_exti.h ****   *         @arg @ref LL_EXTI_LINE_9
 286:Drivers/STM32G4xx_HAL_Driver/Inc/stm32g4xx_ll_exti.h ****   *         @arg @ref LL_EXTI_LINE_10
 287:Drivers/STM32G4xx_HAL_Driver/Inc/stm32g4xx_ll_exti.h ****   *         @arg @ref LL_EXTI_LINE_11
 288:Drivers/STM32G4xx_HAL_Driver/Inc/stm32g4xx_ll_exti.h ****   *         @arg @ref LL_EXTI_LINE_12
 289:Drivers/STM32G4xx_HAL_Driver/Inc/stm32g4xx_ll_exti.h ****   *         @arg @ref LL_EXTI_LINE_13
 290:Drivers/STM32G4xx_HAL_Driver/Inc/stm32g4xx_ll_exti.h ****   *         @arg @ref LL_EXTI_LINE_14
 291:Drivers/STM32G4xx_HAL_Driver/Inc/stm32g4xx_ll_exti.h ****   *         @arg @ref LL_EXTI_LINE_15
 292:Drivers/STM32G4xx_HAL_Driver/Inc/stm32g4xx_ll_exti.h ****   *         @arg @ref LL_EXTI_LINE_16
 293:Drivers/STM32G4xx_HAL_Driver/Inc/stm32g4xx_ll_exti.h ****   *         @arg @ref LL_EXTI_LINE_17
 294:Drivers/STM32G4xx_HAL_Driver/Inc/stm32g4xx_ll_exti.h ****   *         @arg @ref LL_EXTI_LINE_18
 295:Drivers/STM32G4xx_HAL_Driver/Inc/stm32g4xx_ll_exti.h ****   *         @arg @ref LL_EXTI_LINE_19
 296:Drivers/STM32G4xx_HAL_Driver/Inc/stm32g4xx_ll_exti.h ****   *         @arg @ref LL_EXTI_LINE_20
 297:Drivers/STM32G4xx_HAL_Driver/Inc/stm32g4xx_ll_exti.h ****   *         @arg @ref LL_EXTI_LINE_21
 298:Drivers/STM32G4xx_HAL_Driver/Inc/stm32g4xx_ll_exti.h ****   *         @arg @ref LL_EXTI_LINE_22
 299:Drivers/STM32G4xx_HAL_Driver/Inc/stm32g4xx_ll_exti.h ****   *         @arg @ref LL_EXTI_LINE_23
 300:Drivers/STM32G4xx_HAL_Driver/Inc/stm32g4xx_ll_exti.h ****   *         @arg @ref LL_EXTI_LINE_24
 301:Drivers/STM32G4xx_HAL_Driver/Inc/stm32g4xx_ll_exti.h ****   *         @arg @ref LL_EXTI_LINE_25
 302:Drivers/STM32G4xx_HAL_Driver/Inc/stm32g4xx_ll_exti.h ****   *         @arg @ref LL_EXTI_LINE_26
 303:Drivers/STM32G4xx_HAL_Driver/Inc/stm32g4xx_ll_exti.h ****   *         @arg @ref LL_EXTI_LINE_27
 304:Drivers/STM32G4xx_HAL_Driver/Inc/stm32g4xx_ll_exti.h ****   *         @arg @ref LL_EXTI_LINE_28
 305:Drivers/STM32G4xx_HAL_Driver/Inc/stm32g4xx_ll_exti.h ****   *         @arg @ref LL_EXTI_LINE_29
 306:Drivers/STM32G4xx_HAL_Driver/Inc/stm32g4xx_ll_exti.h ****   *         @arg @ref LL_EXTI_LINE_30
 307:Drivers/STM32G4xx_HAL_Driver/Inc/stm32g4xx_ll_exti.h ****   *         @arg @ref LL_EXTI_LINE_31 (*)
 308:Drivers/STM32G4xx_HAL_Driver/Inc/stm32g4xx_ll_exti.h ****   *         @arg @ref LL_EXTI_LINE_ALL_0_31
 309:Drivers/STM32G4xx_HAL_Driver/Inc/stm32g4xx_ll_exti.h ****   * @note   (*): Available in some devices
 310:Drivers/STM32G4xx_HAL_Driver/Inc/stm32g4xx_ll_exti.h ****   * @note   Please check each device line mapping for EXTI Line availability
 311:Drivers/STM32G4xx_HAL_Driver/Inc/stm32g4xx_ll_exti.h ****   * @retval None
 312:Drivers/STM32G4xx_HAL_Driver/Inc/stm32g4xx_ll_exti.h ****   */
 313:Drivers/STM32G4xx_HAL_Driver/Inc/stm32g4xx_ll_exti.h **** __STATIC_INLINE void LL_EXTI_EnableIT_0_31(uint32_t ExtiLine)
 314:Drivers/STM32G4xx_HAL_Driver/Inc/stm32g4xx_ll_exti.h **** {
 315:Drivers/STM32G4xx_HAL_Driver/Inc/stm32g4xx_ll_exti.h ****   SET_BIT(EXTI->IMR1, ExtiLine);
 316:Drivers/STM32G4xx_HAL_Driver/Inc/stm32g4xx_ll_exti.h **** }
 317:Drivers/STM32G4xx_HAL_Driver/Inc/stm32g4xx_ll_exti.h **** /**
 318:Drivers/STM32G4xx_HAL_Driver/Inc/stm32g4xx_ll_exti.h ****   * @brief  Enable ExtiLine Interrupt request for Lines in range 32 to 63
 319:Drivers/STM32G4xx_HAL_Driver/Inc/stm32g4xx_ll_exti.h ****   * @note The reset value for the direct lines (lines from 32 to 34, line
 320:Drivers/STM32G4xx_HAL_Driver/Inc/stm32g4xx_ll_exti.h ****   *       39) is set to 1 in order to enable the interrupt by default.
 321:Drivers/STM32G4xx_HAL_Driver/Inc/stm32g4xx_ll_exti.h ****   *       Bits are set automatically at Power on.
 322:Drivers/STM32G4xx_HAL_Driver/Inc/stm32g4xx_ll_exti.h ****   * @rmtoll IMR2         IMx           LL_EXTI_EnableIT_32_63
 323:Drivers/STM32G4xx_HAL_Driver/Inc/stm32g4xx_ll_exti.h ****   * @param  ExtiLine This parameter can be one of the following values:
 324:Drivers/STM32G4xx_HAL_Driver/Inc/stm32g4xx_ll_exti.h ****   *         @arg @ref LL_EXTI_LINE_32 (*)
 325:Drivers/STM32G4xx_HAL_Driver/Inc/stm32g4xx_ll_exti.h ****   *         @arg @ref LL_EXTI_LINE_33 (*)
 326:Drivers/STM32G4xx_HAL_Driver/Inc/stm32g4xx_ll_exti.h ****   *         @arg @ref LL_EXTI_LINE_34
 327:Drivers/STM32G4xx_HAL_Driver/Inc/stm32g4xx_ll_exti.h ****   *         @arg @ref LL_EXTI_LINE_35 (*)
 328:Drivers/STM32G4xx_HAL_Driver/Inc/stm32g4xx_ll_exti.h ****   *         @arg @ref LL_EXTI_LINE_36
 329:Drivers/STM32G4xx_HAL_Driver/Inc/stm32g4xx_ll_exti.h ****   *         @arg @ref LL_EXTI_LINE_37
 330:Drivers/STM32G4xx_HAL_Driver/Inc/stm32g4xx_ll_exti.h ****   *         @arg @ref LL_EXTI_LINE_38
 331:Drivers/STM32G4xx_HAL_Driver/Inc/stm32g4xx_ll_exti.h ****   *         @arg @ref LL_EXTI_LINE_39
 332:Drivers/STM32G4xx_HAL_Driver/Inc/stm32g4xx_ll_exti.h ****   *         @arg @ref LL_EXTI_LINE_40
 333:Drivers/STM32G4xx_HAL_Driver/Inc/stm32g4xx_ll_exti.h ****   *         @arg @ref LL_EXTI_LINE_41
 334:Drivers/STM32G4xx_HAL_Driver/Inc/stm32g4xx_ll_exti.h ****   *         @arg @ref LL_EXTI_LINE_42(*)
 335:Drivers/STM32G4xx_HAL_Driver/Inc/stm32g4xx_ll_exti.h ****   *         @arg @ref LL_EXTI_LINE_ALL_32_63
 336:Drivers/STM32G4xx_HAL_Driver/Inc/stm32g4xx_ll_exti.h ****   * @note   (*): Available in some devices
 337:Drivers/STM32G4xx_HAL_Driver/Inc/stm32g4xx_ll_exti.h ****   * @retval None
 338:Drivers/STM32G4xx_HAL_Driver/Inc/stm32g4xx_ll_exti.h ****   */
 339:Drivers/STM32G4xx_HAL_Driver/Inc/stm32g4xx_ll_exti.h **** __STATIC_INLINE void LL_EXTI_EnableIT_32_63(uint32_t ExtiLine)
ARM GAS  D:\apps\VSCode\data\tmp\ccjbw8Rj.s 			page 34


 340:Drivers/STM32G4xx_HAL_Driver/Inc/stm32g4xx_ll_exti.h **** {
 341:Drivers/STM32G4xx_HAL_Driver/Inc/stm32g4xx_ll_exti.h ****   SET_BIT(EXTI->IMR2, ExtiLine);
 342:Drivers/STM32G4xx_HAL_Driver/Inc/stm32g4xx_ll_exti.h **** }
 343:Drivers/STM32G4xx_HAL_Driver/Inc/stm32g4xx_ll_exti.h **** 
 344:Drivers/STM32G4xx_HAL_Driver/Inc/stm32g4xx_ll_exti.h **** /**
 345:Drivers/STM32G4xx_HAL_Driver/Inc/stm32g4xx_ll_exti.h ****   * @brief  Disable ExtiLine Interrupt request for Lines in range 0 to 31
 346:Drivers/STM32G4xx_HAL_Driver/Inc/stm32g4xx_ll_exti.h ****   * @note The reset value for the direct or internal lines (see RM)
 347:Drivers/STM32G4xx_HAL_Driver/Inc/stm32g4xx_ll_exti.h ****   *       is set to 1 in order to enable the interrupt by default.
 348:Drivers/STM32G4xx_HAL_Driver/Inc/stm32g4xx_ll_exti.h ****   *       Bits are set automatically at Power on.
 349:Drivers/STM32G4xx_HAL_Driver/Inc/stm32g4xx_ll_exti.h ****   * @rmtoll IMR1         IMx           LL_EXTI_DisableIT_0_31
 350:Drivers/STM32G4xx_HAL_Driver/Inc/stm32g4xx_ll_exti.h ****   * @param  ExtiLine This parameter can be one of the following values:
 351:Drivers/STM32G4xx_HAL_Driver/Inc/stm32g4xx_ll_exti.h ****   *         @arg @ref LL_EXTI_LINE_0
 352:Drivers/STM32G4xx_HAL_Driver/Inc/stm32g4xx_ll_exti.h ****   *         @arg @ref LL_EXTI_LINE_1
 353:Drivers/STM32G4xx_HAL_Driver/Inc/stm32g4xx_ll_exti.h ****   *         @arg @ref LL_EXTI_LINE_2
 354:Drivers/STM32G4xx_HAL_Driver/Inc/stm32g4xx_ll_exti.h ****   *         @arg @ref LL_EXTI_LINE_3
 355:Drivers/STM32G4xx_HAL_Driver/Inc/stm32g4xx_ll_exti.h ****   *         @arg @ref LL_EXTI_LINE_4
 356:Drivers/STM32G4xx_HAL_Driver/Inc/stm32g4xx_ll_exti.h ****   *         @arg @ref LL_EXTI_LINE_5
 357:Drivers/STM32G4xx_HAL_Driver/Inc/stm32g4xx_ll_exti.h ****   *         @arg @ref LL_EXTI_LINE_6
 358:Drivers/STM32G4xx_HAL_Driver/Inc/stm32g4xx_ll_exti.h ****   *         @arg @ref LL_EXTI_LINE_7
 359:Drivers/STM32G4xx_HAL_Driver/Inc/stm32g4xx_ll_exti.h ****   *         @arg @ref LL_EXTI_LINE_8
 360:Drivers/STM32G4xx_HAL_Driver/Inc/stm32g4xx_ll_exti.h ****   *         @arg @ref LL_EXTI_LINE_9
 361:Drivers/STM32G4xx_HAL_Driver/Inc/stm32g4xx_ll_exti.h ****   *         @arg @ref LL_EXTI_LINE_10
 362:Drivers/STM32G4xx_HAL_Driver/Inc/stm32g4xx_ll_exti.h ****   *         @arg @ref LL_EXTI_LINE_11
 363:Drivers/STM32G4xx_HAL_Driver/Inc/stm32g4xx_ll_exti.h ****   *         @arg @ref LL_EXTI_LINE_12
 364:Drivers/STM32G4xx_HAL_Driver/Inc/stm32g4xx_ll_exti.h ****   *         @arg @ref LL_EXTI_LINE_13
 365:Drivers/STM32G4xx_HAL_Driver/Inc/stm32g4xx_ll_exti.h ****   *         @arg @ref LL_EXTI_LINE_14
 366:Drivers/STM32G4xx_HAL_Driver/Inc/stm32g4xx_ll_exti.h ****   *         @arg @ref LL_EXTI_LINE_15
 367:Drivers/STM32G4xx_HAL_Driver/Inc/stm32g4xx_ll_exti.h ****   *         @arg @ref LL_EXTI_LINE_16
 368:Drivers/STM32G4xx_HAL_Driver/Inc/stm32g4xx_ll_exti.h ****   *         @arg @ref LL_EXTI_LINE_17
 369:Drivers/STM32G4xx_HAL_Driver/Inc/stm32g4xx_ll_exti.h ****   *         @arg @ref LL_EXTI_LINE_18
 370:Drivers/STM32G4xx_HAL_Driver/Inc/stm32g4xx_ll_exti.h ****   *         @arg @ref LL_EXTI_LINE_19
 371:Drivers/STM32G4xx_HAL_Driver/Inc/stm32g4xx_ll_exti.h ****   *         @arg @ref LL_EXTI_LINE_20
 372:Drivers/STM32G4xx_HAL_Driver/Inc/stm32g4xx_ll_exti.h ****   *         @arg @ref LL_EXTI_LINE_21
 373:Drivers/STM32G4xx_HAL_Driver/Inc/stm32g4xx_ll_exti.h ****   *         @arg @ref LL_EXTI_LINE_22
 374:Drivers/STM32G4xx_HAL_Driver/Inc/stm32g4xx_ll_exti.h ****   *         @arg @ref LL_EXTI_LINE_23
 375:Drivers/STM32G4xx_HAL_Driver/Inc/stm32g4xx_ll_exti.h ****   *         @arg @ref LL_EXTI_LINE_24
 376:Drivers/STM32G4xx_HAL_Driver/Inc/stm32g4xx_ll_exti.h ****   *         @arg @ref LL_EXTI_LINE_25
 377:Drivers/STM32G4xx_HAL_Driver/Inc/stm32g4xx_ll_exti.h ****   *         @arg @ref LL_EXTI_LINE_26
 378:Drivers/STM32G4xx_HAL_Driver/Inc/stm32g4xx_ll_exti.h ****   *         @arg @ref LL_EXTI_LINE_27
 379:Drivers/STM32G4xx_HAL_Driver/Inc/stm32g4xx_ll_exti.h ****   *         @arg @ref LL_EXTI_LINE_28
 380:Drivers/STM32G4xx_HAL_Driver/Inc/stm32g4xx_ll_exti.h ****   *         @arg @ref LL_EXTI_LINE_29
 381:Drivers/STM32G4xx_HAL_Driver/Inc/stm32g4xx_ll_exti.h ****   *         @arg @ref LL_EXTI_LINE_30
 382:Drivers/STM32G4xx_HAL_Driver/Inc/stm32g4xx_ll_exti.h ****   *         @arg @ref LL_EXTI_LINE_31
 383:Drivers/STM32G4xx_HAL_Driver/Inc/stm32g4xx_ll_exti.h ****   *         @arg @ref LL_EXTI_LINE_ALL_0_31 (*)
 384:Drivers/STM32G4xx_HAL_Driver/Inc/stm32g4xx_ll_exti.h ****   * @note   (*): Available in some devices
 385:Drivers/STM32G4xx_HAL_Driver/Inc/stm32g4xx_ll_exti.h ****   * @note   Please check each device line mapping for EXTI Line availability
 386:Drivers/STM32G4xx_HAL_Driver/Inc/stm32g4xx_ll_exti.h ****   * @retval None
 387:Drivers/STM32G4xx_HAL_Driver/Inc/stm32g4xx_ll_exti.h ****   */
 388:Drivers/STM32G4xx_HAL_Driver/Inc/stm32g4xx_ll_exti.h **** __STATIC_INLINE void LL_EXTI_DisableIT_0_31(uint32_t ExtiLine)
 389:Drivers/STM32G4xx_HAL_Driver/Inc/stm32g4xx_ll_exti.h **** {
 390:Drivers/STM32G4xx_HAL_Driver/Inc/stm32g4xx_ll_exti.h ****   CLEAR_BIT(EXTI->IMR1, ExtiLine);
 391:Drivers/STM32G4xx_HAL_Driver/Inc/stm32g4xx_ll_exti.h **** }
 392:Drivers/STM32G4xx_HAL_Driver/Inc/stm32g4xx_ll_exti.h **** 
 393:Drivers/STM32G4xx_HAL_Driver/Inc/stm32g4xx_ll_exti.h **** /**
 394:Drivers/STM32G4xx_HAL_Driver/Inc/stm32g4xx_ll_exti.h ****   * @brief  Disable ExtiLine Interrupt request for Lines in range 32 to 63
 395:Drivers/STM32G4xx_HAL_Driver/Inc/stm32g4xx_ll_exti.h ****   * @note The reset value for the direct lines (lines from 32 to 34, line
 396:Drivers/STM32G4xx_HAL_Driver/Inc/stm32g4xx_ll_exti.h ****   *       39) is set to 1 in order to enable the interrupt by default.
ARM GAS  D:\apps\VSCode\data\tmp\ccjbw8Rj.s 			page 35


 397:Drivers/STM32G4xx_HAL_Driver/Inc/stm32g4xx_ll_exti.h ****   *       Bits are set automatically at Power on.
 398:Drivers/STM32G4xx_HAL_Driver/Inc/stm32g4xx_ll_exti.h ****   * @rmtoll IMR2         IMx           LL_EXTI_DisableIT_32_63
 399:Drivers/STM32G4xx_HAL_Driver/Inc/stm32g4xx_ll_exti.h ****   * @param  ExtiLine This parameter can be one of the following values:
 400:Drivers/STM32G4xx_HAL_Driver/Inc/stm32g4xx_ll_exti.h ****   *         @arg @ref LL_EXTI_LINE_32 (*)
 401:Drivers/STM32G4xx_HAL_Driver/Inc/stm32g4xx_ll_exti.h ****   *         @arg @ref LL_EXTI_LINE_33 (*)
 402:Drivers/STM32G4xx_HAL_Driver/Inc/stm32g4xx_ll_exti.h ****   *         @arg @ref LL_EXTI_LINE_34
 403:Drivers/STM32G4xx_HAL_Driver/Inc/stm32g4xx_ll_exti.h ****   *         @arg @ref LL_EXTI_LINE_35 (*)
 404:Drivers/STM32G4xx_HAL_Driver/Inc/stm32g4xx_ll_exti.h ****   *         @arg @ref LL_EXTI_LINE_36
 405:Drivers/STM32G4xx_HAL_Driver/Inc/stm32g4xx_ll_exti.h ****   *         @arg @ref LL_EXTI_LINE_37
 406:Drivers/STM32G4xx_HAL_Driver/Inc/stm32g4xx_ll_exti.h ****   *         @arg @ref LL_EXTI_LINE_38
 407:Drivers/STM32G4xx_HAL_Driver/Inc/stm32g4xx_ll_exti.h ****   *         @arg @ref LL_EXTI_LINE_39
 408:Drivers/STM32G4xx_HAL_Driver/Inc/stm32g4xx_ll_exti.h ****   *         @arg @ref LL_EXTI_LINE_40
 409:Drivers/STM32G4xx_HAL_Driver/Inc/stm32g4xx_ll_exti.h ****   *         @arg @ref LL_EXTI_LINE_41
 410:Drivers/STM32G4xx_HAL_Driver/Inc/stm32g4xx_ll_exti.h ****   *         @arg @ref LL_EXTI_LINE_42(*)
 411:Drivers/STM32G4xx_HAL_Driver/Inc/stm32g4xx_ll_exti.h ****   *         @arg @ref LL_EXTI_LINE_ALL_32_63
 412:Drivers/STM32G4xx_HAL_Driver/Inc/stm32g4xx_ll_exti.h ****   * @note   (*): Available in some devices
 413:Drivers/STM32G4xx_HAL_Driver/Inc/stm32g4xx_ll_exti.h ****   * @retval None
 414:Drivers/STM32G4xx_HAL_Driver/Inc/stm32g4xx_ll_exti.h ****   */
 415:Drivers/STM32G4xx_HAL_Driver/Inc/stm32g4xx_ll_exti.h **** __STATIC_INLINE void LL_EXTI_DisableIT_32_63(uint32_t ExtiLine)
 416:Drivers/STM32G4xx_HAL_Driver/Inc/stm32g4xx_ll_exti.h **** {
 417:Drivers/STM32G4xx_HAL_Driver/Inc/stm32g4xx_ll_exti.h ****   CLEAR_BIT(EXTI->IMR2, ExtiLine);
 418:Drivers/STM32G4xx_HAL_Driver/Inc/stm32g4xx_ll_exti.h **** }
 419:Drivers/STM32G4xx_HAL_Driver/Inc/stm32g4xx_ll_exti.h **** 
 420:Drivers/STM32G4xx_HAL_Driver/Inc/stm32g4xx_ll_exti.h **** /**
 421:Drivers/STM32G4xx_HAL_Driver/Inc/stm32g4xx_ll_exti.h ****   * @brief  Indicate if ExtiLine Interrupt request is enabled for Lines in range 0 to 31
 422:Drivers/STM32G4xx_HAL_Driver/Inc/stm32g4xx_ll_exti.h ****   * @note The reset value for the direct or internal lines (see RM)
 423:Drivers/STM32G4xx_HAL_Driver/Inc/stm32g4xx_ll_exti.h ****   *       is set to 1 in order to enable the interrupt by default.
 424:Drivers/STM32G4xx_HAL_Driver/Inc/stm32g4xx_ll_exti.h ****   *       Bits are set automatically at Power on.
 425:Drivers/STM32G4xx_HAL_Driver/Inc/stm32g4xx_ll_exti.h ****   * @rmtoll IMR1         IMx           LL_EXTI_IsEnabledIT_0_31
 426:Drivers/STM32G4xx_HAL_Driver/Inc/stm32g4xx_ll_exti.h ****   * @param  ExtiLine This parameter can be one of the following values:
 427:Drivers/STM32G4xx_HAL_Driver/Inc/stm32g4xx_ll_exti.h ****   *         @arg @ref LL_EXTI_LINE_0
 428:Drivers/STM32G4xx_HAL_Driver/Inc/stm32g4xx_ll_exti.h ****   *         @arg @ref LL_EXTI_LINE_1
 429:Drivers/STM32G4xx_HAL_Driver/Inc/stm32g4xx_ll_exti.h ****   *         @arg @ref LL_EXTI_LINE_2
 430:Drivers/STM32G4xx_HAL_Driver/Inc/stm32g4xx_ll_exti.h ****   *         @arg @ref LL_EXTI_LINE_3
 431:Drivers/STM32G4xx_HAL_Driver/Inc/stm32g4xx_ll_exti.h ****   *         @arg @ref LL_EXTI_LINE_4
 432:Drivers/STM32G4xx_HAL_Driver/Inc/stm32g4xx_ll_exti.h ****   *         @arg @ref LL_EXTI_LINE_5
 433:Drivers/STM32G4xx_HAL_Driver/Inc/stm32g4xx_ll_exti.h ****   *         @arg @ref LL_EXTI_LINE_6
 434:Drivers/STM32G4xx_HAL_Driver/Inc/stm32g4xx_ll_exti.h ****   *         @arg @ref LL_EXTI_LINE_7
 435:Drivers/STM32G4xx_HAL_Driver/Inc/stm32g4xx_ll_exti.h ****   *         @arg @ref LL_EXTI_LINE_8
 436:Drivers/STM32G4xx_HAL_Driver/Inc/stm32g4xx_ll_exti.h ****   *         @arg @ref LL_EXTI_LINE_9
 437:Drivers/STM32G4xx_HAL_Driver/Inc/stm32g4xx_ll_exti.h ****   *         @arg @ref LL_EXTI_LINE_10
 438:Drivers/STM32G4xx_HAL_Driver/Inc/stm32g4xx_ll_exti.h ****   *         @arg @ref LL_EXTI_LINE_11
 439:Drivers/STM32G4xx_HAL_Driver/Inc/stm32g4xx_ll_exti.h ****   *         @arg @ref LL_EXTI_LINE_12
 440:Drivers/STM32G4xx_HAL_Driver/Inc/stm32g4xx_ll_exti.h ****   *         @arg @ref LL_EXTI_LINE_13
 441:Drivers/STM32G4xx_HAL_Driver/Inc/stm32g4xx_ll_exti.h ****   *         @arg @ref LL_EXTI_LINE_14
 442:Drivers/STM32G4xx_HAL_Driver/Inc/stm32g4xx_ll_exti.h ****   *         @arg @ref LL_EXTI_LINE_15
 443:Drivers/STM32G4xx_HAL_Driver/Inc/stm32g4xx_ll_exti.h ****   *         @arg @ref LL_EXTI_LINE_16
 444:Drivers/STM32G4xx_HAL_Driver/Inc/stm32g4xx_ll_exti.h ****   *         @arg @ref LL_EXTI_LINE_17
 445:Drivers/STM32G4xx_HAL_Driver/Inc/stm32g4xx_ll_exti.h ****   *         @arg @ref LL_EXTI_LINE_18
 446:Drivers/STM32G4xx_HAL_Driver/Inc/stm32g4xx_ll_exti.h ****   *         @arg @ref LL_EXTI_LINE_19
 447:Drivers/STM32G4xx_HAL_Driver/Inc/stm32g4xx_ll_exti.h ****   *         @arg @ref LL_EXTI_LINE_20
 448:Drivers/STM32G4xx_HAL_Driver/Inc/stm32g4xx_ll_exti.h ****   *         @arg @ref LL_EXTI_LINE_21
 449:Drivers/STM32G4xx_HAL_Driver/Inc/stm32g4xx_ll_exti.h ****   *         @arg @ref LL_EXTI_LINE_22
 450:Drivers/STM32G4xx_HAL_Driver/Inc/stm32g4xx_ll_exti.h ****   *         @arg @ref LL_EXTI_LINE_23
 451:Drivers/STM32G4xx_HAL_Driver/Inc/stm32g4xx_ll_exti.h ****   *         @arg @ref LL_EXTI_LINE_24
 452:Drivers/STM32G4xx_HAL_Driver/Inc/stm32g4xx_ll_exti.h ****   *         @arg @ref LL_EXTI_LINE_25
 453:Drivers/STM32G4xx_HAL_Driver/Inc/stm32g4xx_ll_exti.h ****   *         @arg @ref LL_EXTI_LINE_26
ARM GAS  D:\apps\VSCode\data\tmp\ccjbw8Rj.s 			page 36


 454:Drivers/STM32G4xx_HAL_Driver/Inc/stm32g4xx_ll_exti.h ****   *         @arg @ref LL_EXTI_LINE_27
 455:Drivers/STM32G4xx_HAL_Driver/Inc/stm32g4xx_ll_exti.h ****   *         @arg @ref LL_EXTI_LINE_28
 456:Drivers/STM32G4xx_HAL_Driver/Inc/stm32g4xx_ll_exti.h ****   *         @arg @ref LL_EXTI_LINE_29
 457:Drivers/STM32G4xx_HAL_Driver/Inc/stm32g4xx_ll_exti.h ****   *         @arg @ref LL_EXTI_LINE_30
 458:Drivers/STM32G4xx_HAL_Driver/Inc/stm32g4xx_ll_exti.h ****   *         @arg @ref LL_EXTI_LINE_31 (*)
 459:Drivers/STM32G4xx_HAL_Driver/Inc/stm32g4xx_ll_exti.h ****   *         @arg @ref LL_EXTI_LINE_ALL_0_31
 460:Drivers/STM32G4xx_HAL_Driver/Inc/stm32g4xx_ll_exti.h ****   * @note   (*): Available in some devices
 461:Drivers/STM32G4xx_HAL_Driver/Inc/stm32g4xx_ll_exti.h ****   * @note   Please check each device line mapping for EXTI Line availability
 462:Drivers/STM32G4xx_HAL_Driver/Inc/stm32g4xx_ll_exti.h ****   * @retval State of bit (1 or 0).
 463:Drivers/STM32G4xx_HAL_Driver/Inc/stm32g4xx_ll_exti.h ****   */
 464:Drivers/STM32G4xx_HAL_Driver/Inc/stm32g4xx_ll_exti.h **** __STATIC_INLINE uint32_t LL_EXTI_IsEnabledIT_0_31(uint32_t ExtiLine)
 465:Drivers/STM32G4xx_HAL_Driver/Inc/stm32g4xx_ll_exti.h **** {
 466:Drivers/STM32G4xx_HAL_Driver/Inc/stm32g4xx_ll_exti.h ****   return ((READ_BIT(EXTI->IMR1, ExtiLine) == (ExtiLine)) ? 1UL : 0UL);
 467:Drivers/STM32G4xx_HAL_Driver/Inc/stm32g4xx_ll_exti.h **** }
 468:Drivers/STM32G4xx_HAL_Driver/Inc/stm32g4xx_ll_exti.h **** 
 469:Drivers/STM32G4xx_HAL_Driver/Inc/stm32g4xx_ll_exti.h **** /**
 470:Drivers/STM32G4xx_HAL_Driver/Inc/stm32g4xx_ll_exti.h ****   * @brief  Indicate if ExtiLine Interrupt request is enabled for Lines in range 32 to 63
 471:Drivers/STM32G4xx_HAL_Driver/Inc/stm32g4xx_ll_exti.h ****   * @note The reset value for the direct lines (lines from 32 to 34, line
 472:Drivers/STM32G4xx_HAL_Driver/Inc/stm32g4xx_ll_exti.h ****   *       39) is set to 1 in order to enable the interrupt by default.
 473:Drivers/STM32G4xx_HAL_Driver/Inc/stm32g4xx_ll_exti.h ****   *       Bits are set automatically at Power on.
 474:Drivers/STM32G4xx_HAL_Driver/Inc/stm32g4xx_ll_exti.h ****   * @rmtoll IMR2         IMx           LL_EXTI_IsEnabledIT_32_63
 475:Drivers/STM32G4xx_HAL_Driver/Inc/stm32g4xx_ll_exti.h ****   * @param  ExtiLine This parameter can be one of the following values:
 476:Drivers/STM32G4xx_HAL_Driver/Inc/stm32g4xx_ll_exti.h ****   *         @arg @ref LL_EXTI_LINE_32 (*)
 477:Drivers/STM32G4xx_HAL_Driver/Inc/stm32g4xx_ll_exti.h ****   *         @arg @ref LL_EXTI_LINE_33 (*)
 478:Drivers/STM32G4xx_HAL_Driver/Inc/stm32g4xx_ll_exti.h ****   *         @arg @ref LL_EXTI_LINE_34
 479:Drivers/STM32G4xx_HAL_Driver/Inc/stm32g4xx_ll_exti.h ****   *         @arg @ref LL_EXTI_LINE_35 (*)
 480:Drivers/STM32G4xx_HAL_Driver/Inc/stm32g4xx_ll_exti.h ****   *         @arg @ref LL_EXTI_LINE_36
 481:Drivers/STM32G4xx_HAL_Driver/Inc/stm32g4xx_ll_exti.h ****   *         @arg @ref LL_EXTI_LINE_37
 482:Drivers/STM32G4xx_HAL_Driver/Inc/stm32g4xx_ll_exti.h ****   *         @arg @ref LL_EXTI_LINE_38
 483:Drivers/STM32G4xx_HAL_Driver/Inc/stm32g4xx_ll_exti.h ****   *         @arg @ref LL_EXTI_LINE_39
 484:Drivers/STM32G4xx_HAL_Driver/Inc/stm32g4xx_ll_exti.h ****   *         @arg @ref LL_EXTI_LINE_40
 485:Drivers/STM32G4xx_HAL_Driver/Inc/stm32g4xx_ll_exti.h ****   *         @arg @ref LL_EXTI_LINE_41
 486:Drivers/STM32G4xx_HAL_Driver/Inc/stm32g4xx_ll_exti.h ****   *         @arg @ref LL_EXTI_LINE_42(*)
 487:Drivers/STM32G4xx_HAL_Driver/Inc/stm32g4xx_ll_exti.h ****   *         @arg @ref LL_EXTI_LINE_ALL_32_63
 488:Drivers/STM32G4xx_HAL_Driver/Inc/stm32g4xx_ll_exti.h ****   * @note   (*): Available in some devices
 489:Drivers/STM32G4xx_HAL_Driver/Inc/stm32g4xx_ll_exti.h ****   * @retval State of bit (1 or 0).
 490:Drivers/STM32G4xx_HAL_Driver/Inc/stm32g4xx_ll_exti.h ****   */
 491:Drivers/STM32G4xx_HAL_Driver/Inc/stm32g4xx_ll_exti.h **** __STATIC_INLINE uint32_t LL_EXTI_IsEnabledIT_32_63(uint32_t ExtiLine)
 492:Drivers/STM32G4xx_HAL_Driver/Inc/stm32g4xx_ll_exti.h **** {
 493:Drivers/STM32G4xx_HAL_Driver/Inc/stm32g4xx_ll_exti.h ****   return ((READ_BIT(EXTI->IMR2, ExtiLine) == (ExtiLine)) ? 1UL : 0UL);
 494:Drivers/STM32G4xx_HAL_Driver/Inc/stm32g4xx_ll_exti.h **** }
 495:Drivers/STM32G4xx_HAL_Driver/Inc/stm32g4xx_ll_exti.h **** 
 496:Drivers/STM32G4xx_HAL_Driver/Inc/stm32g4xx_ll_exti.h **** /**
 497:Drivers/STM32G4xx_HAL_Driver/Inc/stm32g4xx_ll_exti.h ****   * @}
 498:Drivers/STM32G4xx_HAL_Driver/Inc/stm32g4xx_ll_exti.h ****   */
 499:Drivers/STM32G4xx_HAL_Driver/Inc/stm32g4xx_ll_exti.h **** 
 500:Drivers/STM32G4xx_HAL_Driver/Inc/stm32g4xx_ll_exti.h **** /** @defgroup EXTI_LL_EF_Event_Management Event_Management
 501:Drivers/STM32G4xx_HAL_Driver/Inc/stm32g4xx_ll_exti.h ****   * @{
 502:Drivers/STM32G4xx_HAL_Driver/Inc/stm32g4xx_ll_exti.h ****   */
 503:Drivers/STM32G4xx_HAL_Driver/Inc/stm32g4xx_ll_exti.h **** 
 504:Drivers/STM32G4xx_HAL_Driver/Inc/stm32g4xx_ll_exti.h **** /**
 505:Drivers/STM32G4xx_HAL_Driver/Inc/stm32g4xx_ll_exti.h ****   * @brief  Enable ExtiLine Event request for Lines in range 0 to 31
 506:Drivers/STM32G4xx_HAL_Driver/Inc/stm32g4xx_ll_exti.h ****   * @rmtoll EMR1         EMx           LL_EXTI_EnableEvent_0_31
 507:Drivers/STM32G4xx_HAL_Driver/Inc/stm32g4xx_ll_exti.h ****   * @param  ExtiLine This parameter can be one of the following values:
 508:Drivers/STM32G4xx_HAL_Driver/Inc/stm32g4xx_ll_exti.h ****   *         @arg @ref LL_EXTI_LINE_0
 509:Drivers/STM32G4xx_HAL_Driver/Inc/stm32g4xx_ll_exti.h ****   *         @arg @ref LL_EXTI_LINE_1
 510:Drivers/STM32G4xx_HAL_Driver/Inc/stm32g4xx_ll_exti.h ****   *         @arg @ref LL_EXTI_LINE_2
ARM GAS  D:\apps\VSCode\data\tmp\ccjbw8Rj.s 			page 37


 511:Drivers/STM32G4xx_HAL_Driver/Inc/stm32g4xx_ll_exti.h ****   *         @arg @ref LL_EXTI_LINE_3
 512:Drivers/STM32G4xx_HAL_Driver/Inc/stm32g4xx_ll_exti.h ****   *         @arg @ref LL_EXTI_LINE_4
 513:Drivers/STM32G4xx_HAL_Driver/Inc/stm32g4xx_ll_exti.h ****   *         @arg @ref LL_EXTI_LINE_5
 514:Drivers/STM32G4xx_HAL_Driver/Inc/stm32g4xx_ll_exti.h ****   *         @arg @ref LL_EXTI_LINE_6
 515:Drivers/STM32G4xx_HAL_Driver/Inc/stm32g4xx_ll_exti.h ****   *         @arg @ref LL_EXTI_LINE_7
 516:Drivers/STM32G4xx_HAL_Driver/Inc/stm32g4xx_ll_exti.h ****   *         @arg @ref LL_EXTI_LINE_8
 517:Drivers/STM32G4xx_HAL_Driver/Inc/stm32g4xx_ll_exti.h ****   *         @arg @ref LL_EXTI_LINE_9
 518:Drivers/STM32G4xx_HAL_Driver/Inc/stm32g4xx_ll_exti.h ****   *         @arg @ref LL_EXTI_LINE_10
 519:Drivers/STM32G4xx_HAL_Driver/Inc/stm32g4xx_ll_exti.h ****   *         @arg @ref LL_EXTI_LINE_11
 520:Drivers/STM32G4xx_HAL_Driver/Inc/stm32g4xx_ll_exti.h ****   *         @arg @ref LL_EXTI_LINE_12
 521:Drivers/STM32G4xx_HAL_Driver/Inc/stm32g4xx_ll_exti.h ****   *         @arg @ref LL_EXTI_LINE_13
 522:Drivers/STM32G4xx_HAL_Driver/Inc/stm32g4xx_ll_exti.h ****   *         @arg @ref LL_EXTI_LINE_14
 523:Drivers/STM32G4xx_HAL_Driver/Inc/stm32g4xx_ll_exti.h ****   *         @arg @ref LL_EXTI_LINE_15
 524:Drivers/STM32G4xx_HAL_Driver/Inc/stm32g4xx_ll_exti.h ****   *         @arg @ref LL_EXTI_LINE_16
 525:Drivers/STM32G4xx_HAL_Driver/Inc/stm32g4xx_ll_exti.h ****   *         @arg @ref LL_EXTI_LINE_17
 526:Drivers/STM32G4xx_HAL_Driver/Inc/stm32g4xx_ll_exti.h ****   *         @arg @ref LL_EXTI_LINE_18
 527:Drivers/STM32G4xx_HAL_Driver/Inc/stm32g4xx_ll_exti.h ****   *         @arg @ref LL_EXTI_LINE_19
 528:Drivers/STM32G4xx_HAL_Driver/Inc/stm32g4xx_ll_exti.h ****   *         @arg @ref LL_EXTI_LINE_20
 529:Drivers/STM32G4xx_HAL_Driver/Inc/stm32g4xx_ll_exti.h ****   *         @arg @ref LL_EXTI_LINE_21
 530:Drivers/STM32G4xx_HAL_Driver/Inc/stm32g4xx_ll_exti.h ****   *         @arg @ref LL_EXTI_LINE_22
 531:Drivers/STM32G4xx_HAL_Driver/Inc/stm32g4xx_ll_exti.h ****   *         @arg @ref LL_EXTI_LINE_23
 532:Drivers/STM32G4xx_HAL_Driver/Inc/stm32g4xx_ll_exti.h ****   *         @arg @ref LL_EXTI_LINE_24
 533:Drivers/STM32G4xx_HAL_Driver/Inc/stm32g4xx_ll_exti.h ****   *         @arg @ref LL_EXTI_LINE_25
 534:Drivers/STM32G4xx_HAL_Driver/Inc/stm32g4xx_ll_exti.h ****   *         @arg @ref LL_EXTI_LINE_26
 535:Drivers/STM32G4xx_HAL_Driver/Inc/stm32g4xx_ll_exti.h ****   *         @arg @ref LL_EXTI_LINE_27
 536:Drivers/STM32G4xx_HAL_Driver/Inc/stm32g4xx_ll_exti.h ****   *         @arg @ref LL_EXTI_LINE_28
 537:Drivers/STM32G4xx_HAL_Driver/Inc/stm32g4xx_ll_exti.h ****   *         @arg @ref LL_EXTI_LINE_29
 538:Drivers/STM32G4xx_HAL_Driver/Inc/stm32g4xx_ll_exti.h ****   *         @arg @ref LL_EXTI_LINE_30
 539:Drivers/STM32G4xx_HAL_Driver/Inc/stm32g4xx_ll_exti.h ****   *         @arg @ref LL_EXTI_LINE_31
 540:Drivers/STM32G4xx_HAL_Driver/Inc/stm32g4xx_ll_exti.h ****   *         @arg @ref LL_EXTI_LINE_ALL_0_31 (*)
 541:Drivers/STM32G4xx_HAL_Driver/Inc/stm32g4xx_ll_exti.h ****   * @note   (*): Available in some devices
 542:Drivers/STM32G4xx_HAL_Driver/Inc/stm32g4xx_ll_exti.h ****   * @note   Please check each device line mapping for EXTI Line availability
 543:Drivers/STM32G4xx_HAL_Driver/Inc/stm32g4xx_ll_exti.h ****   * @retval None
 544:Drivers/STM32G4xx_HAL_Driver/Inc/stm32g4xx_ll_exti.h ****   */
 545:Drivers/STM32G4xx_HAL_Driver/Inc/stm32g4xx_ll_exti.h **** __STATIC_INLINE void LL_EXTI_EnableEvent_0_31(uint32_t ExtiLine)
 546:Drivers/STM32G4xx_HAL_Driver/Inc/stm32g4xx_ll_exti.h **** {
 547:Drivers/STM32G4xx_HAL_Driver/Inc/stm32g4xx_ll_exti.h ****   SET_BIT(EXTI->EMR1, ExtiLine);
 548:Drivers/STM32G4xx_HAL_Driver/Inc/stm32g4xx_ll_exti.h **** 
 549:Drivers/STM32G4xx_HAL_Driver/Inc/stm32g4xx_ll_exti.h **** }
 550:Drivers/STM32G4xx_HAL_Driver/Inc/stm32g4xx_ll_exti.h **** 
 551:Drivers/STM32G4xx_HAL_Driver/Inc/stm32g4xx_ll_exti.h **** /**
 552:Drivers/STM32G4xx_HAL_Driver/Inc/stm32g4xx_ll_exti.h ****   * @brief  Enable ExtiLine Event request for Lines in range 32 to 63
 553:Drivers/STM32G4xx_HAL_Driver/Inc/stm32g4xx_ll_exti.h ****   * @rmtoll EMR2         EMx           LL_EXTI_EnableEvent_32_63
 554:Drivers/STM32G4xx_HAL_Driver/Inc/stm32g4xx_ll_exti.h ****   * @param  ExtiLine This parameter can be a combination of the following values:
 555:Drivers/STM32G4xx_HAL_Driver/Inc/stm32g4xx_ll_exti.h ****   *         @arg @ref LL_EXTI_LINE_32 (*)
 556:Drivers/STM32G4xx_HAL_Driver/Inc/stm32g4xx_ll_exti.h ****   *         @arg @ref LL_EXTI_LINE_33 (*)
 557:Drivers/STM32G4xx_HAL_Driver/Inc/stm32g4xx_ll_exti.h ****   *         @arg @ref LL_EXTI_LINE_34
 558:Drivers/STM32G4xx_HAL_Driver/Inc/stm32g4xx_ll_exti.h ****   *         @arg @ref LL_EXTI_LINE_35 (*)
 559:Drivers/STM32G4xx_HAL_Driver/Inc/stm32g4xx_ll_exti.h ****   *         @arg @ref LL_EXTI_LINE_36
 560:Drivers/STM32G4xx_HAL_Driver/Inc/stm32g4xx_ll_exti.h ****   *         @arg @ref LL_EXTI_LINE_37
 561:Drivers/STM32G4xx_HAL_Driver/Inc/stm32g4xx_ll_exti.h ****   *         @arg @ref LL_EXTI_LINE_38
 562:Drivers/STM32G4xx_HAL_Driver/Inc/stm32g4xx_ll_exti.h ****   *         @arg @ref LL_EXTI_LINE_39
 563:Drivers/STM32G4xx_HAL_Driver/Inc/stm32g4xx_ll_exti.h ****   *         @arg @ref LL_EXTI_LINE_40
 564:Drivers/STM32G4xx_HAL_Driver/Inc/stm32g4xx_ll_exti.h ****   *         @arg @ref LL_EXTI_LINE_41
 565:Drivers/STM32G4xx_HAL_Driver/Inc/stm32g4xx_ll_exti.h ****   *         @arg @ref LL_EXTI_LINE_42(*)
 566:Drivers/STM32G4xx_HAL_Driver/Inc/stm32g4xx_ll_exti.h ****   *         @arg @ref LL_EXTI_LINE_ALL_32_63
 567:Drivers/STM32G4xx_HAL_Driver/Inc/stm32g4xx_ll_exti.h ****   * @note   (*): Available in some devices
ARM GAS  D:\apps\VSCode\data\tmp\ccjbw8Rj.s 			page 38


 568:Drivers/STM32G4xx_HAL_Driver/Inc/stm32g4xx_ll_exti.h ****   * @retval None
 569:Drivers/STM32G4xx_HAL_Driver/Inc/stm32g4xx_ll_exti.h ****   */
 570:Drivers/STM32G4xx_HAL_Driver/Inc/stm32g4xx_ll_exti.h **** __STATIC_INLINE void LL_EXTI_EnableEvent_32_63(uint32_t ExtiLine)
 571:Drivers/STM32G4xx_HAL_Driver/Inc/stm32g4xx_ll_exti.h **** {
 572:Drivers/STM32G4xx_HAL_Driver/Inc/stm32g4xx_ll_exti.h ****   SET_BIT(EXTI->EMR2, ExtiLine);
 573:Drivers/STM32G4xx_HAL_Driver/Inc/stm32g4xx_ll_exti.h **** }
 574:Drivers/STM32G4xx_HAL_Driver/Inc/stm32g4xx_ll_exti.h **** 
 575:Drivers/STM32G4xx_HAL_Driver/Inc/stm32g4xx_ll_exti.h **** /**
 576:Drivers/STM32G4xx_HAL_Driver/Inc/stm32g4xx_ll_exti.h ****   * @brief  Disable ExtiLine Event request for Lines in range 0 to 31
 577:Drivers/STM32G4xx_HAL_Driver/Inc/stm32g4xx_ll_exti.h ****   * @rmtoll EMR1         EMx           LL_EXTI_DisableEvent_0_31
 578:Drivers/STM32G4xx_HAL_Driver/Inc/stm32g4xx_ll_exti.h ****   * @param  ExtiLine This parameter can be one of the following values:
 579:Drivers/STM32G4xx_HAL_Driver/Inc/stm32g4xx_ll_exti.h ****   *         @arg @ref LL_EXTI_LINE_0
 580:Drivers/STM32G4xx_HAL_Driver/Inc/stm32g4xx_ll_exti.h ****   *         @arg @ref LL_EXTI_LINE_1
 581:Drivers/STM32G4xx_HAL_Driver/Inc/stm32g4xx_ll_exti.h ****   *         @arg @ref LL_EXTI_LINE_2
 582:Drivers/STM32G4xx_HAL_Driver/Inc/stm32g4xx_ll_exti.h ****   *         @arg @ref LL_EXTI_LINE_3
 583:Drivers/STM32G4xx_HAL_Driver/Inc/stm32g4xx_ll_exti.h ****   *         @arg @ref LL_EXTI_LINE_4
 584:Drivers/STM32G4xx_HAL_Driver/Inc/stm32g4xx_ll_exti.h ****   *         @arg @ref LL_EXTI_LINE_5
 585:Drivers/STM32G4xx_HAL_Driver/Inc/stm32g4xx_ll_exti.h ****   *         @arg @ref LL_EXTI_LINE_6
 586:Drivers/STM32G4xx_HAL_Driver/Inc/stm32g4xx_ll_exti.h ****   *         @arg @ref LL_EXTI_LINE_7
 587:Drivers/STM32G4xx_HAL_Driver/Inc/stm32g4xx_ll_exti.h ****   *         @arg @ref LL_EXTI_LINE_8
 588:Drivers/STM32G4xx_HAL_Driver/Inc/stm32g4xx_ll_exti.h ****   *         @arg @ref LL_EXTI_LINE_9
 589:Drivers/STM32G4xx_HAL_Driver/Inc/stm32g4xx_ll_exti.h ****   *         @arg @ref LL_EXTI_LINE_10
 590:Drivers/STM32G4xx_HAL_Driver/Inc/stm32g4xx_ll_exti.h ****   *         @arg @ref LL_EXTI_LINE_11
 591:Drivers/STM32G4xx_HAL_Driver/Inc/stm32g4xx_ll_exti.h ****   *         @arg @ref LL_EXTI_LINE_12
 592:Drivers/STM32G4xx_HAL_Driver/Inc/stm32g4xx_ll_exti.h ****   *         @arg @ref LL_EXTI_LINE_13
 593:Drivers/STM32G4xx_HAL_Driver/Inc/stm32g4xx_ll_exti.h ****   *         @arg @ref LL_EXTI_LINE_14
 594:Drivers/STM32G4xx_HAL_Driver/Inc/stm32g4xx_ll_exti.h ****   *         @arg @ref LL_EXTI_LINE_15
 595:Drivers/STM32G4xx_HAL_Driver/Inc/stm32g4xx_ll_exti.h ****   *         @arg @ref LL_EXTI_LINE_16
 596:Drivers/STM32G4xx_HAL_Driver/Inc/stm32g4xx_ll_exti.h ****   *         @arg @ref LL_EXTI_LINE_17
 597:Drivers/STM32G4xx_HAL_Driver/Inc/stm32g4xx_ll_exti.h ****   *         @arg @ref LL_EXTI_LINE_18
 598:Drivers/STM32G4xx_HAL_Driver/Inc/stm32g4xx_ll_exti.h ****   *         @arg @ref LL_EXTI_LINE_19
 599:Drivers/STM32G4xx_HAL_Driver/Inc/stm32g4xx_ll_exti.h ****   *         @arg @ref LL_EXTI_LINE_20
 600:Drivers/STM32G4xx_HAL_Driver/Inc/stm32g4xx_ll_exti.h ****   *         @arg @ref LL_EXTI_LINE_21
 601:Drivers/STM32G4xx_HAL_Driver/Inc/stm32g4xx_ll_exti.h ****   *         @arg @ref LL_EXTI_LINE_22
 602:Drivers/STM32G4xx_HAL_Driver/Inc/stm32g4xx_ll_exti.h ****   *         @arg @ref LL_EXTI_LINE_23
 603:Drivers/STM32G4xx_HAL_Driver/Inc/stm32g4xx_ll_exti.h ****   *         @arg @ref LL_EXTI_LINE_24
 604:Drivers/STM32G4xx_HAL_Driver/Inc/stm32g4xx_ll_exti.h ****   *         @arg @ref LL_EXTI_LINE_25
 605:Drivers/STM32G4xx_HAL_Driver/Inc/stm32g4xx_ll_exti.h ****   *         @arg @ref LL_EXTI_LINE_26
 606:Drivers/STM32G4xx_HAL_Driver/Inc/stm32g4xx_ll_exti.h ****   *         @arg @ref LL_EXTI_LINE_27
 607:Drivers/STM32G4xx_HAL_Driver/Inc/stm32g4xx_ll_exti.h ****   *         @arg @ref LL_EXTI_LINE_28
 608:Drivers/STM32G4xx_HAL_Driver/Inc/stm32g4xx_ll_exti.h ****   *         @arg @ref LL_EXTI_LINE_29
 609:Drivers/STM32G4xx_HAL_Driver/Inc/stm32g4xx_ll_exti.h ****   *         @arg @ref LL_EXTI_LINE_30
 610:Drivers/STM32G4xx_HAL_Driver/Inc/stm32g4xx_ll_exti.h ****   *         @arg @ref LL_EXTI_LINE_31 (*)
 611:Drivers/STM32G4xx_HAL_Driver/Inc/stm32g4xx_ll_exti.h ****   *         @arg @ref LL_EXTI_LINE_ALL_0_31
 612:Drivers/STM32G4xx_HAL_Driver/Inc/stm32g4xx_ll_exti.h ****   * @note   (*): Available in some devices
 613:Drivers/STM32G4xx_HAL_Driver/Inc/stm32g4xx_ll_exti.h ****   * @note   Please check each device line mapping for EXTI Line availability
 614:Drivers/STM32G4xx_HAL_Driver/Inc/stm32g4xx_ll_exti.h ****   * @retval None
 615:Drivers/STM32G4xx_HAL_Driver/Inc/stm32g4xx_ll_exti.h ****   */
 616:Drivers/STM32G4xx_HAL_Driver/Inc/stm32g4xx_ll_exti.h **** __STATIC_INLINE void LL_EXTI_DisableEvent_0_31(uint32_t ExtiLine)
 617:Drivers/STM32G4xx_HAL_Driver/Inc/stm32g4xx_ll_exti.h **** {
 618:Drivers/STM32G4xx_HAL_Driver/Inc/stm32g4xx_ll_exti.h ****   CLEAR_BIT(EXTI->EMR1, ExtiLine);
 619:Drivers/STM32G4xx_HAL_Driver/Inc/stm32g4xx_ll_exti.h **** }
 620:Drivers/STM32G4xx_HAL_Driver/Inc/stm32g4xx_ll_exti.h **** 
 621:Drivers/STM32G4xx_HAL_Driver/Inc/stm32g4xx_ll_exti.h **** /**
 622:Drivers/STM32G4xx_HAL_Driver/Inc/stm32g4xx_ll_exti.h ****   * @brief  Disable ExtiLine Event request for Lines in range 32 to 63
 623:Drivers/STM32G4xx_HAL_Driver/Inc/stm32g4xx_ll_exti.h ****   * @rmtoll EMR2         EMx           LL_EXTI_DisableEvent_32_63
 624:Drivers/STM32G4xx_HAL_Driver/Inc/stm32g4xx_ll_exti.h ****   * @param  ExtiLine This parameter can be a combination of the following values:
ARM GAS  D:\apps\VSCode\data\tmp\ccjbw8Rj.s 			page 39


 625:Drivers/STM32G4xx_HAL_Driver/Inc/stm32g4xx_ll_exti.h ****   *         @arg @ref LL_EXTI_LINE_32 (*)
 626:Drivers/STM32G4xx_HAL_Driver/Inc/stm32g4xx_ll_exti.h ****   *         @arg @ref LL_EXTI_LINE_33 (*)
 627:Drivers/STM32G4xx_HAL_Driver/Inc/stm32g4xx_ll_exti.h ****   *         @arg @ref LL_EXTI_LINE_34
 628:Drivers/STM32G4xx_HAL_Driver/Inc/stm32g4xx_ll_exti.h ****   *         @arg @ref LL_EXTI_LINE_35 (*)
 629:Drivers/STM32G4xx_HAL_Driver/Inc/stm32g4xx_ll_exti.h ****   *         @arg @ref LL_EXTI_LINE_36
 630:Drivers/STM32G4xx_HAL_Driver/Inc/stm32g4xx_ll_exti.h ****   *         @arg @ref LL_EXTI_LINE_37
 631:Drivers/STM32G4xx_HAL_Driver/Inc/stm32g4xx_ll_exti.h ****   *         @arg @ref LL_EXTI_LINE_38
 632:Drivers/STM32G4xx_HAL_Driver/Inc/stm32g4xx_ll_exti.h ****   *         @arg @ref LL_EXTI_LINE_39
 633:Drivers/STM32G4xx_HAL_Driver/Inc/stm32g4xx_ll_exti.h ****   *         @arg @ref LL_EXTI_LINE_40
 634:Drivers/STM32G4xx_HAL_Driver/Inc/stm32g4xx_ll_exti.h ****   *         @arg @ref LL_EXTI_LINE_41
 635:Drivers/STM32G4xx_HAL_Driver/Inc/stm32g4xx_ll_exti.h ****   *         @arg @ref LL_EXTI_LINE_42(*)
 636:Drivers/STM32G4xx_HAL_Driver/Inc/stm32g4xx_ll_exti.h ****   *         @arg @ref LL_EXTI_LINE_ALL_32_63
 637:Drivers/STM32G4xx_HAL_Driver/Inc/stm32g4xx_ll_exti.h ****   * @note   (*): Available in some devices
 638:Drivers/STM32G4xx_HAL_Driver/Inc/stm32g4xx_ll_exti.h ****   * @retval None
 639:Drivers/STM32G4xx_HAL_Driver/Inc/stm32g4xx_ll_exti.h ****   */
 640:Drivers/STM32G4xx_HAL_Driver/Inc/stm32g4xx_ll_exti.h **** __STATIC_INLINE void LL_EXTI_DisableEvent_32_63(uint32_t ExtiLine)
 641:Drivers/STM32G4xx_HAL_Driver/Inc/stm32g4xx_ll_exti.h **** {
 642:Drivers/STM32G4xx_HAL_Driver/Inc/stm32g4xx_ll_exti.h ****   CLEAR_BIT(EXTI->EMR2, ExtiLine);
 643:Drivers/STM32G4xx_HAL_Driver/Inc/stm32g4xx_ll_exti.h **** }
 644:Drivers/STM32G4xx_HAL_Driver/Inc/stm32g4xx_ll_exti.h **** 
 645:Drivers/STM32G4xx_HAL_Driver/Inc/stm32g4xx_ll_exti.h **** /**
 646:Drivers/STM32G4xx_HAL_Driver/Inc/stm32g4xx_ll_exti.h ****   * @brief  Indicate if ExtiLine Event request is enabled for Lines in range 0 to 31
 647:Drivers/STM32G4xx_HAL_Driver/Inc/stm32g4xx_ll_exti.h ****   * @rmtoll EMR1         EMx           LL_EXTI_IsEnabledEvent_0_31
 648:Drivers/STM32G4xx_HAL_Driver/Inc/stm32g4xx_ll_exti.h ****   * @param  ExtiLine This parameter can be one of the following values:
 649:Drivers/STM32G4xx_HAL_Driver/Inc/stm32g4xx_ll_exti.h ****   *         @arg @ref LL_EXTI_LINE_0
 650:Drivers/STM32G4xx_HAL_Driver/Inc/stm32g4xx_ll_exti.h ****   *         @arg @ref LL_EXTI_LINE_1
 651:Drivers/STM32G4xx_HAL_Driver/Inc/stm32g4xx_ll_exti.h ****   *         @arg @ref LL_EXTI_LINE_2
 652:Drivers/STM32G4xx_HAL_Driver/Inc/stm32g4xx_ll_exti.h ****   *         @arg @ref LL_EXTI_LINE_3
 653:Drivers/STM32G4xx_HAL_Driver/Inc/stm32g4xx_ll_exti.h ****   *         @arg @ref LL_EXTI_LINE_4
 654:Drivers/STM32G4xx_HAL_Driver/Inc/stm32g4xx_ll_exti.h ****   *         @arg @ref LL_EXTI_LINE_5
 655:Drivers/STM32G4xx_HAL_Driver/Inc/stm32g4xx_ll_exti.h ****   *         @arg @ref LL_EXTI_LINE_6
 656:Drivers/STM32G4xx_HAL_Driver/Inc/stm32g4xx_ll_exti.h ****   *         @arg @ref LL_EXTI_LINE_7
 657:Drivers/STM32G4xx_HAL_Driver/Inc/stm32g4xx_ll_exti.h ****   *         @arg @ref LL_EXTI_LINE_8
 658:Drivers/STM32G4xx_HAL_Driver/Inc/stm32g4xx_ll_exti.h ****   *         @arg @ref LL_EXTI_LINE_9
 659:Drivers/STM32G4xx_HAL_Driver/Inc/stm32g4xx_ll_exti.h ****   *         @arg @ref LL_EXTI_LINE_10
 660:Drivers/STM32G4xx_HAL_Driver/Inc/stm32g4xx_ll_exti.h ****   *         @arg @ref LL_EXTI_LINE_11
 661:Drivers/STM32G4xx_HAL_Driver/Inc/stm32g4xx_ll_exti.h ****   *         @arg @ref LL_EXTI_LINE_12
 662:Drivers/STM32G4xx_HAL_Driver/Inc/stm32g4xx_ll_exti.h ****   *         @arg @ref LL_EXTI_LINE_13
 663:Drivers/STM32G4xx_HAL_Driver/Inc/stm32g4xx_ll_exti.h ****   *         @arg @ref LL_EXTI_LINE_14
 664:Drivers/STM32G4xx_HAL_Driver/Inc/stm32g4xx_ll_exti.h ****   *         @arg @ref LL_EXTI_LINE_15
 665:Drivers/STM32G4xx_HAL_Driver/Inc/stm32g4xx_ll_exti.h ****   *         @arg @ref LL_EXTI_LINE_16
 666:Drivers/STM32G4xx_HAL_Driver/Inc/stm32g4xx_ll_exti.h ****   *         @arg @ref LL_EXTI_LINE_17
 667:Drivers/STM32G4xx_HAL_Driver/Inc/stm32g4xx_ll_exti.h ****   *         @arg @ref LL_EXTI_LINE_18
 668:Drivers/STM32G4xx_HAL_Driver/Inc/stm32g4xx_ll_exti.h ****   *         @arg @ref LL_EXTI_LINE_19
 669:Drivers/STM32G4xx_HAL_Driver/Inc/stm32g4xx_ll_exti.h ****   *         @arg @ref LL_EXTI_LINE_20
 670:Drivers/STM32G4xx_HAL_Driver/Inc/stm32g4xx_ll_exti.h ****   *         @arg @ref LL_EXTI_LINE_21
 671:Drivers/STM32G4xx_HAL_Driver/Inc/stm32g4xx_ll_exti.h ****   *         @arg @ref LL_EXTI_LINE_22
 672:Drivers/STM32G4xx_HAL_Driver/Inc/stm32g4xx_ll_exti.h ****   *         @arg @ref LL_EXTI_LINE_23
 673:Drivers/STM32G4xx_HAL_Driver/Inc/stm32g4xx_ll_exti.h ****   *         @arg @ref LL_EXTI_LINE_24
 674:Drivers/STM32G4xx_HAL_Driver/Inc/stm32g4xx_ll_exti.h ****   *         @arg @ref LL_EXTI_LINE_25
 675:Drivers/STM32G4xx_HAL_Driver/Inc/stm32g4xx_ll_exti.h ****   *         @arg @ref LL_EXTI_LINE_26
 676:Drivers/STM32G4xx_HAL_Driver/Inc/stm32g4xx_ll_exti.h ****   *         @arg @ref LL_EXTI_LINE_27
 677:Drivers/STM32G4xx_HAL_Driver/Inc/stm32g4xx_ll_exti.h ****   *         @arg @ref LL_EXTI_LINE_28
 678:Drivers/STM32G4xx_HAL_Driver/Inc/stm32g4xx_ll_exti.h ****   *         @arg @ref LL_EXTI_LINE_29
 679:Drivers/STM32G4xx_HAL_Driver/Inc/stm32g4xx_ll_exti.h ****   *         @arg @ref LL_EXTI_LINE_30
 680:Drivers/STM32G4xx_HAL_Driver/Inc/stm32g4xx_ll_exti.h ****   *         @arg @ref LL_EXTI_LINE_31
 681:Drivers/STM32G4xx_HAL_Driver/Inc/stm32g4xx_ll_exti.h ****   *         @arg @ref LL_EXTI_LINE_ALL_0_31 (*)
ARM GAS  D:\apps\VSCode\data\tmp\ccjbw8Rj.s 			page 40


 682:Drivers/STM32G4xx_HAL_Driver/Inc/stm32g4xx_ll_exti.h ****   * @note   (*): Available in some devices
 683:Drivers/STM32G4xx_HAL_Driver/Inc/stm32g4xx_ll_exti.h ****   * @note   Please check each device line mapping for EXTI Line availability
 684:Drivers/STM32G4xx_HAL_Driver/Inc/stm32g4xx_ll_exti.h ****   * @retval State of bit (1 or 0).
 685:Drivers/STM32G4xx_HAL_Driver/Inc/stm32g4xx_ll_exti.h ****   */
 686:Drivers/STM32G4xx_HAL_Driver/Inc/stm32g4xx_ll_exti.h **** __STATIC_INLINE uint32_t LL_EXTI_IsEnabledEvent_0_31(uint32_t ExtiLine)
 687:Drivers/STM32G4xx_HAL_Driver/Inc/stm32g4xx_ll_exti.h **** {
 688:Drivers/STM32G4xx_HAL_Driver/Inc/stm32g4xx_ll_exti.h ****   return ((READ_BIT(EXTI->EMR1, ExtiLine) == (ExtiLine)) ? 1UL : 0UL);
 689:Drivers/STM32G4xx_HAL_Driver/Inc/stm32g4xx_ll_exti.h **** 
 690:Drivers/STM32G4xx_HAL_Driver/Inc/stm32g4xx_ll_exti.h **** }
 691:Drivers/STM32G4xx_HAL_Driver/Inc/stm32g4xx_ll_exti.h **** 
 692:Drivers/STM32G4xx_HAL_Driver/Inc/stm32g4xx_ll_exti.h **** /**
 693:Drivers/STM32G4xx_HAL_Driver/Inc/stm32g4xx_ll_exti.h ****   * @brief  Indicate if ExtiLine Event request is enabled for Lines in range 32 to 63
 694:Drivers/STM32G4xx_HAL_Driver/Inc/stm32g4xx_ll_exti.h ****   * @rmtoll EMR2         EMx           LL_EXTI_IsEnabledEvent_32_63
 695:Drivers/STM32G4xx_HAL_Driver/Inc/stm32g4xx_ll_exti.h ****   * @param  ExtiLine This parameter can be a combination of the following values:
 696:Drivers/STM32G4xx_HAL_Driver/Inc/stm32g4xx_ll_exti.h ****   *         @arg @ref LL_EXTI_LINE_32 (*)
 697:Drivers/STM32G4xx_HAL_Driver/Inc/stm32g4xx_ll_exti.h ****   *         @arg @ref LL_EXTI_LINE_33 (*)
 698:Drivers/STM32G4xx_HAL_Driver/Inc/stm32g4xx_ll_exti.h ****   *         @arg @ref LL_EXTI_LINE_34
 699:Drivers/STM32G4xx_HAL_Driver/Inc/stm32g4xx_ll_exti.h ****   *         @arg @ref LL_EXTI_LINE_35 (*)
 700:Drivers/STM32G4xx_HAL_Driver/Inc/stm32g4xx_ll_exti.h ****   *         @arg @ref LL_EXTI_LINE_36
 701:Drivers/STM32G4xx_HAL_Driver/Inc/stm32g4xx_ll_exti.h ****   *         @arg @ref LL_EXTI_LINE_37
 702:Drivers/STM32G4xx_HAL_Driver/Inc/stm32g4xx_ll_exti.h ****   *         @arg @ref LL_EXTI_LINE_38
 703:Drivers/STM32G4xx_HAL_Driver/Inc/stm32g4xx_ll_exti.h ****   *         @arg @ref LL_EXTI_LINE_39
 704:Drivers/STM32G4xx_HAL_Driver/Inc/stm32g4xx_ll_exti.h ****   *         @arg @ref LL_EXTI_LINE_40
 705:Drivers/STM32G4xx_HAL_Driver/Inc/stm32g4xx_ll_exti.h ****   *         @arg @ref LL_EXTI_LINE_41
 706:Drivers/STM32G4xx_HAL_Driver/Inc/stm32g4xx_ll_exti.h ****   *         @arg @ref LL_EXTI_LINE_42(*)
 707:Drivers/STM32G4xx_HAL_Driver/Inc/stm32g4xx_ll_exti.h ****   *         @arg @ref LL_EXTI_LINE_ALL_32_63
 708:Drivers/STM32G4xx_HAL_Driver/Inc/stm32g4xx_ll_exti.h ****   * @note   (*): Available in some devices
 709:Drivers/STM32G4xx_HAL_Driver/Inc/stm32g4xx_ll_exti.h ****   * @retval State of bit (1 or 0).
 710:Drivers/STM32G4xx_HAL_Driver/Inc/stm32g4xx_ll_exti.h ****   */
 711:Drivers/STM32G4xx_HAL_Driver/Inc/stm32g4xx_ll_exti.h **** __STATIC_INLINE uint32_t LL_EXTI_IsEnabledEvent_32_63(uint32_t ExtiLine)
 712:Drivers/STM32G4xx_HAL_Driver/Inc/stm32g4xx_ll_exti.h **** {
 713:Drivers/STM32G4xx_HAL_Driver/Inc/stm32g4xx_ll_exti.h ****   return ((READ_BIT(EXTI->EMR2, ExtiLine) == (ExtiLine)) ? 1UL : 0UL);
 714:Drivers/STM32G4xx_HAL_Driver/Inc/stm32g4xx_ll_exti.h **** }
 715:Drivers/STM32G4xx_HAL_Driver/Inc/stm32g4xx_ll_exti.h **** 
 716:Drivers/STM32G4xx_HAL_Driver/Inc/stm32g4xx_ll_exti.h **** /**
 717:Drivers/STM32G4xx_HAL_Driver/Inc/stm32g4xx_ll_exti.h ****   * @}
 718:Drivers/STM32G4xx_HAL_Driver/Inc/stm32g4xx_ll_exti.h ****   */
 719:Drivers/STM32G4xx_HAL_Driver/Inc/stm32g4xx_ll_exti.h **** 
 720:Drivers/STM32G4xx_HAL_Driver/Inc/stm32g4xx_ll_exti.h **** /** @defgroup EXTI_LL_EF_Rising_Trigger_Management Rising_Trigger_Management
 721:Drivers/STM32G4xx_HAL_Driver/Inc/stm32g4xx_ll_exti.h ****   * @{
 722:Drivers/STM32G4xx_HAL_Driver/Inc/stm32g4xx_ll_exti.h ****   */
 723:Drivers/STM32G4xx_HAL_Driver/Inc/stm32g4xx_ll_exti.h **** 
 724:Drivers/STM32G4xx_HAL_Driver/Inc/stm32g4xx_ll_exti.h **** /**
 725:Drivers/STM32G4xx_HAL_Driver/Inc/stm32g4xx_ll_exti.h ****   * @brief  Enable ExtiLine Rising Edge Trigger for Lines in range 0 to 31
 726:Drivers/STM32G4xx_HAL_Driver/Inc/stm32g4xx_ll_exti.h ****   * @note The configurable wakeup lines are edge-triggered. No glitch must be
 727:Drivers/STM32G4xx_HAL_Driver/Inc/stm32g4xx_ll_exti.h ****   *       generated on these lines. If a rising edge on a configurable interrupt
 728:Drivers/STM32G4xx_HAL_Driver/Inc/stm32g4xx_ll_exti.h ****   *       line occurs during a write operation in the EXTI_RTSR register, the
 729:Drivers/STM32G4xx_HAL_Driver/Inc/stm32g4xx_ll_exti.h ****   *       pending bit is not set.
 730:Drivers/STM32G4xx_HAL_Driver/Inc/stm32g4xx_ll_exti.h ****   *       Rising and falling edge triggers can be set for
 731:Drivers/STM32G4xx_HAL_Driver/Inc/stm32g4xx_ll_exti.h ****   *       the same interrupt line. In this case, both generate a trigger
 732:Drivers/STM32G4xx_HAL_Driver/Inc/stm32g4xx_ll_exti.h ****   *       condition.
 733:Drivers/STM32G4xx_HAL_Driver/Inc/stm32g4xx_ll_exti.h ****   * @rmtoll RTSR1        RTx           LL_EXTI_EnableRisingTrig_0_31
 734:Drivers/STM32G4xx_HAL_Driver/Inc/stm32g4xx_ll_exti.h ****   * @param  ExtiLine This parameter can be a combination of the following values:
 735:Drivers/STM32G4xx_HAL_Driver/Inc/stm32g4xx_ll_exti.h ****   *         @arg @ref LL_EXTI_LINE_0
 736:Drivers/STM32G4xx_HAL_Driver/Inc/stm32g4xx_ll_exti.h ****   *         @arg @ref LL_EXTI_LINE_1
 737:Drivers/STM32G4xx_HAL_Driver/Inc/stm32g4xx_ll_exti.h ****   *         @arg @ref LL_EXTI_LINE_2
 738:Drivers/STM32G4xx_HAL_Driver/Inc/stm32g4xx_ll_exti.h ****   *         @arg @ref LL_EXTI_LINE_3
ARM GAS  D:\apps\VSCode\data\tmp\ccjbw8Rj.s 			page 41


 739:Drivers/STM32G4xx_HAL_Driver/Inc/stm32g4xx_ll_exti.h ****   *         @arg @ref LL_EXTI_LINE_4
 740:Drivers/STM32G4xx_HAL_Driver/Inc/stm32g4xx_ll_exti.h ****   *         @arg @ref LL_EXTI_LINE_5
 741:Drivers/STM32G4xx_HAL_Driver/Inc/stm32g4xx_ll_exti.h ****   *         @arg @ref LL_EXTI_LINE_6
 742:Drivers/STM32G4xx_HAL_Driver/Inc/stm32g4xx_ll_exti.h ****   *         @arg @ref LL_EXTI_LINE_7
 743:Drivers/STM32G4xx_HAL_Driver/Inc/stm32g4xx_ll_exti.h ****   *         @arg @ref LL_EXTI_LINE_8
 744:Drivers/STM32G4xx_HAL_Driver/Inc/stm32g4xx_ll_exti.h ****   *         @arg @ref LL_EXTI_LINE_9
 745:Drivers/STM32G4xx_HAL_Driver/Inc/stm32g4xx_ll_exti.h ****   *         @arg @ref LL_EXTI_LINE_10
 746:Drivers/STM32G4xx_HAL_Driver/Inc/stm32g4xx_ll_exti.h ****   *         @arg @ref LL_EXTI_LINE_11
 747:Drivers/STM32G4xx_HAL_Driver/Inc/stm32g4xx_ll_exti.h ****   *         @arg @ref LL_EXTI_LINE_12
 748:Drivers/STM32G4xx_HAL_Driver/Inc/stm32g4xx_ll_exti.h ****   *         @arg @ref LL_EXTI_LINE_13
 749:Drivers/STM32G4xx_HAL_Driver/Inc/stm32g4xx_ll_exti.h ****   *         @arg @ref LL_EXTI_LINE_14
 750:Drivers/STM32G4xx_HAL_Driver/Inc/stm32g4xx_ll_exti.h ****   *         @arg @ref LL_EXTI_LINE_15
 751:Drivers/STM32G4xx_HAL_Driver/Inc/stm32g4xx_ll_exti.h ****   *         @arg @ref LL_EXTI_LINE_16
 752:Drivers/STM32G4xx_HAL_Driver/Inc/stm32g4xx_ll_exti.h ****   *         @arg @ref LL_EXTI_LINE_18
 753:Drivers/STM32G4xx_HAL_Driver/Inc/stm32g4xx_ll_exti.h ****   *         @arg @ref LL_EXTI_LINE_19
 754:Drivers/STM32G4xx_HAL_Driver/Inc/stm32g4xx_ll_exti.h ****   *         @arg @ref LL_EXTI_LINE_20
 755:Drivers/STM32G4xx_HAL_Driver/Inc/stm32g4xx_ll_exti.h ****   *         @arg @ref LL_EXTI_LINE_21
 756:Drivers/STM32G4xx_HAL_Driver/Inc/stm32g4xx_ll_exti.h ****   *         @arg @ref LL_EXTI_LINE_22
 757:Drivers/STM32G4xx_HAL_Driver/Inc/stm32g4xx_ll_exti.h ****   *         @arg @ref LL_EXTI_LINE_29
 758:Drivers/STM32G4xx_HAL_Driver/Inc/stm32g4xx_ll_exti.h ****   *         @arg @ref LL_EXTI_LINE_30
 759:Drivers/STM32G4xx_HAL_Driver/Inc/stm32g4xx_ll_exti.h ****   *         @arg @ref LL_EXTI_LINE_31 (*)
 760:Drivers/STM32G4xx_HAL_Driver/Inc/stm32g4xx_ll_exti.h ****   * @note   (*): Available in some devices
 761:Drivers/STM32G4xx_HAL_Driver/Inc/stm32g4xx_ll_exti.h ****   * @note   Please check each device line mapping for EXTI Line availability
 762:Drivers/STM32G4xx_HAL_Driver/Inc/stm32g4xx_ll_exti.h ****   * @retval None
 763:Drivers/STM32G4xx_HAL_Driver/Inc/stm32g4xx_ll_exti.h ****   */
 764:Drivers/STM32G4xx_HAL_Driver/Inc/stm32g4xx_ll_exti.h **** __STATIC_INLINE void LL_EXTI_EnableRisingTrig_0_31(uint32_t ExtiLine)
 326              		.loc 4 764 22 view .LVU91
 327              	.LBB57:
 765:Drivers/STM32G4xx_HAL_Driver/Inc/stm32g4xx_ll_exti.h **** {
 766:Drivers/STM32G4xx_HAL_Driver/Inc/stm32g4xx_ll_exti.h ****   SET_BIT(EXTI->RTSR1, ExtiLine);
 328              		.loc 4 766 3 view .LVU92
 329 007a 0F4B     		ldr	r3, .L20+20
 330 007c 9A68     		ldr	r2, [r3, #8]
 331 007e 42F40012 		orr	r2, r2, #2097152
 332 0082 9A60     		str	r2, [r3, #8]
 333              	.LVL9:
 334              		.loc 4 766 3 is_stmt 0 view .LVU93
 335              	.LBE57:
 336              	.LBE56:
  88:Src/comp.c    ****   LL_EXTI_DisableFallingTrig_0_31(LL_EXTI_LINE_21);
 337              		.loc 1 88 3 is_stmt 1 view .LVU94
 338              	.LBB58:
 339              	.LBI58:
 767:Drivers/STM32G4xx_HAL_Driver/Inc/stm32g4xx_ll_exti.h **** 
 768:Drivers/STM32G4xx_HAL_Driver/Inc/stm32g4xx_ll_exti.h **** }
 769:Drivers/STM32G4xx_HAL_Driver/Inc/stm32g4xx_ll_exti.h **** 
 770:Drivers/STM32G4xx_HAL_Driver/Inc/stm32g4xx_ll_exti.h **** /**
 771:Drivers/STM32G4xx_HAL_Driver/Inc/stm32g4xx_ll_exti.h ****   * @brief  Enable ExtiLine Rising Edge Trigger for Lines in range 32 to 63
 772:Drivers/STM32G4xx_HAL_Driver/Inc/stm32g4xx_ll_exti.h ****   * @note The configurable wakeup lines are edge-triggered. No glitch must be
 773:Drivers/STM32G4xx_HAL_Driver/Inc/stm32g4xx_ll_exti.h ****   *       generated on these lines. If a rising edge on a configurable interrupt
 774:Drivers/STM32G4xx_HAL_Driver/Inc/stm32g4xx_ll_exti.h ****   *       line occurs during a write operation in the EXTI_RTSR register, the
 775:Drivers/STM32G4xx_HAL_Driver/Inc/stm32g4xx_ll_exti.h ****   *       pending bit is not set.Rising and falling edge triggers can be set for
 776:Drivers/STM32G4xx_HAL_Driver/Inc/stm32g4xx_ll_exti.h ****   *       the same interrupt line. In this case, both generate a trigger
 777:Drivers/STM32G4xx_HAL_Driver/Inc/stm32g4xx_ll_exti.h ****   *       condition.
 778:Drivers/STM32G4xx_HAL_Driver/Inc/stm32g4xx_ll_exti.h ****   * @rmtoll RTSR2        RTx           LL_EXTI_EnableRisingTrig_32_63
 779:Drivers/STM32G4xx_HAL_Driver/Inc/stm32g4xx_ll_exti.h ****   * @param  ExtiLine This parameter can be a combination of the following values:
 780:Drivers/STM32G4xx_HAL_Driver/Inc/stm32g4xx_ll_exti.h ****   *         @arg @ref LL_EXTI_LINE_32 (*)
ARM GAS  D:\apps\VSCode\data\tmp\ccjbw8Rj.s 			page 42


 781:Drivers/STM32G4xx_HAL_Driver/Inc/stm32g4xx_ll_exti.h ****   *         @arg @ref LL_EXTI_LINE_33 (*)
 782:Drivers/STM32G4xx_HAL_Driver/Inc/stm32g4xx_ll_exti.h ****   *         @arg @ref LL_EXTI_LINE_38
 783:Drivers/STM32G4xx_HAL_Driver/Inc/stm32g4xx_ll_exti.h ****   *         @arg @ref LL_EXTI_LINE_39
 784:Drivers/STM32G4xx_HAL_Driver/Inc/stm32g4xx_ll_exti.h ****   *         @arg @ref LL_EXTI_LINE_40
 785:Drivers/STM32G4xx_HAL_Driver/Inc/stm32g4xx_ll_exti.h ****   *         @arg @ref LL_EXTI_LINE_41
 786:Drivers/STM32G4xx_HAL_Driver/Inc/stm32g4xx_ll_exti.h ****   * @note   (*): Available in some devices
 787:Drivers/STM32G4xx_HAL_Driver/Inc/stm32g4xx_ll_exti.h ****   * @retval None
 788:Drivers/STM32G4xx_HAL_Driver/Inc/stm32g4xx_ll_exti.h ****   */
 789:Drivers/STM32G4xx_HAL_Driver/Inc/stm32g4xx_ll_exti.h **** __STATIC_INLINE void LL_EXTI_EnableRisingTrig_32_63(uint32_t ExtiLine)
 790:Drivers/STM32G4xx_HAL_Driver/Inc/stm32g4xx_ll_exti.h **** {
 791:Drivers/STM32G4xx_HAL_Driver/Inc/stm32g4xx_ll_exti.h ****   SET_BIT(EXTI->RTSR2, ExtiLine);
 792:Drivers/STM32G4xx_HAL_Driver/Inc/stm32g4xx_ll_exti.h **** }
 793:Drivers/STM32G4xx_HAL_Driver/Inc/stm32g4xx_ll_exti.h **** 
 794:Drivers/STM32G4xx_HAL_Driver/Inc/stm32g4xx_ll_exti.h **** /**
 795:Drivers/STM32G4xx_HAL_Driver/Inc/stm32g4xx_ll_exti.h ****   * @brief  Disable ExtiLine Rising Edge Trigger for Lines in range 0 to 31
 796:Drivers/STM32G4xx_HAL_Driver/Inc/stm32g4xx_ll_exti.h ****   * @note The configurable wakeup lines are edge-triggered. No glitch must be
 797:Drivers/STM32G4xx_HAL_Driver/Inc/stm32g4xx_ll_exti.h ****   *       generated on these lines. If a rising edge on a configurable interrupt
 798:Drivers/STM32G4xx_HAL_Driver/Inc/stm32g4xx_ll_exti.h ****   *       line occurs during a write operation in the EXTI_RTSR register, the
 799:Drivers/STM32G4xx_HAL_Driver/Inc/stm32g4xx_ll_exti.h ****   *       pending bit is not set.
 800:Drivers/STM32G4xx_HAL_Driver/Inc/stm32g4xx_ll_exti.h ****   *       Rising and falling edge triggers can be set for
 801:Drivers/STM32G4xx_HAL_Driver/Inc/stm32g4xx_ll_exti.h ****   *       the same interrupt line. In this case, both generate a trigger
 802:Drivers/STM32G4xx_HAL_Driver/Inc/stm32g4xx_ll_exti.h ****   *       condition.
 803:Drivers/STM32G4xx_HAL_Driver/Inc/stm32g4xx_ll_exti.h ****   * @rmtoll RTSR1        RTx           LL_EXTI_DisableRisingTrig_0_31
 804:Drivers/STM32G4xx_HAL_Driver/Inc/stm32g4xx_ll_exti.h ****   * @param  ExtiLine This parameter can be a combination of the following values:
 805:Drivers/STM32G4xx_HAL_Driver/Inc/stm32g4xx_ll_exti.h ****   *         @arg @ref LL_EXTI_LINE_0
 806:Drivers/STM32G4xx_HAL_Driver/Inc/stm32g4xx_ll_exti.h ****   *         @arg @ref LL_EXTI_LINE_1
 807:Drivers/STM32G4xx_HAL_Driver/Inc/stm32g4xx_ll_exti.h ****   *         @arg @ref LL_EXTI_LINE_2
 808:Drivers/STM32G4xx_HAL_Driver/Inc/stm32g4xx_ll_exti.h ****   *         @arg @ref LL_EXTI_LINE_3
 809:Drivers/STM32G4xx_HAL_Driver/Inc/stm32g4xx_ll_exti.h ****   *         @arg @ref LL_EXTI_LINE_4
 810:Drivers/STM32G4xx_HAL_Driver/Inc/stm32g4xx_ll_exti.h ****   *         @arg @ref LL_EXTI_LINE_5
 811:Drivers/STM32G4xx_HAL_Driver/Inc/stm32g4xx_ll_exti.h ****   *         @arg @ref LL_EXTI_LINE_6
 812:Drivers/STM32G4xx_HAL_Driver/Inc/stm32g4xx_ll_exti.h ****   *         @arg @ref LL_EXTI_LINE_7
 813:Drivers/STM32G4xx_HAL_Driver/Inc/stm32g4xx_ll_exti.h ****   *         @arg @ref LL_EXTI_LINE_8
 814:Drivers/STM32G4xx_HAL_Driver/Inc/stm32g4xx_ll_exti.h ****   *         @arg @ref LL_EXTI_LINE_9
 815:Drivers/STM32G4xx_HAL_Driver/Inc/stm32g4xx_ll_exti.h ****   *         @arg @ref LL_EXTI_LINE_10
 816:Drivers/STM32G4xx_HAL_Driver/Inc/stm32g4xx_ll_exti.h ****   *         @arg @ref LL_EXTI_LINE_11
 817:Drivers/STM32G4xx_HAL_Driver/Inc/stm32g4xx_ll_exti.h ****   *         @arg @ref LL_EXTI_LINE_12
 818:Drivers/STM32G4xx_HAL_Driver/Inc/stm32g4xx_ll_exti.h ****   *         @arg @ref LL_EXTI_LINE_13
 819:Drivers/STM32G4xx_HAL_Driver/Inc/stm32g4xx_ll_exti.h ****   *         @arg @ref LL_EXTI_LINE_14
 820:Drivers/STM32G4xx_HAL_Driver/Inc/stm32g4xx_ll_exti.h ****   *         @arg @ref LL_EXTI_LINE_15
 821:Drivers/STM32G4xx_HAL_Driver/Inc/stm32g4xx_ll_exti.h ****   *         @arg @ref LL_EXTI_LINE_16
 822:Drivers/STM32G4xx_HAL_Driver/Inc/stm32g4xx_ll_exti.h ****   *         @arg @ref LL_EXTI_LINE_18
 823:Drivers/STM32G4xx_HAL_Driver/Inc/stm32g4xx_ll_exti.h ****   *         @arg @ref LL_EXTI_LINE_19
 824:Drivers/STM32G4xx_HAL_Driver/Inc/stm32g4xx_ll_exti.h ****   *         @arg @ref LL_EXTI_LINE_20
 825:Drivers/STM32G4xx_HAL_Driver/Inc/stm32g4xx_ll_exti.h ****   *         @arg @ref LL_EXTI_LINE_21
 826:Drivers/STM32G4xx_HAL_Driver/Inc/stm32g4xx_ll_exti.h ****   *         @arg @ref LL_EXTI_LINE_22
 827:Drivers/STM32G4xx_HAL_Driver/Inc/stm32g4xx_ll_exti.h ****   *         @arg @ref LL_EXTI_LINE_29
 828:Drivers/STM32G4xx_HAL_Driver/Inc/stm32g4xx_ll_exti.h ****   *         @arg @ref LL_EXTI_LINE_30
 829:Drivers/STM32G4xx_HAL_Driver/Inc/stm32g4xx_ll_exti.h ****   *         @arg @ref LL_EXTI_LINE_31 (*)
 830:Drivers/STM32G4xx_HAL_Driver/Inc/stm32g4xx_ll_exti.h ****   * @note   (*): Available in some devices
 831:Drivers/STM32G4xx_HAL_Driver/Inc/stm32g4xx_ll_exti.h ****   * @note   Please check each device line mapping for EXTI Line availability
 832:Drivers/STM32G4xx_HAL_Driver/Inc/stm32g4xx_ll_exti.h ****   * @retval None
 833:Drivers/STM32G4xx_HAL_Driver/Inc/stm32g4xx_ll_exti.h ****   */
 834:Drivers/STM32G4xx_HAL_Driver/Inc/stm32g4xx_ll_exti.h **** __STATIC_INLINE void LL_EXTI_DisableRisingTrig_0_31(uint32_t ExtiLine)
 835:Drivers/STM32G4xx_HAL_Driver/Inc/stm32g4xx_ll_exti.h **** {
 836:Drivers/STM32G4xx_HAL_Driver/Inc/stm32g4xx_ll_exti.h ****   CLEAR_BIT(EXTI->RTSR1, ExtiLine);
 837:Drivers/STM32G4xx_HAL_Driver/Inc/stm32g4xx_ll_exti.h **** 
ARM GAS  D:\apps\VSCode\data\tmp\ccjbw8Rj.s 			page 43


 838:Drivers/STM32G4xx_HAL_Driver/Inc/stm32g4xx_ll_exti.h **** }
 839:Drivers/STM32G4xx_HAL_Driver/Inc/stm32g4xx_ll_exti.h **** 
 840:Drivers/STM32G4xx_HAL_Driver/Inc/stm32g4xx_ll_exti.h **** /**
 841:Drivers/STM32G4xx_HAL_Driver/Inc/stm32g4xx_ll_exti.h ****   * @brief  Disable ExtiLine Rising Edge Trigger for Lines in range 32 to 63
 842:Drivers/STM32G4xx_HAL_Driver/Inc/stm32g4xx_ll_exti.h ****   * @note The configurable wakeup lines are edge-triggered. No glitch must be
 843:Drivers/STM32G4xx_HAL_Driver/Inc/stm32g4xx_ll_exti.h ****   *       generated on these lines. If a rising edge on a configurable interrupt
 844:Drivers/STM32G4xx_HAL_Driver/Inc/stm32g4xx_ll_exti.h ****   *       line occurs during a write operation in the EXTI_RTSR register, the
 845:Drivers/STM32G4xx_HAL_Driver/Inc/stm32g4xx_ll_exti.h ****   *       pending bit is not set.
 846:Drivers/STM32G4xx_HAL_Driver/Inc/stm32g4xx_ll_exti.h ****   *       Rising and falling edge triggers can be set for
 847:Drivers/STM32G4xx_HAL_Driver/Inc/stm32g4xx_ll_exti.h ****   *       the same interrupt line. In this case, both generate a trigger
 848:Drivers/STM32G4xx_HAL_Driver/Inc/stm32g4xx_ll_exti.h ****   *       condition.
 849:Drivers/STM32G4xx_HAL_Driver/Inc/stm32g4xx_ll_exti.h ****   * @rmtoll RTSR2        RTx           LL_EXTI_DisableRisingTrig_32_63
 850:Drivers/STM32G4xx_HAL_Driver/Inc/stm32g4xx_ll_exti.h ****   * @param  ExtiLine This parameter can be a combination of the following values:
 851:Drivers/STM32G4xx_HAL_Driver/Inc/stm32g4xx_ll_exti.h ****   *         @arg @ref LL_EXTI_LINE_32 (*)
 852:Drivers/STM32G4xx_HAL_Driver/Inc/stm32g4xx_ll_exti.h ****   *         @arg @ref LL_EXTI_LINE_33 (*)
 853:Drivers/STM32G4xx_HAL_Driver/Inc/stm32g4xx_ll_exti.h ****   *         @arg @ref LL_EXTI_LINE_38
 854:Drivers/STM32G4xx_HAL_Driver/Inc/stm32g4xx_ll_exti.h ****   *         @arg @ref LL_EXTI_LINE_39
 855:Drivers/STM32G4xx_HAL_Driver/Inc/stm32g4xx_ll_exti.h ****   *         @arg @ref LL_EXTI_LINE_40
 856:Drivers/STM32G4xx_HAL_Driver/Inc/stm32g4xx_ll_exti.h ****   *         @arg @ref LL_EXTI_LINE_41
 857:Drivers/STM32G4xx_HAL_Driver/Inc/stm32g4xx_ll_exti.h ****   * @note   (*): Available in some devices
 858:Drivers/STM32G4xx_HAL_Driver/Inc/stm32g4xx_ll_exti.h ****   * @retval None
 859:Drivers/STM32G4xx_HAL_Driver/Inc/stm32g4xx_ll_exti.h ****   */
 860:Drivers/STM32G4xx_HAL_Driver/Inc/stm32g4xx_ll_exti.h **** __STATIC_INLINE void LL_EXTI_DisableRisingTrig_32_63(uint32_t ExtiLine)
 861:Drivers/STM32G4xx_HAL_Driver/Inc/stm32g4xx_ll_exti.h **** {
 862:Drivers/STM32G4xx_HAL_Driver/Inc/stm32g4xx_ll_exti.h ****   CLEAR_BIT(EXTI->RTSR2, ExtiLine);
 863:Drivers/STM32G4xx_HAL_Driver/Inc/stm32g4xx_ll_exti.h **** }
 864:Drivers/STM32G4xx_HAL_Driver/Inc/stm32g4xx_ll_exti.h **** 
 865:Drivers/STM32G4xx_HAL_Driver/Inc/stm32g4xx_ll_exti.h **** /**
 866:Drivers/STM32G4xx_HAL_Driver/Inc/stm32g4xx_ll_exti.h ****   * @brief  Check if rising edge trigger is enabled for Lines in range 0 to 31
 867:Drivers/STM32G4xx_HAL_Driver/Inc/stm32g4xx_ll_exti.h ****   * @rmtoll RTSR1        RTx           LL_EXTI_IsEnabledRisingTrig_0_31
 868:Drivers/STM32G4xx_HAL_Driver/Inc/stm32g4xx_ll_exti.h ****   * @param  ExtiLine This parameter can be a combination of the following values:
 869:Drivers/STM32G4xx_HAL_Driver/Inc/stm32g4xx_ll_exti.h ****   *         @arg @ref LL_EXTI_LINE_0
 870:Drivers/STM32G4xx_HAL_Driver/Inc/stm32g4xx_ll_exti.h ****   *         @arg @ref LL_EXTI_LINE_1
 871:Drivers/STM32G4xx_HAL_Driver/Inc/stm32g4xx_ll_exti.h ****   *         @arg @ref LL_EXTI_LINE_2
 872:Drivers/STM32G4xx_HAL_Driver/Inc/stm32g4xx_ll_exti.h ****   *         @arg @ref LL_EXTI_LINE_3
 873:Drivers/STM32G4xx_HAL_Driver/Inc/stm32g4xx_ll_exti.h ****   *         @arg @ref LL_EXTI_LINE_4
 874:Drivers/STM32G4xx_HAL_Driver/Inc/stm32g4xx_ll_exti.h ****   *         @arg @ref LL_EXTI_LINE_5
 875:Drivers/STM32G4xx_HAL_Driver/Inc/stm32g4xx_ll_exti.h ****   *         @arg @ref LL_EXTI_LINE_6
 876:Drivers/STM32G4xx_HAL_Driver/Inc/stm32g4xx_ll_exti.h ****   *         @arg @ref LL_EXTI_LINE_7
 877:Drivers/STM32G4xx_HAL_Driver/Inc/stm32g4xx_ll_exti.h ****   *         @arg @ref LL_EXTI_LINE_8
 878:Drivers/STM32G4xx_HAL_Driver/Inc/stm32g4xx_ll_exti.h ****   *         @arg @ref LL_EXTI_LINE_9
 879:Drivers/STM32G4xx_HAL_Driver/Inc/stm32g4xx_ll_exti.h ****   *         @arg @ref LL_EXTI_LINE_10
 880:Drivers/STM32G4xx_HAL_Driver/Inc/stm32g4xx_ll_exti.h ****   *         @arg @ref LL_EXTI_LINE_11
 881:Drivers/STM32G4xx_HAL_Driver/Inc/stm32g4xx_ll_exti.h ****   *         @arg @ref LL_EXTI_LINE_12
 882:Drivers/STM32G4xx_HAL_Driver/Inc/stm32g4xx_ll_exti.h ****   *         @arg @ref LL_EXTI_LINE_13
 883:Drivers/STM32G4xx_HAL_Driver/Inc/stm32g4xx_ll_exti.h ****   *         @arg @ref LL_EXTI_LINE_14
 884:Drivers/STM32G4xx_HAL_Driver/Inc/stm32g4xx_ll_exti.h ****   *         @arg @ref LL_EXTI_LINE_15
 885:Drivers/STM32G4xx_HAL_Driver/Inc/stm32g4xx_ll_exti.h ****   *         @arg @ref LL_EXTI_LINE_16
 886:Drivers/STM32G4xx_HAL_Driver/Inc/stm32g4xx_ll_exti.h ****   *         @arg @ref LL_EXTI_LINE_18
 887:Drivers/STM32G4xx_HAL_Driver/Inc/stm32g4xx_ll_exti.h ****   *         @arg @ref LL_EXTI_LINE_19
 888:Drivers/STM32G4xx_HAL_Driver/Inc/stm32g4xx_ll_exti.h ****   *         @arg @ref LL_EXTI_LINE_20
 889:Drivers/STM32G4xx_HAL_Driver/Inc/stm32g4xx_ll_exti.h ****   *         @arg @ref LL_EXTI_LINE_21
 890:Drivers/STM32G4xx_HAL_Driver/Inc/stm32g4xx_ll_exti.h ****   *         @arg @ref LL_EXTI_LINE_22
 891:Drivers/STM32G4xx_HAL_Driver/Inc/stm32g4xx_ll_exti.h ****   *         @arg @ref LL_EXTI_LINE_29
 892:Drivers/STM32G4xx_HAL_Driver/Inc/stm32g4xx_ll_exti.h ****   *         @arg @ref LL_EXTI_LINE_30
 893:Drivers/STM32G4xx_HAL_Driver/Inc/stm32g4xx_ll_exti.h ****   *         @arg @ref LL_EXTI_LINE_31 (*)
 894:Drivers/STM32G4xx_HAL_Driver/Inc/stm32g4xx_ll_exti.h ****   * @note   (*): Available in some devices
ARM GAS  D:\apps\VSCode\data\tmp\ccjbw8Rj.s 			page 44


 895:Drivers/STM32G4xx_HAL_Driver/Inc/stm32g4xx_ll_exti.h ****   * @note   Please check each device line mapping for EXTI Line availability
 896:Drivers/STM32G4xx_HAL_Driver/Inc/stm32g4xx_ll_exti.h ****   * @retval State of bit (1 or 0).
 897:Drivers/STM32G4xx_HAL_Driver/Inc/stm32g4xx_ll_exti.h ****   */
 898:Drivers/STM32G4xx_HAL_Driver/Inc/stm32g4xx_ll_exti.h **** __STATIC_INLINE uint32_t LL_EXTI_IsEnabledRisingTrig_0_31(uint32_t ExtiLine)
 899:Drivers/STM32G4xx_HAL_Driver/Inc/stm32g4xx_ll_exti.h **** {
 900:Drivers/STM32G4xx_HAL_Driver/Inc/stm32g4xx_ll_exti.h ****   return ((READ_BIT(EXTI->RTSR1, ExtiLine) == (ExtiLine)) ? 1UL : 0UL);
 901:Drivers/STM32G4xx_HAL_Driver/Inc/stm32g4xx_ll_exti.h **** }
 902:Drivers/STM32G4xx_HAL_Driver/Inc/stm32g4xx_ll_exti.h **** 
 903:Drivers/STM32G4xx_HAL_Driver/Inc/stm32g4xx_ll_exti.h **** /**
 904:Drivers/STM32G4xx_HAL_Driver/Inc/stm32g4xx_ll_exti.h ****   * @brief  Check if rising edge trigger is enabled for Lines in range 32 to 63
 905:Drivers/STM32G4xx_HAL_Driver/Inc/stm32g4xx_ll_exti.h ****   * @rmtoll RTSR2        RTx           LL_EXTI_IsEnabledRisingTrig_32_63
 906:Drivers/STM32G4xx_HAL_Driver/Inc/stm32g4xx_ll_exti.h ****   * @param  ExtiLine This parameter can be a combination of the following values:
 907:Drivers/STM32G4xx_HAL_Driver/Inc/stm32g4xx_ll_exti.h ****   *         @arg @ref LL_EXTI_LINE_32 (*)
 908:Drivers/STM32G4xx_HAL_Driver/Inc/stm32g4xx_ll_exti.h ****   *         @arg @ref LL_EXTI_LINE_33 (*)
 909:Drivers/STM32G4xx_HAL_Driver/Inc/stm32g4xx_ll_exti.h ****   *         @arg @ref LL_EXTI_LINE_38
 910:Drivers/STM32G4xx_HAL_Driver/Inc/stm32g4xx_ll_exti.h ****   *         @arg @ref LL_EXTI_LINE_39
 911:Drivers/STM32G4xx_HAL_Driver/Inc/stm32g4xx_ll_exti.h ****   *         @arg @ref LL_EXTI_LINE_40
 912:Drivers/STM32G4xx_HAL_Driver/Inc/stm32g4xx_ll_exti.h ****   *         @arg @ref LL_EXTI_LINE_41
 913:Drivers/STM32G4xx_HAL_Driver/Inc/stm32g4xx_ll_exti.h ****   * @note   (*): Available in some devices
 914:Drivers/STM32G4xx_HAL_Driver/Inc/stm32g4xx_ll_exti.h ****   * @retval State of bit (1 or 0).
 915:Drivers/STM32G4xx_HAL_Driver/Inc/stm32g4xx_ll_exti.h ****   */
 916:Drivers/STM32G4xx_HAL_Driver/Inc/stm32g4xx_ll_exti.h **** __STATIC_INLINE uint32_t LL_EXTI_IsEnabledRisingTrig_32_63(uint32_t ExtiLine)
 917:Drivers/STM32G4xx_HAL_Driver/Inc/stm32g4xx_ll_exti.h **** {
 918:Drivers/STM32G4xx_HAL_Driver/Inc/stm32g4xx_ll_exti.h ****   return ((READ_BIT(EXTI->RTSR2, ExtiLine) == (ExtiLine)) ? 1UL : 0UL);
 919:Drivers/STM32G4xx_HAL_Driver/Inc/stm32g4xx_ll_exti.h **** }
 920:Drivers/STM32G4xx_HAL_Driver/Inc/stm32g4xx_ll_exti.h **** 
 921:Drivers/STM32G4xx_HAL_Driver/Inc/stm32g4xx_ll_exti.h **** /**
 922:Drivers/STM32G4xx_HAL_Driver/Inc/stm32g4xx_ll_exti.h ****   * @}
 923:Drivers/STM32G4xx_HAL_Driver/Inc/stm32g4xx_ll_exti.h ****   */
 924:Drivers/STM32G4xx_HAL_Driver/Inc/stm32g4xx_ll_exti.h **** 
 925:Drivers/STM32G4xx_HAL_Driver/Inc/stm32g4xx_ll_exti.h **** /** @defgroup EXTI_LL_EF_Falling_Trigger_Management Falling_Trigger_Management
 926:Drivers/STM32G4xx_HAL_Driver/Inc/stm32g4xx_ll_exti.h ****   * @{
 927:Drivers/STM32G4xx_HAL_Driver/Inc/stm32g4xx_ll_exti.h ****   */
 928:Drivers/STM32G4xx_HAL_Driver/Inc/stm32g4xx_ll_exti.h **** 
 929:Drivers/STM32G4xx_HAL_Driver/Inc/stm32g4xx_ll_exti.h **** /**
 930:Drivers/STM32G4xx_HAL_Driver/Inc/stm32g4xx_ll_exti.h ****   * @brief  Enable ExtiLine Falling Edge Trigger for Lines in range 0 to 31
 931:Drivers/STM32G4xx_HAL_Driver/Inc/stm32g4xx_ll_exti.h ****   * @note The configurable wakeup lines are edge-triggered. No glitch must be
 932:Drivers/STM32G4xx_HAL_Driver/Inc/stm32g4xx_ll_exti.h ****   *       generated on these lines. If a falling edge on a configurable interrupt
 933:Drivers/STM32G4xx_HAL_Driver/Inc/stm32g4xx_ll_exti.h ****   *       line occurs during a write operation in the EXTI_FTSR register, the
 934:Drivers/STM32G4xx_HAL_Driver/Inc/stm32g4xx_ll_exti.h ****   *       pending bit is not set.
 935:Drivers/STM32G4xx_HAL_Driver/Inc/stm32g4xx_ll_exti.h ****   *       Rising and falling edge triggers can be set for
 936:Drivers/STM32G4xx_HAL_Driver/Inc/stm32g4xx_ll_exti.h ****   *       the same interrupt line. In this case, both generate a trigger
 937:Drivers/STM32G4xx_HAL_Driver/Inc/stm32g4xx_ll_exti.h ****   *       condition.
 938:Drivers/STM32G4xx_HAL_Driver/Inc/stm32g4xx_ll_exti.h ****   * @rmtoll FTSR1        FTx           LL_EXTI_EnableFallingTrig_0_31
 939:Drivers/STM32G4xx_HAL_Driver/Inc/stm32g4xx_ll_exti.h ****   * @param  ExtiLine This parameter can be a combination of the following values:
 940:Drivers/STM32G4xx_HAL_Driver/Inc/stm32g4xx_ll_exti.h ****   *         @arg @ref LL_EXTI_LINE_0
 941:Drivers/STM32G4xx_HAL_Driver/Inc/stm32g4xx_ll_exti.h ****   *         @arg @ref LL_EXTI_LINE_1
 942:Drivers/STM32G4xx_HAL_Driver/Inc/stm32g4xx_ll_exti.h ****   *         @arg @ref LL_EXTI_LINE_2
 943:Drivers/STM32G4xx_HAL_Driver/Inc/stm32g4xx_ll_exti.h ****   *         @arg @ref LL_EXTI_LINE_3
 944:Drivers/STM32G4xx_HAL_Driver/Inc/stm32g4xx_ll_exti.h ****   *         @arg @ref LL_EXTI_LINE_4
 945:Drivers/STM32G4xx_HAL_Driver/Inc/stm32g4xx_ll_exti.h ****   *         @arg @ref LL_EXTI_LINE_5
 946:Drivers/STM32G4xx_HAL_Driver/Inc/stm32g4xx_ll_exti.h ****   *         @arg @ref LL_EXTI_LINE_6
 947:Drivers/STM32G4xx_HAL_Driver/Inc/stm32g4xx_ll_exti.h ****   *         @arg @ref LL_EXTI_LINE_7
 948:Drivers/STM32G4xx_HAL_Driver/Inc/stm32g4xx_ll_exti.h ****   *         @arg @ref LL_EXTI_LINE_8
 949:Drivers/STM32G4xx_HAL_Driver/Inc/stm32g4xx_ll_exti.h ****   *         @arg @ref LL_EXTI_LINE_9
 950:Drivers/STM32G4xx_HAL_Driver/Inc/stm32g4xx_ll_exti.h ****   *         @arg @ref LL_EXTI_LINE_10
 951:Drivers/STM32G4xx_HAL_Driver/Inc/stm32g4xx_ll_exti.h ****   *         @arg @ref LL_EXTI_LINE_11
ARM GAS  D:\apps\VSCode\data\tmp\ccjbw8Rj.s 			page 45


 952:Drivers/STM32G4xx_HAL_Driver/Inc/stm32g4xx_ll_exti.h ****   *         @arg @ref LL_EXTI_LINE_12
 953:Drivers/STM32G4xx_HAL_Driver/Inc/stm32g4xx_ll_exti.h ****   *         @arg @ref LL_EXTI_LINE_13
 954:Drivers/STM32G4xx_HAL_Driver/Inc/stm32g4xx_ll_exti.h ****   *         @arg @ref LL_EXTI_LINE_14
 955:Drivers/STM32G4xx_HAL_Driver/Inc/stm32g4xx_ll_exti.h ****   *         @arg @ref LL_EXTI_LINE_15
 956:Drivers/STM32G4xx_HAL_Driver/Inc/stm32g4xx_ll_exti.h ****   *         @arg @ref LL_EXTI_LINE_16
 957:Drivers/STM32G4xx_HAL_Driver/Inc/stm32g4xx_ll_exti.h ****   *         @arg @ref LL_EXTI_LINE_18
 958:Drivers/STM32G4xx_HAL_Driver/Inc/stm32g4xx_ll_exti.h ****   *         @arg @ref LL_EXTI_LINE_19
 959:Drivers/STM32G4xx_HAL_Driver/Inc/stm32g4xx_ll_exti.h ****   *         @arg @ref LL_EXTI_LINE_20
 960:Drivers/STM32G4xx_HAL_Driver/Inc/stm32g4xx_ll_exti.h ****   *         @arg @ref LL_EXTI_LINE_21
 961:Drivers/STM32G4xx_HAL_Driver/Inc/stm32g4xx_ll_exti.h ****   *         @arg @ref LL_EXTI_LINE_22
 962:Drivers/STM32G4xx_HAL_Driver/Inc/stm32g4xx_ll_exti.h ****   *         @arg @ref LL_EXTI_LINE_29
 963:Drivers/STM32G4xx_HAL_Driver/Inc/stm32g4xx_ll_exti.h ****   *         @arg @ref LL_EXTI_LINE_30
 964:Drivers/STM32G4xx_HAL_Driver/Inc/stm32g4xx_ll_exti.h ****   *         @arg @ref LL_EXTI_LINE_31 (*)
 965:Drivers/STM32G4xx_HAL_Driver/Inc/stm32g4xx_ll_exti.h ****   * @note   (*): Available in some devices
 966:Drivers/STM32G4xx_HAL_Driver/Inc/stm32g4xx_ll_exti.h ****   * @note   Please check each device line mapping for EXTI Line availability
 967:Drivers/STM32G4xx_HAL_Driver/Inc/stm32g4xx_ll_exti.h ****   * @retval None
 968:Drivers/STM32G4xx_HAL_Driver/Inc/stm32g4xx_ll_exti.h ****   */
 969:Drivers/STM32G4xx_HAL_Driver/Inc/stm32g4xx_ll_exti.h **** __STATIC_INLINE void LL_EXTI_EnableFallingTrig_0_31(uint32_t ExtiLine)
 970:Drivers/STM32G4xx_HAL_Driver/Inc/stm32g4xx_ll_exti.h **** {
 971:Drivers/STM32G4xx_HAL_Driver/Inc/stm32g4xx_ll_exti.h ****   SET_BIT(EXTI->FTSR1, ExtiLine);
 972:Drivers/STM32G4xx_HAL_Driver/Inc/stm32g4xx_ll_exti.h **** }
 973:Drivers/STM32G4xx_HAL_Driver/Inc/stm32g4xx_ll_exti.h **** 
 974:Drivers/STM32G4xx_HAL_Driver/Inc/stm32g4xx_ll_exti.h **** /**
 975:Drivers/STM32G4xx_HAL_Driver/Inc/stm32g4xx_ll_exti.h ****   * @brief  Enable ExtiLine Falling Edge Trigger for Lines in range 32 to 63
 976:Drivers/STM32G4xx_HAL_Driver/Inc/stm32g4xx_ll_exti.h ****   * @note The configurable wakeup lines are edge-triggered. No glitch must be
 977:Drivers/STM32G4xx_HAL_Driver/Inc/stm32g4xx_ll_exti.h ****   *       generated on these lines. If a Falling edge on a configurable interrupt
 978:Drivers/STM32G4xx_HAL_Driver/Inc/stm32g4xx_ll_exti.h ****   *       line occurs during a write operation in the EXTI_FTSR register, the
 979:Drivers/STM32G4xx_HAL_Driver/Inc/stm32g4xx_ll_exti.h ****   *       pending bit is not set.
 980:Drivers/STM32G4xx_HAL_Driver/Inc/stm32g4xx_ll_exti.h ****   *       Rising and falling edge triggers can be set for
 981:Drivers/STM32G4xx_HAL_Driver/Inc/stm32g4xx_ll_exti.h ****   *       the same interrupt line. In this case, both generate a trigger
 982:Drivers/STM32G4xx_HAL_Driver/Inc/stm32g4xx_ll_exti.h ****   *       condition.
 983:Drivers/STM32G4xx_HAL_Driver/Inc/stm32g4xx_ll_exti.h ****   * @rmtoll FTSR2        FTx           LL_EXTI_EnableFallingTrig_32_63
 984:Drivers/STM32G4xx_HAL_Driver/Inc/stm32g4xx_ll_exti.h ****   * @param  ExtiLine This parameter can be a combination of the following values:
 985:Drivers/STM32G4xx_HAL_Driver/Inc/stm32g4xx_ll_exti.h ****   *         @arg @ref LL_EXTI_LINE_32 (*)
 986:Drivers/STM32G4xx_HAL_Driver/Inc/stm32g4xx_ll_exti.h ****   *         @arg @ref LL_EXTI_LINE_33 (*)
 987:Drivers/STM32G4xx_HAL_Driver/Inc/stm32g4xx_ll_exti.h ****   *         @arg @ref LL_EXTI_LINE_38
 988:Drivers/STM32G4xx_HAL_Driver/Inc/stm32g4xx_ll_exti.h ****   *         @arg @ref LL_EXTI_LINE_39
 989:Drivers/STM32G4xx_HAL_Driver/Inc/stm32g4xx_ll_exti.h ****   *         @arg @ref LL_EXTI_LINE_40
 990:Drivers/STM32G4xx_HAL_Driver/Inc/stm32g4xx_ll_exti.h ****   *         @arg @ref LL_EXTI_LINE_41
 991:Drivers/STM32G4xx_HAL_Driver/Inc/stm32g4xx_ll_exti.h ****   * @note   (*): Available in some devices
 992:Drivers/STM32G4xx_HAL_Driver/Inc/stm32g4xx_ll_exti.h ****   * @retval None
 993:Drivers/STM32G4xx_HAL_Driver/Inc/stm32g4xx_ll_exti.h ****   */
 994:Drivers/STM32G4xx_HAL_Driver/Inc/stm32g4xx_ll_exti.h **** __STATIC_INLINE void LL_EXTI_EnableFallingTrig_32_63(uint32_t ExtiLine)
 995:Drivers/STM32G4xx_HAL_Driver/Inc/stm32g4xx_ll_exti.h **** {
 996:Drivers/STM32G4xx_HAL_Driver/Inc/stm32g4xx_ll_exti.h ****   SET_BIT(EXTI->FTSR2, ExtiLine);
 997:Drivers/STM32G4xx_HAL_Driver/Inc/stm32g4xx_ll_exti.h **** }
 998:Drivers/STM32G4xx_HAL_Driver/Inc/stm32g4xx_ll_exti.h **** 
 999:Drivers/STM32G4xx_HAL_Driver/Inc/stm32g4xx_ll_exti.h **** /**
1000:Drivers/STM32G4xx_HAL_Driver/Inc/stm32g4xx_ll_exti.h ****   * @brief  Disable ExtiLine Falling Edge Trigger for Lines in range 0 to 31
1001:Drivers/STM32G4xx_HAL_Driver/Inc/stm32g4xx_ll_exti.h ****   * @note The configurable wakeup lines are edge-triggered. No glitch must be
1002:Drivers/STM32G4xx_HAL_Driver/Inc/stm32g4xx_ll_exti.h ****   *       generated on these lines. If a Falling edge on a configurable interrupt
1003:Drivers/STM32G4xx_HAL_Driver/Inc/stm32g4xx_ll_exti.h ****   *       line occurs during a write operation in the EXTI_FTSR register, the
1004:Drivers/STM32G4xx_HAL_Driver/Inc/stm32g4xx_ll_exti.h ****   *       pending bit is not set.
1005:Drivers/STM32G4xx_HAL_Driver/Inc/stm32g4xx_ll_exti.h ****   *       Rising and falling edge triggers can be set for the same interrupt line.
1006:Drivers/STM32G4xx_HAL_Driver/Inc/stm32g4xx_ll_exti.h ****   *       In this case, both generate a trigger condition.
1007:Drivers/STM32G4xx_HAL_Driver/Inc/stm32g4xx_ll_exti.h ****   * @rmtoll FTSR1        FTx           LL_EXTI_DisableFallingTrig_0_31
1008:Drivers/STM32G4xx_HAL_Driver/Inc/stm32g4xx_ll_exti.h ****   * @param  ExtiLine This parameter can be a combination of the following values:
ARM GAS  D:\apps\VSCode\data\tmp\ccjbw8Rj.s 			page 46


1009:Drivers/STM32G4xx_HAL_Driver/Inc/stm32g4xx_ll_exti.h ****   *         @arg @ref LL_EXTI_LINE_0
1010:Drivers/STM32G4xx_HAL_Driver/Inc/stm32g4xx_ll_exti.h ****   *         @arg @ref LL_EXTI_LINE_1
1011:Drivers/STM32G4xx_HAL_Driver/Inc/stm32g4xx_ll_exti.h ****   *         @arg @ref LL_EXTI_LINE_2
1012:Drivers/STM32G4xx_HAL_Driver/Inc/stm32g4xx_ll_exti.h ****   *         @arg @ref LL_EXTI_LINE_3
1013:Drivers/STM32G4xx_HAL_Driver/Inc/stm32g4xx_ll_exti.h ****   *         @arg @ref LL_EXTI_LINE_4
1014:Drivers/STM32G4xx_HAL_Driver/Inc/stm32g4xx_ll_exti.h ****   *         @arg @ref LL_EXTI_LINE_5
1015:Drivers/STM32G4xx_HAL_Driver/Inc/stm32g4xx_ll_exti.h ****   *         @arg @ref LL_EXTI_LINE_6
1016:Drivers/STM32G4xx_HAL_Driver/Inc/stm32g4xx_ll_exti.h ****   *         @arg @ref LL_EXTI_LINE_7
1017:Drivers/STM32G4xx_HAL_Driver/Inc/stm32g4xx_ll_exti.h ****   *         @arg @ref LL_EXTI_LINE_8
1018:Drivers/STM32G4xx_HAL_Driver/Inc/stm32g4xx_ll_exti.h ****   *         @arg @ref LL_EXTI_LINE_9
1019:Drivers/STM32G4xx_HAL_Driver/Inc/stm32g4xx_ll_exti.h ****   *         @arg @ref LL_EXTI_LINE_10
1020:Drivers/STM32G4xx_HAL_Driver/Inc/stm32g4xx_ll_exti.h ****   *         @arg @ref LL_EXTI_LINE_11
1021:Drivers/STM32G4xx_HAL_Driver/Inc/stm32g4xx_ll_exti.h ****   *         @arg @ref LL_EXTI_LINE_12
1022:Drivers/STM32G4xx_HAL_Driver/Inc/stm32g4xx_ll_exti.h ****   *         @arg @ref LL_EXTI_LINE_13
1023:Drivers/STM32G4xx_HAL_Driver/Inc/stm32g4xx_ll_exti.h ****   *         @arg @ref LL_EXTI_LINE_14
1024:Drivers/STM32G4xx_HAL_Driver/Inc/stm32g4xx_ll_exti.h ****   *         @arg @ref LL_EXTI_LINE_15
1025:Drivers/STM32G4xx_HAL_Driver/Inc/stm32g4xx_ll_exti.h ****   *         @arg @ref LL_EXTI_LINE_16
1026:Drivers/STM32G4xx_HAL_Driver/Inc/stm32g4xx_ll_exti.h ****   *         @arg @ref LL_EXTI_LINE_18
1027:Drivers/STM32G4xx_HAL_Driver/Inc/stm32g4xx_ll_exti.h ****   *         @arg @ref LL_EXTI_LINE_19
1028:Drivers/STM32G4xx_HAL_Driver/Inc/stm32g4xx_ll_exti.h ****   *         @arg @ref LL_EXTI_LINE_20
1029:Drivers/STM32G4xx_HAL_Driver/Inc/stm32g4xx_ll_exti.h ****   *         @arg @ref LL_EXTI_LINE_21
1030:Drivers/STM32G4xx_HAL_Driver/Inc/stm32g4xx_ll_exti.h ****   *         @arg @ref LL_EXTI_LINE_22
1031:Drivers/STM32G4xx_HAL_Driver/Inc/stm32g4xx_ll_exti.h ****   *         @arg @ref LL_EXTI_LINE_29
1032:Drivers/STM32G4xx_HAL_Driver/Inc/stm32g4xx_ll_exti.h ****   *         @arg @ref LL_EXTI_LINE_30
1033:Drivers/STM32G4xx_HAL_Driver/Inc/stm32g4xx_ll_exti.h ****   *         @arg @ref LL_EXTI_LINE_31 (*)
1034:Drivers/STM32G4xx_HAL_Driver/Inc/stm32g4xx_ll_exti.h ****   * @note   (*): Available in some devices
1035:Drivers/STM32G4xx_HAL_Driver/Inc/stm32g4xx_ll_exti.h ****   * @note   Please check each device line mapping for EXTI Line availability
1036:Drivers/STM32G4xx_HAL_Driver/Inc/stm32g4xx_ll_exti.h ****   * @retval None
1037:Drivers/STM32G4xx_HAL_Driver/Inc/stm32g4xx_ll_exti.h ****   */
1038:Drivers/STM32G4xx_HAL_Driver/Inc/stm32g4xx_ll_exti.h **** __STATIC_INLINE void LL_EXTI_DisableFallingTrig_0_31(uint32_t ExtiLine)
 340              		.loc 4 1038 22 view .LVU95
 341              	.LBB59:
1039:Drivers/STM32G4xx_HAL_Driver/Inc/stm32g4xx_ll_exti.h **** {
1040:Drivers/STM32G4xx_HAL_Driver/Inc/stm32g4xx_ll_exti.h ****   CLEAR_BIT(EXTI->FTSR1, ExtiLine);
 342              		.loc 4 1040 3 view .LVU96
 343 0084 DA68     		ldr	r2, [r3, #12]
 344              	.LBE59:
 345              	.LBE58:
 346              	.LBB61:
 347              	.LBB62:
1041:Drivers/STM32G4xx_HAL_Driver/Inc/stm32g4xx_ll_exti.h **** }
1042:Drivers/STM32G4xx_HAL_Driver/Inc/stm32g4xx_ll_exti.h **** 
1043:Drivers/STM32G4xx_HAL_Driver/Inc/stm32g4xx_ll_exti.h **** /**
1044:Drivers/STM32G4xx_HAL_Driver/Inc/stm32g4xx_ll_exti.h ****   * @brief  Disable ExtiLine Falling Edge Trigger for Lines in range 32 to 63
1045:Drivers/STM32G4xx_HAL_Driver/Inc/stm32g4xx_ll_exti.h ****   * @note The configurable wakeup lines are edge-triggered. No glitch must be
1046:Drivers/STM32G4xx_HAL_Driver/Inc/stm32g4xx_ll_exti.h ****   *       generated on these lines. If a Falling edge on a configurable interrupt
1047:Drivers/STM32G4xx_HAL_Driver/Inc/stm32g4xx_ll_exti.h ****   *       line occurs during a write operation in the EXTI_FTSR register, the
1048:Drivers/STM32G4xx_HAL_Driver/Inc/stm32g4xx_ll_exti.h ****   *       pending bit is not set.
1049:Drivers/STM32G4xx_HAL_Driver/Inc/stm32g4xx_ll_exti.h ****   *       Rising and falling edge triggers can be set for the same interrupt line.
1050:Drivers/STM32G4xx_HAL_Driver/Inc/stm32g4xx_ll_exti.h ****   *       In this case, both generate a trigger condition.
1051:Drivers/STM32G4xx_HAL_Driver/Inc/stm32g4xx_ll_exti.h ****   * @rmtoll FTSR2        FTx           LL_EXTI_DisableFallingTrig_32_63
1052:Drivers/STM32G4xx_HAL_Driver/Inc/stm32g4xx_ll_exti.h ****   * @param  ExtiLine This parameter can be a combination of the following values:
1053:Drivers/STM32G4xx_HAL_Driver/Inc/stm32g4xx_ll_exti.h ****   *         @arg @ref LL_EXTI_LINE_32 (*)
1054:Drivers/STM32G4xx_HAL_Driver/Inc/stm32g4xx_ll_exti.h ****   *         @arg @ref LL_EXTI_LINE_33 (*)
1055:Drivers/STM32G4xx_HAL_Driver/Inc/stm32g4xx_ll_exti.h ****   *         @arg @ref LL_EXTI_LINE_38
1056:Drivers/STM32G4xx_HAL_Driver/Inc/stm32g4xx_ll_exti.h ****   *         @arg @ref LL_EXTI_LINE_39
1057:Drivers/STM32G4xx_HAL_Driver/Inc/stm32g4xx_ll_exti.h ****   *         @arg @ref LL_EXTI_LINE_40
ARM GAS  D:\apps\VSCode\data\tmp\ccjbw8Rj.s 			page 47


1058:Drivers/STM32G4xx_HAL_Driver/Inc/stm32g4xx_ll_exti.h ****   *         @arg @ref LL_EXTI_LINE_41
1059:Drivers/STM32G4xx_HAL_Driver/Inc/stm32g4xx_ll_exti.h ****   * @note   (*): Available in some devices
1060:Drivers/STM32G4xx_HAL_Driver/Inc/stm32g4xx_ll_exti.h ****   * @retval None
1061:Drivers/STM32G4xx_HAL_Driver/Inc/stm32g4xx_ll_exti.h ****   */
1062:Drivers/STM32G4xx_HAL_Driver/Inc/stm32g4xx_ll_exti.h **** __STATIC_INLINE void LL_EXTI_DisableFallingTrig_32_63(uint32_t ExtiLine)
1063:Drivers/STM32G4xx_HAL_Driver/Inc/stm32g4xx_ll_exti.h **** {
1064:Drivers/STM32G4xx_HAL_Driver/Inc/stm32g4xx_ll_exti.h ****   CLEAR_BIT(EXTI->FTSR2, ExtiLine);
1065:Drivers/STM32G4xx_HAL_Driver/Inc/stm32g4xx_ll_exti.h **** }
1066:Drivers/STM32G4xx_HAL_Driver/Inc/stm32g4xx_ll_exti.h **** 
1067:Drivers/STM32G4xx_HAL_Driver/Inc/stm32g4xx_ll_exti.h **** /**
1068:Drivers/STM32G4xx_HAL_Driver/Inc/stm32g4xx_ll_exti.h ****   * @brief  Check if falling edge trigger is enabled for Lines in range 0 to 31
1069:Drivers/STM32G4xx_HAL_Driver/Inc/stm32g4xx_ll_exti.h ****   * @rmtoll FTSR1        FTx           LL_EXTI_IsEnabledFallingTrig_0_31
1070:Drivers/STM32G4xx_HAL_Driver/Inc/stm32g4xx_ll_exti.h ****   * @param  ExtiLine This parameter can be a combination of the following values:
1071:Drivers/STM32G4xx_HAL_Driver/Inc/stm32g4xx_ll_exti.h ****   *         @arg @ref LL_EXTI_LINE_0
1072:Drivers/STM32G4xx_HAL_Driver/Inc/stm32g4xx_ll_exti.h ****   *         @arg @ref LL_EXTI_LINE_1
1073:Drivers/STM32G4xx_HAL_Driver/Inc/stm32g4xx_ll_exti.h ****   *         @arg @ref LL_EXTI_LINE_2
1074:Drivers/STM32G4xx_HAL_Driver/Inc/stm32g4xx_ll_exti.h ****   *         @arg @ref LL_EXTI_LINE_3
