ARM GAS  D:\apps\VSCode\data\tmp\ccbuGfzv.s 			page 1


   1              		.cpu cortex-m4
   2              		.eabi_attribute 27, 1
   3              		.eabi_attribute 28, 1
   4              		.eabi_attribute 20, 1
   5              		.eabi_attribute 21, 1
   6              		.eabi_attribute 23, 3
   7              		.eabi_attribute 24, 1
   8              		.eabi_attribute 25, 1
   9              		.eabi_attribute 26, 1
  10              		.eabi_attribute 30, 2
  11              		.eabi_attribute 34, 1
  12              		.eabi_attribute 18, 4
  13              		.file	"dac.c"
  14              		.text
  15              	.Ltext0:
  16              		.cfi_sections	.debug_frame
  17              		.section	.text.dac_start,"ax",%progbits
  18              		.align	1
  19              		.p2align 2,,3
  20              		.global	dac_start
  21              		.arch armv7e-m
  22              		.syntax unified
  23              		.thumb
  24              		.thumb_func
  25              		.fpu fpv4-sp-d16
  27              	dac_start:
  28              	.LFB2129:
  29              		.file 1 "Src/dac.c"
   1:Src/dac.c     **** /**
   2:Src/dac.c     ****   ******************************************************************************
   3:Src/dac.c     ****   * @file    dac.c
   4:Src/dac.c     ****   * @brief   This file provides code for the configuration
   5:Src/dac.c     ****   *          of the DAC instances.
   6:Src/dac.c     ****   ******************************************************************************
   7:Src/dac.c     ****   * @attention
   8:Src/dac.c     ****   *
   9:Src/dac.c     ****   * <h2><center>&copy; Copyright (c) 2021 STMicroelectronics.
  10:Src/dac.c     ****   * All rights reserved.</center></h2>
  11:Src/dac.c     ****   *
  12:Src/dac.c     ****   * This software component is licensed by ST under BSD 3-Clause license,
  13:Src/dac.c     ****   * the "License"; You may not use this file except in compliance with the
  14:Src/dac.c     ****   * License. You may obtain a copy of the License at:
  15:Src/dac.c     ****   *                        opensource.org/licenses/BSD-3-Clause
  16:Src/dac.c     ****   *
  17:Src/dac.c     ****   ******************************************************************************
  18:Src/dac.c     ****   */
  19:Src/dac.c     **** 
  20:Src/dac.c     **** /* Includes ------------------------------------------------------------------*/
  21:Src/dac.c     **** #include "dac.h"
  22:Src/dac.c     **** 
  23:Src/dac.c     **** /* USER CODE BEGIN 0 */
  24:Src/dac.c     **** void dac_start(void)
  25:Src/dac.c     **** {
  30              		.loc 1 25 1 view -0
  31              		.cfi_startproc
  32              		@ args = 0, pretend = 0, frame = 8
  33              		@ frame_needed = 0, uses_anonymous_args = 0
ARM GAS  D:\apps\VSCode\data\tmp\ccbuGfzv.s 			page 2


  34              		@ link register save eliminated.
  26:Src/dac.c     ****   __IO uint32_t wait_loop_index = 0;
  35              		.loc 1 26 3 view .LVU1
  25:Src/dac.c     ****   __IO uint32_t wait_loop_index = 0;
  36              		.loc 1 25 1 is_stmt 0 view .LVU2
  37 0000 70B4     		push	{r4, r5, r6}
  38              	.LCFI0:
  39              		.cfi_def_cfa_offset 12
  40              		.cfi_offset 4, -12
  41              		.cfi_offset 5, -8
  42              		.cfi_offset 6, -4
  43 0002 83B0     		sub	sp, sp, #12
  44              	.LCFI1:
  45              		.cfi_def_cfa_offset 24
  46              		.loc 1 26 17 view .LVU3
  47 0004 0023     		movs	r3, #0
  48              	.LBB60:
  49              	.LBB61:
  50              		.file 2 "Drivers/STM32G4xx_HAL_Driver/Inc/stm32g4xx_ll_dac.h"
   1:Drivers/STM32G4xx_HAL_Driver/Inc/stm32g4xx_ll_dac.h **** /**
   2:Drivers/STM32G4xx_HAL_Driver/Inc/stm32g4xx_ll_dac.h ****   ******************************************************************************
   3:Drivers/STM32G4xx_HAL_Driver/Inc/stm32g4xx_ll_dac.h ****   * @file    stm32g4xx_ll_dac.h
   4:Drivers/STM32G4xx_HAL_Driver/Inc/stm32g4xx_ll_dac.h ****   * @author  MCD Application Team
   5:Drivers/STM32G4xx_HAL_Driver/Inc/stm32g4xx_ll_dac.h ****   * @brief   Header file of DAC LL module.
   6:Drivers/STM32G4xx_HAL_Driver/Inc/stm32g4xx_ll_dac.h ****   ******************************************************************************
   7:Drivers/STM32G4xx_HAL_Driver/Inc/stm32g4xx_ll_dac.h ****   * @attention
   8:Drivers/STM32G4xx_HAL_Driver/Inc/stm32g4xx_ll_dac.h ****   *
   9:Drivers/STM32G4xx_HAL_Driver/Inc/stm32g4xx_ll_dac.h ****   * <h2><center>&copy; Copyright (c) 2019 STMicroelectronics.
  10:Drivers/STM32G4xx_HAL_Driver/Inc/stm32g4xx_ll_dac.h ****   * All rights reserved.</center></h2>
  11:Drivers/STM32G4xx_HAL_Driver/Inc/stm32g4xx_ll_dac.h ****   *
  12:Drivers/STM32G4xx_HAL_Driver/Inc/stm32g4xx_ll_dac.h ****   * This software component is licensed by ST under BSD 3-Clause license,
  13:Drivers/STM32G4xx_HAL_Driver/Inc/stm32g4xx_ll_dac.h ****   * the "License"; You may not use this file except in compliance with the
  14:Drivers/STM32G4xx_HAL_Driver/Inc/stm32g4xx_ll_dac.h ****   * License. You may obtain a copy of the License at:
  15:Drivers/STM32G4xx_HAL_Driver/Inc/stm32g4xx_ll_dac.h ****   *                        opensource.org/licenses/BSD-3-Clause
  16:Drivers/STM32G4xx_HAL_Driver/Inc/stm32g4xx_ll_dac.h ****   *
  17:Drivers/STM32G4xx_HAL_Driver/Inc/stm32g4xx_ll_dac.h ****   ******************************************************************************
  18:Drivers/STM32G4xx_HAL_Driver/Inc/stm32g4xx_ll_dac.h ****   */
  19:Drivers/STM32G4xx_HAL_Driver/Inc/stm32g4xx_ll_dac.h **** 
  20:Drivers/STM32G4xx_HAL_Driver/Inc/stm32g4xx_ll_dac.h **** /* Define to prevent recursive inclusion -------------------------------------*/
  21:Drivers/STM32G4xx_HAL_Driver/Inc/stm32g4xx_ll_dac.h **** #ifndef STM32G4xx_LL_DAC_H
  22:Drivers/STM32G4xx_HAL_Driver/Inc/stm32g4xx_ll_dac.h **** #define STM32G4xx_LL_DAC_H
  23:Drivers/STM32G4xx_HAL_Driver/Inc/stm32g4xx_ll_dac.h **** 
  24:Drivers/STM32G4xx_HAL_Driver/Inc/stm32g4xx_ll_dac.h **** #ifdef __cplusplus
  25:Drivers/STM32G4xx_HAL_Driver/Inc/stm32g4xx_ll_dac.h **** extern "C" {
  26:Drivers/STM32G4xx_HAL_Driver/Inc/stm32g4xx_ll_dac.h **** #endif
  27:Drivers/STM32G4xx_HAL_Driver/Inc/stm32g4xx_ll_dac.h **** 
  28:Drivers/STM32G4xx_HAL_Driver/Inc/stm32g4xx_ll_dac.h **** /* Includes ------------------------------------------------------------------*/
  29:Drivers/STM32G4xx_HAL_Driver/Inc/stm32g4xx_ll_dac.h **** #include "stm32g4xx.h"
  30:Drivers/STM32G4xx_HAL_Driver/Inc/stm32g4xx_ll_dac.h **** 
  31:Drivers/STM32G4xx_HAL_Driver/Inc/stm32g4xx_ll_dac.h **** /** @addtogroup STM32G4xx_LL_Driver
  32:Drivers/STM32G4xx_HAL_Driver/Inc/stm32g4xx_ll_dac.h ****   * @{
  33:Drivers/STM32G4xx_HAL_Driver/Inc/stm32g4xx_ll_dac.h ****   */
  34:Drivers/STM32G4xx_HAL_Driver/Inc/stm32g4xx_ll_dac.h **** 
  35:Drivers/STM32G4xx_HAL_Driver/Inc/stm32g4xx_ll_dac.h **** #if defined(DAC1) || defined(DAC2) || defined(DAC3) ||defined (DAC4)
  36:Drivers/STM32G4xx_HAL_Driver/Inc/stm32g4xx_ll_dac.h **** 
  37:Drivers/STM32G4xx_HAL_Driver/Inc/stm32g4xx_ll_dac.h **** /** @defgroup DAC_LL DAC
  38:Drivers/STM32G4xx_HAL_Driver/Inc/stm32g4xx_ll_dac.h ****   * @{
ARM GAS  D:\apps\VSCode\data\tmp\ccbuGfzv.s 			page 3


  39:Drivers/STM32G4xx_HAL_Driver/Inc/stm32g4xx_ll_dac.h ****   */
  40:Drivers/STM32G4xx_HAL_Driver/Inc/stm32g4xx_ll_dac.h **** 
  41:Drivers/STM32G4xx_HAL_Driver/Inc/stm32g4xx_ll_dac.h **** /* Private types -------------------------------------------------------------*/
  42:Drivers/STM32G4xx_HAL_Driver/Inc/stm32g4xx_ll_dac.h **** /* Private variables ---------------------------------------------------------*/
  43:Drivers/STM32G4xx_HAL_Driver/Inc/stm32g4xx_ll_dac.h **** 
  44:Drivers/STM32G4xx_HAL_Driver/Inc/stm32g4xx_ll_dac.h **** /* Private constants ---------------------------------------------------------*/
  45:Drivers/STM32G4xx_HAL_Driver/Inc/stm32g4xx_ll_dac.h **** /** @defgroup DAC_LL_Private_Constants DAC Private Constants
  46:Drivers/STM32G4xx_HAL_Driver/Inc/stm32g4xx_ll_dac.h ****   * @{
  47:Drivers/STM32G4xx_HAL_Driver/Inc/stm32g4xx_ll_dac.h ****   */
  48:Drivers/STM32G4xx_HAL_Driver/Inc/stm32g4xx_ll_dac.h **** 
  49:Drivers/STM32G4xx_HAL_Driver/Inc/stm32g4xx_ll_dac.h **** /* Internal masks for DAC channels definition */
  50:Drivers/STM32G4xx_HAL_Driver/Inc/stm32g4xx_ll_dac.h **** /* To select into literal LL_DAC_CHANNEL_x the relevant bits for:             */
  51:Drivers/STM32G4xx_HAL_Driver/Inc/stm32g4xx_ll_dac.h **** /* - channel bits position into registers CR, MCR, CCR, SHHR, SHRR, STMODR    */
  52:Drivers/STM32G4xx_HAL_Driver/Inc/stm32g4xx_ll_dac.h **** /* - channel bits position into register SWTRIG                               */
  53:Drivers/STM32G4xx_HAL_Driver/Inc/stm32g4xx_ll_dac.h **** /* - channel bits position into register SWTRIGB                              */
  54:Drivers/STM32G4xx_HAL_Driver/Inc/stm32g4xx_ll_dac.h **** /* - channel register offset of data holding register DHRx                    */
  55:Drivers/STM32G4xx_HAL_Driver/Inc/stm32g4xx_ll_dac.h **** /* - channel register offset of data output register DORx                     */
  56:Drivers/STM32G4xx_HAL_Driver/Inc/stm32g4xx_ll_dac.h **** /* - channel register offset of sample-and-hold sample time register SHSRx    */
  57:Drivers/STM32G4xx_HAL_Driver/Inc/stm32g4xx_ll_dac.h **** /* - channel register offset of sawtooth register STRx                        */
  58:Drivers/STM32G4xx_HAL_Driver/Inc/stm32g4xx_ll_dac.h **** #define DAC_CR_CH1_BITOFFSET           0UL   /* Position of channel bits into registers
  59:Drivers/STM32G4xx_HAL_Driver/Inc/stm32g4xx_ll_dac.h ****                                                 CR, MCR, CCR, SHHR, SHRR, STMODR of channel 1 */
  60:Drivers/STM32G4xx_HAL_Driver/Inc/stm32g4xx_ll_dac.h **** #define DAC_CR_CH2_BITOFFSET           16UL  /* Position of channel bits into registers
  61:Drivers/STM32G4xx_HAL_Driver/Inc/stm32g4xx_ll_dac.h ****                                                 CR, MCR, CCR, SHHR, SHRR, STMODR of channel 2 */
  62:Drivers/STM32G4xx_HAL_Driver/Inc/stm32g4xx_ll_dac.h **** #define DAC_CR_CHX_BITOFFSET_MASK      (DAC_CR_CH1_BITOFFSET | DAC_CR_CH2_BITOFFSET)
  63:Drivers/STM32G4xx_HAL_Driver/Inc/stm32g4xx_ll_dac.h **** 
  64:Drivers/STM32G4xx_HAL_Driver/Inc/stm32g4xx_ll_dac.h **** #define DAC_SWTR_CH1                   (DAC_SWTRIGR_SWTRIG1) /* Channel bit into register SWTRIGR o
  65:Drivers/STM32G4xx_HAL_Driver/Inc/stm32g4xx_ll_dac.h **** #define DAC_SWTR_CH2                   (DAC_SWTRIGR_SWTRIG2) /* Channel bit into register SWTRIGR o
  66:Drivers/STM32G4xx_HAL_Driver/Inc/stm32g4xx_ll_dac.h **** #define DAC_SWTR_CHX_MASK              (DAC_SWTR_CH1 | DAC_SWTR_CH2)
  67:Drivers/STM32G4xx_HAL_Driver/Inc/stm32g4xx_ll_dac.h **** 
  68:Drivers/STM32G4xx_HAL_Driver/Inc/stm32g4xx_ll_dac.h **** #define DAC_SWTRB_CH1                  (DAC_SWTRIGR_SWTRIGB1) /* Channel bit into register SWTRIGRB
  69:Drivers/STM32G4xx_HAL_Driver/Inc/stm32g4xx_ll_dac.h **** #define DAC_SWTRB_CH2                  (DAC_SWTRIGR_SWTRIGB2) /* Channel bit into register SWTRIGR 
  70:Drivers/STM32G4xx_HAL_Driver/Inc/stm32g4xx_ll_dac.h **** #define DAC_SWTRB_CHX_MASK             (DAC_SWTRB_CH1 | DAC_SWTRB_CH2)
  71:Drivers/STM32G4xx_HAL_Driver/Inc/stm32g4xx_ll_dac.h **** 
  72:Drivers/STM32G4xx_HAL_Driver/Inc/stm32g4xx_ll_dac.h **** #define DAC_REG_DHR12R1_REGOFFSET      0x00000000UL            /* Register DHR12Rx channel 1 taken 
  73:Drivers/STM32G4xx_HAL_Driver/Inc/stm32g4xx_ll_dac.h **** #define DAC_REG_DHR12L1_REGOFFSET      0x00100000UL            /* Register offset of DHR12Lx channe
  74:Drivers/STM32G4xx_HAL_Driver/Inc/stm32g4xx_ll_dac.h ****                                                                   DHR12Rx channel 1 (shifted left o
  75:Drivers/STM32G4xx_HAL_Driver/Inc/stm32g4xx_ll_dac.h **** #define DAC_REG_DHR8R1_REGOFFSET       0x02000000UL            /* Register offset of DHR8Rx  channe
  76:Drivers/STM32G4xx_HAL_Driver/Inc/stm32g4xx_ll_dac.h ****                                                                   DHR12Rx channel 1 (shifted left o
  77:Drivers/STM32G4xx_HAL_Driver/Inc/stm32g4xx_ll_dac.h **** 
  78:Drivers/STM32G4xx_HAL_Driver/Inc/stm32g4xx_ll_dac.h **** #define DAC_REG_DHR12R2_REGOFFSET      0x30000000UL            /* Register offset of DHR12Rx channe
  79:Drivers/STM32G4xx_HAL_Driver/Inc/stm32g4xx_ll_dac.h ****                                                                   DHR12Rx channel 1 (shifted left o
  80:Drivers/STM32G4xx_HAL_Driver/Inc/stm32g4xx_ll_dac.h **** #define DAC_REG_DHR12L2_REGOFFSET      0x00400000UL            /* Register offset of DHR12Lx channe
  81:Drivers/STM32G4xx_HAL_Driver/Inc/stm32g4xx_ll_dac.h ****                                                                   DHR12Rx channel 1 (shifted left o
  82:Drivers/STM32G4xx_HAL_Driver/Inc/stm32g4xx_ll_dac.h **** #define DAC_REG_DHR8R2_REGOFFSET       0x05000000UL            /* Register offset of DHR8Rx  channe
  83:Drivers/STM32G4xx_HAL_Driver/Inc/stm32g4xx_ll_dac.h ****                                                                   DHR12Rx channel 1 (shifted left o
  84:Drivers/STM32G4xx_HAL_Driver/Inc/stm32g4xx_ll_dac.h **** 
  85:Drivers/STM32G4xx_HAL_Driver/Inc/stm32g4xx_ll_dac.h **** #define DAC_REG_DHR12RX_REGOFFSET_MASK 0xF0000000UL
  86:Drivers/STM32G4xx_HAL_Driver/Inc/stm32g4xx_ll_dac.h **** #define DAC_REG_DHR12LX_REGOFFSET_MASK 0x00F00000UL
  87:Drivers/STM32G4xx_HAL_Driver/Inc/stm32g4xx_ll_dac.h **** #define DAC_REG_DHR8RX_REGOFFSET_MASK  0x0F000000UL
  88:Drivers/STM32G4xx_HAL_Driver/Inc/stm32g4xx_ll_dac.h **** #define DAC_REG_DHRX_REGOFFSET_MASK    (DAC_REG_DHR12RX_REGOFFSET_MASK\
  89:Drivers/STM32G4xx_HAL_Driver/Inc/stm32g4xx_ll_dac.h ****                                         | DAC_REG_DHR12LX_REGOFFSET_MASK | DAC_REG_DHR8RX_REGOFFSET
  90:Drivers/STM32G4xx_HAL_Driver/Inc/stm32g4xx_ll_dac.h **** 
  91:Drivers/STM32G4xx_HAL_Driver/Inc/stm32g4xx_ll_dac.h **** #define DAC_REG_DOR1_REGOFFSET         0x00000000UL            /* Register DORx channel 1 taken as 
  92:Drivers/STM32G4xx_HAL_Driver/Inc/stm32g4xx_ll_dac.h **** 
  93:Drivers/STM32G4xx_HAL_Driver/Inc/stm32g4xx_ll_dac.h **** #define DAC_REG_DOR2_REGOFFSET         0x00000020UL            /* Register offset of DORx channel 1
  94:Drivers/STM32G4xx_HAL_Driver/Inc/stm32g4xx_ll_dac.h ****                                                                   DORx channel 2 (shifted left of 5
  95:Drivers/STM32G4xx_HAL_Driver/Inc/stm32g4xx_ll_dac.h **** #define DAC_REG_DORX_REGOFFSET_MASK    (DAC_REG_DOR1_REGOFFSET | DAC_REG_DOR2_REGOFFSET)
ARM GAS  D:\apps\VSCode\data\tmp\ccbuGfzv.s 			page 4


  96:Drivers/STM32G4xx_HAL_Driver/Inc/stm32g4xx_ll_dac.h **** 
  97:Drivers/STM32G4xx_HAL_Driver/Inc/stm32g4xx_ll_dac.h **** #define DAC_REG_SHSR1_REGOFFSET        0x00000000UL            /* Register SHSRx channel 1 taken as
  98:Drivers/STM32G4xx_HAL_Driver/Inc/stm32g4xx_ll_dac.h **** #define DAC_REG_SHSR2_REGOFFSET        0x00000040UL            /* Register offset of SHSRx channel 
  99:Drivers/STM32G4xx_HAL_Driver/Inc/stm32g4xx_ll_dac.h ****                                                                   SHSRx channel 2 (shifted left of 
 100:Drivers/STM32G4xx_HAL_Driver/Inc/stm32g4xx_ll_dac.h **** #define DAC_REG_SHSRX_REGOFFSET_MASK   (DAC_REG_SHSR1_REGOFFSET | DAC_REG_SHSR2_REGOFFSET)
 101:Drivers/STM32G4xx_HAL_Driver/Inc/stm32g4xx_ll_dac.h **** 
 102:Drivers/STM32G4xx_HAL_Driver/Inc/stm32g4xx_ll_dac.h **** #define DAC_REG_STR1_REGOFFSET         0x00000000UL            /* Register STRx channel 1 taken as 
 103:Drivers/STM32G4xx_HAL_Driver/Inc/stm32g4xx_ll_dac.h **** #define DAC_REG_STR2_REGOFFSET         0x00000080UL            /* Register offset of STRx channel 1
 104:Drivers/STM32G4xx_HAL_Driver/Inc/stm32g4xx_ll_dac.h ****                                                                   STRx channel 2 (shifted left of 7
 105:Drivers/STM32G4xx_HAL_Driver/Inc/stm32g4xx_ll_dac.h **** #define DAC_REG_STRX_REGOFFSET_MASK   (DAC_REG_STR1_REGOFFSET | DAC_REG_STR2_REGOFFSET)
 106:Drivers/STM32G4xx_HAL_Driver/Inc/stm32g4xx_ll_dac.h **** 
 107:Drivers/STM32G4xx_HAL_Driver/Inc/stm32g4xx_ll_dac.h **** #define DAC_REG_DHR_REGOFFSET_MASK_POSBIT0         0x0000000FUL /* Mask of data hold registers offs
 108:Drivers/STM32G4xx_HAL_Driver/Inc/stm32g4xx_ll_dac.h ****                                                                    DHR12Lx, DHR8Rx, ...) when shift
 109:Drivers/STM32G4xx_HAL_Driver/Inc/stm32g4xx_ll_dac.h **** #define DAC_REG_DORX_REGOFFSET_MASK_POSBIT0        0x00000001UL /* Mask of DORx registers offset wh
 110:Drivers/STM32G4xx_HAL_Driver/Inc/stm32g4xx_ll_dac.h ****                                                                    to position 0                   
 111:Drivers/STM32G4xx_HAL_Driver/Inc/stm32g4xx_ll_dac.h **** #define DAC_REG_SHSRX_REGOFFSET_MASK_POSBIT0       0x00000001UL /* Mask of SHSRx registers offset w
 112:Drivers/STM32G4xx_HAL_Driver/Inc/stm32g4xx_ll_dac.h ****                                                                    to position 0                   
 113:Drivers/STM32G4xx_HAL_Driver/Inc/stm32g4xx_ll_dac.h **** #define DAC_REG_STRX_REGOFFSET_MASK_POSBIT0        0x00000001UL /* Mask of STRx registers offset wh
 114:Drivers/STM32G4xx_HAL_Driver/Inc/stm32g4xx_ll_dac.h ****                                                                    to position 0                   
 115:Drivers/STM32G4xx_HAL_Driver/Inc/stm32g4xx_ll_dac.h **** 
 116:Drivers/STM32G4xx_HAL_Driver/Inc/stm32g4xx_ll_dac.h **** #define DAC_REG_DHR12RX_REGOFFSET_BITOFFSET_POS           28UL  /* Position of bits register offset
 117:Drivers/STM32G4xx_HAL_Driver/Inc/stm32g4xx_ll_dac.h ****                                                                    channel 1 or 2 versus DHR12Rx ch
 118:Drivers/STM32G4xx_HAL_Driver/Inc/stm32g4xx_ll_dac.h ****                                                                    (shifted left of 28 bits)       
 119:Drivers/STM32G4xx_HAL_Driver/Inc/stm32g4xx_ll_dac.h **** #define DAC_REG_DHR12LX_REGOFFSET_BITOFFSET_POS           20UL  /* Position of bits register offset
 120:Drivers/STM32G4xx_HAL_Driver/Inc/stm32g4xx_ll_dac.h ****                                                                    channel 1 or 2 versus DHR12Rx ch
 121:Drivers/STM32G4xx_HAL_Driver/Inc/stm32g4xx_ll_dac.h ****                                                                    (shifted left of 20 bits)       
 122:Drivers/STM32G4xx_HAL_Driver/Inc/stm32g4xx_ll_dac.h **** #define DAC_REG_DHR8RX_REGOFFSET_BITOFFSET_POS            24UL  /* Position of bits register offset
 123:Drivers/STM32G4xx_HAL_Driver/Inc/stm32g4xx_ll_dac.h ****                                                                    channel 1 or 2 versus DHR12Rx ch
 124:Drivers/STM32G4xx_HAL_Driver/Inc/stm32g4xx_ll_dac.h ****                                                                    (shifted left of 24 bits)       
 125:Drivers/STM32G4xx_HAL_Driver/Inc/stm32g4xx_ll_dac.h **** #define DAC_REG_DORX_REGOFFSET_BITOFFSET_POS               5UL  /* Position of bits register offset
 126:Drivers/STM32G4xx_HAL_Driver/Inc/stm32g4xx_ll_dac.h ****                                                                    channel 1 or 2 versus DORx chann
 127:Drivers/STM32G4xx_HAL_Driver/Inc/stm32g4xx_ll_dac.h ****                                                                    (shifted left of 5 bits)        
 128:Drivers/STM32G4xx_HAL_Driver/Inc/stm32g4xx_ll_dac.h **** #define DAC_REG_SHSRX_REGOFFSET_BITOFFSET_POS              6UL  /* Position of bits register offset
 129:Drivers/STM32G4xx_HAL_Driver/Inc/stm32g4xx_ll_dac.h ****                                                                    channel 1 or 2 versus SHSRx chan
 130:Drivers/STM32G4xx_HAL_Driver/Inc/stm32g4xx_ll_dac.h ****                                                                    (shifted left of 6 bits)        
 131:Drivers/STM32G4xx_HAL_Driver/Inc/stm32g4xx_ll_dac.h **** #define DAC_REG_STRX_REGOFFSET_BITOFFSET_POS               7UL  /* Position of bits register offset
 132:Drivers/STM32G4xx_HAL_Driver/Inc/stm32g4xx_ll_dac.h ****                                                                    channel 1 or 2 versus STRx chann
 133:Drivers/STM32G4xx_HAL_Driver/Inc/stm32g4xx_ll_dac.h ****                                                                    (shifted left of 7 bits)        
 134:Drivers/STM32G4xx_HAL_Driver/Inc/stm32g4xx_ll_dac.h **** 
 135:Drivers/STM32G4xx_HAL_Driver/Inc/stm32g4xx_ll_dac.h **** /* DAC registers bits positions */
 136:Drivers/STM32G4xx_HAL_Driver/Inc/stm32g4xx_ll_dac.h **** #define DAC_DHR12RD_DACC2DHR_BITOFFSET_POS                DAC_DHR12RD_DACC2DHR_Pos
 137:Drivers/STM32G4xx_HAL_Driver/Inc/stm32g4xx_ll_dac.h **** #define DAC_DHR12LD_DACC2DHR_BITOFFSET_POS                DAC_DHR12LD_DACC2DHR_Pos
 138:Drivers/STM32G4xx_HAL_Driver/Inc/stm32g4xx_ll_dac.h **** #define DAC_DHR8RD_DACC2DHR_BITOFFSET_POS                 DAC_DHR8RD_DACC2DHR_Pos
 139:Drivers/STM32G4xx_HAL_Driver/Inc/stm32g4xx_ll_dac.h **** 
 140:Drivers/STM32G4xx_HAL_Driver/Inc/stm32g4xx_ll_dac.h **** /* Miscellaneous data */
 141:Drivers/STM32G4xx_HAL_Driver/Inc/stm32g4xx_ll_dac.h **** #define DAC_DIGITAL_SCALE_12BITS                  4095UL   /* Full-scale digital value with a resol
 142:Drivers/STM32G4xx_HAL_Driver/Inc/stm32g4xx_ll_dac.h ****                                                               bits (voltage range determined by ana
 143:Drivers/STM32G4xx_HAL_Driver/Inc/stm32g4xx_ll_dac.h ****                                                               references Vref+ and Vref-, refer to 
 144:Drivers/STM32G4xx_HAL_Driver/Inc/stm32g4xx_ll_dac.h **** 
 145:Drivers/STM32G4xx_HAL_Driver/Inc/stm32g4xx_ll_dac.h **** /**
 146:Drivers/STM32G4xx_HAL_Driver/Inc/stm32g4xx_ll_dac.h ****   * @}
 147:Drivers/STM32G4xx_HAL_Driver/Inc/stm32g4xx_ll_dac.h ****   */
 148:Drivers/STM32G4xx_HAL_Driver/Inc/stm32g4xx_ll_dac.h **** 
 149:Drivers/STM32G4xx_HAL_Driver/Inc/stm32g4xx_ll_dac.h **** 
 150:Drivers/STM32G4xx_HAL_Driver/Inc/stm32g4xx_ll_dac.h **** /* Private macros ------------------------------------------------------------*/
 151:Drivers/STM32G4xx_HAL_Driver/Inc/stm32g4xx_ll_dac.h **** /** @defgroup DAC_LL_Private_Macros DAC Private Macros
 152:Drivers/STM32G4xx_HAL_Driver/Inc/stm32g4xx_ll_dac.h ****   * @{
ARM GAS  D:\apps\VSCode\data\tmp\ccbuGfzv.s 			page 5


 153:Drivers/STM32G4xx_HAL_Driver/Inc/stm32g4xx_ll_dac.h ****   */
 154:Drivers/STM32G4xx_HAL_Driver/Inc/stm32g4xx_ll_dac.h **** 
 155:Drivers/STM32G4xx_HAL_Driver/Inc/stm32g4xx_ll_dac.h **** /**
 156:Drivers/STM32G4xx_HAL_Driver/Inc/stm32g4xx_ll_dac.h ****   * @brief  Driver macro reserved for internal use: set a pointer to
 157:Drivers/STM32G4xx_HAL_Driver/Inc/stm32g4xx_ll_dac.h ****   *         a register from a register basis from which an offset
 158:Drivers/STM32G4xx_HAL_Driver/Inc/stm32g4xx_ll_dac.h ****   *         is applied.
 159:Drivers/STM32G4xx_HAL_Driver/Inc/stm32g4xx_ll_dac.h ****   * @param  __REG__ Register basis from which the offset is applied.
 160:Drivers/STM32G4xx_HAL_Driver/Inc/stm32g4xx_ll_dac.h ****   * @param  __REG_OFFFSET__ Offset to be applied (unit: number of registers).
 161:Drivers/STM32G4xx_HAL_Driver/Inc/stm32g4xx_ll_dac.h ****   * @retval Pointer to register address
 162:Drivers/STM32G4xx_HAL_Driver/Inc/stm32g4xx_ll_dac.h ****   */
 163:Drivers/STM32G4xx_HAL_Driver/Inc/stm32g4xx_ll_dac.h **** #define __DAC_PTR_REG_OFFSET(__REG__, __REG_OFFFSET__)                         \
 164:Drivers/STM32G4xx_HAL_Driver/Inc/stm32g4xx_ll_dac.h ****   ((uint32_t *)((uint32_t) ((uint32_t)(&(__REG__)) + ((__REG_OFFFSET__) << 2UL))))
 165:Drivers/STM32G4xx_HAL_Driver/Inc/stm32g4xx_ll_dac.h **** 
 166:Drivers/STM32G4xx_HAL_Driver/Inc/stm32g4xx_ll_dac.h **** /**
 167:Drivers/STM32G4xx_HAL_Driver/Inc/stm32g4xx_ll_dac.h ****   * @}
 168:Drivers/STM32G4xx_HAL_Driver/Inc/stm32g4xx_ll_dac.h ****   */
 169:Drivers/STM32G4xx_HAL_Driver/Inc/stm32g4xx_ll_dac.h **** 
 170:Drivers/STM32G4xx_HAL_Driver/Inc/stm32g4xx_ll_dac.h **** 
 171:Drivers/STM32G4xx_HAL_Driver/Inc/stm32g4xx_ll_dac.h **** /* Exported types ------------------------------------------------------------*/
 172:Drivers/STM32G4xx_HAL_Driver/Inc/stm32g4xx_ll_dac.h **** #if defined(USE_FULL_LL_DRIVER)
 173:Drivers/STM32G4xx_HAL_Driver/Inc/stm32g4xx_ll_dac.h **** /** @defgroup DAC_LL_ES_INIT DAC Exported Init structure
 174:Drivers/STM32G4xx_HAL_Driver/Inc/stm32g4xx_ll_dac.h ****   * @{
 175:Drivers/STM32G4xx_HAL_Driver/Inc/stm32g4xx_ll_dac.h ****   */
 176:Drivers/STM32G4xx_HAL_Driver/Inc/stm32g4xx_ll_dac.h **** 
 177:Drivers/STM32G4xx_HAL_Driver/Inc/stm32g4xx_ll_dac.h **** /**
 178:Drivers/STM32G4xx_HAL_Driver/Inc/stm32g4xx_ll_dac.h ****   * @brief  Structure definition of some features of DAC instance.
 179:Drivers/STM32G4xx_HAL_Driver/Inc/stm32g4xx_ll_dac.h ****   */
 180:Drivers/STM32G4xx_HAL_Driver/Inc/stm32g4xx_ll_dac.h **** typedef struct
 181:Drivers/STM32G4xx_HAL_Driver/Inc/stm32g4xx_ll_dac.h **** {
 182:Drivers/STM32G4xx_HAL_Driver/Inc/stm32g4xx_ll_dac.h ****   uint32_t TriggerSource;               /*!< Set the conversion trigger source for the selected DAC
 183:Drivers/STM32G4xx_HAL_Driver/Inc/stm32g4xx_ll_dac.h ****                                              internal (SW start) or from external peripheral
 184:Drivers/STM32G4xx_HAL_Driver/Inc/stm32g4xx_ll_dac.h ****                                              (timer event, external interrupt line).
 185:Drivers/STM32G4xx_HAL_Driver/Inc/stm32g4xx_ll_dac.h ****                                              This parameter can be a value of @ref DAC_LL_EC_TRIGGE
 186:Drivers/STM32G4xx_HAL_Driver/Inc/stm32g4xx_ll_dac.h **** 
 187:Drivers/STM32G4xx_HAL_Driver/Inc/stm32g4xx_ll_dac.h ****                                              This feature can be modified afterwards using unitary
 188:Drivers/STM32G4xx_HAL_Driver/Inc/stm32g4xx_ll_dac.h ****                                              function @ref LL_DAC_SetTriggerSource().
 189:Drivers/STM32G4xx_HAL_Driver/Inc/stm32g4xx_ll_dac.h ****                                              @note If waveform automatic generation mode is set to 
 190:Drivers/STM32G4xx_HAL_Driver/Inc/stm32g4xx_ll_dac.h ****                                              this parameter is used as sawtooth RESET trigger */
 191:Drivers/STM32G4xx_HAL_Driver/Inc/stm32g4xx_ll_dac.h **** 
 192:Drivers/STM32G4xx_HAL_Driver/Inc/stm32g4xx_ll_dac.h ****   uint32_t TriggerSource2;              /*!< Set the conversion secondary trigger source for the se
 193:Drivers/STM32G4xx_HAL_Driver/Inc/stm32g4xx_ll_dac.h ****                                              internal (SW start) or from external peripheral
 194:Drivers/STM32G4xx_HAL_Driver/Inc/stm32g4xx_ll_dac.h ****                                              (timer event, external interrupt line).
 195:Drivers/STM32G4xx_HAL_Driver/Inc/stm32g4xx_ll_dac.h ****                                              This parameter can be a value of @ref DAC_LL_EC_TRIGGE
 196:Drivers/STM32G4xx_HAL_Driver/Inc/stm32g4xx_ll_dac.h **** 
 197:Drivers/STM32G4xx_HAL_Driver/Inc/stm32g4xx_ll_dac.h ****                                              This feature can be modified afterwards using unitary
 198:Drivers/STM32G4xx_HAL_Driver/Inc/stm32g4xx_ll_dac.h ****                                              function @ref LL_DAC_SetTriggerSource2().
 199:Drivers/STM32G4xx_HAL_Driver/Inc/stm32g4xx_ll_dac.h ****                                              @note If waveform automatic generation mode is set to 
 200:Drivers/STM32G4xx_HAL_Driver/Inc/stm32g4xx_ll_dac.h ****                                              this parameter is used as sawtooth step trigger */
 201:Drivers/STM32G4xx_HAL_Driver/Inc/stm32g4xx_ll_dac.h **** 
 202:Drivers/STM32G4xx_HAL_Driver/Inc/stm32g4xx_ll_dac.h ****   uint32_t WaveAutoGeneration;          /*!< Set the waveform automatic generation mode for the sel
 203:Drivers/STM32G4xx_HAL_Driver/Inc/stm32g4xx_ll_dac.h ****                                              This parameter can be a value of @ref DAC_LL_EC_WAVE_A
 204:Drivers/STM32G4xx_HAL_Driver/Inc/stm32g4xx_ll_dac.h **** 
 205:Drivers/STM32G4xx_HAL_Driver/Inc/stm32g4xx_ll_dac.h ****                                              This feature can be modified afterwards using unitary
 206:Drivers/STM32G4xx_HAL_Driver/Inc/stm32g4xx_ll_dac.h ****                                              function @ref LL_DAC_SetWaveAutoGeneration(). */
 207:Drivers/STM32G4xx_HAL_Driver/Inc/stm32g4xx_ll_dac.h **** 
 208:Drivers/STM32G4xx_HAL_Driver/Inc/stm32g4xx_ll_dac.h ****   uint32_t WaveAutoGenerationConfig;    /*!< Set the waveform automatic generation mode for the sel
 209:Drivers/STM32G4xx_HAL_Driver/Inc/stm32g4xx_ll_dac.h ****                                              If waveform automatic generation mode is set to noise,
ARM GAS  D:\apps\VSCode\data\tmp\ccbuGfzv.s 			page 6


 210:Drivers/STM32G4xx_HAL_Driver/Inc/stm32g4xx_ll_dac.h ****                                              can be a value of @ref DAC_LL_EC_WAVE_NOISE_LFSR_UNMAS
 211:Drivers/STM32G4xx_HAL_Driver/Inc/stm32g4xx_ll_dac.h ****                                              If waveform automatic generation mode is set to triang
 212:Drivers/STM32G4xx_HAL_Driver/Inc/stm32g4xx_ll_dac.h ****                                              this parameter can be a value of @ref DAC_LL_EC_WAVE_T
 213:Drivers/STM32G4xx_HAL_Driver/Inc/stm32g4xx_ll_dac.h ****                                              If waveform automatic generation mode is set to sawtoo
 214:Drivers/STM32G4xx_HAL_Driver/Inc/stm32g4xx_ll_dac.h ****                                              host the sawtooth configuration: polarity, reset data,
 215:Drivers/STM32G4xx_HAL_Driver/Inc/stm32g4xx_ll_dac.h ****                                              Use __LL_DAC_FORMAT_SAWTOOTHWAVECONFIG macro to set th
 216:Drivers/STM32G4xx_HAL_Driver/Inc/stm32g4xx_ll_dac.h ****                                              @note If waveform automatic generation mode is disable
 217:Drivers/STM32G4xx_HAL_Driver/Inc/stm32g4xx_ll_dac.h ****                                               this parameter is discarded.
 218:Drivers/STM32G4xx_HAL_Driver/Inc/stm32g4xx_ll_dac.h **** 
 219:Drivers/STM32G4xx_HAL_Driver/Inc/stm32g4xx_ll_dac.h ****                                              This feature can be modified afterwards using unitary
 220:Drivers/STM32G4xx_HAL_Driver/Inc/stm32g4xx_ll_dac.h ****                                              function @ref LL_DAC_SetWaveNoiseLFSR(),
 221:Drivers/STM32G4xx_HAL_Driver/Inc/stm32g4xx_ll_dac.h ****                                              @ref LL_DAC_SetWaveTriangleAmplitude(),
 222:Drivers/STM32G4xx_HAL_Driver/Inc/stm32g4xx_ll_dac.h ****                                              @ref LL_DAC_SetWaveSawtoothPolarity(),
 223:Drivers/STM32G4xx_HAL_Driver/Inc/stm32g4xx_ll_dac.h ****                                              @ref LL_DAC_SetWaveSawtoothResetData()
 224:Drivers/STM32G4xx_HAL_Driver/Inc/stm32g4xx_ll_dac.h ****                                              or @ref LL_DAC_SetWaveSawtoothStepData(),
 225:Drivers/STM32G4xx_HAL_Driver/Inc/stm32g4xx_ll_dac.h ****                                              depending on the wave automatic generation selected. *
 226:Drivers/STM32G4xx_HAL_Driver/Inc/stm32g4xx_ll_dac.h **** 
 227:Drivers/STM32G4xx_HAL_Driver/Inc/stm32g4xx_ll_dac.h ****   uint32_t OutputBuffer;                /*!< Set the output buffer for the selected DAC channel.
 228:Drivers/STM32G4xx_HAL_Driver/Inc/stm32g4xx_ll_dac.h ****                                              This parameter can be a value of @ref DAC_LL_EC_OUTPUT
 229:Drivers/STM32G4xx_HAL_Driver/Inc/stm32g4xx_ll_dac.h **** 
 230:Drivers/STM32G4xx_HAL_Driver/Inc/stm32g4xx_ll_dac.h ****                                              This feature can be modified afterwards using unitary
 231:Drivers/STM32G4xx_HAL_Driver/Inc/stm32g4xx_ll_dac.h ****                                              function @ref LL_DAC_SetOutputBuffer(). */
 232:Drivers/STM32G4xx_HAL_Driver/Inc/stm32g4xx_ll_dac.h **** 
 233:Drivers/STM32G4xx_HAL_Driver/Inc/stm32g4xx_ll_dac.h ****   uint32_t OutputConnection;            /*!< Set the output connection for the selected DAC channel
 234:Drivers/STM32G4xx_HAL_Driver/Inc/stm32g4xx_ll_dac.h ****                                              This parameter can be a value of @ref DAC_LL_EC_OUTPUT
 235:Drivers/STM32G4xx_HAL_Driver/Inc/stm32g4xx_ll_dac.h **** 
 236:Drivers/STM32G4xx_HAL_Driver/Inc/stm32g4xx_ll_dac.h ****                                              This feature can be modified afterwards using unitary
 237:Drivers/STM32G4xx_HAL_Driver/Inc/stm32g4xx_ll_dac.h ****                                              function @ref LL_DAC_SetOutputConnection(). */
 238:Drivers/STM32G4xx_HAL_Driver/Inc/stm32g4xx_ll_dac.h **** 
 239:Drivers/STM32G4xx_HAL_Driver/Inc/stm32g4xx_ll_dac.h ****   uint32_t OutputMode;                  /*!< Set the output mode normal or sample-and-hold for the 
 240:Drivers/STM32G4xx_HAL_Driver/Inc/stm32g4xx_ll_dac.h ****                                              channel. This parameter can be a value of @ref DAC_LL_
 241:Drivers/STM32G4xx_HAL_Driver/Inc/stm32g4xx_ll_dac.h **** 
 242:Drivers/STM32G4xx_HAL_Driver/Inc/stm32g4xx_ll_dac.h ****                                              This feature can be modified afterwards using unitary
 243:Drivers/STM32G4xx_HAL_Driver/Inc/stm32g4xx_ll_dac.h ****                                              function @ref LL_DAC_SetOutputMode(). */
 244:Drivers/STM32G4xx_HAL_Driver/Inc/stm32g4xx_ll_dac.h **** } LL_DAC_InitTypeDef;
 245:Drivers/STM32G4xx_HAL_Driver/Inc/stm32g4xx_ll_dac.h **** 
 246:Drivers/STM32G4xx_HAL_Driver/Inc/stm32g4xx_ll_dac.h **** /**
 247:Drivers/STM32G4xx_HAL_Driver/Inc/stm32g4xx_ll_dac.h ****   * @}
 248:Drivers/STM32G4xx_HAL_Driver/Inc/stm32g4xx_ll_dac.h ****   */
 249:Drivers/STM32G4xx_HAL_Driver/Inc/stm32g4xx_ll_dac.h **** #endif /* USE_FULL_LL_DRIVER */
 250:Drivers/STM32G4xx_HAL_Driver/Inc/stm32g4xx_ll_dac.h **** 
 251:Drivers/STM32G4xx_HAL_Driver/Inc/stm32g4xx_ll_dac.h **** /* Exported constants --------------------------------------------------------*/
 252:Drivers/STM32G4xx_HAL_Driver/Inc/stm32g4xx_ll_dac.h **** /** @defgroup DAC_LL_Exported_Constants DAC Exported Constants
 253:Drivers/STM32G4xx_HAL_Driver/Inc/stm32g4xx_ll_dac.h ****   * @{
 254:Drivers/STM32G4xx_HAL_Driver/Inc/stm32g4xx_ll_dac.h ****   */
 255:Drivers/STM32G4xx_HAL_Driver/Inc/stm32g4xx_ll_dac.h **** 
 256:Drivers/STM32G4xx_HAL_Driver/Inc/stm32g4xx_ll_dac.h **** /** @defgroup DAC_LL_EC_GET_FLAG DAC flags
 257:Drivers/STM32G4xx_HAL_Driver/Inc/stm32g4xx_ll_dac.h ****   * @brief    Flags defines which can be used with LL_DAC_ReadReg function
 258:Drivers/STM32G4xx_HAL_Driver/Inc/stm32g4xx_ll_dac.h ****   * @{
 259:Drivers/STM32G4xx_HAL_Driver/Inc/stm32g4xx_ll_dac.h ****   */
 260:Drivers/STM32G4xx_HAL_Driver/Inc/stm32g4xx_ll_dac.h **** /* DAC channel 1 flags */
 261:Drivers/STM32G4xx_HAL_Driver/Inc/stm32g4xx_ll_dac.h **** #define LL_DAC_FLAG_DMAUDR1                (DAC_SR_DMAUDR1)   /*!< DAC channel 1 flag DMA underrun 
 262:Drivers/STM32G4xx_HAL_Driver/Inc/stm32g4xx_ll_dac.h **** #define LL_DAC_FLAG_CAL1                   (DAC_SR_CAL_FLAG1) /*!< DAC channel 1 flag offset calibr
 263:Drivers/STM32G4xx_HAL_Driver/Inc/stm32g4xx_ll_dac.h **** #define LL_DAC_FLAG_BWST1                  (DAC_SR_BWST1)     /*!< DAC channel 1 flag busy writing 
 264:Drivers/STM32G4xx_HAL_Driver/Inc/stm32g4xx_ll_dac.h **** #define LL_DAC_FLAG_DAC1RDY                (DAC_SR_DAC1RDY)   /*!< DAC channel 1 flag ready */
 265:Drivers/STM32G4xx_HAL_Driver/Inc/stm32g4xx_ll_dac.h **** #define LL_DAC_FLAG_DORSTAT1               (DAC_SR_DORSTAT1)  /*!< DAC channel 1 flag output regist
 266:Drivers/STM32G4xx_HAL_Driver/Inc/stm32g4xx_ll_dac.h **** 
ARM GAS  D:\apps\VSCode\data\tmp\ccbuGfzv.s 			page 7


 267:Drivers/STM32G4xx_HAL_Driver/Inc/stm32g4xx_ll_dac.h **** /* DAC channel 2 flags */
 268:Drivers/STM32G4xx_HAL_Driver/Inc/stm32g4xx_ll_dac.h **** #define LL_DAC_FLAG_DMAUDR2                (DAC_SR_DMAUDR2)   /*!< DAC channel 2 flag DMA underrun 
 269:Drivers/STM32G4xx_HAL_Driver/Inc/stm32g4xx_ll_dac.h **** #define LL_DAC_FLAG_CAL2                   (DAC_SR_CAL_FLAG2) /*!< DAC channel 2 flag offset calibr
 270:Drivers/STM32G4xx_HAL_Driver/Inc/stm32g4xx_ll_dac.h **** #define LL_DAC_FLAG_BWST2                  (DAC_SR_BWST2)     /*!< DAC channel 2 flag busy writing 
 271:Drivers/STM32G4xx_HAL_Driver/Inc/stm32g4xx_ll_dac.h **** #define LL_DAC_FLAG_DAC2RDY                (DAC_SR_DAC2RDY)   /*!< DAC channel 2 flag ready */
 272:Drivers/STM32G4xx_HAL_Driver/Inc/stm32g4xx_ll_dac.h **** #define LL_DAC_FLAG_DORSTAT2               (DAC_SR_DORSTAT2)  /*!< DAC channel 2 flag output regist
 273:Drivers/STM32G4xx_HAL_Driver/Inc/stm32g4xx_ll_dac.h **** 
 274:Drivers/STM32G4xx_HAL_Driver/Inc/stm32g4xx_ll_dac.h **** /**
 275:Drivers/STM32G4xx_HAL_Driver/Inc/stm32g4xx_ll_dac.h ****   * @}
 276:Drivers/STM32G4xx_HAL_Driver/Inc/stm32g4xx_ll_dac.h ****   */
 277:Drivers/STM32G4xx_HAL_Driver/Inc/stm32g4xx_ll_dac.h **** 
 278:Drivers/STM32G4xx_HAL_Driver/Inc/stm32g4xx_ll_dac.h **** /** @defgroup DAC_LL_EC_IT DAC interruptions
 279:Drivers/STM32G4xx_HAL_Driver/Inc/stm32g4xx_ll_dac.h ****   * @brief    IT defines which can be used with LL_DAC_ReadReg and  LL_DAC_WriteReg functions
 280:Drivers/STM32G4xx_HAL_Driver/Inc/stm32g4xx_ll_dac.h ****   * @{
 281:Drivers/STM32G4xx_HAL_Driver/Inc/stm32g4xx_ll_dac.h ****   */
 282:Drivers/STM32G4xx_HAL_Driver/Inc/stm32g4xx_ll_dac.h **** #define LL_DAC_IT_DMAUDRIE1                (DAC_CR_DMAUDRIE1) /*!< DAC channel 1 interruption DMA u
 283:Drivers/STM32G4xx_HAL_Driver/Inc/stm32g4xx_ll_dac.h **** 
 284:Drivers/STM32G4xx_HAL_Driver/Inc/stm32g4xx_ll_dac.h **** #define LL_DAC_IT_DMAUDRIE2                (DAC_CR_DMAUDRIE2) /*!< DAC channel 2 interruption DMA u
 285:Drivers/STM32G4xx_HAL_Driver/Inc/stm32g4xx_ll_dac.h **** 
 286:Drivers/STM32G4xx_HAL_Driver/Inc/stm32g4xx_ll_dac.h **** /**
 287:Drivers/STM32G4xx_HAL_Driver/Inc/stm32g4xx_ll_dac.h ****   * @}
 288:Drivers/STM32G4xx_HAL_Driver/Inc/stm32g4xx_ll_dac.h ****   */
 289:Drivers/STM32G4xx_HAL_Driver/Inc/stm32g4xx_ll_dac.h **** 
 290:Drivers/STM32G4xx_HAL_Driver/Inc/stm32g4xx_ll_dac.h **** /** @defgroup DAC_LL_EC_CHANNEL DAC channels
 291:Drivers/STM32G4xx_HAL_Driver/Inc/stm32g4xx_ll_dac.h ****   * @{
 292:Drivers/STM32G4xx_HAL_Driver/Inc/stm32g4xx_ll_dac.h ****   */
 293:Drivers/STM32G4xx_HAL_Driver/Inc/stm32g4xx_ll_dac.h **** #define LL_DAC_CHANNEL_1                   (DAC_REG_STR1_REGOFFSET | DAC_REG_SHSR1_REGOFFSET | DAC_
 294:Drivers/STM32G4xx_HAL_Driver/Inc/stm32g4xx_ll_dac.h **** #define LL_DAC_CHANNEL_2                   (DAC_REG_STR2_REGOFFSET | DAC_REG_SHSR2_REGOFFSET | DAC_
 295:Drivers/STM32G4xx_HAL_Driver/Inc/stm32g4xx_ll_dac.h **** /**
 296:Drivers/STM32G4xx_HAL_Driver/Inc/stm32g4xx_ll_dac.h ****   * @}
 297:Drivers/STM32G4xx_HAL_Driver/Inc/stm32g4xx_ll_dac.h ****   */
 298:Drivers/STM32G4xx_HAL_Driver/Inc/stm32g4xx_ll_dac.h **** 
 299:Drivers/STM32G4xx_HAL_Driver/Inc/stm32g4xx_ll_dac.h **** /** @defgroup DAC_LL_EC_HIGH_FREQUENCY_MODE DAC high frequency interface mode
 300:Drivers/STM32G4xx_HAL_Driver/Inc/stm32g4xx_ll_dac.h ****   * @brief    High frequency interface mode defines that can be used
 301:Drivers/STM32G4xx_HAL_Driver/Inc/stm32g4xx_ll_dac.h ****   *           with LL_DAC_SetHighFrequencyMode and LL_DAC_GetHighFrequencyMode
 302:Drivers/STM32G4xx_HAL_Driver/Inc/stm32g4xx_ll_dac.h ****   * @{
 303:Drivers/STM32G4xx_HAL_Driver/Inc/stm32g4xx_ll_dac.h ****   */
 304:Drivers/STM32G4xx_HAL_Driver/Inc/stm32g4xx_ll_dac.h **** #define LL_DAC_HIGH_FREQ_MODE_DISABLE         0x00000000UL       /*!< High frequency interface mode
 305:Drivers/STM32G4xx_HAL_Driver/Inc/stm32g4xx_ll_dac.h **** #define LL_DAC_HIGH_FREQ_MODE_ABOVE_80MHZ     (DAC_MCR_HFSEL_0)  /*!< High frequency interface mode
 306:Drivers/STM32G4xx_HAL_Driver/Inc/stm32g4xx_ll_dac.h **** #define LL_DAC_HIGH_FREQ_MODE_ABOVE_160MHZ    (DAC_MCR_HFSEL_1)  /*!< High frequency interface mode
 307:Drivers/STM32G4xx_HAL_Driver/Inc/stm32g4xx_ll_dac.h **** /**
 308:Drivers/STM32G4xx_HAL_Driver/Inc/stm32g4xx_ll_dac.h ****   * @}
 309:Drivers/STM32G4xx_HAL_Driver/Inc/stm32g4xx_ll_dac.h ****   */
 310:Drivers/STM32G4xx_HAL_Driver/Inc/stm32g4xx_ll_dac.h **** 
 311:Drivers/STM32G4xx_HAL_Driver/Inc/stm32g4xx_ll_dac.h **** /** @defgroup DAC_LL_EC_OPERATING_MODE DAC operating mode
 312:Drivers/STM32G4xx_HAL_Driver/Inc/stm32g4xx_ll_dac.h ****   * @{
 313:Drivers/STM32G4xx_HAL_Driver/Inc/stm32g4xx_ll_dac.h ****   */
 314:Drivers/STM32G4xx_HAL_Driver/Inc/stm32g4xx_ll_dac.h **** #define LL_DAC_MODE_NORMAL_OPERATION       0x00000000UL            /*!< DAC channel in mode normal 
 315:Drivers/STM32G4xx_HAL_Driver/Inc/stm32g4xx_ll_dac.h **** #define LL_DAC_MODE_CALIBRATION            (DAC_CR_CEN1)           /*!< DAC channel in mode calibra
 316:Drivers/STM32G4xx_HAL_Driver/Inc/stm32g4xx_ll_dac.h **** /**
 317:Drivers/STM32G4xx_HAL_Driver/Inc/stm32g4xx_ll_dac.h ****   * @}
 318:Drivers/STM32G4xx_HAL_Driver/Inc/stm32g4xx_ll_dac.h ****   */
 319:Drivers/STM32G4xx_HAL_Driver/Inc/stm32g4xx_ll_dac.h **** 
 320:Drivers/STM32G4xx_HAL_Driver/Inc/stm32g4xx_ll_dac.h **** /** @defgroup DAC_LL_EC_TRIGGER_SOURCE DAC trigger source
 321:Drivers/STM32G4xx_HAL_Driver/Inc/stm32g4xx_ll_dac.h ****   * @{
 322:Drivers/STM32G4xx_HAL_Driver/Inc/stm32g4xx_ll_dac.h ****   */
 323:Drivers/STM32G4xx_HAL_Driver/Inc/stm32g4xx_ll_dac.h **** #define LL_DAC_TRIG_SOFTWARE                  0x00000000UL                                         
ARM GAS  D:\apps\VSCode\data\tmp\ccbuGfzv.s 			page 8


 324:Drivers/STM32G4xx_HAL_Driver/Inc/stm32g4xx_ll_dac.h **** #define LL_DAC_TRIG_EXT_TIM1_TRGO             (                                                   D
 325:Drivers/STM32G4xx_HAL_Driver/Inc/stm32g4xx_ll_dac.h **** #define LL_DAC_TRIG_EXT_TIM8_TRGO             (                                                   D
 326:Drivers/STM32G4xx_HAL_Driver/Inc/stm32g4xx_ll_dac.h **** #define LL_DAC_TRIG_EXT_TIM7_TRGO             (                                  DAC_CR_TSEL1_1    
 327:Drivers/STM32G4xx_HAL_Driver/Inc/stm32g4xx_ll_dac.h **** #define LL_DAC_TRIG_EXT_TIM15_TRGO            (                                  DAC_CR_TSEL1_1 | D
 328:Drivers/STM32G4xx_HAL_Driver/Inc/stm32g4xx_ll_dac.h **** #define LL_DAC_TRIG_EXT_TIM2_TRGO             (                 DAC_CR_TSEL1_2                     
 329:Drivers/STM32G4xx_HAL_Driver/Inc/stm32g4xx_ll_dac.h **** #define LL_DAC_TRIG_EXT_TIM4_TRGO             (                 DAC_CR_TSEL1_2                  | D
 330:Drivers/STM32G4xx_HAL_Driver/Inc/stm32g4xx_ll_dac.h **** #define LL_DAC_TRIG_EXT_EXTI_LINE9            (                 DAC_CR_TSEL1_2 | DAC_CR_TSEL1_1    
 331:Drivers/STM32G4xx_HAL_Driver/Inc/stm32g4xx_ll_dac.h **** #define LL_DAC_TRIG_EXT_EXTI_LINE10           (                 DAC_CR_TSEL1_2 | DAC_CR_TSEL1_1    
 332:Drivers/STM32G4xx_HAL_Driver/Inc/stm32g4xx_ll_dac.h **** #define LL_DAC_TRIG_EXT_TIM6_TRGO             (                 DAC_CR_TSEL1_2 | DAC_CR_TSEL1_1 | D
 333:Drivers/STM32G4xx_HAL_Driver/Inc/stm32g4xx_ll_dac.h **** #define LL_DAC_TRIG_EXT_TIM3_TRGO             (DAC_CR_TSEL1_3                                      
 334:Drivers/STM32G4xx_HAL_Driver/Inc/stm32g4xx_ll_dac.h **** #define LL_DAC_TRIG_EXT_HRTIM_STEP_TRG1       (DAC_CR_TSEL1_3                                   | D
 335:Drivers/STM32G4xx_HAL_Driver/Inc/stm32g4xx_ll_dac.h **** #define LL_DAC_TRIG_EXT_HRTIM_RST_TRG1        (DAC_CR_TSEL1_3                                   | D
 336:Drivers/STM32G4xx_HAL_Driver/Inc/stm32g4xx_ll_dac.h **** #define LL_DAC_TRIG_EXT_HRTIM_STEP_TRG2       (DAC_CR_TSEL1_3                  | DAC_CR_TSEL1_1    
 337:Drivers/STM32G4xx_HAL_Driver/Inc/stm32g4xx_ll_dac.h **** #define LL_DAC_TRIG_EXT_HRTIM_RST_TRG2        (DAC_CR_TSEL1_3                  | DAC_CR_TSEL1_1    
 338:Drivers/STM32G4xx_HAL_Driver/Inc/stm32g4xx_ll_dac.h **** #define LL_DAC_TRIG_EXT_HRTIM_STEP_TRG3       (DAC_CR_TSEL1_3                  | DAC_CR_TSEL1_1 | D
 339:Drivers/STM32G4xx_HAL_Driver/Inc/stm32g4xx_ll_dac.h **** #define LL_DAC_TRIG_EXT_HRTIM_RST_TRG3        (DAC_CR_TSEL1_3                  | DAC_CR_TSEL1_1 | D
 340:Drivers/STM32G4xx_HAL_Driver/Inc/stm32g4xx_ll_dac.h **** #define LL_DAC_TRIG_EXT_HRTIM_STEP_TRG4       (DAC_CR_TSEL1_3 | DAC_CR_TSEL1_2                     
 341:Drivers/STM32G4xx_HAL_Driver/Inc/stm32g4xx_ll_dac.h **** #define LL_DAC_TRIG_EXT_HRTIM_RST_TRG4        (DAC_CR_TSEL1_3 | DAC_CR_TSEL1_2                     
 342:Drivers/STM32G4xx_HAL_Driver/Inc/stm32g4xx_ll_dac.h **** #define LL_DAC_TRIG_EXT_HRTIM_STEP_TRG5       (DAC_CR_TSEL1_3 | DAC_CR_TSEL1_2                  | D
 343:Drivers/STM32G4xx_HAL_Driver/Inc/stm32g4xx_ll_dac.h **** #define LL_DAC_TRIG_EXT_HRTIM_RST_TRG5        (DAC_CR_TSEL1_3 | DAC_CR_TSEL1_2                  | D
 344:Drivers/STM32G4xx_HAL_Driver/Inc/stm32g4xx_ll_dac.h **** #define LL_DAC_TRIG_EXT_HRTIM_STEP_TRG6       (DAC_CR_TSEL1_3 | DAC_CR_TSEL1_2 | DAC_CR_TSEL1_1    
 345:Drivers/STM32G4xx_HAL_Driver/Inc/stm32g4xx_ll_dac.h **** #define LL_DAC_TRIG_EXT_HRTIM_RST_TRG6        (DAC_CR_TSEL1_3 | DAC_CR_TSEL1_2 | DAC_CR_TSEL1_1    
 346:Drivers/STM32G4xx_HAL_Driver/Inc/stm32g4xx_ll_dac.h **** #define LL_DAC_TRIG_EXT_HRTIM_TRGO1           (DAC_CR_TSEL1_3 | DAC_CR_TSEL1_2 | DAC_CR_TSEL1_1 | D
 347:Drivers/STM32G4xx_HAL_Driver/Inc/stm32g4xx_ll_dac.h **** #define LL_DAC_TRIG_EXT_HRTIM_TRGO2           (DAC_CR_TSEL1_3 | DAC_CR_TSEL1_2 | DAC_CR_TSEL1_1 | D
 348:Drivers/STM32G4xx_HAL_Driver/Inc/stm32g4xx_ll_dac.h **** #define LL_DAC_TRIG_EXT_HRTIM_TRGO3           (DAC_CR_TSEL1_3 | DAC_CR_TSEL1_2 | DAC_CR_TSEL1_1 | D
 349:Drivers/STM32G4xx_HAL_Driver/Inc/stm32g4xx_ll_dac.h **** /**
 350:Drivers/STM32G4xx_HAL_Driver/Inc/stm32g4xx_ll_dac.h ****   * @}
 351:Drivers/STM32G4xx_HAL_Driver/Inc/stm32g4xx_ll_dac.h ****   */
 352:Drivers/STM32G4xx_HAL_Driver/Inc/stm32g4xx_ll_dac.h **** 
 353:Drivers/STM32G4xx_HAL_Driver/Inc/stm32g4xx_ll_dac.h **** /** @defgroup DAC_LL_EC_WAVE_AUTO_GENERATION_MODE DAC waveform automatic generation mode
 354:Drivers/STM32G4xx_HAL_Driver/Inc/stm32g4xx_ll_dac.h ****   * @{
 355:Drivers/STM32G4xx_HAL_Driver/Inc/stm32g4xx_ll_dac.h ****   */
 356:Drivers/STM32G4xx_HAL_Driver/Inc/stm32g4xx_ll_dac.h **** #define LL_DAC_WAVE_AUTO_GENERATION_NONE     0x00000000UL                    /*!< DAC channel wave 
 357:Drivers/STM32G4xx_HAL_Driver/Inc/stm32g4xx_ll_dac.h **** #define LL_DAC_WAVE_AUTO_GENERATION_NOISE    (               DAC_CR_WAVE1_0) /*!< DAC channel wave 
 358:Drivers/STM32G4xx_HAL_Driver/Inc/stm32g4xx_ll_dac.h **** #define LL_DAC_WAVE_AUTO_GENERATION_TRIANGLE (DAC_CR_WAVE1_1               ) /*!< DAC channel wave 
 359:Drivers/STM32G4xx_HAL_Driver/Inc/stm32g4xx_ll_dac.h **** #define LL_DAC_WAVE_AUTO_GENERATION_SAWTOOTH (DAC_CR_WAVE1_1|DAC_CR_WAVE1_0) /*!< DAC channel wave 
 360:Drivers/STM32G4xx_HAL_Driver/Inc/stm32g4xx_ll_dac.h **** /**
 361:Drivers/STM32G4xx_HAL_Driver/Inc/stm32g4xx_ll_dac.h ****   * @}
 362:Drivers/STM32G4xx_HAL_Driver/Inc/stm32g4xx_ll_dac.h ****   */
 363:Drivers/STM32G4xx_HAL_Driver/Inc/stm32g4xx_ll_dac.h **** 
 364:Drivers/STM32G4xx_HAL_Driver/Inc/stm32g4xx_ll_dac.h **** /** @defgroup DAC_LL_EC_WAVE_NOISE_LFSR_UNMASK_BITS DAC wave generation - Noise LFSR unmask bits
 365:Drivers/STM32G4xx_HAL_Driver/Inc/stm32g4xx_ll_dac.h ****   * @{
 366:Drivers/STM32G4xx_HAL_Driver/Inc/stm32g4xx_ll_dac.h ****   */
 367:Drivers/STM32G4xx_HAL_Driver/Inc/stm32g4xx_ll_dac.h **** #define LL_DAC_NOISE_LFSR_UNMASK_BIT0      0x00000000UL                                            
 368:Drivers/STM32G4xx_HAL_Driver/Inc/stm32g4xx_ll_dac.h **** #define LL_DAC_NOISE_LFSR_UNMASK_BITS1_0   (                                                   DAC_
 369:Drivers/STM32G4xx_HAL_Driver/Inc/stm32g4xx_ll_dac.h **** #define LL_DAC_NOISE_LFSR_UNMASK_BITS2_0   (                                  DAC_CR_MAMP1_1       
 370:Drivers/STM32G4xx_HAL_Driver/Inc/stm32g4xx_ll_dac.h **** #define LL_DAC_NOISE_LFSR_UNMASK_BITS3_0   (                                  DAC_CR_MAMP1_1 | DAC_
 371:Drivers/STM32G4xx_HAL_Driver/Inc/stm32g4xx_ll_dac.h **** #define LL_DAC_NOISE_LFSR_UNMASK_BITS4_0   (                 DAC_CR_MAMP1_2                        
 372:Drivers/STM32G4xx_HAL_Driver/Inc/stm32g4xx_ll_dac.h **** #define LL_DAC_NOISE_LFSR_UNMASK_BITS5_0   (                 DAC_CR_MAMP1_2                  | DAC_
 373:Drivers/STM32G4xx_HAL_Driver/Inc/stm32g4xx_ll_dac.h **** #define LL_DAC_NOISE_LFSR_UNMASK_BITS6_0   (                 DAC_CR_MAMP1_2 | DAC_CR_MAMP1_1       
 374:Drivers/STM32G4xx_HAL_Driver/Inc/stm32g4xx_ll_dac.h **** #define LL_DAC_NOISE_LFSR_UNMASK_BITS7_0   (                 DAC_CR_MAMP1_2 | DAC_CR_MAMP1_1 | DAC_
 375:Drivers/STM32G4xx_HAL_Driver/Inc/stm32g4xx_ll_dac.h **** #define LL_DAC_NOISE_LFSR_UNMASK_BITS8_0   (DAC_CR_MAMP1_3                                         
 376:Drivers/STM32G4xx_HAL_Driver/Inc/stm32g4xx_ll_dac.h **** #define LL_DAC_NOISE_LFSR_UNMASK_BITS9_0   (DAC_CR_MAMP1_3                                   | DAC_
 377:Drivers/STM32G4xx_HAL_Driver/Inc/stm32g4xx_ll_dac.h **** #define LL_DAC_NOISE_LFSR_UNMASK_BITS10_0  (DAC_CR_MAMP1_3                  | DAC_CR_MAMP1_1       
 378:Drivers/STM32G4xx_HAL_Driver/Inc/stm32g4xx_ll_dac.h **** #define LL_DAC_NOISE_LFSR_UNMASK_BITS11_0  (DAC_CR_MAMP1_3                  | DAC_CR_MAMP1_1 | DAC_
 379:Drivers/STM32G4xx_HAL_Driver/Inc/stm32g4xx_ll_dac.h **** /**
 380:Drivers/STM32G4xx_HAL_Driver/Inc/stm32g4xx_ll_dac.h ****   * @}
ARM GAS  D:\apps\VSCode\data\tmp\ccbuGfzv.s 			page 9


 381:Drivers/STM32G4xx_HAL_Driver/Inc/stm32g4xx_ll_dac.h ****   */
 382:Drivers/STM32G4xx_HAL_Driver/Inc/stm32g4xx_ll_dac.h **** 
 383:Drivers/STM32G4xx_HAL_Driver/Inc/stm32g4xx_ll_dac.h **** /** @defgroup DAC_LL_EC_WAVE_TRIANGLE_AMPLITUDE DAC wave generation - Triangle amplitude
 384:Drivers/STM32G4xx_HAL_Driver/Inc/stm32g4xx_ll_dac.h ****   * @{
 385:Drivers/STM32G4xx_HAL_Driver/Inc/stm32g4xx_ll_dac.h ****   */
 386:Drivers/STM32G4xx_HAL_Driver/Inc/stm32g4xx_ll_dac.h **** #define LL_DAC_TRIANGLE_AMPLITUDE_1        0x00000000UL                                            
 387:Drivers/STM32G4xx_HAL_Driver/Inc/stm32g4xx_ll_dac.h **** #define LL_DAC_TRIANGLE_AMPLITUDE_3        (                                                   DAC_
 388:Drivers/STM32G4xx_HAL_Driver/Inc/stm32g4xx_ll_dac.h **** #define LL_DAC_TRIANGLE_AMPLITUDE_7        (                                  DAC_CR_MAMP1_1       
 389:Drivers/STM32G4xx_HAL_Driver/Inc/stm32g4xx_ll_dac.h **** #define LL_DAC_TRIANGLE_AMPLITUDE_15       (                                  DAC_CR_MAMP1_1 | DAC_
 390:Drivers/STM32G4xx_HAL_Driver/Inc/stm32g4xx_ll_dac.h **** #define LL_DAC_TRIANGLE_AMPLITUDE_31       (                 DAC_CR_MAMP1_2                        
 391:Drivers/STM32G4xx_HAL_Driver/Inc/stm32g4xx_ll_dac.h **** #define LL_DAC_TRIANGLE_AMPLITUDE_63       (                 DAC_CR_MAMP1_2                  | DAC_
 392:Drivers/STM32G4xx_HAL_Driver/Inc/stm32g4xx_ll_dac.h **** #define LL_DAC_TRIANGLE_AMPLITUDE_127      (                 DAC_CR_MAMP1_2 | DAC_CR_MAMP1_1       
 393:Drivers/STM32G4xx_HAL_Driver/Inc/stm32g4xx_ll_dac.h **** #define LL_DAC_TRIANGLE_AMPLITUDE_255      (                 DAC_CR_MAMP1_2 | DAC_CR_MAMP1_1 | DAC_
 394:Drivers/STM32G4xx_HAL_Driver/Inc/stm32g4xx_ll_dac.h **** #define LL_DAC_TRIANGLE_AMPLITUDE_511      (DAC_CR_MAMP1_3                                         
 395:Drivers/STM32G4xx_HAL_Driver/Inc/stm32g4xx_ll_dac.h **** #define LL_DAC_TRIANGLE_AMPLITUDE_1023     (DAC_CR_MAMP1_3                                   | DAC_
 396:Drivers/STM32G4xx_HAL_Driver/Inc/stm32g4xx_ll_dac.h **** #define LL_DAC_TRIANGLE_AMPLITUDE_2047     (DAC_CR_MAMP1_3                  | DAC_CR_MAMP1_1       
 397:Drivers/STM32G4xx_HAL_Driver/Inc/stm32g4xx_ll_dac.h **** #define LL_DAC_TRIANGLE_AMPLITUDE_4095     (DAC_CR_MAMP1_3                  | DAC_CR_MAMP1_1 | DAC_
 398:Drivers/STM32G4xx_HAL_Driver/Inc/stm32g4xx_ll_dac.h **** /**
 399:Drivers/STM32G4xx_HAL_Driver/Inc/stm32g4xx_ll_dac.h ****   * @}
 400:Drivers/STM32G4xx_HAL_Driver/Inc/stm32g4xx_ll_dac.h ****   */
 401:Drivers/STM32G4xx_HAL_Driver/Inc/stm32g4xx_ll_dac.h **** 
 402:Drivers/STM32G4xx_HAL_Driver/Inc/stm32g4xx_ll_dac.h **** /** @defgroup DAC_LL_EC_SAWTOOTH_POLARITY_MODE DAC wave generation - Sawtooth polarity mode
 403:Drivers/STM32G4xx_HAL_Driver/Inc/stm32g4xx_ll_dac.h ****   * @{
 404:Drivers/STM32G4xx_HAL_Driver/Inc/stm32g4xx_ll_dac.h ****   */
 405:Drivers/STM32G4xx_HAL_Driver/Inc/stm32g4xx_ll_dac.h **** #define LL_DAC_SAWTOOTH_POLARITY_DECREMENT          0x00000000UL            /*!< Sawtooth wave gene
 406:Drivers/STM32G4xx_HAL_Driver/Inc/stm32g4xx_ll_dac.h **** #define LL_DAC_SAWTOOTH_POLARITY_INCREMENT          (DAC_STR1_STDIR1)       /*!< Sawtooth wave gene
 407:Drivers/STM32G4xx_HAL_Driver/Inc/stm32g4xx_ll_dac.h **** /**
 408:Drivers/STM32G4xx_HAL_Driver/Inc/stm32g4xx_ll_dac.h ****   * @}
 409:Drivers/STM32G4xx_HAL_Driver/Inc/stm32g4xx_ll_dac.h ****   */
 410:Drivers/STM32G4xx_HAL_Driver/Inc/stm32g4xx_ll_dac.h **** 
 411:Drivers/STM32G4xx_HAL_Driver/Inc/stm32g4xx_ll_dac.h **** /** @defgroup DAC_LL_EC_OUTPUT_MODE DAC channel output mode
 412:Drivers/STM32G4xx_HAL_Driver/Inc/stm32g4xx_ll_dac.h ****   * @{
 413:Drivers/STM32G4xx_HAL_Driver/Inc/stm32g4xx_ll_dac.h ****   */
 414:Drivers/STM32G4xx_HAL_Driver/Inc/stm32g4xx_ll_dac.h **** #define LL_DAC_OUTPUT_MODE_NORMAL          0x00000000UL            /*!< The selected DAC channel ou
 415:Drivers/STM32G4xx_HAL_Driver/Inc/stm32g4xx_ll_dac.h **** #define LL_DAC_OUTPUT_MODE_SAMPLE_AND_HOLD (DAC_MCR_MODE1_2)       /*!< The selected DAC channel ou
 416:Drivers/STM32G4xx_HAL_Driver/Inc/stm32g4xx_ll_dac.h **** /**
 417:Drivers/STM32G4xx_HAL_Driver/Inc/stm32g4xx_ll_dac.h ****   * @}
 418:Drivers/STM32G4xx_HAL_Driver/Inc/stm32g4xx_ll_dac.h ****   */
 419:Drivers/STM32G4xx_HAL_Driver/Inc/stm32g4xx_ll_dac.h **** 
 420:Drivers/STM32G4xx_HAL_Driver/Inc/stm32g4xx_ll_dac.h **** /** @defgroup DAC_LL_EC_OUTPUT_BUFFER DAC channel output buffer
 421:Drivers/STM32G4xx_HAL_Driver/Inc/stm32g4xx_ll_dac.h ****   * @{
 422:Drivers/STM32G4xx_HAL_Driver/Inc/stm32g4xx_ll_dac.h ****   */
 423:Drivers/STM32G4xx_HAL_Driver/Inc/stm32g4xx_ll_dac.h **** #define LL_DAC_OUTPUT_BUFFER_ENABLE        0x00000000UL            /*!< The selected DAC channel ou
 424:Drivers/STM32G4xx_HAL_Driver/Inc/stm32g4xx_ll_dac.h **** #define LL_DAC_OUTPUT_BUFFER_DISABLE       (DAC_MCR_MODE1_1)       /*!< The selected DAC channel ou
 425:Drivers/STM32G4xx_HAL_Driver/Inc/stm32g4xx_ll_dac.h **** /**
 426:Drivers/STM32G4xx_HAL_Driver/Inc/stm32g4xx_ll_dac.h ****   * @}
 427:Drivers/STM32G4xx_HAL_Driver/Inc/stm32g4xx_ll_dac.h ****   */
 428:Drivers/STM32G4xx_HAL_Driver/Inc/stm32g4xx_ll_dac.h **** 
 429:Drivers/STM32G4xx_HAL_Driver/Inc/stm32g4xx_ll_dac.h **** /** @defgroup DAC_LL_EC_OUTPUT_CONNECTION DAC channel output connection
 430:Drivers/STM32G4xx_HAL_Driver/Inc/stm32g4xx_ll_dac.h ****   * @{
 431:Drivers/STM32G4xx_HAL_Driver/Inc/stm32g4xx_ll_dac.h ****   */
 432:Drivers/STM32G4xx_HAL_Driver/Inc/stm32g4xx_ll_dac.h **** #define LL_DAC_OUTPUT_CONNECT_GPIO         0x00000000UL            /*!< The selected DAC channel ou
 433:Drivers/STM32G4xx_HAL_Driver/Inc/stm32g4xx_ll_dac.h **** #define LL_DAC_OUTPUT_CONNECT_INTERNAL     (DAC_MCR_MODE1_0)       /*!< The selected DAC channel ou
 434:Drivers/STM32G4xx_HAL_Driver/Inc/stm32g4xx_ll_dac.h **** /**
 435:Drivers/STM32G4xx_HAL_Driver/Inc/stm32g4xx_ll_dac.h ****   * @}
 436:Drivers/STM32G4xx_HAL_Driver/Inc/stm32g4xx_ll_dac.h ****   */
 437:Drivers/STM32G4xx_HAL_Driver/Inc/stm32g4xx_ll_dac.h **** 
ARM GAS  D:\apps\VSCode\data\tmp\ccbuGfzv.s 			page 10


 438:Drivers/STM32G4xx_HAL_Driver/Inc/stm32g4xx_ll_dac.h **** /** @defgroup DAC_LL_EC_SIGNED_FORMAT DAC channel signed format
 439:Drivers/STM32G4xx_HAL_Driver/Inc/stm32g4xx_ll_dac.h ****   * @{
 440:Drivers/STM32G4xx_HAL_Driver/Inc/stm32g4xx_ll_dac.h ****   */
 441:Drivers/STM32G4xx_HAL_Driver/Inc/stm32g4xx_ll_dac.h **** #define LL_DAC_SIGNED_FORMAT_DISABLE       0x00000000UL            /*!< The selected DAC channel da
 442:Drivers/STM32G4xx_HAL_Driver/Inc/stm32g4xx_ll_dac.h **** #define LL_DAC_SIGNED_FORMAT_ENABLE        (DAC_MCR_SINFORMAT1)    /*!< The selected DAC channel da
 443:Drivers/STM32G4xx_HAL_Driver/Inc/stm32g4xx_ll_dac.h **** /**
 444:Drivers/STM32G4xx_HAL_Driver/Inc/stm32g4xx_ll_dac.h ****   * @}
 445:Drivers/STM32G4xx_HAL_Driver/Inc/stm32g4xx_ll_dac.h ****   */
 446:Drivers/STM32G4xx_HAL_Driver/Inc/stm32g4xx_ll_dac.h **** 
 447:Drivers/STM32G4xx_HAL_Driver/Inc/stm32g4xx_ll_dac.h **** /** @defgroup DAC_LL_EC_RESOLUTION  DAC channel output resolution
 448:Drivers/STM32G4xx_HAL_Driver/Inc/stm32g4xx_ll_dac.h ****   * @{
 449:Drivers/STM32G4xx_HAL_Driver/Inc/stm32g4xx_ll_dac.h ****   */
 450:Drivers/STM32G4xx_HAL_Driver/Inc/stm32g4xx_ll_dac.h **** #define LL_DAC_RESOLUTION_12B              0x00000000UL            /*!< DAC channel resolution 12 b
 451:Drivers/STM32G4xx_HAL_Driver/Inc/stm32g4xx_ll_dac.h **** #define LL_DAC_RESOLUTION_8B               0x00000002UL            /*!< DAC channel resolution 8 bi
 452:Drivers/STM32G4xx_HAL_Driver/Inc/stm32g4xx_ll_dac.h **** /**
 453:Drivers/STM32G4xx_HAL_Driver/Inc/stm32g4xx_ll_dac.h ****   * @}
 454:Drivers/STM32G4xx_HAL_Driver/Inc/stm32g4xx_ll_dac.h ****   */
 455:Drivers/STM32G4xx_HAL_Driver/Inc/stm32g4xx_ll_dac.h **** 
 456:Drivers/STM32G4xx_HAL_Driver/Inc/stm32g4xx_ll_dac.h **** /** @defgroup DAC_LL_EC_REGISTERS  DAC registers compliant with specific purpose
 457:Drivers/STM32G4xx_HAL_Driver/Inc/stm32g4xx_ll_dac.h ****   * @{
 458:Drivers/STM32G4xx_HAL_Driver/Inc/stm32g4xx_ll_dac.h ****   */
 459:Drivers/STM32G4xx_HAL_Driver/Inc/stm32g4xx_ll_dac.h **** /* List of DAC registers intended to be used (most commonly) with             */
 460:Drivers/STM32G4xx_HAL_Driver/Inc/stm32g4xx_ll_dac.h **** /* DMA transfer.                                                              */
 461:Drivers/STM32G4xx_HAL_Driver/Inc/stm32g4xx_ll_dac.h **** /* Refer to function @ref LL_DAC_DMA_GetRegAddr().                            */
 462:Drivers/STM32G4xx_HAL_Driver/Inc/stm32g4xx_ll_dac.h **** #define LL_DAC_DMA_REG_DATA_12BITS_RIGHT_ALIGNED  DAC_REG_DHR12RX_REGOFFSET_BITOFFSET_POS /*!< DAC 
 463:Drivers/STM32G4xx_HAL_Driver/Inc/stm32g4xx_ll_dac.h **** #define LL_DAC_DMA_REG_DATA_12BITS_LEFT_ALIGNED   DAC_REG_DHR12LX_REGOFFSET_BITOFFSET_POS /*!< DAC 
 464:Drivers/STM32G4xx_HAL_Driver/Inc/stm32g4xx_ll_dac.h **** #define LL_DAC_DMA_REG_DATA_8BITS_RIGHT_ALIGNED   DAC_REG_DHR8RX_REGOFFSET_BITOFFSET_POS  /*!< DAC 
 465:Drivers/STM32G4xx_HAL_Driver/Inc/stm32g4xx_ll_dac.h **** /**
 466:Drivers/STM32G4xx_HAL_Driver/Inc/stm32g4xx_ll_dac.h ****   * @}
 467:Drivers/STM32G4xx_HAL_Driver/Inc/stm32g4xx_ll_dac.h ****   */
 468:Drivers/STM32G4xx_HAL_Driver/Inc/stm32g4xx_ll_dac.h **** 
 469:Drivers/STM32G4xx_HAL_Driver/Inc/stm32g4xx_ll_dac.h **** /** @defgroup DAC_LL_EC_HW_DELAYS  Definitions of DAC hardware constraints delays
 470:Drivers/STM32G4xx_HAL_Driver/Inc/stm32g4xx_ll_dac.h ****   * @note   Only DAC peripheral HW delays are defined in DAC LL driver driver,
 471:Drivers/STM32G4xx_HAL_Driver/Inc/stm32g4xx_ll_dac.h ****   *         not timeout values.
 472:Drivers/STM32G4xx_HAL_Driver/Inc/stm32g4xx_ll_dac.h ****   *         For details on delays values, refer to descriptions in source code
 473:Drivers/STM32G4xx_HAL_Driver/Inc/stm32g4xx_ll_dac.h ****   *         above each literal definition.
 474:Drivers/STM32G4xx_HAL_Driver/Inc/stm32g4xx_ll_dac.h ****   * @{
 475:Drivers/STM32G4xx_HAL_Driver/Inc/stm32g4xx_ll_dac.h ****   */
 476:Drivers/STM32G4xx_HAL_Driver/Inc/stm32g4xx_ll_dac.h **** 
 477:Drivers/STM32G4xx_HAL_Driver/Inc/stm32g4xx_ll_dac.h **** /* Delay for DAC channel voltage settling time from DAC channel startup       */
 478:Drivers/STM32G4xx_HAL_Driver/Inc/stm32g4xx_ll_dac.h **** /* (transition from disable to enable).                                       */
 479:Drivers/STM32G4xx_HAL_Driver/Inc/stm32g4xx_ll_dac.h **** /* Note: DAC channel startup time depends on board application environment:   */
 480:Drivers/STM32G4xx_HAL_Driver/Inc/stm32g4xx_ll_dac.h **** /*       impedance connected to DAC channel output.                           */
 481:Drivers/STM32G4xx_HAL_Driver/Inc/stm32g4xx_ll_dac.h **** /*       The delay below is specified under conditions:                       */
 482:Drivers/STM32G4xx_HAL_Driver/Inc/stm32g4xx_ll_dac.h **** /*        - voltage maximum transition (lowest to highest value)              */
 483:Drivers/STM32G4xx_HAL_Driver/Inc/stm32g4xx_ll_dac.h **** /*        - until voltage reaches final value +-1LSB                          */
 484:Drivers/STM32G4xx_HAL_Driver/Inc/stm32g4xx_ll_dac.h **** /*        - DAC channel output buffer enabled                                 */
 485:Drivers/STM32G4xx_HAL_Driver/Inc/stm32g4xx_ll_dac.h **** /*        - load impedance of 5kOhm (min), 50pF (max)                         */
 486:Drivers/STM32G4xx_HAL_Driver/Inc/stm32g4xx_ll_dac.h **** /* Literal set to maximum value (refer to device datasheet,                   */
 487:Drivers/STM32G4xx_HAL_Driver/Inc/stm32g4xx_ll_dac.h **** /* parameter "tWAKEUP").                                                      */
 488:Drivers/STM32G4xx_HAL_Driver/Inc/stm32g4xx_ll_dac.h **** /* Unit: us                                                                   */
 489:Drivers/STM32G4xx_HAL_Driver/Inc/stm32g4xx_ll_dac.h **** #define LL_DAC_DELAY_STARTUP_VOLTAGE_SETTLING_US             8UL  /*!< Delay for DAC channel voltag
 490:Drivers/STM32G4xx_HAL_Driver/Inc/stm32g4xx_ll_dac.h **** 
 491:Drivers/STM32G4xx_HAL_Driver/Inc/stm32g4xx_ll_dac.h **** /* Delay for DAC channel voltage settling time.                               */
 492:Drivers/STM32G4xx_HAL_Driver/Inc/stm32g4xx_ll_dac.h **** /* Note: DAC channel startup time depends on board application environment:   */
 493:Drivers/STM32G4xx_HAL_Driver/Inc/stm32g4xx_ll_dac.h **** /*       impedance connected to DAC channel output.                           */
 494:Drivers/STM32G4xx_HAL_Driver/Inc/stm32g4xx_ll_dac.h **** /*       The delay below is specified under conditions:                       */
ARM GAS  D:\apps\VSCode\data\tmp\ccbuGfzv.s 			page 11


 495:Drivers/STM32G4xx_HAL_Driver/Inc/stm32g4xx_ll_dac.h **** /*        - voltage maximum transition (lowest to highest value)              */
 496:Drivers/STM32G4xx_HAL_Driver/Inc/stm32g4xx_ll_dac.h **** /*        - until voltage reaches final value +-1LSB                          */
 497:Drivers/STM32G4xx_HAL_Driver/Inc/stm32g4xx_ll_dac.h **** /*        - DAC channel output buffer enabled                                 */
 498:Drivers/STM32G4xx_HAL_Driver/Inc/stm32g4xx_ll_dac.h **** /*        - load impedance of 5kOhm min, 50pF max                             */
 499:Drivers/STM32G4xx_HAL_Driver/Inc/stm32g4xx_ll_dac.h **** /* Literal set to maximum value (refer to device datasheet,                   */
 500:Drivers/STM32G4xx_HAL_Driver/Inc/stm32g4xx_ll_dac.h **** /* parameter "tSETTLING").                                                    */
 501:Drivers/STM32G4xx_HAL_Driver/Inc/stm32g4xx_ll_dac.h **** /* Unit: us                                                                   */
 502:Drivers/STM32G4xx_HAL_Driver/Inc/stm32g4xx_ll_dac.h **** #define LL_DAC_DELAY_VOLTAGE_SETTLING_US                     3UL /*!< Delay for DAC channel voltage
 503:Drivers/STM32G4xx_HAL_Driver/Inc/stm32g4xx_ll_dac.h **** 
 504:Drivers/STM32G4xx_HAL_Driver/Inc/stm32g4xx_ll_dac.h **** /**
 505:Drivers/STM32G4xx_HAL_Driver/Inc/stm32g4xx_ll_dac.h ****   * @}
 506:Drivers/STM32G4xx_HAL_Driver/Inc/stm32g4xx_ll_dac.h ****   */
 507:Drivers/STM32G4xx_HAL_Driver/Inc/stm32g4xx_ll_dac.h **** 
 508:Drivers/STM32G4xx_HAL_Driver/Inc/stm32g4xx_ll_dac.h **** /**
 509:Drivers/STM32G4xx_HAL_Driver/Inc/stm32g4xx_ll_dac.h ****   * @}
 510:Drivers/STM32G4xx_HAL_Driver/Inc/stm32g4xx_ll_dac.h ****   */
 511:Drivers/STM32G4xx_HAL_Driver/Inc/stm32g4xx_ll_dac.h **** 
 512:Drivers/STM32G4xx_HAL_Driver/Inc/stm32g4xx_ll_dac.h **** /* Exported macro ------------------------------------------------------------*/
 513:Drivers/STM32G4xx_HAL_Driver/Inc/stm32g4xx_ll_dac.h **** /** @defgroup DAC_LL_Exported_Macros DAC Exported Macros
 514:Drivers/STM32G4xx_HAL_Driver/Inc/stm32g4xx_ll_dac.h ****   * @{
 515:Drivers/STM32G4xx_HAL_Driver/Inc/stm32g4xx_ll_dac.h ****   */
 516:Drivers/STM32G4xx_HAL_Driver/Inc/stm32g4xx_ll_dac.h **** 
 517:Drivers/STM32G4xx_HAL_Driver/Inc/stm32g4xx_ll_dac.h **** /** @defgroup DAC_LL_EM_WRITE_READ Common write and read registers macros
 518:Drivers/STM32G4xx_HAL_Driver/Inc/stm32g4xx_ll_dac.h ****   * @{
 519:Drivers/STM32G4xx_HAL_Driver/Inc/stm32g4xx_ll_dac.h ****   */
 520:Drivers/STM32G4xx_HAL_Driver/Inc/stm32g4xx_ll_dac.h **** 
 521:Drivers/STM32G4xx_HAL_Driver/Inc/stm32g4xx_ll_dac.h **** /**
 522:Drivers/STM32G4xx_HAL_Driver/Inc/stm32g4xx_ll_dac.h ****   * @brief  Write a value in DAC register
 523:Drivers/STM32G4xx_HAL_Driver/Inc/stm32g4xx_ll_dac.h ****   * @param  __INSTANCE__ DAC Instance
 524:Drivers/STM32G4xx_HAL_Driver/Inc/stm32g4xx_ll_dac.h ****   * @param  __REG__ Register to be written
 525:Drivers/STM32G4xx_HAL_Driver/Inc/stm32g4xx_ll_dac.h ****   * @param  __VALUE__ Value to be written in the register
 526:Drivers/STM32G4xx_HAL_Driver/Inc/stm32g4xx_ll_dac.h ****   * @retval None
 527:Drivers/STM32G4xx_HAL_Driver/Inc/stm32g4xx_ll_dac.h ****   */
 528:Drivers/STM32G4xx_HAL_Driver/Inc/stm32g4xx_ll_dac.h **** #define LL_DAC_WriteReg(__INSTANCE__, __REG__, __VALUE__) WRITE_REG(__INSTANCE__->__REG__, (__VALUE
 529:Drivers/STM32G4xx_HAL_Driver/Inc/stm32g4xx_ll_dac.h **** 
 530:Drivers/STM32G4xx_HAL_Driver/Inc/stm32g4xx_ll_dac.h **** /**
 531:Drivers/STM32G4xx_HAL_Driver/Inc/stm32g4xx_ll_dac.h ****   * @brief  Read a value in DAC register
 532:Drivers/STM32G4xx_HAL_Driver/Inc/stm32g4xx_ll_dac.h ****   * @param  __INSTANCE__ DAC Instance
 533:Drivers/STM32G4xx_HAL_Driver/Inc/stm32g4xx_ll_dac.h ****   * @param  __REG__ Register to be read
 534:Drivers/STM32G4xx_HAL_Driver/Inc/stm32g4xx_ll_dac.h ****   * @retval Register value
 535:Drivers/STM32G4xx_HAL_Driver/Inc/stm32g4xx_ll_dac.h ****   */
 536:Drivers/STM32G4xx_HAL_Driver/Inc/stm32g4xx_ll_dac.h **** #define LL_DAC_ReadReg(__INSTANCE__, __REG__) READ_REG(__INSTANCE__->__REG__)
 537:Drivers/STM32G4xx_HAL_Driver/Inc/stm32g4xx_ll_dac.h **** 
 538:Drivers/STM32G4xx_HAL_Driver/Inc/stm32g4xx_ll_dac.h **** /**
 539:Drivers/STM32G4xx_HAL_Driver/Inc/stm32g4xx_ll_dac.h ****   * @}
 540:Drivers/STM32G4xx_HAL_Driver/Inc/stm32g4xx_ll_dac.h ****   */
 541:Drivers/STM32G4xx_HAL_Driver/Inc/stm32g4xx_ll_dac.h **** 
 542:Drivers/STM32G4xx_HAL_Driver/Inc/stm32g4xx_ll_dac.h **** /** @defgroup DAC_LL_EM_HELPER_MACRO DAC helper macro
 543:Drivers/STM32G4xx_HAL_Driver/Inc/stm32g4xx_ll_dac.h ****   * @{
 544:Drivers/STM32G4xx_HAL_Driver/Inc/stm32g4xx_ll_dac.h ****   */
 545:Drivers/STM32G4xx_HAL_Driver/Inc/stm32g4xx_ll_dac.h **** 
 546:Drivers/STM32G4xx_HAL_Driver/Inc/stm32g4xx_ll_dac.h **** /**
 547:Drivers/STM32G4xx_HAL_Driver/Inc/stm32g4xx_ll_dac.h ****   * @brief  Helper macro to get DAC channel number in decimal format
 548:Drivers/STM32G4xx_HAL_Driver/Inc/stm32g4xx_ll_dac.h ****   *         from literals LL_DAC_CHANNEL_x.
 549:Drivers/STM32G4xx_HAL_Driver/Inc/stm32g4xx_ll_dac.h ****   *         Example:
 550:Drivers/STM32G4xx_HAL_Driver/Inc/stm32g4xx_ll_dac.h ****   *            __LL_DAC_CHANNEL_TO_DECIMAL_NB(LL_DAC_CHANNEL_1)
 551:Drivers/STM32G4xx_HAL_Driver/Inc/stm32g4xx_ll_dac.h ****   *            will return decimal number "1".
ARM GAS  D:\apps\VSCode\data\tmp\ccbuGfzv.s 			page 12


 552:Drivers/STM32G4xx_HAL_Driver/Inc/stm32g4xx_ll_dac.h ****   * @note   The input can be a value from functions where a channel
 553:Drivers/STM32G4xx_HAL_Driver/Inc/stm32g4xx_ll_dac.h ****   *         number is returned.
 554:Drivers/STM32G4xx_HAL_Driver/Inc/stm32g4xx_ll_dac.h ****   * @param  __CHANNEL__ This parameter can be one of the following values:
 555:Drivers/STM32G4xx_HAL_Driver/Inc/stm32g4xx_ll_dac.h ****   *         @arg @ref LL_DAC_CHANNEL_1
 556:Drivers/STM32G4xx_HAL_Driver/Inc/stm32g4xx_ll_dac.h ****   *         @arg @ref LL_DAC_CHANNEL_2 (1)
 557:Drivers/STM32G4xx_HAL_Driver/Inc/stm32g4xx_ll_dac.h ****   *
 558:Drivers/STM32G4xx_HAL_Driver/Inc/stm32g4xx_ll_dac.h ****   *         (1) On this STM32 series, parameter not available on all instances.
 559:Drivers/STM32G4xx_HAL_Driver/Inc/stm32g4xx_ll_dac.h ****   *             Refer to device datasheet for channels availability.
 560:Drivers/STM32G4xx_HAL_Driver/Inc/stm32g4xx_ll_dac.h ****   * @retval 1...2
 561:Drivers/STM32G4xx_HAL_Driver/Inc/stm32g4xx_ll_dac.h ****   */
 562:Drivers/STM32G4xx_HAL_Driver/Inc/stm32g4xx_ll_dac.h **** #define __LL_DAC_CHANNEL_TO_DECIMAL_NB(__CHANNEL__)                            \
 563:Drivers/STM32G4xx_HAL_Driver/Inc/stm32g4xx_ll_dac.h ****   ((__CHANNEL__) & DAC_SWTR_CHX_MASK)
 564:Drivers/STM32G4xx_HAL_Driver/Inc/stm32g4xx_ll_dac.h **** 
 565:Drivers/STM32G4xx_HAL_Driver/Inc/stm32g4xx_ll_dac.h **** /**
 566:Drivers/STM32G4xx_HAL_Driver/Inc/stm32g4xx_ll_dac.h ****   * @brief  Helper macro to get DAC channel in literal format LL_DAC_CHANNEL_x
 567:Drivers/STM32G4xx_HAL_Driver/Inc/stm32g4xx_ll_dac.h ****   *         from number in decimal format.
 568:Drivers/STM32G4xx_HAL_Driver/Inc/stm32g4xx_ll_dac.h ****   *         Example:
 569:Drivers/STM32G4xx_HAL_Driver/Inc/stm32g4xx_ll_dac.h ****   *           __LL_DAC_DECIMAL_NB_TO_CHANNEL(1)
 570:Drivers/STM32G4xx_HAL_Driver/Inc/stm32g4xx_ll_dac.h ****   *           will return a data equivalent to "LL_DAC_CHANNEL_1".
 571:Drivers/STM32G4xx_HAL_Driver/Inc/stm32g4xx_ll_dac.h ****   * @note  If the input parameter does not correspond to a DAC channel,
 572:Drivers/STM32G4xx_HAL_Driver/Inc/stm32g4xx_ll_dac.h ****   *        this macro returns value '0'.
 573:Drivers/STM32G4xx_HAL_Driver/Inc/stm32g4xx_ll_dac.h ****   * @param  __DECIMAL_NB__ 1...2
 574:Drivers/STM32G4xx_HAL_Driver/Inc/stm32g4xx_ll_dac.h ****   * @retval Returned value can be one of the following values:
 575:Drivers/STM32G4xx_HAL_Driver/Inc/stm32g4xx_ll_dac.h ****   *         @arg @ref LL_DAC_CHANNEL_1
 576:Drivers/STM32G4xx_HAL_Driver/Inc/stm32g4xx_ll_dac.h ****   *         @arg @ref LL_DAC_CHANNEL_2 (1)
 577:Drivers/STM32G4xx_HAL_Driver/Inc/stm32g4xx_ll_dac.h ****   *
 578:Drivers/STM32G4xx_HAL_Driver/Inc/stm32g4xx_ll_dac.h ****   *         (1) On this STM32 series, parameter not available on all instances.
 579:Drivers/STM32G4xx_HAL_Driver/Inc/stm32g4xx_ll_dac.h ****   *             Refer to device datasheet for channels availability.
 580:Drivers/STM32G4xx_HAL_Driver/Inc/stm32g4xx_ll_dac.h ****   */
 581:Drivers/STM32G4xx_HAL_Driver/Inc/stm32g4xx_ll_dac.h **** #define __LL_DAC_DECIMAL_NB_TO_CHANNEL(__DECIMAL_NB__)\
 582:Drivers/STM32G4xx_HAL_Driver/Inc/stm32g4xx_ll_dac.h ****   (((__DECIMAL_NB__) == 1UL)? (LL_DAC_CHANNEL_1  ):(((__DECIMAL_NB__) == 2UL) ? ( LL_DAC_CHANNEL_2)
 583:Drivers/STM32G4xx_HAL_Driver/Inc/stm32g4xx_ll_dac.h **** 
 584:Drivers/STM32G4xx_HAL_Driver/Inc/stm32g4xx_ll_dac.h **** /**
 585:Drivers/STM32G4xx_HAL_Driver/Inc/stm32g4xx_ll_dac.h ****   * @brief  Helper macro to define the DAC conversion data full-scale digital
 586:Drivers/STM32G4xx_HAL_Driver/Inc/stm32g4xx_ll_dac.h ****   *         value corresponding to the selected DAC resolution.
 587:Drivers/STM32G4xx_HAL_Driver/Inc/stm32g4xx_ll_dac.h ****   * @note   DAC conversion data full-scale corresponds to voltage range
 588:Drivers/STM32G4xx_HAL_Driver/Inc/stm32g4xx_ll_dac.h ****   *         determined by analog voltage references Vref+ and Vref-
 589:Drivers/STM32G4xx_HAL_Driver/Inc/stm32g4xx_ll_dac.h ****   *         (refer to reference manual).
 590:Drivers/STM32G4xx_HAL_Driver/Inc/stm32g4xx_ll_dac.h ****   * @param  __DAC_RESOLUTION__ This parameter can be one of the following values:
 591:Drivers/STM32G4xx_HAL_Driver/Inc/stm32g4xx_ll_dac.h ****   *         @arg @ref LL_DAC_RESOLUTION_12B
 592:Drivers/STM32G4xx_HAL_Driver/Inc/stm32g4xx_ll_dac.h ****   *         @arg @ref LL_DAC_RESOLUTION_8B
 593:Drivers/STM32G4xx_HAL_Driver/Inc/stm32g4xx_ll_dac.h ****   * @retval ADC conversion data equivalent voltage value (unit: mVolt)
 594:Drivers/STM32G4xx_HAL_Driver/Inc/stm32g4xx_ll_dac.h ****   */
 595:Drivers/STM32G4xx_HAL_Driver/Inc/stm32g4xx_ll_dac.h **** #define __LL_DAC_DIGITAL_SCALE(__DAC_RESOLUTION__)                             \
 596:Drivers/STM32G4xx_HAL_Driver/Inc/stm32g4xx_ll_dac.h ****   ((0x00000FFFUL) >> ((__DAC_RESOLUTION__) << 1UL))
 597:Drivers/STM32G4xx_HAL_Driver/Inc/stm32g4xx_ll_dac.h **** 
 598:Drivers/STM32G4xx_HAL_Driver/Inc/stm32g4xx_ll_dac.h **** /**
 599:Drivers/STM32G4xx_HAL_Driver/Inc/stm32g4xx_ll_dac.h ****   * @brief  Helper macro to calculate the DAC conversion data (unit: digital
 600:Drivers/STM32G4xx_HAL_Driver/Inc/stm32g4xx_ll_dac.h ****   *         value) corresponding to a voltage (unit: mVolt).
 601:Drivers/STM32G4xx_HAL_Driver/Inc/stm32g4xx_ll_dac.h ****   * @note   This helper macro is intended to provide input data in voltage
 602:Drivers/STM32G4xx_HAL_Driver/Inc/stm32g4xx_ll_dac.h ****   *         rather than digital value,
 603:Drivers/STM32G4xx_HAL_Driver/Inc/stm32g4xx_ll_dac.h ****   *         to be used with LL DAC functions such as
 604:Drivers/STM32G4xx_HAL_Driver/Inc/stm32g4xx_ll_dac.h ****   *         @ref LL_DAC_ConvertData12RightAligned().
 605:Drivers/STM32G4xx_HAL_Driver/Inc/stm32g4xx_ll_dac.h ****   * @note   Analog reference voltage (Vref+) must be either known from
 606:Drivers/STM32G4xx_HAL_Driver/Inc/stm32g4xx_ll_dac.h ****   *         user board environment or can be calculated using ADC measurement
 607:Drivers/STM32G4xx_HAL_Driver/Inc/stm32g4xx_ll_dac.h ****   *         and ADC helper macro __LL_ADC_CALC_VREFANALOG_VOLTAGE().
 608:Drivers/STM32G4xx_HAL_Driver/Inc/stm32g4xx_ll_dac.h ****   * @param  __VREFANALOG_VOLTAGE__ Analog reference voltage (unit: mV)
ARM GAS  D:\apps\VSCode\data\tmp\ccbuGfzv.s 			page 13


 609:Drivers/STM32G4xx_HAL_Driver/Inc/stm32g4xx_ll_dac.h ****   * @param  __DAC_VOLTAGE__ Voltage to be generated by DAC channel
 610:Drivers/STM32G4xx_HAL_Driver/Inc/stm32g4xx_ll_dac.h ****   *                         (unit: mVolt).
 611:Drivers/STM32G4xx_HAL_Driver/Inc/stm32g4xx_ll_dac.h ****   * @param  __DAC_RESOLUTION__ This parameter can be one of the following values:
 612:Drivers/STM32G4xx_HAL_Driver/Inc/stm32g4xx_ll_dac.h ****   *         @arg @ref LL_DAC_RESOLUTION_12B
 613:Drivers/STM32G4xx_HAL_Driver/Inc/stm32g4xx_ll_dac.h ****   *         @arg @ref LL_DAC_RESOLUTION_8B
 614:Drivers/STM32G4xx_HAL_Driver/Inc/stm32g4xx_ll_dac.h ****   * @retval DAC conversion data (unit: digital value)
 615:Drivers/STM32G4xx_HAL_Driver/Inc/stm32g4xx_ll_dac.h ****   */
 616:Drivers/STM32G4xx_HAL_Driver/Inc/stm32g4xx_ll_dac.h **** #define __LL_DAC_CALC_VOLTAGE_TO_DATA(__VREFANALOG_VOLTAGE__,\
 617:Drivers/STM32G4xx_HAL_Driver/Inc/stm32g4xx_ll_dac.h ****                                       __DAC_VOLTAGE__,\
 618:Drivers/STM32G4xx_HAL_Driver/Inc/stm32g4xx_ll_dac.h ****                                       __DAC_RESOLUTION__)                      \
 619:Drivers/STM32G4xx_HAL_Driver/Inc/stm32g4xx_ll_dac.h **** ((__DAC_VOLTAGE__) * __LL_DAC_DIGITAL_SCALE(__DAC_RESOLUTION__)              \
 620:Drivers/STM32G4xx_HAL_Driver/Inc/stm32g4xx_ll_dac.h ****  / (__VREFANALOG_VOLTAGE__)                                                  \
 621:Drivers/STM32G4xx_HAL_Driver/Inc/stm32g4xx_ll_dac.h **** )
 622:Drivers/STM32G4xx_HAL_Driver/Inc/stm32g4xx_ll_dac.h **** 
 623:Drivers/STM32G4xx_HAL_Driver/Inc/stm32g4xx_ll_dac.h **** /**
 624:Drivers/STM32G4xx_HAL_Driver/Inc/stm32g4xx_ll_dac.h ****   * @brief  Helper macro to format sawtooth wave generation configuration
 625:Drivers/STM32G4xx_HAL_Driver/Inc/stm32g4xx_ll_dac.h ****   *         value to be filled into WaveAutoGenerationConfig  parameter of @ref LL_DAC_InitTypeDef.
 626:Drivers/STM32G4xx_HAL_Driver/Inc/stm32g4xx_ll_dac.h ****   * @note   This helper will format information to fit in DAC_STRx register.
 627:Drivers/STM32G4xx_HAL_Driver/Inc/stm32g4xx_ll_dac.h ****   * @param  __POLARITY__ sawtooth wave polarity (must be value of @ref DAC_LL_EC_SAWTOOTH_POLARITY_
 628:Drivers/STM32G4xx_HAL_Driver/Inc/stm32g4xx_ll_dac.h ****   * @param  __RESET_DATA__ sawtooth reset data.
 629:Drivers/STM32G4xx_HAL_Driver/Inc/stm32g4xx_ll_dac.h ****   * @param  __STEP_DATA__ sawtooth step data
 630:Drivers/STM32G4xx_HAL_Driver/Inc/stm32g4xx_ll_dac.h ****   * @retval Sawtooth configuration organized in DAC_STRx compatible format.
 631:Drivers/STM32G4xx_HAL_Driver/Inc/stm32g4xx_ll_dac.h ****   */
 632:Drivers/STM32G4xx_HAL_Driver/Inc/stm32g4xx_ll_dac.h **** #define __LL_DAC_FORMAT_SAWTOOTHWAVECONFIG(__POLARITY__,\
 633:Drivers/STM32G4xx_HAL_Driver/Inc/stm32g4xx_ll_dac.h ****                                            __RESET_DATA__,\
 634:Drivers/STM32G4xx_HAL_Driver/Inc/stm32g4xx_ll_dac.h ****                                            __STEP_DATA__)                        \
 635:Drivers/STM32G4xx_HAL_Driver/Inc/stm32g4xx_ll_dac.h **** ( (((__STEP_DATA__) << DAC_STR1_STINCDATA1_Pos) & DAC_STR1_STINCDATA1_Msk)     \
 636:Drivers/STM32G4xx_HAL_Driver/Inc/stm32g4xx_ll_dac.h ****   | ((__POLARITY__) & DAC_STR1_STDIR1_Msk)                                    \
 637:Drivers/STM32G4xx_HAL_Driver/Inc/stm32g4xx_ll_dac.h ****   | (((__RESET_DATA__) << DAC_STR1_STRSTDATA1_Pos) & DAC_STR1_STRSTDATA1_Msk) \
 638:Drivers/STM32G4xx_HAL_Driver/Inc/stm32g4xx_ll_dac.h **** )
 639:Drivers/STM32G4xx_HAL_Driver/Inc/stm32g4xx_ll_dac.h **** 
 640:Drivers/STM32G4xx_HAL_Driver/Inc/stm32g4xx_ll_dac.h **** /**
 641:Drivers/STM32G4xx_HAL_Driver/Inc/stm32g4xx_ll_dac.h ****   * @}
 642:Drivers/STM32G4xx_HAL_Driver/Inc/stm32g4xx_ll_dac.h ****   */
 643:Drivers/STM32G4xx_HAL_Driver/Inc/stm32g4xx_ll_dac.h **** 
 644:Drivers/STM32G4xx_HAL_Driver/Inc/stm32g4xx_ll_dac.h **** /**
 645:Drivers/STM32G4xx_HAL_Driver/Inc/stm32g4xx_ll_dac.h ****   * @}
 646:Drivers/STM32G4xx_HAL_Driver/Inc/stm32g4xx_ll_dac.h ****   */
 647:Drivers/STM32G4xx_HAL_Driver/Inc/stm32g4xx_ll_dac.h **** 
 648:Drivers/STM32G4xx_HAL_Driver/Inc/stm32g4xx_ll_dac.h **** 
 649:Drivers/STM32G4xx_HAL_Driver/Inc/stm32g4xx_ll_dac.h **** /* Exported functions --------------------------------------------------------*/
 650:Drivers/STM32G4xx_HAL_Driver/Inc/stm32g4xx_ll_dac.h **** /** @defgroup DAC_LL_Exported_Functions DAC Exported Functions
 651:Drivers/STM32G4xx_HAL_Driver/Inc/stm32g4xx_ll_dac.h ****   * @{
 652:Drivers/STM32G4xx_HAL_Driver/Inc/stm32g4xx_ll_dac.h ****   */
 653:Drivers/STM32G4xx_HAL_Driver/Inc/stm32g4xx_ll_dac.h **** /** @defgroup DAC_LL_EF_Channel_Configuration Configuration of DAC instance
 654:Drivers/STM32G4xx_HAL_Driver/Inc/stm32g4xx_ll_dac.h ****   * @{
 655:Drivers/STM32G4xx_HAL_Driver/Inc/stm32g4xx_ll_dac.h ****   */
 656:Drivers/STM32G4xx_HAL_Driver/Inc/stm32g4xx_ll_dac.h **** /**
 657:Drivers/STM32G4xx_HAL_Driver/Inc/stm32g4xx_ll_dac.h ****   * @brief  Set the high frequency interface mode for the selected DAC instance
 658:Drivers/STM32G4xx_HAL_Driver/Inc/stm32g4xx_ll_dac.h ****   * @rmtoll MCR      HFSEL          LL_DAC_SetHighFrequencyMode
 659:Drivers/STM32G4xx_HAL_Driver/Inc/stm32g4xx_ll_dac.h ****   * @param  DACx DAC instance
 660:Drivers/STM32G4xx_HAL_Driver/Inc/stm32g4xx_ll_dac.h ****   * @param  HighFreqMode This parameter can be one of the following values:
 661:Drivers/STM32G4xx_HAL_Driver/Inc/stm32g4xx_ll_dac.h ****   *         @arg @ref LL_DAC_HIGH_FREQ_MODE_DISABLE
 662:Drivers/STM32G4xx_HAL_Driver/Inc/stm32g4xx_ll_dac.h ****   *         @arg @ref LL_DAC_HIGH_FREQ_MODE_ABOVE_80MHZ
 663:Drivers/STM32G4xx_HAL_Driver/Inc/stm32g4xx_ll_dac.h ****   *         @arg @ref LL_DAC_HIGH_FREQ_MODE_ABOVE_160MHZ
 664:Drivers/STM32G4xx_HAL_Driver/Inc/stm32g4xx_ll_dac.h ****   * @retval None
 665:Drivers/STM32G4xx_HAL_Driver/Inc/stm32g4xx_ll_dac.h ****   */
ARM GAS  D:\apps\VSCode\data\tmp\ccbuGfzv.s 			page 14


 666:Drivers/STM32G4xx_HAL_Driver/Inc/stm32g4xx_ll_dac.h **** __STATIC_INLINE void LL_DAC_SetHighFrequencyMode(DAC_TypeDef *DACx, uint32_t HighFreqMode)
 667:Drivers/STM32G4xx_HAL_Driver/Inc/stm32g4xx_ll_dac.h **** {
 668:Drivers/STM32G4xx_HAL_Driver/Inc/stm32g4xx_ll_dac.h ****   MODIFY_REG(DACx->MCR, DAC_MCR_HFSEL, HighFreqMode);
 669:Drivers/STM32G4xx_HAL_Driver/Inc/stm32g4xx_ll_dac.h **** }
 670:Drivers/STM32G4xx_HAL_Driver/Inc/stm32g4xx_ll_dac.h **** 
 671:Drivers/STM32G4xx_HAL_Driver/Inc/stm32g4xx_ll_dac.h **** /**
 672:Drivers/STM32G4xx_HAL_Driver/Inc/stm32g4xx_ll_dac.h ****   * @brief  Get the high frequency interface mode for the selected DAC instance
 673:Drivers/STM32G4xx_HAL_Driver/Inc/stm32g4xx_ll_dac.h ****   * @rmtoll MCR      HFSEL          LL_DAC_GetHighFrequencyMode
 674:Drivers/STM32G4xx_HAL_Driver/Inc/stm32g4xx_ll_dac.h ****   * @param  DACx DAC instance
 675:Drivers/STM32G4xx_HAL_Driver/Inc/stm32g4xx_ll_dac.h ****   * @retval Returned value can be one of the following values:
 676:Drivers/STM32G4xx_HAL_Driver/Inc/stm32g4xx_ll_dac.h ****   *         @arg @ref LL_DAC_HIGH_FREQ_MODE_DISABLE
 677:Drivers/STM32G4xx_HAL_Driver/Inc/stm32g4xx_ll_dac.h ****   *         @arg @ref LL_DAC_HIGH_FREQ_MODE_ABOVE_80MHZ
 678:Drivers/STM32G4xx_HAL_Driver/Inc/stm32g4xx_ll_dac.h ****   *         @arg @ref LL_DAC_HIGH_FREQ_MODE_ABOVE_160MHZ
 679:Drivers/STM32G4xx_HAL_Driver/Inc/stm32g4xx_ll_dac.h ****   */
 680:Drivers/STM32G4xx_HAL_Driver/Inc/stm32g4xx_ll_dac.h **** __STATIC_INLINE uint32_t LL_DAC_GetHighFrequencyMode(DAC_TypeDef *DACx)
 681:Drivers/STM32G4xx_HAL_Driver/Inc/stm32g4xx_ll_dac.h **** {
 682:Drivers/STM32G4xx_HAL_Driver/Inc/stm32g4xx_ll_dac.h ****   return (uint32_t)(READ_BIT(DACx->MCR, DAC_MCR_HFSEL));
 683:Drivers/STM32G4xx_HAL_Driver/Inc/stm32g4xx_ll_dac.h **** }
 684:Drivers/STM32G4xx_HAL_Driver/Inc/stm32g4xx_ll_dac.h **** /**
 685:Drivers/STM32G4xx_HAL_Driver/Inc/stm32g4xx_ll_dac.h ****   * @}
 686:Drivers/STM32G4xx_HAL_Driver/Inc/stm32g4xx_ll_dac.h ****   */
 687:Drivers/STM32G4xx_HAL_Driver/Inc/stm32g4xx_ll_dac.h **** 
 688:Drivers/STM32G4xx_HAL_Driver/Inc/stm32g4xx_ll_dac.h **** /** @defgroup DAC_LL_EF_Configuration Configuration of DAC channels
 689:Drivers/STM32G4xx_HAL_Driver/Inc/stm32g4xx_ll_dac.h ****   * @{
 690:Drivers/STM32G4xx_HAL_Driver/Inc/stm32g4xx_ll_dac.h ****   */
 691:Drivers/STM32G4xx_HAL_Driver/Inc/stm32g4xx_ll_dac.h **** 
 692:Drivers/STM32G4xx_HAL_Driver/Inc/stm32g4xx_ll_dac.h **** /**
 693:Drivers/STM32G4xx_HAL_Driver/Inc/stm32g4xx_ll_dac.h ****   * @brief  Set the operating mode for the selected DAC channel:
 694:Drivers/STM32G4xx_HAL_Driver/Inc/stm32g4xx_ll_dac.h ****   *         calibration or normal operating mode.
 695:Drivers/STM32G4xx_HAL_Driver/Inc/stm32g4xx_ll_dac.h ****   * @rmtoll CR       CEN1           LL_DAC_SetMode\n
 696:Drivers/STM32G4xx_HAL_Driver/Inc/stm32g4xx_ll_dac.h ****   *         CR       CEN2           LL_DAC_SetMode
 697:Drivers/STM32G4xx_HAL_Driver/Inc/stm32g4xx_ll_dac.h ****   * @param  DACx DAC instance
 698:Drivers/STM32G4xx_HAL_Driver/Inc/stm32g4xx_ll_dac.h ****   * @param  DAC_Channel This parameter can be one of the following values:
 699:Drivers/STM32G4xx_HAL_Driver/Inc/stm32g4xx_ll_dac.h ****   *         @arg @ref LL_DAC_CHANNEL_1
 700:Drivers/STM32G4xx_HAL_Driver/Inc/stm32g4xx_ll_dac.h ****   *         @arg @ref LL_DAC_CHANNEL_2 (1)
 701:Drivers/STM32G4xx_HAL_Driver/Inc/stm32g4xx_ll_dac.h ****   *
 702:Drivers/STM32G4xx_HAL_Driver/Inc/stm32g4xx_ll_dac.h ****   *         (1) On this STM32 series, parameter not available on all instances.
 703:Drivers/STM32G4xx_HAL_Driver/Inc/stm32g4xx_ll_dac.h ****   *             Refer to device datasheet for channels availability.
 704:Drivers/STM32G4xx_HAL_Driver/Inc/stm32g4xx_ll_dac.h ****   * @param  ChannelMode This parameter can be one of the following values:
 705:Drivers/STM32G4xx_HAL_Driver/Inc/stm32g4xx_ll_dac.h ****   *         @arg @ref LL_DAC_MODE_NORMAL_OPERATION
 706:Drivers/STM32G4xx_HAL_Driver/Inc/stm32g4xx_ll_dac.h ****   *         @arg @ref LL_DAC_MODE_CALIBRATION
 707:Drivers/STM32G4xx_HAL_Driver/Inc/stm32g4xx_ll_dac.h ****   * @retval None
 708:Drivers/STM32G4xx_HAL_Driver/Inc/stm32g4xx_ll_dac.h ****   */
 709:Drivers/STM32G4xx_HAL_Driver/Inc/stm32g4xx_ll_dac.h **** __STATIC_INLINE void LL_DAC_SetMode(DAC_TypeDef *DACx, uint32_t DAC_Channel, uint32_t ChannelMode)
 710:Drivers/STM32G4xx_HAL_Driver/Inc/stm32g4xx_ll_dac.h **** {
 711:Drivers/STM32G4xx_HAL_Driver/Inc/stm32g4xx_ll_dac.h ****   MODIFY_REG(DACx->CR,
 712:Drivers/STM32G4xx_HAL_Driver/Inc/stm32g4xx_ll_dac.h ****              DAC_CR_CEN1 << (DAC_Channel & DAC_CR_CHX_BITOFFSET_MASK),
 713:Drivers/STM32G4xx_HAL_Driver/Inc/stm32g4xx_ll_dac.h ****              ChannelMode << (DAC_Channel & DAC_CR_CHX_BITOFFSET_MASK));
 714:Drivers/STM32G4xx_HAL_Driver/Inc/stm32g4xx_ll_dac.h **** }
 715:Drivers/STM32G4xx_HAL_Driver/Inc/stm32g4xx_ll_dac.h **** 
 716:Drivers/STM32G4xx_HAL_Driver/Inc/stm32g4xx_ll_dac.h **** /**
 717:Drivers/STM32G4xx_HAL_Driver/Inc/stm32g4xx_ll_dac.h ****   * @brief  Get the operating mode for the selected DAC channel:
 718:Drivers/STM32G4xx_HAL_Driver/Inc/stm32g4xx_ll_dac.h ****   *         calibration or normal operating mode.
 719:Drivers/STM32G4xx_HAL_Driver/Inc/stm32g4xx_ll_dac.h ****   * @rmtoll CR       CEN1           LL_DAC_GetMode\n
 720:Drivers/STM32G4xx_HAL_Driver/Inc/stm32g4xx_ll_dac.h ****   *         CR       CEN2           LL_DAC_GetMode
 721:Drivers/STM32G4xx_HAL_Driver/Inc/stm32g4xx_ll_dac.h ****   * @param  DACx DAC instance
 722:Drivers/STM32G4xx_HAL_Driver/Inc/stm32g4xx_ll_dac.h ****   * @param  DAC_Channel This parameter can be one of the following values:
ARM GAS  D:\apps\VSCode\data\tmp\ccbuGfzv.s 			page 15


 723:Drivers/STM32G4xx_HAL_Driver/Inc/stm32g4xx_ll_dac.h ****   *         @arg @ref LL_DAC_CHANNEL_1
 724:Drivers/STM32G4xx_HAL_Driver/Inc/stm32g4xx_ll_dac.h ****   *         @arg @ref LL_DAC_CHANNEL_2 (1)
 725:Drivers/STM32G4xx_HAL_Driver/Inc/stm32g4xx_ll_dac.h ****   *
 726:Drivers/STM32G4xx_HAL_Driver/Inc/stm32g4xx_ll_dac.h ****   *         (1) On this STM32 series, parameter not available on all instances.
 727:Drivers/STM32G4xx_HAL_Driver/Inc/stm32g4xx_ll_dac.h ****   *             Refer to device datasheet for channels availability.
 728:Drivers/STM32G4xx_HAL_Driver/Inc/stm32g4xx_ll_dac.h ****   * @retval Returned value can be one of the following values:
 729:Drivers/STM32G4xx_HAL_Driver/Inc/stm32g4xx_ll_dac.h ****   *         @arg @ref LL_DAC_MODE_NORMAL_OPERATION
 730:Drivers/STM32G4xx_HAL_Driver/Inc/stm32g4xx_ll_dac.h ****   *         @arg @ref LL_DAC_MODE_CALIBRATION
 731:Drivers/STM32G4xx_HAL_Driver/Inc/stm32g4xx_ll_dac.h ****   */
 732:Drivers/STM32G4xx_HAL_Driver/Inc/stm32g4xx_ll_dac.h **** __STATIC_INLINE uint32_t LL_DAC_GetMode(DAC_TypeDef *DACx, uint32_t DAC_Channel)
 733:Drivers/STM32G4xx_HAL_Driver/Inc/stm32g4xx_ll_dac.h **** {
 734:Drivers/STM32G4xx_HAL_Driver/Inc/stm32g4xx_ll_dac.h ****   return (uint32_t)(READ_BIT(DACx->CR, DAC_CR_CEN1 << (DAC_Channel & DAC_CR_CHX_BITOFFSET_MASK))
 735:Drivers/STM32G4xx_HAL_Driver/Inc/stm32g4xx_ll_dac.h ****                     >> (DAC_Channel & DAC_CR_CHX_BITOFFSET_MASK)
 736:Drivers/STM32G4xx_HAL_Driver/Inc/stm32g4xx_ll_dac.h ****                    );
 737:Drivers/STM32G4xx_HAL_Driver/Inc/stm32g4xx_ll_dac.h **** }
 738:Drivers/STM32G4xx_HAL_Driver/Inc/stm32g4xx_ll_dac.h **** 
 739:Drivers/STM32G4xx_HAL_Driver/Inc/stm32g4xx_ll_dac.h **** /**
 740:Drivers/STM32G4xx_HAL_Driver/Inc/stm32g4xx_ll_dac.h ****   * @brief  Set the offset trimming value for the selected DAC channel.
 741:Drivers/STM32G4xx_HAL_Driver/Inc/stm32g4xx_ll_dac.h ****   *         Trimming has an impact when output buffer is enabled
 742:Drivers/STM32G4xx_HAL_Driver/Inc/stm32g4xx_ll_dac.h ****   *         and is intended to replace factory calibration default values.
 743:Drivers/STM32G4xx_HAL_Driver/Inc/stm32g4xx_ll_dac.h ****   * @rmtoll CCR      OTRIM1         LL_DAC_SetTrimmingValue\n
 744:Drivers/STM32G4xx_HAL_Driver/Inc/stm32g4xx_ll_dac.h ****   *         CCR      OTRIM2         LL_DAC_SetTrimmingValue
 745:Drivers/STM32G4xx_HAL_Driver/Inc/stm32g4xx_ll_dac.h ****   * @param  DACx DAC instance
 746:Drivers/STM32G4xx_HAL_Driver/Inc/stm32g4xx_ll_dac.h ****   * @param  DAC_Channel This parameter can be one of the following values:
 747:Drivers/STM32G4xx_HAL_Driver/Inc/stm32g4xx_ll_dac.h ****   *         @arg @ref LL_DAC_CHANNEL_1
 748:Drivers/STM32G4xx_HAL_Driver/Inc/stm32g4xx_ll_dac.h ****   *         @arg @ref LL_DAC_CHANNEL_2 (1)
 749:Drivers/STM32G4xx_HAL_Driver/Inc/stm32g4xx_ll_dac.h ****   *
 750:Drivers/STM32G4xx_HAL_Driver/Inc/stm32g4xx_ll_dac.h ****   *         (1) On this STM32 series, parameter not available on all instances.
 751:Drivers/STM32G4xx_HAL_Driver/Inc/stm32g4xx_ll_dac.h ****   *             Refer to device datasheet for channels availability.
 752:Drivers/STM32G4xx_HAL_Driver/Inc/stm32g4xx_ll_dac.h ****   * @param  TrimmingValue Value between Min_Data=0x00 and Max_Data=0x1F
 753:Drivers/STM32G4xx_HAL_Driver/Inc/stm32g4xx_ll_dac.h ****   * @retval None
 754:Drivers/STM32G4xx_HAL_Driver/Inc/stm32g4xx_ll_dac.h ****   */
 755:Drivers/STM32G4xx_HAL_Driver/Inc/stm32g4xx_ll_dac.h **** __STATIC_INLINE void LL_DAC_SetTrimmingValue(DAC_TypeDef *DACx, uint32_t DAC_Channel, uint32_t Trim
 756:Drivers/STM32G4xx_HAL_Driver/Inc/stm32g4xx_ll_dac.h **** {
 757:Drivers/STM32G4xx_HAL_Driver/Inc/stm32g4xx_ll_dac.h ****   MODIFY_REG(DACx->CCR,
 758:Drivers/STM32G4xx_HAL_Driver/Inc/stm32g4xx_ll_dac.h ****              DAC_CCR_OTRIM1 << (DAC_Channel & DAC_CR_CHX_BITOFFSET_MASK),
 759:Drivers/STM32G4xx_HAL_Driver/Inc/stm32g4xx_ll_dac.h ****              TrimmingValue << (DAC_Channel & DAC_CR_CHX_BITOFFSET_MASK));
 760:Drivers/STM32G4xx_HAL_Driver/Inc/stm32g4xx_ll_dac.h **** }
 761:Drivers/STM32G4xx_HAL_Driver/Inc/stm32g4xx_ll_dac.h **** 
 762:Drivers/STM32G4xx_HAL_Driver/Inc/stm32g4xx_ll_dac.h **** /**
 763:Drivers/STM32G4xx_HAL_Driver/Inc/stm32g4xx_ll_dac.h ****   * @brief  Get the offset trimming value for the selected DAC channel.
 764:Drivers/STM32G4xx_HAL_Driver/Inc/stm32g4xx_ll_dac.h ****   *         Trimming has an impact when output buffer is enabled
 765:Drivers/STM32G4xx_HAL_Driver/Inc/stm32g4xx_ll_dac.h ****   *         and is intended to replace factory calibration default values.
 766:Drivers/STM32G4xx_HAL_Driver/Inc/stm32g4xx_ll_dac.h ****   * @rmtoll CCR      OTRIM1         LL_DAC_GetTrimmingValue\n
 767:Drivers/STM32G4xx_HAL_Driver/Inc/stm32g4xx_ll_dac.h ****   *         CCR      OTRIM2         LL_DAC_GetTrimmingValue
 768:Drivers/STM32G4xx_HAL_Driver/Inc/stm32g4xx_ll_dac.h ****   * @param  DACx DAC instance
 769:Drivers/STM32G4xx_HAL_Driver/Inc/stm32g4xx_ll_dac.h ****   * @param  DAC_Channel This parameter can be one of the following values:
 770:Drivers/STM32G4xx_HAL_Driver/Inc/stm32g4xx_ll_dac.h ****   *         @arg @ref LL_DAC_CHANNEL_1
 771:Drivers/STM32G4xx_HAL_Driver/Inc/stm32g4xx_ll_dac.h ****   *         @arg @ref LL_DAC_CHANNEL_2 (1)
 772:Drivers/STM32G4xx_HAL_Driver/Inc/stm32g4xx_ll_dac.h ****   *
 773:Drivers/STM32G4xx_HAL_Driver/Inc/stm32g4xx_ll_dac.h ****   *         (1) On this STM32 series, parameter not available on all instances.
 774:Drivers/STM32G4xx_HAL_Driver/Inc/stm32g4xx_ll_dac.h ****   *             Refer to device datasheet for channels availability.
 775:Drivers/STM32G4xx_HAL_Driver/Inc/stm32g4xx_ll_dac.h ****   * @retval TrimmingValue Value between Min_Data=0x00 and Max_Data=0x1F
 776:Drivers/STM32G4xx_HAL_Driver/Inc/stm32g4xx_ll_dac.h ****   */
 777:Drivers/STM32G4xx_HAL_Driver/Inc/stm32g4xx_ll_dac.h **** __STATIC_INLINE uint32_t LL_DAC_GetTrimmingValue(DAC_TypeDef *DACx, uint32_t DAC_Channel)
 778:Drivers/STM32G4xx_HAL_Driver/Inc/stm32g4xx_ll_dac.h **** {
 779:Drivers/STM32G4xx_HAL_Driver/Inc/stm32g4xx_ll_dac.h ****   return (uint32_t)(READ_BIT(DACx->CCR, DAC_CCR_OTRIM1 << (DAC_Channel & DAC_CR_CHX_BITOFFSET_MASK)
ARM GAS  D:\apps\VSCode\data\tmp\ccbuGfzv.s 			page 16


 780:Drivers/STM32G4xx_HAL_Driver/Inc/stm32g4xx_ll_dac.h ****                     >> (DAC_Channel & DAC_CR_CHX_BITOFFSET_MASK)
 781:Drivers/STM32G4xx_HAL_Driver/Inc/stm32g4xx_ll_dac.h ****                    );
 782:Drivers/STM32G4xx_HAL_Driver/Inc/stm32g4xx_ll_dac.h **** }
 783:Drivers/STM32G4xx_HAL_Driver/Inc/stm32g4xx_ll_dac.h **** 
 784:Drivers/STM32G4xx_HAL_Driver/Inc/stm32g4xx_ll_dac.h **** /**
 785:Drivers/STM32G4xx_HAL_Driver/Inc/stm32g4xx_ll_dac.h ****   * @brief  Set the conversion trigger source for the selected DAC channel.
 786:Drivers/STM32G4xx_HAL_Driver/Inc/stm32g4xx_ll_dac.h ****   * @note   For conversion trigger source to be effective, DAC trigger
 787:Drivers/STM32G4xx_HAL_Driver/Inc/stm32g4xx_ll_dac.h ****   *         must be enabled using function @ref LL_DAC_EnableTrigger().
 788:Drivers/STM32G4xx_HAL_Driver/Inc/stm32g4xx_ll_dac.h ****   * @note   To set conversion trigger source, DAC channel must be disabled.
 789:Drivers/STM32G4xx_HAL_Driver/Inc/stm32g4xx_ll_dac.h ****   *         Otherwise, the setting is discarded.
 790:Drivers/STM32G4xx_HAL_Driver/Inc/stm32g4xx_ll_dac.h ****   * @note   Availability of parameters of trigger sources from timer
 791:Drivers/STM32G4xx_HAL_Driver/Inc/stm32g4xx_ll_dac.h ****   *         depends on timers availability on the selected device.
 792:Drivers/STM32G4xx_HAL_Driver/Inc/stm32g4xx_ll_dac.h ****   * @rmtoll CR       TSEL1          LL_DAC_SetTriggerSource\n
 793:Drivers/STM32G4xx_HAL_Driver/Inc/stm32g4xx_ll_dac.h ****   *         CR       TSEL2          LL_DAC_SetTriggerSource
 794:Drivers/STM32G4xx_HAL_Driver/Inc/stm32g4xx_ll_dac.h ****   * @param  DACx DAC instance
 795:Drivers/STM32G4xx_HAL_Driver/Inc/stm32g4xx_ll_dac.h ****   * @param  DAC_Channel This parameter can be one of the following values:
 796:Drivers/STM32G4xx_HAL_Driver/Inc/stm32g4xx_ll_dac.h ****   *         @arg @ref LL_DAC_CHANNEL_1
 797:Drivers/STM32G4xx_HAL_Driver/Inc/stm32g4xx_ll_dac.h ****   *         @arg @ref LL_DAC_CHANNEL_2 (1)
 798:Drivers/STM32G4xx_HAL_Driver/Inc/stm32g4xx_ll_dac.h ****   *
 799:Drivers/STM32G4xx_HAL_Driver/Inc/stm32g4xx_ll_dac.h ****   *         (1) On this STM32 series, parameter not available on all instances.
 800:Drivers/STM32G4xx_HAL_Driver/Inc/stm32g4xx_ll_dac.h ****   *             Refer to device datasheet for channels availability.
 801:Drivers/STM32G4xx_HAL_Driver/Inc/stm32g4xx_ll_dac.h ****   * @param  TriggerSource This parameter can be one of the following values:
 802:Drivers/STM32G4xx_HAL_Driver/Inc/stm32g4xx_ll_dac.h ****   *         @arg @ref LL_DAC_TRIG_SOFTWARE
 803:Drivers/STM32G4xx_HAL_Driver/Inc/stm32g4xx_ll_dac.h ****   *         @arg @ref LL_DAC_TRIG_EXT_TIM1_TRGO            (1)
 804:Drivers/STM32G4xx_HAL_Driver/Inc/stm32g4xx_ll_dac.h ****   *         @arg @ref LL_DAC_TRIG_EXT_TIM8_TRGO            (2)
 805:Drivers/STM32G4xx_HAL_Driver/Inc/stm32g4xx_ll_dac.h ****   *         @arg @ref LL_DAC_TRIG_EXT_TIM7_TRGO
 806:Drivers/STM32G4xx_HAL_Driver/Inc/stm32g4xx_ll_dac.h ****   *         @arg @ref LL_DAC_TRIG_EXT_TIM15_TRGO
 807:Drivers/STM32G4xx_HAL_Driver/Inc/stm32g4xx_ll_dac.h ****   *         @arg @ref LL_DAC_TRIG_EXT_TIM2_TRGO
 808:Drivers/STM32G4xx_HAL_Driver/Inc/stm32g4xx_ll_dac.h ****   *         @arg @ref LL_DAC_TRIG_EXT_TIM4_TRGO
 809:Drivers/STM32G4xx_HAL_Driver/Inc/stm32g4xx_ll_dac.h ****   *         @arg @ref LL_DAC_TRIG_EXT_EXTI_LINE9
 810:Drivers/STM32G4xx_HAL_Driver/Inc/stm32g4xx_ll_dac.h ****   *         @arg @ref LL_DAC_TRIG_EXT_TIM6_TRGO
 811:Drivers/STM32G4xx_HAL_Driver/Inc/stm32g4xx_ll_dac.h ****   *         @arg @ref LL_DAC_TRIG_EXT_TIM3_TRGO
 812:Drivers/STM32G4xx_HAL_Driver/Inc/stm32g4xx_ll_dac.h ****   *         @arg @ref LL_DAC_TRIG_EXT_HRTIM_RST_TRG1           (5)
 813:Drivers/STM32G4xx_HAL_Driver/Inc/stm32g4xx_ll_dac.h ****   *         @arg @ref LL_DAC_TRIG_EXT_HRTIM_RST_TRG2           (5)
 814:Drivers/STM32G4xx_HAL_Driver/Inc/stm32g4xx_ll_dac.h ****   *         @arg @ref LL_DAC_TRIG_EXT_HRTIM_RST_TRG3           (5)
 815:Drivers/STM32G4xx_HAL_Driver/Inc/stm32g4xx_ll_dac.h ****   *         @arg @ref LL_DAC_TRIG_EXT_HRTIM_RST_TRG4           (5)
 816:Drivers/STM32G4xx_HAL_Driver/Inc/stm32g4xx_ll_dac.h ****   *         @arg @ref LL_DAC_TRIG_EXT_HRTIM_RST_TRG5           (5)
 817:Drivers/STM32G4xx_HAL_Driver/Inc/stm32g4xx_ll_dac.h ****   *         @arg @ref LL_DAC_TRIG_EXT_HRTIM_RST_TRG6           (5)
 818:Drivers/STM32G4xx_HAL_Driver/Inc/stm32g4xx_ll_dac.h ****   *         @arg @ref LL_DAC_TRIG_EXT_HRTIM_TRGO1          (3) (5)
 819:Drivers/STM32G4xx_HAL_Driver/Inc/stm32g4xx_ll_dac.h ****   *         @arg @ref LL_DAC_TRIG_EXT_HRTIM_TRGO2          (4) (5)
 820:Drivers/STM32G4xx_HAL_Driver/Inc/stm32g4xx_ll_dac.h ****   *         @arg @ref LL_DAC_TRIG_EXT_HRTIM_TRGO3          (1) (5)
 821:Drivers/STM32G4xx_HAL_Driver/Inc/stm32g4xx_ll_dac.h ****   *
 822:Drivers/STM32G4xx_HAL_Driver/Inc/stm32g4xx_ll_dac.h ****   *         (1) On this STM32 series, parameter only available on DAC3.
 823:Drivers/STM32G4xx_HAL_Driver/Inc/stm32g4xx_ll_dac.h ****   *         (2) On this STM32 series, parameter only available on DAC1/2/4.
 824:Drivers/STM32G4xx_HAL_Driver/Inc/stm32g4xx_ll_dac.h ****   *         (3) On this STM32 series, parameter only available on DAC1&4.
 825:Drivers/STM32G4xx_HAL_Driver/Inc/stm32g4xx_ll_dac.h ****   *         (4) On this STM32 series, parameter only available on DAC2.
 826:Drivers/STM32G4xx_HAL_Driver/Inc/stm32g4xx_ll_dac.h ****   *          Refer to device datasheet for DACx instances availability.
 827:Drivers/STM32G4xx_HAL_Driver/Inc/stm32g4xx_ll_dac.h ****   *         (5) On this STM32 series, parameter not available on all devices.
 828:Drivers/STM32G4xx_HAL_Driver/Inc/stm32g4xx_ll_dac.h ****   *          Only available if HRTIM feature is supported (refer to device datasheet for supported 
 829:Drivers/STM32G4xx_HAL_Driver/Inc/stm32g4xx_ll_dac.h ****   * @retval None
 830:Drivers/STM32G4xx_HAL_Driver/Inc/stm32g4xx_ll_dac.h ****   */
 831:Drivers/STM32G4xx_HAL_Driver/Inc/stm32g4xx_ll_dac.h **** __STATIC_INLINE void LL_DAC_SetTriggerSource(DAC_TypeDef *DACx, uint32_t DAC_Channel, uint32_t Trig
 832:Drivers/STM32G4xx_HAL_Driver/Inc/stm32g4xx_ll_dac.h **** {
 833:Drivers/STM32G4xx_HAL_Driver/Inc/stm32g4xx_ll_dac.h ****   MODIFY_REG(DACx->CR,
 834:Drivers/STM32G4xx_HAL_Driver/Inc/stm32g4xx_ll_dac.h ****              DAC_CR_TSEL1 << (DAC_Channel & DAC_CR_CHX_BITOFFSET_MASK),
 835:Drivers/STM32G4xx_HAL_Driver/Inc/stm32g4xx_ll_dac.h ****              TriggerSource << (DAC_Channel & DAC_CR_CHX_BITOFFSET_MASK));
 836:Drivers/STM32G4xx_HAL_Driver/Inc/stm32g4xx_ll_dac.h **** }
ARM GAS  D:\apps\VSCode\data\tmp\ccbuGfzv.s 			page 17


 837:Drivers/STM32G4xx_HAL_Driver/Inc/stm32g4xx_ll_dac.h **** 
 838:Drivers/STM32G4xx_HAL_Driver/Inc/stm32g4xx_ll_dac.h **** /**
 839:Drivers/STM32G4xx_HAL_Driver/Inc/stm32g4xx_ll_dac.h ****   * @brief  Get the conversion trigger source for the selected DAC channel.
 840:Drivers/STM32G4xx_HAL_Driver/Inc/stm32g4xx_ll_dac.h ****   * @note   For conversion trigger source to be effective, DAC trigger
 841:Drivers/STM32G4xx_HAL_Driver/Inc/stm32g4xx_ll_dac.h ****   *         must be enabled using function @ref LL_DAC_EnableTrigger().
 842:Drivers/STM32G4xx_HAL_Driver/Inc/stm32g4xx_ll_dac.h ****   * @note   Availability of parameters of trigger sources from timer
 843:Drivers/STM32G4xx_HAL_Driver/Inc/stm32g4xx_ll_dac.h ****   *         depends on timers availability on the selected device.
 844:Drivers/STM32G4xx_HAL_Driver/Inc/stm32g4xx_ll_dac.h ****   * @rmtoll CR       TSEL1          LL_DAC_GetTriggerSource\n
 845:Drivers/STM32G4xx_HAL_Driver/Inc/stm32g4xx_ll_dac.h ****   *         CR       TSEL2          LL_DAC_GetTriggerSource
 846:Drivers/STM32G4xx_HAL_Driver/Inc/stm32g4xx_ll_dac.h ****   * @param  DACx DAC instance
 847:Drivers/STM32G4xx_HAL_Driver/Inc/stm32g4xx_ll_dac.h ****   * @param  DAC_Channel This parameter can be one of the following values:
 848:Drivers/STM32G4xx_HAL_Driver/Inc/stm32g4xx_ll_dac.h ****   *         @arg @ref LL_DAC_CHANNEL_1
 849:Drivers/STM32G4xx_HAL_Driver/Inc/stm32g4xx_ll_dac.h ****   *         @arg @ref LL_DAC_CHANNEL_2 (1)
 850:Drivers/STM32G4xx_HAL_Driver/Inc/stm32g4xx_ll_dac.h ****   *
 851:Drivers/STM32G4xx_HAL_Driver/Inc/stm32g4xx_ll_dac.h ****   *         (1) On this STM32 series, parameter not available on all instances.
 852:Drivers/STM32G4xx_HAL_Driver/Inc/stm32g4xx_ll_dac.h ****   *             Refer to device datasheet for channels availability.
 853:Drivers/STM32G4xx_HAL_Driver/Inc/stm32g4xx_ll_dac.h ****   * @retval Returned value can be one of the following values:
 854:Drivers/STM32G4xx_HAL_Driver/Inc/stm32g4xx_ll_dac.h ****   *         @arg @ref LL_DAC_TRIG_SOFTWARE
 855:Drivers/STM32G4xx_HAL_Driver/Inc/stm32g4xx_ll_dac.h ****   *         @arg @ref LL_DAC_TRIG_EXT_TIM1_TRGO            (1)
 856:Drivers/STM32G4xx_HAL_Driver/Inc/stm32g4xx_ll_dac.h ****   *         @arg @ref LL_DAC_TRIG_EXT_TIM8_TRGO            (2)
 857:Drivers/STM32G4xx_HAL_Driver/Inc/stm32g4xx_ll_dac.h ****   *         @arg @ref LL_DAC_TRIG_EXT_TIM7_TRGO
 858:Drivers/STM32G4xx_HAL_Driver/Inc/stm32g4xx_ll_dac.h ****   *         @arg @ref LL_DAC_TRIG_EXT_TIM15_TRGO
 859:Drivers/STM32G4xx_HAL_Driver/Inc/stm32g4xx_ll_dac.h ****   *         @arg @ref LL_DAC_TRIG_EXT_TIM2_TRGO
 860:Drivers/STM32G4xx_HAL_Driver/Inc/stm32g4xx_ll_dac.h ****   *         @arg @ref LL_DAC_TRIG_EXT_TIM4_TRGO
 861:Drivers/STM32G4xx_HAL_Driver/Inc/stm32g4xx_ll_dac.h ****   *         @arg @ref LL_DAC_TRIG_EXT_EXTI_LINE9
 862:Drivers/STM32G4xx_HAL_Driver/Inc/stm32g4xx_ll_dac.h ****   *         @arg @ref LL_DAC_TRIG_EXT_TIM6_TRGO
 863:Drivers/STM32G4xx_HAL_Driver/Inc/stm32g4xx_ll_dac.h ****   *         @arg @ref LL_DAC_TRIG_EXT_TIM3_TRGO
 864:Drivers/STM32G4xx_HAL_Driver/Inc/stm32g4xx_ll_dac.h ****   *         @arg @ref LL_DAC_TRIG_EXT_HRTIM_RST_TRG1           (5)
 865:Drivers/STM32G4xx_HAL_Driver/Inc/stm32g4xx_ll_dac.h ****   *         @arg @ref LL_DAC_TRIG_EXT_HRTIM_RST_TRG2           (5)
 866:Drivers/STM32G4xx_HAL_Driver/Inc/stm32g4xx_ll_dac.h ****   *         @arg @ref LL_DAC_TRIG_EXT_HRTIM_RST_TRG3           (5)
 867:Drivers/STM32G4xx_HAL_Driver/Inc/stm32g4xx_ll_dac.h ****   *         @arg @ref LL_DAC_TRIG_EXT_HRTIM_RST_TRG4           (5)
 868:Drivers/STM32G4xx_HAL_Driver/Inc/stm32g4xx_ll_dac.h ****   *         @arg @ref LL_DAC_TRIG_EXT_HRTIM_RST_TRG5           (5)
 869:Drivers/STM32G4xx_HAL_Driver/Inc/stm32g4xx_ll_dac.h ****   *         @arg @ref LL_DAC_TRIG_EXT_HRTIM_RST_TRG6           (5)
 870:Drivers/STM32G4xx_HAL_Driver/Inc/stm32g4xx_ll_dac.h ****   *         @arg @ref LL_DAC_TRIG_EXT_HRTIM_TRGO1          (3) (5)
 871:Drivers/STM32G4xx_HAL_Driver/Inc/stm32g4xx_ll_dac.h ****   *         @arg @ref LL_DAC_TRIG_EXT_HRTIM_TRGO2          (4) (5)
 872:Drivers/STM32G4xx_HAL_Driver/Inc/stm32g4xx_ll_dac.h ****   *         @arg @ref LL_DAC_TRIG_EXT_HRTIM_TRGO3          (1) (5)
 873:Drivers/STM32G4xx_HAL_Driver/Inc/stm32g4xx_ll_dac.h ****   *
 874:Drivers/STM32G4xx_HAL_Driver/Inc/stm32g4xx_ll_dac.h ****   *         (1) On this STM32 series, parameter only available on DAC3.
 875:Drivers/STM32G4xx_HAL_Driver/Inc/stm32g4xx_ll_dac.h ****   *         (2) On this STM32 series, parameter only available on DAC1/2/4.
 876:Drivers/STM32G4xx_HAL_Driver/Inc/stm32g4xx_ll_dac.h ****   *         (3) On this STM32 series, parameter only available on DAC1&4.
 877:Drivers/STM32G4xx_HAL_Driver/Inc/stm32g4xx_ll_dac.h ****   *         (4) On this STM32 series, parameter only available on DAC2.
 878:Drivers/STM32G4xx_HAL_Driver/Inc/stm32g4xx_ll_dac.h ****   *          Refer to device datasheet for DACx instances availability.
 879:Drivers/STM32G4xx_HAL_Driver/Inc/stm32g4xx_ll_dac.h ****   *         (5) On this STM32 series, parameter not available on all devices.
 880:Drivers/STM32G4xx_HAL_Driver/Inc/stm32g4xx_ll_dac.h ****   *          Only available if HRTIM feature is supported (refer to device datasheet for supported 
 881:Drivers/STM32G4xx_HAL_Driver/Inc/stm32g4xx_ll_dac.h ****   */
 882:Drivers/STM32G4xx_HAL_Driver/Inc/stm32g4xx_ll_dac.h **** __STATIC_INLINE uint32_t LL_DAC_GetTriggerSource(DAC_TypeDef *DACx, uint32_t DAC_Channel)
 883:Drivers/STM32G4xx_HAL_Driver/Inc/stm32g4xx_ll_dac.h **** {
 884:Drivers/STM32G4xx_HAL_Driver/Inc/stm32g4xx_ll_dac.h ****   return (uint32_t)(READ_BIT(DACx->CR, DAC_CR_TSEL1 << (DAC_Channel & DAC_CR_CHX_BITOFFSET_MASK))
 885:Drivers/STM32G4xx_HAL_Driver/Inc/stm32g4xx_ll_dac.h ****                     >> (DAC_Channel & DAC_CR_CHX_BITOFFSET_MASK)
 886:Drivers/STM32G4xx_HAL_Driver/Inc/stm32g4xx_ll_dac.h ****                    );
 887:Drivers/STM32G4xx_HAL_Driver/Inc/stm32g4xx_ll_dac.h **** }
 888:Drivers/STM32G4xx_HAL_Driver/Inc/stm32g4xx_ll_dac.h **** 
 889:Drivers/STM32G4xx_HAL_Driver/Inc/stm32g4xx_ll_dac.h **** /**
 890:Drivers/STM32G4xx_HAL_Driver/Inc/stm32g4xx_ll_dac.h ****   * @brief  Set the waveform automatic generation mode
 891:Drivers/STM32G4xx_HAL_Driver/Inc/stm32g4xx_ll_dac.h ****   *         for the selected DAC channel.
 892:Drivers/STM32G4xx_HAL_Driver/Inc/stm32g4xx_ll_dac.h ****   * @rmtoll CR       WAVE1          LL_DAC_SetWaveAutoGeneration\n
 893:Drivers/STM32G4xx_HAL_Driver/Inc/stm32g4xx_ll_dac.h ****   *         CR       WAVE2          LL_DAC_SetWaveAutoGeneration
ARM GAS  D:\apps\VSCode\data\tmp\ccbuGfzv.s 			page 18


 894:Drivers/STM32G4xx_HAL_Driver/Inc/stm32g4xx_ll_dac.h ****   * @param  DACx DAC instance
 895:Drivers/STM32G4xx_HAL_Driver/Inc/stm32g4xx_ll_dac.h ****   * @param  DAC_Channel This parameter can be one of the following values:
 896:Drivers/STM32G4xx_HAL_Driver/Inc/stm32g4xx_ll_dac.h ****   *         @arg @ref LL_DAC_CHANNEL_1
 897:Drivers/STM32G4xx_HAL_Driver/Inc/stm32g4xx_ll_dac.h ****   *         @arg @ref LL_DAC_CHANNEL_2 (1)
 898:Drivers/STM32G4xx_HAL_Driver/Inc/stm32g4xx_ll_dac.h ****   *
 899:Drivers/STM32G4xx_HAL_Driver/Inc/stm32g4xx_ll_dac.h ****   *         (1) On this STM32 series, parameter not available on all instances.
 900:Drivers/STM32G4xx_HAL_Driver/Inc/stm32g4xx_ll_dac.h ****   *             Refer to device datasheet for channels availability.
 901:Drivers/STM32G4xx_HAL_Driver/Inc/stm32g4xx_ll_dac.h ****   * @param  WaveAutoGeneration This parameter can be one of the following values:
 902:Drivers/STM32G4xx_HAL_Driver/Inc/stm32g4xx_ll_dac.h ****   *         @arg @ref LL_DAC_WAVE_AUTO_GENERATION_NONE
 903:Drivers/STM32G4xx_HAL_Driver/Inc/stm32g4xx_ll_dac.h ****   *         @arg @ref LL_DAC_WAVE_AUTO_GENERATION_NOISE
 904:Drivers/STM32G4xx_HAL_Driver/Inc/stm32g4xx_ll_dac.h ****   *         @arg @ref LL_DAC_WAVE_AUTO_GENERATION_TRIANGLE
 905:Drivers/STM32G4xx_HAL_Driver/Inc/stm32g4xx_ll_dac.h ****   *         @arg @ref LL_DAC_WAVE_AUTO_GENERATION_SAWTOOTH
 906:Drivers/STM32G4xx_HAL_Driver/Inc/stm32g4xx_ll_dac.h ****   * @retval None
 907:Drivers/STM32G4xx_HAL_Driver/Inc/stm32g4xx_ll_dac.h ****   */
 908:Drivers/STM32G4xx_HAL_Driver/Inc/stm32g4xx_ll_dac.h **** __STATIC_INLINE void LL_DAC_SetWaveAutoGeneration(DAC_TypeDef *DACx, uint32_t DAC_Channel, uint32_t
 909:Drivers/STM32G4xx_HAL_Driver/Inc/stm32g4xx_ll_dac.h **** {
 910:Drivers/STM32G4xx_HAL_Driver/Inc/stm32g4xx_ll_dac.h ****   MODIFY_REG(DACx->CR,
 911:Drivers/STM32G4xx_HAL_Driver/Inc/stm32g4xx_ll_dac.h ****              DAC_CR_WAVE1 << (DAC_Channel & DAC_CR_CHX_BITOFFSET_MASK),
 912:Drivers/STM32G4xx_HAL_Driver/Inc/stm32g4xx_ll_dac.h ****              WaveAutoGeneration << (DAC_Channel & DAC_CR_CHX_BITOFFSET_MASK));
 913:Drivers/STM32G4xx_HAL_Driver/Inc/stm32g4xx_ll_dac.h **** }
 914:Drivers/STM32G4xx_HAL_Driver/Inc/stm32g4xx_ll_dac.h **** 
 915:Drivers/STM32G4xx_HAL_Driver/Inc/stm32g4xx_ll_dac.h **** /**
 916:Drivers/STM32G4xx_HAL_Driver/Inc/stm32g4xx_ll_dac.h ****   * @brief  Get the waveform automatic generation mode
 917:Drivers/STM32G4xx_HAL_Driver/Inc/stm32g4xx_ll_dac.h ****   *         for the selected DAC channel.
 918:Drivers/STM32G4xx_HAL_Driver/Inc/stm32g4xx_ll_dac.h ****   * @rmtoll CR       WAVE1          LL_DAC_GetWaveAutoGeneration\n
 919:Drivers/STM32G4xx_HAL_Driver/Inc/stm32g4xx_ll_dac.h ****   *         CR       WAVE2          LL_DAC_GetWaveAutoGeneration
 920:Drivers/STM32G4xx_HAL_Driver/Inc/stm32g4xx_ll_dac.h ****   * @param  DACx DAC instance
 921:Drivers/STM32G4xx_HAL_Driver/Inc/stm32g4xx_ll_dac.h ****   * @param  DAC_Channel This parameter can be one of the following values:
 922:Drivers/STM32G4xx_HAL_Driver/Inc/stm32g4xx_ll_dac.h ****   *         @arg @ref LL_DAC_CHANNEL_1
 923:Drivers/STM32G4xx_HAL_Driver/Inc/stm32g4xx_ll_dac.h ****   *         @arg @ref LL_DAC_CHANNEL_2 (1)
 924:Drivers/STM32G4xx_HAL_Driver/Inc/stm32g4xx_ll_dac.h ****   *
 925:Drivers/STM32G4xx_HAL_Driver/Inc/stm32g4xx_ll_dac.h ****   *         (1) On this STM32 series, parameter not available on all instances.
 926:Drivers/STM32G4xx_HAL_Driver/Inc/stm32g4xx_ll_dac.h ****   *             Refer to device datasheet for channels availability.
 927:Drivers/STM32G4xx_HAL_Driver/Inc/stm32g4xx_ll_dac.h ****   * @retval Returned value can be one of the following values:
 928:Drivers/STM32G4xx_HAL_Driver/Inc/stm32g4xx_ll_dac.h ****   *         @arg @ref LL_DAC_WAVE_AUTO_GENERATION_NONE
 929:Drivers/STM32G4xx_HAL_Driver/Inc/stm32g4xx_ll_dac.h ****   *         @arg @ref LL_DAC_WAVE_AUTO_GENERATION_NOISE
 930:Drivers/STM32G4xx_HAL_Driver/Inc/stm32g4xx_ll_dac.h ****   *         @arg @ref LL_DAC_WAVE_AUTO_GENERATION_TRIANGLE
 931:Drivers/STM32G4xx_HAL_Driver/Inc/stm32g4xx_ll_dac.h ****   *         @arg @ref LL_DAC_WAVE_AUTO_GENERATION_SAWTOOTH
 932:Drivers/STM32G4xx_HAL_Driver/Inc/stm32g4xx_ll_dac.h ****   */
 933:Drivers/STM32G4xx_HAL_Driver/Inc/stm32g4xx_ll_dac.h **** __STATIC_INLINE uint32_t LL_DAC_GetWaveAutoGeneration(DAC_TypeDef *DACx, uint32_t DAC_Channel)
 934:Drivers/STM32G4xx_HAL_Driver/Inc/stm32g4xx_ll_dac.h **** {
 935:Drivers/STM32G4xx_HAL_Driver/Inc/stm32g4xx_ll_dac.h ****   return (uint32_t)(READ_BIT(DACx->CR, DAC_CR_WAVE1 << (DAC_Channel & DAC_CR_CHX_BITOFFSET_MASK))
 936:Drivers/STM32G4xx_HAL_Driver/Inc/stm32g4xx_ll_dac.h ****                     >> (DAC_Channel & DAC_CR_CHX_BITOFFSET_MASK)
 937:Drivers/STM32G4xx_HAL_Driver/Inc/stm32g4xx_ll_dac.h ****                    );
 938:Drivers/STM32G4xx_HAL_Driver/Inc/stm32g4xx_ll_dac.h **** }
 939:Drivers/STM32G4xx_HAL_Driver/Inc/stm32g4xx_ll_dac.h **** 
 940:Drivers/STM32G4xx_HAL_Driver/Inc/stm32g4xx_ll_dac.h **** /**
 941:Drivers/STM32G4xx_HAL_Driver/Inc/stm32g4xx_ll_dac.h ****   * @brief  Set the noise waveform generation for the selected DAC channel:
 942:Drivers/STM32G4xx_HAL_Driver/Inc/stm32g4xx_ll_dac.h ****   *         Noise mode and parameters LFSR (linear feedback shift register).
 943:Drivers/STM32G4xx_HAL_Driver/Inc/stm32g4xx_ll_dac.h ****   * @note   For wave generation to be effective, DAC channel
 944:Drivers/STM32G4xx_HAL_Driver/Inc/stm32g4xx_ll_dac.h ****   *         wave generation mode must be enabled using
 945:Drivers/STM32G4xx_HAL_Driver/Inc/stm32g4xx_ll_dac.h ****   *         function @ref LL_DAC_SetWaveAutoGeneration().
 946:Drivers/STM32G4xx_HAL_Driver/Inc/stm32g4xx_ll_dac.h ****   * @note   This setting can be set when the selected DAC channel is disabled
 947:Drivers/STM32G4xx_HAL_Driver/Inc/stm32g4xx_ll_dac.h ****   *         (otherwise, the setting operation is ignored).
 948:Drivers/STM32G4xx_HAL_Driver/Inc/stm32g4xx_ll_dac.h ****   * @rmtoll CR       MAMP1          LL_DAC_SetWaveNoiseLFSR\n
 949:Drivers/STM32G4xx_HAL_Driver/Inc/stm32g4xx_ll_dac.h ****   *         CR       MAMP2          LL_DAC_SetWaveNoiseLFSR
 950:Drivers/STM32G4xx_HAL_Driver/Inc/stm32g4xx_ll_dac.h ****   * @param  DACx DAC instance
ARM GAS  D:\apps\VSCode\data\tmp\ccbuGfzv.s 			page 19


 951:Drivers/STM32G4xx_HAL_Driver/Inc/stm32g4xx_ll_dac.h ****   * @param  DAC_Channel This parameter can be one of the following values:
 952:Drivers/STM32G4xx_HAL_Driver/Inc/stm32g4xx_ll_dac.h ****   *         @arg @ref LL_DAC_CHANNEL_1
 953:Drivers/STM32G4xx_HAL_Driver/Inc/stm32g4xx_ll_dac.h ****   *         @arg @ref LL_DAC_CHANNEL_2 (1)
 954:Drivers/STM32G4xx_HAL_Driver/Inc/stm32g4xx_ll_dac.h ****   *
 955:Drivers/STM32G4xx_HAL_Driver/Inc/stm32g4xx_ll_dac.h ****   *         (1) On this STM32 series, parameter not available on all instances.
 956:Drivers/STM32G4xx_HAL_Driver/Inc/stm32g4xx_ll_dac.h ****   *             Refer to device datasheet for channels availability.
 957:Drivers/STM32G4xx_HAL_Driver/Inc/stm32g4xx_ll_dac.h ****   * @param  NoiseLFSRMask This parameter can be one of the following values:
 958:Drivers/STM32G4xx_HAL_Driver/Inc/stm32g4xx_ll_dac.h ****   *         @arg @ref LL_DAC_NOISE_LFSR_UNMASK_BIT0
 959:Drivers/STM32G4xx_HAL_Driver/Inc/stm32g4xx_ll_dac.h ****   *         @arg @ref LL_DAC_NOISE_LFSR_UNMASK_BITS1_0
 960:Drivers/STM32G4xx_HAL_Driver/Inc/stm32g4xx_ll_dac.h ****   *         @arg @ref LL_DAC_NOISE_LFSR_UNMASK_BITS2_0
 961:Drivers/STM32G4xx_HAL_Driver/Inc/stm32g4xx_ll_dac.h ****   *         @arg @ref LL_DAC_NOISE_LFSR_UNMASK_BITS3_0
 962:Drivers/STM32G4xx_HAL_Driver/Inc/stm32g4xx_ll_dac.h ****   *         @arg @ref LL_DAC_NOISE_LFSR_UNMASK_BITS4_0
 963:Drivers/STM32G4xx_HAL_Driver/Inc/stm32g4xx_ll_dac.h ****   *         @arg @ref LL_DAC_NOISE_LFSR_UNMASK_BITS5_0
 964:Drivers/STM32G4xx_HAL_Driver/Inc/stm32g4xx_ll_dac.h ****   *         @arg @ref LL_DAC_NOISE_LFSR_UNMASK_BITS6_0
 965:Drivers/STM32G4xx_HAL_Driver/Inc/stm32g4xx_ll_dac.h ****   *         @arg @ref LL_DAC_NOISE_LFSR_UNMASK_BITS7_0
 966:Drivers/STM32G4xx_HAL_Driver/Inc/stm32g4xx_ll_dac.h ****   *         @arg @ref LL_DAC_NOISE_LFSR_UNMASK_BITS8_0
 967:Drivers/STM32G4xx_HAL_Driver/Inc/stm32g4xx_ll_dac.h ****   *         @arg @ref LL_DAC_NOISE_LFSR_UNMASK_BITS9_0
 968:Drivers/STM32G4xx_HAL_Driver/Inc/stm32g4xx_ll_dac.h ****   *         @arg @ref LL_DAC_NOISE_LFSR_UNMASK_BITS10_0
 969:Drivers/STM32G4xx_HAL_Driver/Inc/stm32g4xx_ll_dac.h ****   *         @arg @ref LL_DAC_NOISE_LFSR_UNMASK_BITS11_0
 970:Drivers/STM32G4xx_HAL_Driver/Inc/stm32g4xx_ll_dac.h ****   * @retval None
 971:Drivers/STM32G4xx_HAL_Driver/Inc/stm32g4xx_ll_dac.h ****   */
 972:Drivers/STM32G4xx_HAL_Driver/Inc/stm32g4xx_ll_dac.h **** __STATIC_INLINE void LL_DAC_SetWaveNoiseLFSR(DAC_TypeDef *DACx, uint32_t DAC_Channel, uint32_t Nois
 973:Drivers/STM32G4xx_HAL_Driver/Inc/stm32g4xx_ll_dac.h **** {
 974:Drivers/STM32G4xx_HAL_Driver/Inc/stm32g4xx_ll_dac.h ****   MODIFY_REG(DACx->CR,
 975:Drivers/STM32G4xx_HAL_Driver/Inc/stm32g4xx_ll_dac.h ****              DAC_CR_MAMP1 << (DAC_Channel & DAC_CR_CHX_BITOFFSET_MASK),
 976:Drivers/STM32G4xx_HAL_Driver/Inc/stm32g4xx_ll_dac.h ****              NoiseLFSRMask << (DAC_Channel & DAC_CR_CHX_BITOFFSET_MASK));
 977:Drivers/STM32G4xx_HAL_Driver/Inc/stm32g4xx_ll_dac.h **** }
 978:Drivers/STM32G4xx_HAL_Driver/Inc/stm32g4xx_ll_dac.h **** 
 979:Drivers/STM32G4xx_HAL_Driver/Inc/stm32g4xx_ll_dac.h **** /**
 980:Drivers/STM32G4xx_HAL_Driver/Inc/stm32g4xx_ll_dac.h ****   * @brief  Get the noise waveform generation for the selected DAC channel:
 981:Drivers/STM32G4xx_HAL_Driver/Inc/stm32g4xx_ll_dac.h ****   *         Noise mode and parameters LFSR (linear feedback shift register).
 982:Drivers/STM32G4xx_HAL_Driver/Inc/stm32g4xx_ll_dac.h ****   * @rmtoll CR       MAMP1          LL_DAC_GetWaveNoiseLFSR\n
 983:Drivers/STM32G4xx_HAL_Driver/Inc/stm32g4xx_ll_dac.h ****   *         CR       MAMP2          LL_DAC_GetWaveNoiseLFSR
 984:Drivers/STM32G4xx_HAL_Driver/Inc/stm32g4xx_ll_dac.h ****   * @param  DACx DAC instance
 985:Drivers/STM32G4xx_HAL_Driver/Inc/stm32g4xx_ll_dac.h ****   * @param  DAC_Channel This parameter can be one of the following values:
 986:Drivers/STM32G4xx_HAL_Driver/Inc/stm32g4xx_ll_dac.h ****   *         @arg @ref LL_DAC_CHANNEL_1
 987:Drivers/STM32G4xx_HAL_Driver/Inc/stm32g4xx_ll_dac.h ****   *         @arg @ref LL_DAC_CHANNEL_2 (1)
 988:Drivers/STM32G4xx_HAL_Driver/Inc/stm32g4xx_ll_dac.h ****   *
 989:Drivers/STM32G4xx_HAL_Driver/Inc/stm32g4xx_ll_dac.h ****   *         (1) On this STM32 series, parameter not available on all instances.
 990:Drivers/STM32G4xx_HAL_Driver/Inc/stm32g4xx_ll_dac.h ****   *             Refer to device datasheet for channels availability.
 991:Drivers/STM32G4xx_HAL_Driver/Inc/stm32g4xx_ll_dac.h ****   * @retval Returned value can be one of the following values:
 992:Drivers/STM32G4xx_HAL_Driver/Inc/stm32g4xx_ll_dac.h ****   *         @arg @ref LL_DAC_NOISE_LFSR_UNMASK_BIT0
 993:Drivers/STM32G4xx_HAL_Driver/Inc/stm32g4xx_ll_dac.h ****   *         @arg @ref LL_DAC_NOISE_LFSR_UNMASK_BITS1_0
 994:Drivers/STM32G4xx_HAL_Driver/Inc/stm32g4xx_ll_dac.h ****   *         @arg @ref LL_DAC_NOISE_LFSR_UNMASK_BITS2_0
 995:Drivers/STM32G4xx_HAL_Driver/Inc/stm32g4xx_ll_dac.h ****   *         @arg @ref LL_DAC_NOISE_LFSR_UNMASK_BITS3_0
 996:Drivers/STM32G4xx_HAL_Driver/Inc/stm32g4xx_ll_dac.h ****   *         @arg @ref LL_DAC_NOISE_LFSR_UNMASK_BITS4_0
 997:Drivers/STM32G4xx_HAL_Driver/Inc/stm32g4xx_ll_dac.h ****   *         @arg @ref LL_DAC_NOISE_LFSR_UNMASK_BITS5_0
 998:Drivers/STM32G4xx_HAL_Driver/Inc/stm32g4xx_ll_dac.h ****   *         @arg @ref LL_DAC_NOISE_LFSR_UNMASK_BITS6_0
 999:Drivers/STM32G4xx_HAL_Driver/Inc/stm32g4xx_ll_dac.h ****   *         @arg @ref LL_DAC_NOISE_LFSR_UNMASK_BITS7_0
1000:Drivers/STM32G4xx_HAL_Driver/Inc/stm32g4xx_ll_dac.h ****   *         @arg @ref LL_DAC_NOISE_LFSR_UNMASK_BITS8_0
1001:Drivers/STM32G4xx_HAL_Driver/Inc/stm32g4xx_ll_dac.h ****   *         @arg @ref LL_DAC_NOISE_LFSR_UNMASK_BITS9_0
1002:Drivers/STM32G4xx_HAL_Driver/Inc/stm32g4xx_ll_dac.h ****   *         @arg @ref LL_DAC_NOISE_LFSR_UNMASK_BITS10_0
1003:Drivers/STM32G4xx_HAL_Driver/Inc/stm32g4xx_ll_dac.h ****   *         @arg @ref LL_DAC_NOISE_LFSR_UNMASK_BITS11_0
1004:Drivers/STM32G4xx_HAL_Driver/Inc/stm32g4xx_ll_dac.h ****   */
1005:Drivers/STM32G4xx_HAL_Driver/Inc/stm32g4xx_ll_dac.h **** __STATIC_INLINE uint32_t LL_DAC_GetWaveNoiseLFSR(DAC_TypeDef *DACx, uint32_t DAC_Channel)
1006:Drivers/STM32G4xx_HAL_Driver/Inc/stm32g4xx_ll_dac.h **** {
1007:Drivers/STM32G4xx_HAL_Driver/Inc/stm32g4xx_ll_dac.h ****   return (uint32_t)(READ_BIT(DACx->CR, DAC_CR_MAMP1 << (DAC_Channel & DAC_CR_CHX_BITOFFSET_MASK))
ARM GAS  D:\apps\VSCode\data\tmp\ccbuGfzv.s 			page 20


1008:Drivers/STM32G4xx_HAL_Driver/Inc/stm32g4xx_ll_dac.h ****                     >> (DAC_Channel & DAC_CR_CHX_BITOFFSET_MASK)
1009:Drivers/STM32G4xx_HAL_Driver/Inc/stm32g4xx_ll_dac.h ****                    );
1010:Drivers/STM32G4xx_HAL_Driver/Inc/stm32g4xx_ll_dac.h **** }
1011:Drivers/STM32G4xx_HAL_Driver/Inc/stm32g4xx_ll_dac.h **** 
1012:Drivers/STM32G4xx_HAL_Driver/Inc/stm32g4xx_ll_dac.h **** /**
1013:Drivers/STM32G4xx_HAL_Driver/Inc/stm32g4xx_ll_dac.h ****   * @brief  Set the triangle waveform generation for the selected DAC channel:
1014:Drivers/STM32G4xx_HAL_Driver/Inc/stm32g4xx_ll_dac.h ****   *         triangle mode and amplitude.
1015:Drivers/STM32G4xx_HAL_Driver/Inc/stm32g4xx_ll_dac.h ****   * @note   For wave generation to be effective, DAC channel
1016:Drivers/STM32G4xx_HAL_Driver/Inc/stm32g4xx_ll_dac.h ****   *         wave generation mode must be enabled using
1017:Drivers/STM32G4xx_HAL_Driver/Inc/stm32g4xx_ll_dac.h ****   *         function @ref LL_DAC_SetWaveAutoGeneration().
1018:Drivers/STM32G4xx_HAL_Driver/Inc/stm32g4xx_ll_dac.h ****   * @note   This setting can be set when the selected DAC channel is disabled
1019:Drivers/STM32G4xx_HAL_Driver/Inc/stm32g4xx_ll_dac.h ****   *         (otherwise, the setting operation is ignored).
1020:Drivers/STM32G4xx_HAL_Driver/Inc/stm32g4xx_ll_dac.h ****   * @rmtoll CR       MAMP1          LL_DAC_SetWaveTriangleAmplitude\n
1021:Drivers/STM32G4xx_HAL_Driver/Inc/stm32g4xx_ll_dac.h ****   *         CR       MAMP2          LL_DAC_SetWaveTriangleAmplitude
1022:Drivers/STM32G4xx_HAL_Driver/Inc/stm32g4xx_ll_dac.h ****   * @param  DACx DAC instance
1023:Drivers/STM32G4xx_HAL_Driver/Inc/stm32g4xx_ll_dac.h ****   * @param  DAC_Channel This parameter can be one of the following values:
1024:Drivers/STM32G4xx_HAL_Driver/Inc/stm32g4xx_ll_dac.h ****   *         @arg @ref LL_DAC_CHANNEL_1
1025:Drivers/STM32G4xx_HAL_Driver/Inc/stm32g4xx_ll_dac.h ****   *         @arg @ref LL_DAC_CHANNEL_2 (1)
1026:Drivers/STM32G4xx_HAL_Driver/Inc/stm32g4xx_ll_dac.h ****   *
1027:Drivers/STM32G4xx_HAL_Driver/Inc/stm32g4xx_ll_dac.h ****   *         (1) On this STM32 series, parameter not available on all instances.
1028:Drivers/STM32G4xx_HAL_Driver/Inc/stm32g4xx_ll_dac.h ****   *             Refer to device datasheet for channels availability.
1029:Drivers/STM32G4xx_HAL_Driver/Inc/stm32g4xx_ll_dac.h ****   * @param  TriangleAmplitude This parameter can be one of the following values:
1030:Drivers/STM32G4xx_HAL_Driver/Inc/stm32g4xx_ll_dac.h ****   *         @arg @ref LL_DAC_TRIANGLE_AMPLITUDE_1
1031:Drivers/STM32G4xx_HAL_Driver/Inc/stm32g4xx_ll_dac.h ****   *         @arg @ref LL_DAC_TRIANGLE_AMPLITUDE_3
1032:Drivers/STM32G4xx_HAL_Driver/Inc/stm32g4xx_ll_dac.h ****   *         @arg @ref LL_DAC_TRIANGLE_AMPLITUDE_7
1033:Drivers/STM32G4xx_HAL_Driver/Inc/stm32g4xx_ll_dac.h ****   *         @arg @ref LL_DAC_TRIANGLE_AMPLITUDE_15
1034:Drivers/STM32G4xx_HAL_Driver/Inc/stm32g4xx_ll_dac.h ****   *         @arg @ref LL_DAC_TRIANGLE_AMPLITUDE_31
1035:Drivers/STM32G4xx_HAL_Driver/Inc/stm32g4xx_ll_dac.h ****   *         @arg @ref LL_DAC_TRIANGLE_AMPLITUDE_63
1036:Drivers/STM32G4xx_HAL_Driver/Inc/stm32g4xx_ll_dac.h ****   *         @arg @ref LL_DAC_TRIANGLE_AMPLITUDE_127
1037:Drivers/STM32G4xx_HAL_Driver/Inc/stm32g4xx_ll_dac.h ****   *         @arg @ref LL_DAC_TRIANGLE_AMPLITUDE_255
1038:Drivers/STM32G4xx_HAL_Driver/Inc/stm32g4xx_ll_dac.h ****   *         @arg @ref LL_DAC_TRIANGLE_AMPLITUDE_511
1039:Drivers/STM32G4xx_HAL_Driver/Inc/stm32g4xx_ll_dac.h ****   *         @arg @ref LL_DAC_TRIANGLE_AMPLITUDE_1023
1040:Drivers/STM32G4xx_HAL_Driver/Inc/stm32g4xx_ll_dac.h ****   *         @arg @ref LL_DAC_TRIANGLE_AMPLITUDE_2047
1041:Drivers/STM32G4xx_HAL_Driver/Inc/stm32g4xx_ll_dac.h ****   *         @arg @ref LL_DAC_TRIANGLE_AMPLITUDE_4095
1042:Drivers/STM32G4xx_HAL_Driver/Inc/stm32g4xx_ll_dac.h ****   * @retval None
1043:Drivers/STM32G4xx_HAL_Driver/Inc/stm32g4xx_ll_dac.h ****   */
1044:Drivers/STM32G4xx_HAL_Driver/Inc/stm32g4xx_ll_dac.h **** __STATIC_INLINE void LL_DAC_SetWaveTriangleAmplitude(DAC_TypeDef *DACx, uint32_t DAC_Channel,
1045:Drivers/STM32G4xx_HAL_Driver/Inc/stm32g4xx_ll_dac.h ****                                                      uint32_t TriangleAmplitude)
1046:Drivers/STM32G4xx_HAL_Driver/Inc/stm32g4xx_ll_dac.h **** {
1047:Drivers/STM32G4xx_HAL_Driver/Inc/stm32g4xx_ll_dac.h ****   MODIFY_REG(DACx->CR,
1048:Drivers/STM32G4xx_HAL_Driver/Inc/stm32g4xx_ll_dac.h ****              DAC_CR_MAMP1 << (DAC_Channel & DAC_CR_CHX_BITOFFSET_MASK),
1049:Drivers/STM32G4xx_HAL_Driver/Inc/stm32g4xx_ll_dac.h ****              TriangleAmplitude << (DAC_Channel & DAC_CR_CHX_BITOFFSET_MASK));
1050:Drivers/STM32G4xx_HAL_Driver/Inc/stm32g4xx_ll_dac.h **** }
1051:Drivers/STM32G4xx_HAL_Driver/Inc/stm32g4xx_ll_dac.h **** 
1052:Drivers/STM32G4xx_HAL_Driver/Inc/stm32g4xx_ll_dac.h **** /**
1053:Drivers/STM32G4xx_HAL_Driver/Inc/stm32g4xx_ll_dac.h ****   * @brief  Get the triangle waveform generation for the selected DAC channel:
1054:Drivers/STM32G4xx_HAL_Driver/Inc/stm32g4xx_ll_dac.h ****   *         triangle mode and amplitude.
1055:Drivers/STM32G4xx_HAL_Driver/Inc/stm32g4xx_ll_dac.h ****   * @rmtoll CR       MAMP1          LL_DAC_GetWaveTriangleAmplitude\n
1056:Drivers/STM32G4xx_HAL_Driver/Inc/stm32g4xx_ll_dac.h ****   *         CR       MAMP2          LL_DAC_GetWaveTriangleAmplitude
1057:Drivers/STM32G4xx_HAL_Driver/Inc/stm32g4xx_ll_dac.h ****   * @param  DACx DAC instance
1058:Drivers/STM32G4xx_HAL_Driver/Inc/stm32g4xx_ll_dac.h ****   * @param  DAC_Channel This parameter can be one of the following values:
1059:Drivers/STM32G4xx_HAL_Driver/Inc/stm32g4xx_ll_dac.h ****   *         @arg @ref LL_DAC_CHANNEL_1
1060:Drivers/STM32G4xx_HAL_Driver/Inc/stm32g4xx_ll_dac.h ****   *         @arg @ref LL_DAC_CHANNEL_2 (1)
1061:Drivers/STM32G4xx_HAL_Driver/Inc/stm32g4xx_ll_dac.h ****   *
1062:Drivers/STM32G4xx_HAL_Driver/Inc/stm32g4xx_ll_dac.h ****   *         (1) On this STM32 series, parameter not available on all instances.
1063:Drivers/STM32G4xx_HAL_Driver/Inc/stm32g4xx_ll_dac.h ****   *             Refer to device datasheet for channels availability.
1064:Drivers/STM32G4xx_HAL_Driver/Inc/stm32g4xx_ll_dac.h ****   * @retval Returned value can be one of the following values:
ARM GAS  D:\apps\VSCode\data\tmp\ccbuGfzv.s 			page 21


1065:Drivers/STM32G4xx_HAL_Driver/Inc/stm32g4xx_ll_dac.h ****   *         @arg @ref LL_DAC_TRIANGLE_AMPLITUDE_1
1066:Drivers/STM32G4xx_HAL_Driver/Inc/stm32g4xx_ll_dac.h ****   *         @arg @ref LL_DAC_TRIANGLE_AMPLITUDE_3
1067:Drivers/STM32G4xx_HAL_Driver/Inc/stm32g4xx_ll_dac.h ****   *         @arg @ref LL_DAC_TRIANGLE_AMPLITUDE_7
1068:Drivers/STM32G4xx_HAL_Driver/Inc/stm32g4xx_ll_dac.h ****   *         @arg @ref LL_DAC_TRIANGLE_AMPLITUDE_15
1069:Drivers/STM32G4xx_HAL_Driver/Inc/stm32g4xx_ll_dac.h ****   *         @arg @ref LL_DAC_TRIANGLE_AMPLITUDE_31
1070:Drivers/STM32G4xx_HAL_Driver/Inc/stm32g4xx_ll_dac.h ****   *         @arg @ref LL_DAC_TRIANGLE_AMPLITUDE_63
1071:Drivers/STM32G4xx_HAL_Driver/Inc/stm32g4xx_ll_dac.h ****   *         @arg @ref LL_DAC_TRIANGLE_AMPLITUDE_127
1072:Drivers/STM32G4xx_HAL_Driver/Inc/stm32g4xx_ll_dac.h ****   *         @arg @ref LL_DAC_TRIANGLE_AMPLITUDE_255
1073:Drivers/STM32G4xx_HAL_Driver/Inc/stm32g4xx_ll_dac.h ****   *         @arg @ref LL_DAC_TRIANGLE_AMPLITUDE_511
1074:Drivers/STM32G4xx_HAL_Driver/Inc/stm32g4xx_ll_dac.h ****   *         @arg @ref LL_DAC_TRIANGLE_AMPLITUDE_1023
1075:Drivers/STM32G4xx_HAL_Driver/Inc/stm32g4xx_ll_dac.h ****   *         @arg @ref LL_DAC_TRIANGLE_AMPLITUDE_2047
1076:Drivers/STM32G4xx_HAL_Driver/Inc/stm32g4xx_ll_dac.h ****   *         @arg @ref LL_DAC_TRIANGLE_AMPLITUDE_4095
1077:Drivers/STM32G4xx_HAL_Driver/Inc/stm32g4xx_ll_dac.h ****   */
1078:Drivers/STM32G4xx_HAL_Driver/Inc/stm32g4xx_ll_dac.h **** __STATIC_INLINE uint32_t LL_DAC_GetWaveTriangleAmplitude(DAC_TypeDef *DACx, uint32_t DAC_Channel)
1079:Drivers/STM32G4xx_HAL_Driver/Inc/stm32g4xx_ll_dac.h **** {
1080:Drivers/STM32G4xx_HAL_Driver/Inc/stm32g4xx_ll_dac.h ****   return (uint32_t)(READ_BIT(DACx->CR, DAC_CR_MAMP1 << (DAC_Channel & DAC_CR_CHX_BITOFFSET_MASK))
1081:Drivers/STM32G4xx_HAL_Driver/Inc/stm32g4xx_ll_dac.h ****                     >> (DAC_Channel & DAC_CR_CHX_BITOFFSET_MASK)
1082:Drivers/STM32G4xx_HAL_Driver/Inc/stm32g4xx_ll_dac.h ****                    );
1083:Drivers/STM32G4xx_HAL_Driver/Inc/stm32g4xx_ll_dac.h **** }
1084:Drivers/STM32G4xx_HAL_Driver/Inc/stm32g4xx_ll_dac.h **** 
1085:Drivers/STM32G4xx_HAL_Driver/Inc/stm32g4xx_ll_dac.h **** /**
1086:Drivers/STM32G4xx_HAL_Driver/Inc/stm32g4xx_ll_dac.h ****   * @brief  Set the swatooth waveform generation polarity.
1087:Drivers/STM32G4xx_HAL_Driver/Inc/stm32g4xx_ll_dac.h ****   * @note   For wave generation to be effective, DAC channel
1088:Drivers/STM32G4xx_HAL_Driver/Inc/stm32g4xx_ll_dac.h ****   *         wave generation mode must be enabled using
1089:Drivers/STM32G4xx_HAL_Driver/Inc/stm32g4xx_ll_dac.h ****   *         function @ref LL_DAC_SetWaveAutoGeneration().
1090:Drivers/STM32G4xx_HAL_Driver/Inc/stm32g4xx_ll_dac.h ****   * @note   This setting can be set when the selected DAC channel is disabled
1091:Drivers/STM32G4xx_HAL_Driver/Inc/stm32g4xx_ll_dac.h ****   *         (otherwise, the setting operation is ignored).
1092:Drivers/STM32G4xx_HAL_Driver/Inc/stm32g4xx_ll_dac.h ****   * @rmtoll STR1     STDIR1         LL_DAC_SetWaveSawtoothPolarity\n
1093:Drivers/STM32G4xx_HAL_Driver/Inc/stm32g4xx_ll_dac.h ****   *         STR2     STDIR2         LL_DAC_SetWaveSawtoothPolarity
1094:Drivers/STM32G4xx_HAL_Driver/Inc/stm32g4xx_ll_dac.h ****   * @param  DACx DAC instance
1095:Drivers/STM32G4xx_HAL_Driver/Inc/stm32g4xx_ll_dac.h ****   * @param  DAC_Channel This parameter can be one of the following values:
1096:Drivers/STM32G4xx_HAL_Driver/Inc/stm32g4xx_ll_dac.h ****   *         @arg @ref LL_DAC_CHANNEL_1
1097:Drivers/STM32G4xx_HAL_Driver/Inc/stm32g4xx_ll_dac.h ****   *         @arg @ref LL_DAC_CHANNEL_2 (1)
1098:Drivers/STM32G4xx_HAL_Driver/Inc/stm32g4xx_ll_dac.h ****   *
1099:Drivers/STM32G4xx_HAL_Driver/Inc/stm32g4xx_ll_dac.h ****   *         (1) On this STM32 series, parameter not available on all instances.
1100:Drivers/STM32G4xx_HAL_Driver/Inc/stm32g4xx_ll_dac.h ****   *             Refer to device datasheet for channels availability.
1101:Drivers/STM32G4xx_HAL_Driver/Inc/stm32g4xx_ll_dac.h ****   * @param  Polarity This parameter can be one of the following values:
1102:Drivers/STM32G4xx_HAL_Driver/Inc/stm32g4xx_ll_dac.h ****   *         @arg @ref LL_DAC_SAWTOOTH_POLARITY_DECREMENT
1103:Drivers/STM32G4xx_HAL_Driver/Inc/stm32g4xx_ll_dac.h ****   *         @arg @ref LL_DAC_SAWTOOTH_POLARITY_INCREMENT
1104:Drivers/STM32G4xx_HAL_Driver/Inc/stm32g4xx_ll_dac.h ****   * @retval None
1105:Drivers/STM32G4xx_HAL_Driver/Inc/stm32g4xx_ll_dac.h ****   */
1106:Drivers/STM32G4xx_HAL_Driver/Inc/stm32g4xx_ll_dac.h **** __STATIC_INLINE void LL_DAC_SetWaveSawtoothPolarity(DAC_TypeDef *DACx, uint32_t DAC_Channel, uint32
1107:Drivers/STM32G4xx_HAL_Driver/Inc/stm32g4xx_ll_dac.h **** {
1108:Drivers/STM32G4xx_HAL_Driver/Inc/stm32g4xx_ll_dac.h ****   __IO uint32_t *preg = __DAC_PTR_REG_OFFSET(DACx->STR1, (DAC_Channel >> DAC_REG_STRX_REGOFFSET_BIT
1109:Drivers/STM32G4xx_HAL_Driver/Inc/stm32g4xx_ll_dac.h **** 
1110:Drivers/STM32G4xx_HAL_Driver/Inc/stm32g4xx_ll_dac.h ****   MODIFY_REG(*preg,
1111:Drivers/STM32G4xx_HAL_Driver/Inc/stm32g4xx_ll_dac.h ****              DAC_STR1_STDIR1,
1112:Drivers/STM32G4xx_HAL_Driver/Inc/stm32g4xx_ll_dac.h ****              Polarity);
1113:Drivers/STM32G4xx_HAL_Driver/Inc/stm32g4xx_ll_dac.h **** }
1114:Drivers/STM32G4xx_HAL_Driver/Inc/stm32g4xx_ll_dac.h **** 
1115:Drivers/STM32G4xx_HAL_Driver/Inc/stm32g4xx_ll_dac.h **** /**
1116:Drivers/STM32G4xx_HAL_Driver/Inc/stm32g4xx_ll_dac.h ****   * @brief  Get the sawtooth waveform generation polarity.
1117:Drivers/STM32G4xx_HAL_Driver/Inc/stm32g4xx_ll_dac.h ****   * @rmtoll STR1     STDIR1         LL_DAC_GetWaveSawtoothPolarity\n
1118:Drivers/STM32G4xx_HAL_Driver/Inc/stm32g4xx_ll_dac.h ****   *         STR2     STDIR2         LL_DAC_GetWaveSawtoothPolarity
1119:Drivers/STM32G4xx_HAL_Driver/Inc/stm32g4xx_ll_dac.h ****   * @param  DACx DAC instance
1120:Drivers/STM32G4xx_HAL_Driver/Inc/stm32g4xx_ll_dac.h ****   * @param  DAC_Channel This parameter can be one of the following values:
1121:Drivers/STM32G4xx_HAL_Driver/Inc/stm32g4xx_ll_dac.h ****   *         @arg @ref LL_DAC_CHANNEL_1
ARM GAS  D:\apps\VSCode\data\tmp\ccbuGfzv.s 			page 22


1122:Drivers/STM32G4xx_HAL_Driver/Inc/stm32g4xx_ll_dac.h ****   *         @arg @ref LL_DAC_CHANNEL_2 (1)
1123:Drivers/STM32G4xx_HAL_Driver/Inc/stm32g4xx_ll_dac.h ****   *
1124:Drivers/STM32G4xx_HAL_Driver/Inc/stm32g4xx_ll_dac.h ****   *         (1) On this STM32 series, parameter not available on all instances.
1125:Drivers/STM32G4xx_HAL_Driver/Inc/stm32g4xx_ll_dac.h ****   *             Refer to device datasheet for channels availability.
1126:Drivers/STM32G4xx_HAL_Driver/Inc/stm32g4xx_ll_dac.h ****   * @retval Returned value can be one of the following values:
1127:Drivers/STM32G4xx_HAL_Driver/Inc/stm32g4xx_ll_dac.h ****   *         @arg @ref LL_DAC_SAWTOOTH_POLARITY_DECREMENT
1128:Drivers/STM32G4xx_HAL_Driver/Inc/stm32g4xx_ll_dac.h ****   *         @arg @ref LL_DAC_SAWTOOTH_POLARITY_INCREMENT
1129:Drivers/STM32G4xx_HAL_Driver/Inc/stm32g4xx_ll_dac.h ****   */
1130:Drivers/STM32G4xx_HAL_Driver/Inc/stm32g4xx_ll_dac.h **** __STATIC_INLINE uint32_t LL_DAC_GetWaveSawtoothPolarity(DAC_TypeDef *DACx, uint32_t DAC_Channel)
1131:Drivers/STM32G4xx_HAL_Driver/Inc/stm32g4xx_ll_dac.h **** {
1132:Drivers/STM32G4xx_HAL_Driver/Inc/stm32g4xx_ll_dac.h ****   __IO uint32_t const *preg = __DAC_PTR_REG_OFFSET(DACx->STR1, (DAC_Channel >> DAC_REG_STRX_REGOFFS
1133:Drivers/STM32G4xx_HAL_Driver/Inc/stm32g4xx_ll_dac.h **** 
1134:Drivers/STM32G4xx_HAL_Driver/Inc/stm32g4xx_ll_dac.h ****   return (uint32_t) READ_BIT(*preg, DAC_STR1_STDIR1);
1135:Drivers/STM32G4xx_HAL_Driver/Inc/stm32g4xx_ll_dac.h **** }
1136:Drivers/STM32G4xx_HAL_Driver/Inc/stm32g4xx_ll_dac.h **** 
1137:Drivers/STM32G4xx_HAL_Driver/Inc/stm32g4xx_ll_dac.h **** /**
1138:Drivers/STM32G4xx_HAL_Driver/Inc/stm32g4xx_ll_dac.h ****   * @brief  Set the swatooth waveform generation reset data.
1139:Drivers/STM32G4xx_HAL_Driver/Inc/stm32g4xx_ll_dac.h ****   * @note   For wave generation to be effective, DAC channel
1140:Drivers/STM32G4xx_HAL_Driver/Inc/stm32g4xx_ll_dac.h ****   *         wave generation mode must be enabled using
1141:Drivers/STM32G4xx_HAL_Driver/Inc/stm32g4xx_ll_dac.h ****   *         function @ref LL_DAC_SetWaveAutoGeneration().
1142:Drivers/STM32G4xx_HAL_Driver/Inc/stm32g4xx_ll_dac.h ****   * @note   This setting can be set when the selected DAC channel is disabled
1143:Drivers/STM32G4xx_HAL_Driver/Inc/stm32g4xx_ll_dac.h ****   *         (otherwise, the setting operation is ignored).
1144:Drivers/STM32G4xx_HAL_Driver/Inc/stm32g4xx_ll_dac.h ****   * @rmtoll STR1     STRSTDATA1     LL_DAC_SetWaveSawtoothResetData\n
1145:Drivers/STM32G4xx_HAL_Driver/Inc/stm32g4xx_ll_dac.h ****   *         STR2     STRSTDATA2     LL_DAC_SetWaveSawtoothResetData
1146:Drivers/STM32G4xx_HAL_Driver/Inc/stm32g4xx_ll_dac.h ****   * @param  DACx DAC instance
1147:Drivers/STM32G4xx_HAL_Driver/Inc/stm32g4xx_ll_dac.h ****   * @param  DAC_Channel This parameter can be one of the following values:
1148:Drivers/STM32G4xx_HAL_Driver/Inc/stm32g4xx_ll_dac.h ****   *         @arg @ref LL_DAC_CHANNEL_1
1149:Drivers/STM32G4xx_HAL_Driver/Inc/stm32g4xx_ll_dac.h ****   *         @arg @ref LL_DAC_CHANNEL_2 (1)
1150:Drivers/STM32G4xx_HAL_Driver/Inc/stm32g4xx_ll_dac.h ****   *
1151:Drivers/STM32G4xx_HAL_Driver/Inc/stm32g4xx_ll_dac.h ****   *         (1) On this STM32 series, parameter not available on all instances.
1152:Drivers/STM32G4xx_HAL_Driver/Inc/stm32g4xx_ll_dac.h ****   *             Refer to device datasheet for channels availability.
1153:Drivers/STM32G4xx_HAL_Driver/Inc/stm32g4xx_ll_dac.h ****   * @param  ResetData This parameter is the sawtooth reset value.
1154:Drivers/STM32G4xx_HAL_Driver/Inc/stm32g4xx_ll_dac.h ****   *         Range is from 0 to DAC full range 4095 (0xFFF)
1155:Drivers/STM32G4xx_HAL_Driver/Inc/stm32g4xx_ll_dac.h ****   * @retval None
1156:Drivers/STM32G4xx_HAL_Driver/Inc/stm32g4xx_ll_dac.h ****   */
1157:Drivers/STM32G4xx_HAL_Driver/Inc/stm32g4xx_ll_dac.h **** __STATIC_INLINE void LL_DAC_SetWaveSawtoothResetData(DAC_TypeDef *DACx, uint32_t DAC_Channel, uint3
1158:Drivers/STM32G4xx_HAL_Driver/Inc/stm32g4xx_ll_dac.h **** {
1159:Drivers/STM32G4xx_HAL_Driver/Inc/stm32g4xx_ll_dac.h ****   __IO uint32_t *preg = __DAC_PTR_REG_OFFSET(DACx->STR1, (DAC_Channel >> DAC_REG_STRX_REGOFFSET_BIT
1160:Drivers/STM32G4xx_HAL_Driver/Inc/stm32g4xx_ll_dac.h **** 
1161:Drivers/STM32G4xx_HAL_Driver/Inc/stm32g4xx_ll_dac.h ****   MODIFY_REG(*preg,
1162:Drivers/STM32G4xx_HAL_Driver/Inc/stm32g4xx_ll_dac.h ****              DAC_STR1_STRSTDATA1,
1163:Drivers/STM32G4xx_HAL_Driver/Inc/stm32g4xx_ll_dac.h ****              ResetData << DAC_STR1_STRSTDATA1_Pos);
1164:Drivers/STM32G4xx_HAL_Driver/Inc/stm32g4xx_ll_dac.h **** }
1165:Drivers/STM32G4xx_HAL_Driver/Inc/stm32g4xx_ll_dac.h **** 
1166:Drivers/STM32G4xx_HAL_Driver/Inc/stm32g4xx_ll_dac.h **** /**
1167:Drivers/STM32G4xx_HAL_Driver/Inc/stm32g4xx_ll_dac.h ****   * @brief  Get the sawtooth waveform generation reset data.
1168:Drivers/STM32G4xx_HAL_Driver/Inc/stm32g4xx_ll_dac.h ****   * @rmtoll STR1     STRSTDATA1     LL_DAC_GetWaveSawtoothResetData\n
1169:Drivers/STM32G4xx_HAL_Driver/Inc/stm32g4xx_ll_dac.h ****   *         STR2     STRSTDATA2     LL_DAC_GetWaveSawtoothResetData
1170:Drivers/STM32G4xx_HAL_Driver/Inc/stm32g4xx_ll_dac.h ****   * @param  DACx DAC instance
1171:Drivers/STM32G4xx_HAL_Driver/Inc/stm32g4xx_ll_dac.h ****   * @param  DAC_Channel This parameter can be one of the following values:
1172:Drivers/STM32G4xx_HAL_Driver/Inc/stm32g4xx_ll_dac.h ****   *         @arg @ref LL_DAC_CHANNEL_1
1173:Drivers/STM32G4xx_HAL_Driver/Inc/stm32g4xx_ll_dac.h ****   *         @arg @ref LL_DAC_CHANNEL_2 (1)
1174:Drivers/STM32G4xx_HAL_Driver/Inc/stm32g4xx_ll_dac.h ****   *
1175:Drivers/STM32G4xx_HAL_Driver/Inc/stm32g4xx_ll_dac.h ****   *         (1) On this STM32 series, parameter not available on all instances.
1176:Drivers/STM32G4xx_HAL_Driver/Inc/stm32g4xx_ll_dac.h ****   *             Refer to device datasheet for channels availability.
1177:Drivers/STM32G4xx_HAL_Driver/Inc/stm32g4xx_ll_dac.h ****   * @retval Returned value is the sawtooth reset value.
1178:Drivers/STM32G4xx_HAL_Driver/Inc/stm32g4xx_ll_dac.h ****   *         Range is from 0 to DAC full range 4095 (0xFFF)
ARM GAS  D:\apps\VSCode\data\tmp\ccbuGfzv.s 			page 23


1179:Drivers/STM32G4xx_HAL_Driver/Inc/stm32g4xx_ll_dac.h ****   */
1180:Drivers/STM32G4xx_HAL_Driver/Inc/stm32g4xx_ll_dac.h **** __STATIC_INLINE uint32_t LL_DAC_GetWaveSawtoothResetData(DAC_TypeDef *DACx, uint32_t DAC_Channel)
1181:Drivers/STM32G4xx_HAL_Driver/Inc/stm32g4xx_ll_dac.h **** {
1182:Drivers/STM32G4xx_HAL_Driver/Inc/stm32g4xx_ll_dac.h ****   __IO uint32_t const *preg = __DAC_PTR_REG_OFFSET(DACx->STR1, (DAC_Channel >> DAC_REG_STRX_REGOFFS
1183:Drivers/STM32G4xx_HAL_Driver/Inc/stm32g4xx_ll_dac.h **** 
1184:Drivers/STM32G4xx_HAL_Driver/Inc/stm32g4xx_ll_dac.h ****   return (uint32_t)(READ_BIT(*preg, DAC_STR1_STRSTDATA1) >> DAC_STR1_STRSTDATA1_Pos);
1185:Drivers/STM32G4xx_HAL_Driver/Inc/stm32g4xx_ll_dac.h **** }
1186:Drivers/STM32G4xx_HAL_Driver/Inc/stm32g4xx_ll_dac.h **** 
1187:Drivers/STM32G4xx_HAL_Driver/Inc/stm32g4xx_ll_dac.h **** /**
1188:Drivers/STM32G4xx_HAL_Driver/Inc/stm32g4xx_ll_dac.h ****   * @brief  Set the swatooth waveform generation step data.
1189:Drivers/STM32G4xx_HAL_Driver/Inc/stm32g4xx_ll_dac.h ****   * @note   For wave generation to be effective, DAC channel
1190:Drivers/STM32G4xx_HAL_Driver/Inc/stm32g4xx_ll_dac.h ****   *         wave generation mode must be enabled using
1191:Drivers/STM32G4xx_HAL_Driver/Inc/stm32g4xx_ll_dac.h ****   *         function @ref LL_DAC_SetWaveAutoGeneration().
1192:Drivers/STM32G4xx_HAL_Driver/Inc/stm32g4xx_ll_dac.h ****   * @note   This setting can be set when the selected DAC channel is disabled
1193:Drivers/STM32G4xx_HAL_Driver/Inc/stm32g4xx_ll_dac.h ****   *         (otherwise, the setting operation is ignored).
1194:Drivers/STM32G4xx_HAL_Driver/Inc/stm32g4xx_ll_dac.h ****   * @rmtoll STR1     STINCDATA1     LL_DAC_SetWaveSawtoothStepData\n
1195:Drivers/STM32G4xx_HAL_Driver/Inc/stm32g4xx_ll_dac.h ****   *         STR2     STINCDATA2     LL_DAC_SetWaveSawtoothStepData
1196:Drivers/STM32G4xx_HAL_Driver/Inc/stm32g4xx_ll_dac.h ****   * @param  DACx DAC instance
1197:Drivers/STM32G4xx_HAL_Driver/Inc/stm32g4xx_ll_dac.h ****   * @param  DAC_Channel This parameter can be one of the following values:
1198:Drivers/STM32G4xx_HAL_Driver/Inc/stm32g4xx_ll_dac.h ****   *         @arg @ref LL_DAC_CHANNEL_1
1199:Drivers/STM32G4xx_HAL_Driver/Inc/stm32g4xx_ll_dac.h ****   *         @arg @ref LL_DAC_CHANNEL_2 (1)
1200:Drivers/STM32G4xx_HAL_Driver/Inc/stm32g4xx_ll_dac.h ****   *
1201:Drivers/STM32G4xx_HAL_Driver/Inc/stm32g4xx_ll_dac.h ****   *         (1) On this STM32 series, parameter not available on all instances.
1202:Drivers/STM32G4xx_HAL_Driver/Inc/stm32g4xx_ll_dac.h ****   *             Refer to device datasheet for channels availability.
1203:Drivers/STM32G4xx_HAL_Driver/Inc/stm32g4xx_ll_dac.h ****   * @param  StepData This parameter is the sawtooth step value.
1204:Drivers/STM32G4xx_HAL_Driver/Inc/stm32g4xx_ll_dac.h ****   *         12.4 bit format, unsigned: 12 bits exponent / 4 bits mantissa
1205:Drivers/STM32G4xx_HAL_Driver/Inc/stm32g4xx_ll_dac.h ****   *         Step value step is 1/16 = 0.0625
1206:Drivers/STM32G4xx_HAL_Driver/Inc/stm32g4xx_ll_dac.h ****   *         Step value range is 0.0000 to 4095.9375 (0xFFF.F)
1207:Drivers/STM32G4xx_HAL_Driver/Inc/stm32g4xx_ll_dac.h ****   * @retval None
1208:Drivers/STM32G4xx_HAL_Driver/Inc/stm32g4xx_ll_dac.h ****   */
1209:Drivers/STM32G4xx_HAL_Driver/Inc/stm32g4xx_ll_dac.h **** __STATIC_INLINE void LL_DAC_SetWaveSawtoothStepData(DAC_TypeDef *DACx, uint32_t DAC_Channel, uint32
1210:Drivers/STM32G4xx_HAL_Driver/Inc/stm32g4xx_ll_dac.h **** {
1211:Drivers/STM32G4xx_HAL_Driver/Inc/stm32g4xx_ll_dac.h ****   __IO uint32_t *preg = __DAC_PTR_REG_OFFSET(DACx->STR1, (DAC_Channel >> DAC_REG_STRX_REGOFFSET_BIT
1212:Drivers/STM32G4xx_HAL_Driver/Inc/stm32g4xx_ll_dac.h **** 
1213:Drivers/STM32G4xx_HAL_Driver/Inc/stm32g4xx_ll_dac.h ****   MODIFY_REG(*preg,
1214:Drivers/STM32G4xx_HAL_Driver/Inc/stm32g4xx_ll_dac.h ****              DAC_STR1_STINCDATA1,
1215:Drivers/STM32G4xx_HAL_Driver/Inc/stm32g4xx_ll_dac.h ****              StepData << DAC_STR1_STINCDATA1_Pos);
1216:Drivers/STM32G4xx_HAL_Driver/Inc/stm32g4xx_ll_dac.h **** }
1217:Drivers/STM32G4xx_HAL_Driver/Inc/stm32g4xx_ll_dac.h **** 
1218:Drivers/STM32G4xx_HAL_Driver/Inc/stm32g4xx_ll_dac.h **** /**
1219:Drivers/STM32G4xx_HAL_Driver/Inc/stm32g4xx_ll_dac.h ****   * @brief  Get the sawtooth waveform generation step data.
1220:Drivers/STM32G4xx_HAL_Driver/Inc/stm32g4xx_ll_dac.h ****   * @rmtoll STR1     STINCDATA1     LL_DAC_GetWaveSawtoothStepData\n
1221:Drivers/STM32G4xx_HAL_Driver/Inc/stm32g4xx_ll_dac.h ****   *         STR2     STINCDATA2     LL_DAC_GetWaveSawtoothStepData
1222:Drivers/STM32G4xx_HAL_Driver/Inc/stm32g4xx_ll_dac.h ****   * @param  DACx DAC instance
1223:Drivers/STM32G4xx_HAL_Driver/Inc/stm32g4xx_ll_dac.h ****   * @param  DAC_Channel This parameter can be one of the following values:
1224:Drivers/STM32G4xx_HAL_Driver/Inc/stm32g4xx_ll_dac.h ****   *         @arg @ref LL_DAC_CHANNEL_1
1225:Drivers/STM32G4xx_HAL_Driver/Inc/stm32g4xx_ll_dac.h ****   *         @arg @ref LL_DAC_CHANNEL_2 (1)
1226:Drivers/STM32G4xx_HAL_Driver/Inc/stm32g4xx_ll_dac.h ****   *
1227:Drivers/STM32G4xx_HAL_Driver/Inc/stm32g4xx_ll_dac.h ****   *         (1) On this STM32 series, parameter not available on all instances.
1228:Drivers/STM32G4xx_HAL_Driver/Inc/stm32g4xx_ll_dac.h ****   *             Refer to device datasheet for channels availability.
1229:Drivers/STM32G4xx_HAL_Driver/Inc/stm32g4xx_ll_dac.h ****   * @retval Returned value is the sawtooth step value.
1230:Drivers/STM32G4xx_HAL_Driver/Inc/stm32g4xx_ll_dac.h ****   *         12.4 bit format, unsigned: 12 bits exponent / 4 bits mantissa
1231:Drivers/STM32G4xx_HAL_Driver/Inc/stm32g4xx_ll_dac.h ****   *         Step value step is 1/16 = 0.0625
1232:Drivers/STM32G4xx_HAL_Driver/Inc/stm32g4xx_ll_dac.h ****   *         Step value range is 0.0000 to 4095.9375 (0xFFF.F)
1233:Drivers/STM32G4xx_HAL_Driver/Inc/stm32g4xx_ll_dac.h ****   */
1234:Drivers/STM32G4xx_HAL_Driver/Inc/stm32g4xx_ll_dac.h **** __STATIC_INLINE uint32_t LL_DAC_GetWaveSawtoothStepData(DAC_TypeDef *DACx, uint32_t DAC_Channel)
1235:Drivers/STM32G4xx_HAL_Driver/Inc/stm32g4xx_ll_dac.h **** {
ARM GAS  D:\apps\VSCode\data\tmp\ccbuGfzv.s 			page 24


1236:Drivers/STM32G4xx_HAL_Driver/Inc/stm32g4xx_ll_dac.h ****   __IO uint32_t const *preg = __DAC_PTR_REG_OFFSET(DACx->STR1, (DAC_Channel >> DAC_REG_STRX_REGOFFS
1237:Drivers/STM32G4xx_HAL_Driver/Inc/stm32g4xx_ll_dac.h **** 
1238:Drivers/STM32G4xx_HAL_Driver/Inc/stm32g4xx_ll_dac.h ****   return (uint32_t)(READ_BIT(*preg, DAC_STR1_STINCDATA1) >> DAC_STR1_STINCDATA1_Pos);
1239:Drivers/STM32G4xx_HAL_Driver/Inc/stm32g4xx_ll_dac.h **** }
1240:Drivers/STM32G4xx_HAL_Driver/Inc/stm32g4xx_ll_dac.h **** 
1241:Drivers/STM32G4xx_HAL_Driver/Inc/stm32g4xx_ll_dac.h **** /**
1242:Drivers/STM32G4xx_HAL_Driver/Inc/stm32g4xx_ll_dac.h ****   * @brief  Set the swatooth waveform generation reset trigger source.
1243:Drivers/STM32G4xx_HAL_Driver/Inc/stm32g4xx_ll_dac.h ****   * @note   For wave generation to be effective, DAC channel
1244:Drivers/STM32G4xx_HAL_Driver/Inc/stm32g4xx_ll_dac.h ****   *         wave generation mode must be enabled using
1245:Drivers/STM32G4xx_HAL_Driver/Inc/stm32g4xx_ll_dac.h ****   *         function @ref LL_DAC_SetWaveAutoGeneration().
1246:Drivers/STM32G4xx_HAL_Driver/Inc/stm32g4xx_ll_dac.h ****   * @note   This setting can be set when the selected DAC channel is disabled
1247:Drivers/STM32G4xx_HAL_Driver/Inc/stm32g4xx_ll_dac.h ****   *         (otherwise, the setting operation is ignored).
1248:Drivers/STM32G4xx_HAL_Driver/Inc/stm32g4xx_ll_dac.h ****   * @rmtoll STMODR   STRSTTRIGSEL1  LL_DAC_SetWaveSawtoothResetTriggerSource\n
1249:Drivers/STM32G4xx_HAL_Driver/Inc/stm32g4xx_ll_dac.h ****   *         STMODR   STRSTTRIGSEL2  LL_DAC_SetWaveSawtoothResetTriggerSource
1250:Drivers/STM32G4xx_HAL_Driver/Inc/stm32g4xx_ll_dac.h ****   * @param  DACx DAC instance
1251:Drivers/STM32G4xx_HAL_Driver/Inc/stm32g4xx_ll_dac.h ****   * @param  DAC_Channel This parameter can be one of the following values:
1252:Drivers/STM32G4xx_HAL_Driver/Inc/stm32g4xx_ll_dac.h ****   *         @arg @ref LL_DAC_CHANNEL_1
1253:Drivers/STM32G4xx_HAL_Driver/Inc/stm32g4xx_ll_dac.h ****   *         @arg @ref LL_DAC_CHANNEL_2 (1)
1254:Drivers/STM32G4xx_HAL_Driver/Inc/stm32g4xx_ll_dac.h ****   *
1255:Drivers/STM32G4xx_HAL_Driver/Inc/stm32g4xx_ll_dac.h ****   *         (1) On this STM32 series, parameter not available on all instances.
1256:Drivers/STM32G4xx_HAL_Driver/Inc/stm32g4xx_ll_dac.h ****   *             Refer to device datasheet for channels availability.
1257:Drivers/STM32G4xx_HAL_Driver/Inc/stm32g4xx_ll_dac.h ****   * @param  TriggerSource This parameter can be one of the following values:
1258:Drivers/STM32G4xx_HAL_Driver/Inc/stm32g4xx_ll_dac.h ****   *         @arg @ref LL_DAC_TRIG_SOFTWARE
1259:Drivers/STM32G4xx_HAL_Driver/Inc/stm32g4xx_ll_dac.h ****   *         @arg @ref LL_DAC_TRIG_EXT_TIM1_TRGO            (1)
1260:Drivers/STM32G4xx_HAL_Driver/Inc/stm32g4xx_ll_dac.h ****   *         @arg @ref LL_DAC_TRIG_EXT_TIM8_TRGO            (2)
1261:Drivers/STM32G4xx_HAL_Driver/Inc/stm32g4xx_ll_dac.h ****   *         @arg @ref LL_DAC_TRIG_EXT_TIM7_TRGO
1262:Drivers/STM32G4xx_HAL_Driver/Inc/stm32g4xx_ll_dac.h ****   *         @arg @ref LL_DAC_TRIG_EXT_TIM15_TRGO
1263:Drivers/STM32G4xx_HAL_Driver/Inc/stm32g4xx_ll_dac.h ****   *         @arg @ref LL_DAC_TRIG_EXT_TIM2_TRGO
1264:Drivers/STM32G4xx_HAL_Driver/Inc/stm32g4xx_ll_dac.h ****   *         @arg @ref LL_DAC_TRIG_EXT_TIM4_TRGO
1265:Drivers/STM32G4xx_HAL_Driver/Inc/stm32g4xx_ll_dac.h ****   *         @arg @ref LL_DAC_TRIG_EXT_EXTI_LINE9
1266:Drivers/STM32G4xx_HAL_Driver/Inc/stm32g4xx_ll_dac.h ****   *         @arg @ref LL_DAC_TRIG_EXT_TIM6_TRGO
1267:Drivers/STM32G4xx_HAL_Driver/Inc/stm32g4xx_ll_dac.h ****   *         @arg @ref LL_DAC_TRIG_EXT_TIM3_TRGO
1268:Drivers/STM32G4xx_HAL_Driver/Inc/stm32g4xx_ll_dac.h ****   *         @arg @ref LL_DAC_TRIG_EXT_HRTIM_RST_TRG1           (5)
1269:Drivers/STM32G4xx_HAL_Driver/Inc/stm32g4xx_ll_dac.h ****   *         @arg @ref LL_DAC_TRIG_EXT_HRTIM_RST_TRG2           (5)
1270:Drivers/STM32G4xx_HAL_Driver/Inc/stm32g4xx_ll_dac.h ****   *         @arg @ref LL_DAC_TRIG_EXT_HRTIM_RST_TRG3           (5)
1271:Drivers/STM32G4xx_HAL_Driver/Inc/stm32g4xx_ll_dac.h ****   *         @arg @ref LL_DAC_TRIG_EXT_HRTIM_RST_TRG4           (5)
1272:Drivers/STM32G4xx_HAL_Driver/Inc/stm32g4xx_ll_dac.h ****   *         @arg @ref LL_DAC_TRIG_EXT_HRTIM_RST_TRG5           (5)
1273:Drivers/STM32G4xx_HAL_Driver/Inc/stm32g4xx_ll_dac.h ****   *         @arg @ref LL_DAC_TRIG_EXT_HRTIM_RST_TRG6           (5)
1274:Drivers/STM32G4xx_HAL_Driver/Inc/stm32g4xx_ll_dac.h ****   *         @arg @ref LL_DAC_TRIG_EXT_HRTIM_TRGO1          (3) (5)
1275:Drivers/STM32G4xx_HAL_Driver/Inc/stm32g4xx_ll_dac.h ****   *         @arg @ref LL_DAC_TRIG_EXT_HRTIM_TRGO2          (4) (5)
1276:Drivers/STM32G4xx_HAL_Driver/Inc/stm32g4xx_ll_dac.h ****   *         @arg @ref LL_DAC_TRIG_EXT_HRTIM_TRGO3          (1) (5)
1277:Drivers/STM32G4xx_HAL_Driver/Inc/stm32g4xx_ll_dac.h ****   *
1278:Drivers/STM32G4xx_HAL_Driver/Inc/stm32g4xx_ll_dac.h ****   *         (1) On this STM32 series, parameter only available on DAC3.
1279:Drivers/STM32G4xx_HAL_Driver/Inc/stm32g4xx_ll_dac.h ****   *         (2) On this STM32 series, parameter only available on DAC1/2/4.
1280:Drivers/STM32G4xx_HAL_Driver/Inc/stm32g4xx_ll_dac.h ****   *         (3) On this STM32 series, parameter only available on DAC1&4.
1281:Drivers/STM32G4xx_HAL_Driver/Inc/stm32g4xx_ll_dac.h ****   *         (4) On this STM32 series, parameter only available on DAC2.
1282:Drivers/STM32G4xx_HAL_Driver/Inc/stm32g4xx_ll_dac.h ****   *          Refer to device datasheet for DACx instances availability.
1283:Drivers/STM32G4xx_HAL_Driver/Inc/stm32g4xx_ll_dac.h ****   *         (5) On this STM32 series, parameter not available on all devices.
1284:Drivers/STM32G4xx_HAL_Driver/Inc/stm32g4xx_ll_dac.h ****   *          Only available if HRTIM feature is supported (refer to device datasheet for supported 
1285:Drivers/STM32G4xx_HAL_Driver/Inc/stm32g4xx_ll_dac.h ****   * @retval None
1286:Drivers/STM32G4xx_HAL_Driver/Inc/stm32g4xx_ll_dac.h ****   */
1287:Drivers/STM32G4xx_HAL_Driver/Inc/stm32g4xx_ll_dac.h **** __STATIC_INLINE void LL_DAC_SetWaveSawtoothResetTriggerSource(DAC_TypeDef *DACx, uint32_t DAC_Chann
1288:Drivers/STM32G4xx_HAL_Driver/Inc/stm32g4xx_ll_dac.h ****                                                               uint32_t TriggerSource)
1289:Drivers/STM32G4xx_HAL_Driver/Inc/stm32g4xx_ll_dac.h **** {
1290:Drivers/STM32G4xx_HAL_Driver/Inc/stm32g4xx_ll_dac.h ****   MODIFY_REG(DACx->STMODR,
1291:Drivers/STM32G4xx_HAL_Driver/Inc/stm32g4xx_ll_dac.h ****              DAC_STMODR_STRSTTRIGSEL1 << (DAC_Channel & DAC_CR_CHX_BITOFFSET_MASK),
1292:Drivers/STM32G4xx_HAL_Driver/Inc/stm32g4xx_ll_dac.h ****              ((TriggerSource >> DAC_CR_TSEL1_Pos) << DAC_STMODR_STRSTTRIGSEL1_Pos) << (DAC_Channel 
ARM GAS  D:\apps\VSCode\data\tmp\ccbuGfzv.s 			page 25


1293:Drivers/STM32G4xx_HAL_Driver/Inc/stm32g4xx_ll_dac.h **** }
1294:Drivers/STM32G4xx_HAL_Driver/Inc/stm32g4xx_ll_dac.h **** 
1295:Drivers/STM32G4xx_HAL_Driver/Inc/stm32g4xx_ll_dac.h **** /**
1296:Drivers/STM32G4xx_HAL_Driver/Inc/stm32g4xx_ll_dac.h ****   * @brief  Get the sawtooth waveform generation reset trigger source.
1297:Drivers/STM32G4xx_HAL_Driver/Inc/stm32g4xx_ll_dac.h ****   * @rmtoll STMODR   STRSTTRIGSEL1  LL_DAC_GetWaveSawtoothResetTriggerSource\n
1298:Drivers/STM32G4xx_HAL_Driver/Inc/stm32g4xx_ll_dac.h ****   *         STMODR   STRSTTRIGSEL2  LL_DAC_GetWaveSawtoothResetTriggerSource
1299:Drivers/STM32G4xx_HAL_Driver/Inc/stm32g4xx_ll_dac.h ****   * @param  DACx DAC instance
1300:Drivers/STM32G4xx_HAL_Driver/Inc/stm32g4xx_ll_dac.h ****   * @param  DAC_Channel This parameter can be one of the following values:
1301:Drivers/STM32G4xx_HAL_Driver/Inc/stm32g4xx_ll_dac.h ****   *         @arg @ref LL_DAC_CHANNEL_1
1302:Drivers/STM32G4xx_HAL_Driver/Inc/stm32g4xx_ll_dac.h ****   *         @arg @ref LL_DAC_CHANNEL_2 (1)
1303:Drivers/STM32G4xx_HAL_Driver/Inc/stm32g4xx_ll_dac.h ****   *
1304:Drivers/STM32G4xx_HAL_Driver/Inc/stm32g4xx_ll_dac.h ****   *         (1) On this STM32 series, parameter not available on all instances.
1305:Drivers/STM32G4xx_HAL_Driver/Inc/stm32g4xx_ll_dac.h ****   *             Refer to device datasheet for channels availability.
1306:Drivers/STM32G4xx_HAL_Driver/Inc/stm32g4xx_ll_dac.h ****   * @retval Returned value can be one of the following values:
1307:Drivers/STM32G4xx_HAL_Driver/Inc/stm32g4xx_ll_dac.h ****   *         @arg @ref LL_DAC_TRIG_SOFTWARE
1308:Drivers/STM32G4xx_HAL_Driver/Inc/stm32g4xx_ll_dac.h ****   *         @arg @ref LL_DAC_TRIG_EXT_TIM1_TRGO            (1)
1309:Drivers/STM32G4xx_HAL_Driver/Inc/stm32g4xx_ll_dac.h ****   *         @arg @ref LL_DAC_TRIG_EXT_TIM8_TRGO            (2)
1310:Drivers/STM32G4xx_HAL_Driver/Inc/stm32g4xx_ll_dac.h ****   *         @arg @ref LL_DAC_TRIG_EXT_TIM7_TRGO
1311:Drivers/STM32G4xx_HAL_Driver/Inc/stm32g4xx_ll_dac.h ****   *         @arg @ref LL_DAC_TRIG_EXT_TIM15_TRGO
1312:Drivers/STM32G4xx_HAL_Driver/Inc/stm32g4xx_ll_dac.h ****   *         @arg @ref LL_DAC_TRIG_EXT_TIM2_TRGO
1313:Drivers/STM32G4xx_HAL_Driver/Inc/stm32g4xx_ll_dac.h ****   *         @arg @ref LL_DAC_TRIG_EXT_TIM4_TRGO
1314:Drivers/STM32G4xx_HAL_Driver/Inc/stm32g4xx_ll_dac.h ****   *         @arg @ref LL_DAC_TRIG_EXT_EXTI_LINE9
1315:Drivers/STM32G4xx_HAL_Driver/Inc/stm32g4xx_ll_dac.h ****   *         @arg @ref LL_DAC_TRIG_EXT_TIM6_TRGO
1316:Drivers/STM32G4xx_HAL_Driver/Inc/stm32g4xx_ll_dac.h ****   *         @arg @ref LL_DAC_TRIG_EXT_TIM3_TRGO
1317:Drivers/STM32G4xx_HAL_Driver/Inc/stm32g4xx_ll_dac.h ****   *         @arg @ref LL_DAC_TRIG_EXT_HRTIM_RST_TRG1           (5)
1318:Drivers/STM32G4xx_HAL_Driver/Inc/stm32g4xx_ll_dac.h ****   *         @arg @ref LL_DAC_TRIG_EXT_HRTIM_RST_TRG2           (5)
1319:Drivers/STM32G4xx_HAL_Driver/Inc/stm32g4xx_ll_dac.h ****   *         @arg @ref LL_DAC_TRIG_EXT_HRTIM_RST_TRG3           (5)
1320:Drivers/STM32G4xx_HAL_Driver/Inc/stm32g4xx_ll_dac.h ****   *         @arg @ref LL_DAC_TRIG_EXT_HRTIM_RST_TRG4           (5)
1321:Drivers/STM32G4xx_HAL_Driver/Inc/stm32g4xx_ll_dac.h ****   *         @arg @ref LL_DAC_TRIG_EXT_HRTIM_RST_TRG5           (5)
1322:Drivers/STM32G4xx_HAL_Driver/Inc/stm32g4xx_ll_dac.h ****   *         @arg @ref LL_DAC_TRIG_EXT_HRTIM_RST_TRG6           (5)
1323:Drivers/STM32G4xx_HAL_Driver/Inc/stm32g4xx_ll_dac.h ****   *         @arg @ref LL_DAC_TRIG_EXT_HRTIM_TRGO1          (3) (5)
1324:Drivers/STM32G4xx_HAL_Driver/Inc/stm32g4xx_ll_dac.h ****   *         @arg @ref LL_DAC_TRIG_EXT_HRTIM_TRGO2          (4) (5)
1325:Drivers/STM32G4xx_HAL_Driver/Inc/stm32g4xx_ll_dac.h ****   *         @arg @ref LL_DAC_TRIG_EXT_HRTIM_TRGO3          (1) (5)
1326:Drivers/STM32G4xx_HAL_Driver/Inc/stm32g4xx_ll_dac.h ****   *
1327:Drivers/STM32G4xx_HAL_Driver/Inc/stm32g4xx_ll_dac.h ****   *         (1) On this STM32 series, parameter only available on DAC3.
1328:Drivers/STM32G4xx_HAL_Driver/Inc/stm32g4xx_ll_dac.h ****   *         (2) On this STM32 series, parameter only available on DAC1/2/4.
1329:Drivers/STM32G4xx_HAL_Driver/Inc/stm32g4xx_ll_dac.h ****   *         (3) On this STM32 series, parameter only available on DAC1&4.
1330:Drivers/STM32G4xx_HAL_Driver/Inc/stm32g4xx_ll_dac.h ****   *         (4) On this STM32 series, parameter only available on DAC2.
1331:Drivers/STM32G4xx_HAL_Driver/Inc/stm32g4xx_ll_dac.h ****   *          Refer to device datasheet for DACx instances availability.
1332:Drivers/STM32G4xx_HAL_Driver/Inc/stm32g4xx_ll_dac.h ****   *         (5) On this STM32 series, parameter not available on all devices.
1333:Drivers/STM32G4xx_HAL_Driver/Inc/stm32g4xx_ll_dac.h ****   *          Only available if HRTIM feature is supported (refer to device datasheet for supported 
1334:Drivers/STM32G4xx_HAL_Driver/Inc/stm32g4xx_ll_dac.h ****   */
1335:Drivers/STM32G4xx_HAL_Driver/Inc/stm32g4xx_ll_dac.h **** __STATIC_INLINE uint32_t LL_DAC_GetWaveSawtoothResetTriggerSource(DAC_TypeDef *DACx, uint32_t DAC_C
1336:Drivers/STM32G4xx_HAL_Driver/Inc/stm32g4xx_ll_dac.h **** {
1337:Drivers/STM32G4xx_HAL_Driver/Inc/stm32g4xx_ll_dac.h ****   return (uint32_t)((READ_BIT(DACx->STMODR,
1338:Drivers/STM32G4xx_HAL_Driver/Inc/stm32g4xx_ll_dac.h ****                               DAC_STMODR_STRSTTRIGSEL1 << (DAC_Channel & DAC_CR_CHX_BITOFFSET_MASK)
1339:Drivers/STM32G4xx_HAL_Driver/Inc/stm32g4xx_ll_dac.h ****                              )
1340:Drivers/STM32G4xx_HAL_Driver/Inc/stm32g4xx_ll_dac.h ****                      >> (DAC_STMODR_STRSTTRIGSEL1_Pos + (DAC_Channel & DAC_CR_CHX_BITOFFSET_MASK))
1341:Drivers/STM32G4xx_HAL_Driver/Inc/stm32g4xx_ll_dac.h ****                     ) << DAC_CR_TSEL1_Pos);
1342:Drivers/STM32G4xx_HAL_Driver/Inc/stm32g4xx_ll_dac.h **** }
1343:Drivers/STM32G4xx_HAL_Driver/Inc/stm32g4xx_ll_dac.h **** 
1344:Drivers/STM32G4xx_HAL_Driver/Inc/stm32g4xx_ll_dac.h **** /**
1345:Drivers/STM32G4xx_HAL_Driver/Inc/stm32g4xx_ll_dac.h ****   * @brief  Set the swatooth waveform generation step trigger source.
1346:Drivers/STM32G4xx_HAL_Driver/Inc/stm32g4xx_ll_dac.h ****   * @note   For wave generation to be effective, DAC channel
1347:Drivers/STM32G4xx_HAL_Driver/Inc/stm32g4xx_ll_dac.h ****   *         wave generation mode must be enabled using
1348:Drivers/STM32G4xx_HAL_Driver/Inc/stm32g4xx_ll_dac.h ****   *         function @ref LL_DAC_SetWaveAutoGeneration().
1349:Drivers/STM32G4xx_HAL_Driver/Inc/stm32g4xx_ll_dac.h ****   * @note   This setting can be set when the selected DAC channel is disabled
ARM GAS  D:\apps\VSCode\data\tmp\ccbuGfzv.s 			page 26


1350:Drivers/STM32G4xx_HAL_Driver/Inc/stm32g4xx_ll_dac.h ****   *         (otherwise, the setting operation is ignored).
1351:Drivers/STM32G4xx_HAL_Driver/Inc/stm32g4xx_ll_dac.h ****   * @rmtoll STMODR   STINCTRIGSEL1  LL_DAC_SetWaveSawtoothStepTriggerSource\n
1352:Drivers/STM32G4xx_HAL_Driver/Inc/stm32g4xx_ll_dac.h ****   *         STMODR   STINCTRIGSEL2  LL_DAC_SetWaveSawtoothStepTriggerSource
1353:Drivers/STM32G4xx_HAL_Driver/Inc/stm32g4xx_ll_dac.h ****   * @param  DACx DAC instance
1354:Drivers/STM32G4xx_HAL_Driver/Inc/stm32g4xx_ll_dac.h ****   * @param  DAC_Channel This parameter can be one of the following values:
1355:Drivers/STM32G4xx_HAL_Driver/Inc/stm32g4xx_ll_dac.h ****   *         @arg @ref LL_DAC_CHANNEL_1
1356:Drivers/STM32G4xx_HAL_Driver/Inc/stm32g4xx_ll_dac.h ****   *         @arg @ref LL_DAC_CHANNEL_2 (1)
1357:Drivers/STM32G4xx_HAL_Driver/Inc/stm32g4xx_ll_dac.h ****   *
1358:Drivers/STM32G4xx_HAL_Driver/Inc/stm32g4xx_ll_dac.h ****   *         (1) On this STM32 series, parameter not available on all instances.
1359:Drivers/STM32G4xx_HAL_Driver/Inc/stm32g4xx_ll_dac.h ****   *             Refer to device datasheet for channels availability.
1360:Drivers/STM32G4xx_HAL_Driver/Inc/stm32g4xx_ll_dac.h ****   * @param  TriggerSource This parameter can be one of the following values:
1361:Drivers/STM32G4xx_HAL_Driver/Inc/stm32g4xx_ll_dac.h ****   *         @arg @ref LL_DAC_TRIG_SOFTWARE
1362:Drivers/STM32G4xx_HAL_Driver/Inc/stm32g4xx_ll_dac.h ****   *         @arg @ref LL_DAC_TRIG_EXT_TIM1_TRGO            (1)
1363:Drivers/STM32G4xx_HAL_Driver/Inc/stm32g4xx_ll_dac.h ****   *         @arg @ref LL_DAC_TRIG_EXT_TIM8_TRGO            (2)
1364:Drivers/STM32G4xx_HAL_Driver/Inc/stm32g4xx_ll_dac.h ****   *         @arg @ref LL_DAC_TRIG_EXT_TIM7_TRGO
1365:Drivers/STM32G4xx_HAL_Driver/Inc/stm32g4xx_ll_dac.h ****   *         @arg @ref LL_DAC_TRIG_EXT_TIM15_TRGO
1366:Drivers/STM32G4xx_HAL_Driver/Inc/stm32g4xx_ll_dac.h ****   *         @arg @ref LL_DAC_TRIG_EXT_TIM2_TRGO
1367:Drivers/STM32G4xx_HAL_Driver/Inc/stm32g4xx_ll_dac.h ****   *         @arg @ref LL_DAC_TRIG_EXT_TIM4_TRGO
1368:Drivers/STM32G4xx_HAL_Driver/Inc/stm32g4xx_ll_dac.h ****   *         @arg @ref LL_DAC_TRIG_EXT_EXTI_LINE10
1369:Drivers/STM32G4xx_HAL_Driver/Inc/stm32g4xx_ll_dac.h ****   *         @arg @ref LL_DAC_TRIG_EXT_TIM6_TRGO
1370:Drivers/STM32G4xx_HAL_Driver/Inc/stm32g4xx_ll_dac.h ****   *         @arg @ref LL_DAC_TRIG_EXT_TIM3_TRGO
1371:Drivers/STM32G4xx_HAL_Driver/Inc/stm32g4xx_ll_dac.h ****   *         @arg @ref LL_DAC_TRIG_EXT_HRTIM_STEP_TRG1      (3)
1372:Drivers/STM32G4xx_HAL_Driver/Inc/stm32g4xx_ll_dac.h ****   *         @arg @ref LL_DAC_TRIG_EXT_HRTIM_STEP_TRG2      (3)
1373:Drivers/STM32G4xx_HAL_Driver/Inc/stm32g4xx_ll_dac.h ****   *         @arg @ref LL_DAC_TRIG_EXT_HRTIM_STEP_TRG3      (3)
1374:Drivers/STM32G4xx_HAL_Driver/Inc/stm32g4xx_ll_dac.h ****   *         @arg @ref LL_DAC_TRIG_EXT_HRTIM_STEP_TRG4      (3)
1375:Drivers/STM32G4xx_HAL_Driver/Inc/stm32g4xx_ll_dac.h ****   *         @arg @ref LL_DAC_TRIG_EXT_HRTIM_STEP_TRG5      (3)
1376:Drivers/STM32G4xx_HAL_Driver/Inc/stm32g4xx_ll_dac.h ****   *         @arg @ref LL_DAC_TRIG_EXT_HRTIM_STEP_TRG6      (3)
1377:Drivers/STM32G4xx_HAL_Driver/Inc/stm32g4xx_ll_dac.h ****   *
1378:Drivers/STM32G4xx_HAL_Driver/Inc/stm32g4xx_ll_dac.h ****   *         (1) On this STM32 series, parameter only available on DAC3.
1379:Drivers/STM32G4xx_HAL_Driver/Inc/stm32g4xx_ll_dac.h ****   *         (2) On this STM32 series, parameter only available on DAC1/2/4.
1380:Drivers/STM32G4xx_HAL_Driver/Inc/stm32g4xx_ll_dac.h ****   *          Refer to device datasheet for DACx instances availability.
1381:Drivers/STM32G4xx_HAL_Driver/Inc/stm32g4xx_ll_dac.h ****   *         (3) On this STM32 series, parameter not available on all devices.
1382:Drivers/STM32G4xx_HAL_Driver/Inc/stm32g4xx_ll_dac.h ****   *          Only available if HRTIM feature is supported (refer to device datasheet for supported 
1383:Drivers/STM32G4xx_HAL_Driver/Inc/stm32g4xx_ll_dac.h ****   * @retval None
1384:Drivers/STM32G4xx_HAL_Driver/Inc/stm32g4xx_ll_dac.h ****   */
1385:Drivers/STM32G4xx_HAL_Driver/Inc/stm32g4xx_ll_dac.h **** __STATIC_INLINE void LL_DAC_SetWaveSawtoothStepTriggerSource(DAC_TypeDef *DACx, uint32_t DAC_Channe
1386:Drivers/STM32G4xx_HAL_Driver/Inc/stm32g4xx_ll_dac.h ****                                                              uint32_t TriggerSource)
1387:Drivers/STM32G4xx_HAL_Driver/Inc/stm32g4xx_ll_dac.h **** {
1388:Drivers/STM32G4xx_HAL_Driver/Inc/stm32g4xx_ll_dac.h ****   MODIFY_REG(DACx->STMODR,
1389:Drivers/STM32G4xx_HAL_Driver/Inc/stm32g4xx_ll_dac.h ****              DAC_STMODR_STINCTRIGSEL1 << (DAC_Channel & DAC_CR_CHX_BITOFFSET_MASK),
1390:Drivers/STM32G4xx_HAL_Driver/Inc/stm32g4xx_ll_dac.h ****              ((TriggerSource >> DAC_CR_TSEL1_Pos) << DAC_STMODR_STINCTRIGSEL1_Pos) << (DAC_Channel 
1391:Drivers/STM32G4xx_HAL_Driver/Inc/stm32g4xx_ll_dac.h **** }
1392:Drivers/STM32G4xx_HAL_Driver/Inc/stm32g4xx_ll_dac.h **** 
1393:Drivers/STM32G4xx_HAL_Driver/Inc/stm32g4xx_ll_dac.h **** /**
1394:Drivers/STM32G4xx_HAL_Driver/Inc/stm32g4xx_ll_dac.h ****   * @brief  Get the sawtooth waveform generation step trigger source.
1395:Drivers/STM32G4xx_HAL_Driver/Inc/stm32g4xx_ll_dac.h ****   * @rmtoll STMODR   STINCTRIGSEL1  LL_DAC_GetWaveSawtoothStepTriggerSource\n
1396:Drivers/STM32G4xx_HAL_Driver/Inc/stm32g4xx_ll_dac.h ****   *         STMODR   STINCTRIGSEL2  LL_DAC_GetWaveSawtoothStepTriggerSource
1397:Drivers/STM32G4xx_HAL_Driver/Inc/stm32g4xx_ll_dac.h ****   * @param  DACx DAC instance
1398:Drivers/STM32G4xx_HAL_Driver/Inc/stm32g4xx_ll_dac.h ****   * @param  DAC_Channel This parameter can be one of the following values:
1399:Drivers/STM32G4xx_HAL_Driver/Inc/stm32g4xx_ll_dac.h ****   *         @arg @ref LL_DAC_CHANNEL_1
1400:Drivers/STM32G4xx_HAL_Driver/Inc/stm32g4xx_ll_dac.h ****   *         @arg @ref LL_DAC_CHANNEL_2 (1)
1401:Drivers/STM32G4xx_HAL_Driver/Inc/stm32g4xx_ll_dac.h ****   *
1402:Drivers/STM32G4xx_HAL_Driver/Inc/stm32g4xx_ll_dac.h ****   *         (1) On this STM32 series, parameter not available on all instances.
1403:Drivers/STM32G4xx_HAL_Driver/Inc/stm32g4xx_ll_dac.h ****   *             Refer to device datasheet for channels availability.
1404:Drivers/STM32G4xx_HAL_Driver/Inc/stm32g4xx_ll_dac.h ****   * @retval Returned value can be one of the following values:
1405:Drivers/STM32G4xx_HAL_Driver/Inc/stm32g4xx_ll_dac.h ****   *         @arg @ref LL_DAC_TRIG_SOFTWARE
1406:Drivers/STM32G4xx_HAL_Driver/Inc/stm32g4xx_ll_dac.h ****   *         @arg @ref LL_DAC_TRIG_EXT_TIM1_TRGO            (1)
ARM GAS  D:\apps\VSCode\data\tmp\ccbuGfzv.s 			page 27


1407:Drivers/STM32G4xx_HAL_Driver/Inc/stm32g4xx_ll_dac.h ****   *         @arg @ref LL_DAC_TRIG_EXT_TIM8_TRGO            (2)
1408:Drivers/STM32G4xx_HAL_Driver/Inc/stm32g4xx_ll_dac.h ****   *         @arg @ref LL_DAC_TRIG_EXT_TIM7_TRGO
1409:Drivers/STM32G4xx_HAL_Driver/Inc/stm32g4xx_ll_dac.h ****   *         @arg @ref LL_DAC_TRIG_EXT_TIM15_TRGO
1410:Drivers/STM32G4xx_HAL_Driver/Inc/stm32g4xx_ll_dac.h ****   *         @arg @ref LL_DAC_TRIG_EXT_TIM2_TRGO
1411:Drivers/STM32G4xx_HAL_Driver/Inc/stm32g4xx_ll_dac.h ****   *         @arg @ref LL_DAC_TRIG_EXT_TIM4_TRGO
1412:Drivers/STM32G4xx_HAL_Driver/Inc/stm32g4xx_ll_dac.h ****   *         @arg @ref LL_DAC_TRIG_EXT_EXTI_LINE10
1413:Drivers/STM32G4xx_HAL_Driver/Inc/stm32g4xx_ll_dac.h ****   *         @arg @ref LL_DAC_TRIG_EXT_TIM6_TRGO
1414:Drivers/STM32G4xx_HAL_Driver/Inc/stm32g4xx_ll_dac.h ****   *         @arg @ref LL_DAC_TRIG_EXT_TIM3_TRGO
1415:Drivers/STM32G4xx_HAL_Driver/Inc/stm32g4xx_ll_dac.h ****   *         @arg @ref LL_DAC_TRIG_EXT_HRTIM_STEP_TRG1      (3)
1416:Drivers/STM32G4xx_HAL_Driver/Inc/stm32g4xx_ll_dac.h ****   *         @arg @ref LL_DAC_TRIG_EXT_HRTIM_STEP_TRG2      (3)
1417:Drivers/STM32G4xx_HAL_Driver/Inc/stm32g4xx_ll_dac.h ****   *         @arg @ref LL_DAC_TRIG_EXT_HRTIM_STEP_TRG3      (3)
1418:Drivers/STM32G4xx_HAL_Driver/Inc/stm32g4xx_ll_dac.h ****   *         @arg @ref LL_DAC_TRIG_EXT_HRTIM_STEP_TRG4      (3)
1419:Drivers/STM32G4xx_HAL_Driver/Inc/stm32g4xx_ll_dac.h ****   *         @arg @ref LL_DAC_TRIG_EXT_HRTIM_STEP_TRG5      (3)
1420:Drivers/STM32G4xx_HAL_Driver/Inc/stm32g4xx_ll_dac.h ****   *         @arg @ref LL_DAC_TRIG_EXT_HRTIM_STEP_TRG6      (3)
1421:Drivers/STM32G4xx_HAL_Driver/Inc/stm32g4xx_ll_dac.h ****   *
1422:Drivers/STM32G4xx_HAL_Driver/Inc/stm32g4xx_ll_dac.h ****   *         (1) On this STM32 series, parameter only available on DAC3.
1423:Drivers/STM32G4xx_HAL_Driver/Inc/stm32g4xx_ll_dac.h ****   *         (2) On this STM32 series, parameter only available on DAC1/2/4.
1424:Drivers/STM32G4xx_HAL_Driver/Inc/stm32g4xx_ll_dac.h ****   *          Refer to device datasheet for DACx instances availability.
1425:Drivers/STM32G4xx_HAL_Driver/Inc/stm32g4xx_ll_dac.h ****   *         (3) On this STM32 series, parameter not available on all devices.
1426:Drivers/STM32G4xx_HAL_Driver/Inc/stm32g4xx_ll_dac.h ****   *          Only available if HRTIM feature is supported (refer to device datasheet for supported 
1427:Drivers/STM32G4xx_HAL_Driver/Inc/stm32g4xx_ll_dac.h ****   */
1428:Drivers/STM32G4xx_HAL_Driver/Inc/stm32g4xx_ll_dac.h **** __STATIC_INLINE uint32_t LL_DAC_GetWaveSawtoothStepTriggerSource(DAC_TypeDef *DACx, uint32_t DAC_Ch
1429:Drivers/STM32G4xx_HAL_Driver/Inc/stm32g4xx_ll_dac.h **** {
1430:Drivers/STM32G4xx_HAL_Driver/Inc/stm32g4xx_ll_dac.h ****   return (uint32_t)((READ_BIT(DACx->STMODR,
1431:Drivers/STM32G4xx_HAL_Driver/Inc/stm32g4xx_ll_dac.h ****                               DAC_STMODR_STINCTRIGSEL1 << (DAC_Channel & DAC_CR_CHX_BITOFFSET_MASK)
1432:Drivers/STM32G4xx_HAL_Driver/Inc/stm32g4xx_ll_dac.h ****                              )
1433:Drivers/STM32G4xx_HAL_Driver/Inc/stm32g4xx_ll_dac.h ****                      >> (DAC_STMODR_STINCTRIGSEL1_Pos + (DAC_Channel & DAC_CR_CHX_BITOFFSET_MASK))
1434:Drivers/STM32G4xx_HAL_Driver/Inc/stm32g4xx_ll_dac.h ****                     ) << DAC_CR_TSEL1_Pos);
1435:Drivers/STM32G4xx_HAL_Driver/Inc/stm32g4xx_ll_dac.h **** }
1436:Drivers/STM32G4xx_HAL_Driver/Inc/stm32g4xx_ll_dac.h **** 
1437:Drivers/STM32G4xx_HAL_Driver/Inc/stm32g4xx_ll_dac.h **** /**
1438:Drivers/STM32G4xx_HAL_Driver/Inc/stm32g4xx_ll_dac.h ****   * @brief  Set the output for the selected DAC channel.
1439:Drivers/STM32G4xx_HAL_Driver/Inc/stm32g4xx_ll_dac.h ****   * @note   This function set several features:
1440:Drivers/STM32G4xx_HAL_Driver/Inc/stm32g4xx_ll_dac.h ****   *         - mode normal or sample-and-hold
1441:Drivers/STM32G4xx_HAL_Driver/Inc/stm32g4xx_ll_dac.h ****   *         - buffer
1442:Drivers/STM32G4xx_HAL_Driver/Inc/stm32g4xx_ll_dac.h ****   *         - connection to GPIO or internal path.
1443:Drivers/STM32G4xx_HAL_Driver/Inc/stm32g4xx_ll_dac.h ****   *         These features can also be set individually using
1444:Drivers/STM32G4xx_HAL_Driver/Inc/stm32g4xx_ll_dac.h ****   *         dedicated functions:
1445:Drivers/STM32G4xx_HAL_Driver/Inc/stm32g4xx_ll_dac.h ****   *         - @ref LL_DAC_SetOutputBuffer()
1446:Drivers/STM32G4xx_HAL_Driver/Inc/stm32g4xx_ll_dac.h ****   *         - @ref LL_DAC_SetOutputMode()
1447:Drivers/STM32G4xx_HAL_Driver/Inc/stm32g4xx_ll_dac.h ****   *         - @ref LL_DAC_SetOutputConnection()
1448:Drivers/STM32G4xx_HAL_Driver/Inc/stm32g4xx_ll_dac.h ****   * @note   On this STM32 series, output connection depends on output mode
1449:Drivers/STM32G4xx_HAL_Driver/Inc/stm32g4xx_ll_dac.h ****   *         (normal or sample and hold) and output buffer state.
1450:Drivers/STM32G4xx_HAL_Driver/Inc/stm32g4xx_ll_dac.h ****   *         - if output connection is set to internal path and output buffer
1451:Drivers/STM32G4xx_HAL_Driver/Inc/stm32g4xx_ll_dac.h ****   *           is enabled (whatever output mode):
1452:Drivers/STM32G4xx_HAL_Driver/Inc/stm32g4xx_ll_dac.h ****   *           output connection is also connected to GPIO pin
1453:Drivers/STM32G4xx_HAL_Driver/Inc/stm32g4xx_ll_dac.h ****   *           (both connections to GPIO pin and internal path).
1454:Drivers/STM32G4xx_HAL_Driver/Inc/stm32g4xx_ll_dac.h ****   *         - if output connection is set to GPIO pin, output buffer
1455:Drivers/STM32G4xx_HAL_Driver/Inc/stm32g4xx_ll_dac.h ****   *           is disabled, output mode set to sample and hold:
1456:Drivers/STM32G4xx_HAL_Driver/Inc/stm32g4xx_ll_dac.h ****   *           output connection is also connected to internal path
1457:Drivers/STM32G4xx_HAL_Driver/Inc/stm32g4xx_ll_dac.h ****   *           (both connections to GPIO pin and internal path).
1458:Drivers/STM32G4xx_HAL_Driver/Inc/stm32g4xx_ll_dac.h ****   * @note   Mode sample-and-hold requires an external capacitor
1459:Drivers/STM32G4xx_HAL_Driver/Inc/stm32g4xx_ll_dac.h ****   *         to be connected between DAC channel output and ground.
1460:Drivers/STM32G4xx_HAL_Driver/Inc/stm32g4xx_ll_dac.h ****   *         Capacitor value depends on load on DAC channel output and
1461:Drivers/STM32G4xx_HAL_Driver/Inc/stm32g4xx_ll_dac.h ****   *         sample-and-hold timings configured.
1462:Drivers/STM32G4xx_HAL_Driver/Inc/stm32g4xx_ll_dac.h ****   *         As indication, capacitor typical value is 100nF
1463:Drivers/STM32G4xx_HAL_Driver/Inc/stm32g4xx_ll_dac.h ****   *         (refer to device datasheet, parameter "CSH").
ARM GAS  D:\apps\VSCode\data\tmp\ccbuGfzv.s 			page 28


1464:Drivers/STM32G4xx_HAL_Driver/Inc/stm32g4xx_ll_dac.h ****   * @rmtoll CR       MODE1          LL_DAC_ConfigOutput\n
1465:Drivers/STM32G4xx_HAL_Driver/Inc/stm32g4xx_ll_dac.h ****   *         CR       MODE2          LL_DAC_ConfigOutput
1466:Drivers/STM32G4xx_HAL_Driver/Inc/stm32g4xx_ll_dac.h ****   * @param  DACx DAC instance
1467:Drivers/STM32G4xx_HAL_Driver/Inc/stm32g4xx_ll_dac.h ****   * @param  DAC_Channel This parameter can be one of the following values:
1468:Drivers/STM32G4xx_HAL_Driver/Inc/stm32g4xx_ll_dac.h ****   *         @arg @ref LL_DAC_CHANNEL_1
1469:Drivers/STM32G4xx_HAL_Driver/Inc/stm32g4xx_ll_dac.h ****   *         @arg @ref LL_DAC_CHANNEL_2 (1)
1470:Drivers/STM32G4xx_HAL_Driver/Inc/stm32g4xx_ll_dac.h ****   *
1471:Drivers/STM32G4xx_HAL_Driver/Inc/stm32g4xx_ll_dac.h ****   *         (1) On this STM32 series, parameter not available on all instances.
1472:Drivers/STM32G4xx_HAL_Driver/Inc/stm32g4xx_ll_dac.h ****   *             Refer to device datasheet for channels availability.
1473:Drivers/STM32G4xx_HAL_Driver/Inc/stm32g4xx_ll_dac.h ****   * @param  OutputMode This parameter can be one of the following values:
1474:Drivers/STM32G4xx_HAL_Driver/Inc/stm32g4xx_ll_dac.h ****   *         @arg @ref LL_DAC_OUTPUT_MODE_NORMAL
1475:Drivers/STM32G4xx_HAL_Driver/Inc/stm32g4xx_ll_dac.h ****   *         @arg @ref LL_DAC_OUTPUT_MODE_SAMPLE_AND_HOLD
1476:Drivers/STM32G4xx_HAL_Driver/Inc/stm32g4xx_ll_dac.h ****   * @param  OutputBuffer This parameter can be one of the following values:
1477:Drivers/STM32G4xx_HAL_Driver/Inc/stm32g4xx_ll_dac.h ****   *         @arg @ref LL_DAC_OUTPUT_BUFFER_ENABLE
1478:Drivers/STM32G4xx_HAL_Driver/Inc/stm32g4xx_ll_dac.h ****   *         @arg @ref LL_DAC_OUTPUT_BUFFER_DISABLE
1479:Drivers/STM32G4xx_HAL_Driver/Inc/stm32g4xx_ll_dac.h ****   * @param  OutputConnection This parameter can be one of the following values:
1480:Drivers/STM32G4xx_HAL_Driver/Inc/stm32g4xx_ll_dac.h ****   *         @arg @ref LL_DAC_OUTPUT_CONNECT_GPIO
1481:Drivers/STM32G4xx_HAL_Driver/Inc/stm32g4xx_ll_dac.h ****   *         @arg @ref LL_DAC_OUTPUT_CONNECT_INTERNAL
1482:Drivers/STM32G4xx_HAL_Driver/Inc/stm32g4xx_ll_dac.h ****   * @retval None
1483:Drivers/STM32G4xx_HAL_Driver/Inc/stm32g4xx_ll_dac.h ****   */
1484:Drivers/STM32G4xx_HAL_Driver/Inc/stm32g4xx_ll_dac.h **** __STATIC_INLINE void LL_DAC_ConfigOutput(DAC_TypeDef *DACx, uint32_t DAC_Channel, uint32_t OutputMo
1485:Drivers/STM32G4xx_HAL_Driver/Inc/stm32g4xx_ll_dac.h ****                                          uint32_t OutputBuffer, uint32_t OutputConnection)
1486:Drivers/STM32G4xx_HAL_Driver/Inc/stm32g4xx_ll_dac.h **** {
1487:Drivers/STM32G4xx_HAL_Driver/Inc/stm32g4xx_ll_dac.h ****   MODIFY_REG(DACx->MCR,
1488:Drivers/STM32G4xx_HAL_Driver/Inc/stm32g4xx_ll_dac.h ****              (DAC_MCR_MODE1_2 | DAC_MCR_MODE1_1 | DAC_MCR_MODE1_0) << (DAC_Channel & DAC_CR_CHX_BIT
1489:Drivers/STM32G4xx_HAL_Driver/Inc/stm32g4xx_ll_dac.h ****              (OutputMode | OutputBuffer | OutputConnection) << (DAC_Channel & DAC_CR_CHX_BITOFFSET_
1490:Drivers/STM32G4xx_HAL_Driver/Inc/stm32g4xx_ll_dac.h **** }
1491:Drivers/STM32G4xx_HAL_Driver/Inc/stm32g4xx_ll_dac.h **** 
1492:Drivers/STM32G4xx_HAL_Driver/Inc/stm32g4xx_ll_dac.h **** /**
1493:Drivers/STM32G4xx_HAL_Driver/Inc/stm32g4xx_ll_dac.h ****   * @brief  Set the output mode normal or sample-and-hold
1494:Drivers/STM32G4xx_HAL_Driver/Inc/stm32g4xx_ll_dac.h ****   *         for the selected DAC channel.
1495:Drivers/STM32G4xx_HAL_Driver/Inc/stm32g4xx_ll_dac.h ****   * @note   Mode sample-and-hold requires an external capacitor
1496:Drivers/STM32G4xx_HAL_Driver/Inc/stm32g4xx_ll_dac.h ****   *         to be connected between DAC channel output and ground.
1497:Drivers/STM32G4xx_HAL_Driver/Inc/stm32g4xx_ll_dac.h ****   *         Capacitor value depends on load on DAC channel output and
1498:Drivers/STM32G4xx_HAL_Driver/Inc/stm32g4xx_ll_dac.h ****   *         sample-and-hold timings configured.
1499:Drivers/STM32G4xx_HAL_Driver/Inc/stm32g4xx_ll_dac.h ****   *         As indication, capacitor typical value is 100nF
1500:Drivers/STM32G4xx_HAL_Driver/Inc/stm32g4xx_ll_dac.h ****   *         (refer to device datasheet, parameter "CSH").
1501:Drivers/STM32G4xx_HAL_Driver/Inc/stm32g4xx_ll_dac.h ****   * @rmtoll CR       MODE1          LL_DAC_SetOutputMode\n
1502:Drivers/STM32G4xx_HAL_Driver/Inc/stm32g4xx_ll_dac.h ****   *         CR       MODE2          LL_DAC_SetOutputMode
1503:Drivers/STM32G4xx_HAL_Driver/Inc/stm32g4xx_ll_dac.h ****   * @param  DACx DAC instance
1504:Drivers/STM32G4xx_HAL_Driver/Inc/stm32g4xx_ll_dac.h ****   * @param  DAC_Channel This parameter can be one of the following values:
1505:Drivers/STM32G4xx_HAL_Driver/Inc/stm32g4xx_ll_dac.h ****   *         @arg @ref LL_DAC_CHANNEL_1
1506:Drivers/STM32G4xx_HAL_Driver/Inc/stm32g4xx_ll_dac.h ****   *         @arg @ref LL_DAC_CHANNEL_2 (1)
1507:Drivers/STM32G4xx_HAL_Driver/Inc/stm32g4xx_ll_dac.h ****   *
1508:Drivers/STM32G4xx_HAL_Driver/Inc/stm32g4xx_ll_dac.h ****   *         (1) On this STM32 series, parameter not available on all instances.
1509:Drivers/STM32G4xx_HAL_Driver/Inc/stm32g4xx_ll_dac.h ****   *             Refer to device datasheet for channels availability.
1510:Drivers/STM32G4xx_HAL_Driver/Inc/stm32g4xx_ll_dac.h ****   * @param  OutputMode This parameter can be one of the following values:
1511:Drivers/STM32G4xx_HAL_Driver/Inc/stm32g4xx_ll_dac.h ****   *         @arg @ref LL_DAC_OUTPUT_MODE_NORMAL
1512:Drivers/STM32G4xx_HAL_Driver/Inc/stm32g4xx_ll_dac.h ****   *         @arg @ref LL_DAC_OUTPUT_MODE_SAMPLE_AND_HOLD
1513:Drivers/STM32G4xx_HAL_Driver/Inc/stm32g4xx_ll_dac.h ****   * @retval None
1514:Drivers/STM32G4xx_HAL_Driver/Inc/stm32g4xx_ll_dac.h ****   */
1515:Drivers/STM32G4xx_HAL_Driver/Inc/stm32g4xx_ll_dac.h **** __STATIC_INLINE void LL_DAC_SetOutputMode(DAC_TypeDef *DACx, uint32_t DAC_Channel, uint32_t OutputM
1516:Drivers/STM32G4xx_HAL_Driver/Inc/stm32g4xx_ll_dac.h **** {
1517:Drivers/STM32G4xx_HAL_Driver/Inc/stm32g4xx_ll_dac.h ****   MODIFY_REG(DACx->MCR,
1518:Drivers/STM32G4xx_HAL_Driver/Inc/stm32g4xx_ll_dac.h ****              (uint32_t)DAC_MCR_MODE1_2 << (DAC_Channel & DAC_CR_CHX_BITOFFSET_MASK),
1519:Drivers/STM32G4xx_HAL_Driver/Inc/stm32g4xx_ll_dac.h ****              OutputMode << (DAC_Channel & DAC_CR_CHX_BITOFFSET_MASK));
1520:Drivers/STM32G4xx_HAL_Driver/Inc/stm32g4xx_ll_dac.h **** }
ARM GAS  D:\apps\VSCode\data\tmp\ccbuGfzv.s 			page 29


1521:Drivers/STM32G4xx_HAL_Driver/Inc/stm32g4xx_ll_dac.h **** 
1522:Drivers/STM32G4xx_HAL_Driver/Inc/stm32g4xx_ll_dac.h **** /**
1523:Drivers/STM32G4xx_HAL_Driver/Inc/stm32g4xx_ll_dac.h ****   * @brief  Get the output mode normal or sample-and-hold for the selected DAC channel.
1524:Drivers/STM32G4xx_HAL_Driver/Inc/stm32g4xx_ll_dac.h ****   * @rmtoll CR       MODE1          LL_DAC_GetOutputMode\n
1525:Drivers/STM32G4xx_HAL_Driver/Inc/stm32g4xx_ll_dac.h ****   *         CR       MODE2          LL_DAC_GetOutputMode
1526:Drivers/STM32G4xx_HAL_Driver/Inc/stm32g4xx_ll_dac.h ****   * @param  DACx DAC instance
1527:Drivers/STM32G4xx_HAL_Driver/Inc/stm32g4xx_ll_dac.h ****   * @param  DAC_Channel This parameter can be one of the following values:
1528:Drivers/STM32G4xx_HAL_Driver/Inc/stm32g4xx_ll_dac.h ****   *         @arg @ref LL_DAC_CHANNEL_1
1529:Drivers/STM32G4xx_HAL_Driver/Inc/stm32g4xx_ll_dac.h ****   *         @arg @ref LL_DAC_CHANNEL_2 (1)
1530:Drivers/STM32G4xx_HAL_Driver/Inc/stm32g4xx_ll_dac.h ****   *
1531:Drivers/STM32G4xx_HAL_Driver/Inc/stm32g4xx_ll_dac.h ****   *         (1) On this STM32 series, parameter not available on all instances.
1532:Drivers/STM32G4xx_HAL_Driver/Inc/stm32g4xx_ll_dac.h ****   *             Refer to device datasheet for channels availability.
1533:Drivers/STM32G4xx_HAL_Driver/Inc/stm32g4xx_ll_dac.h ****   * @retval Returned value can be one of the following values:
1534:Drivers/STM32G4xx_HAL_Driver/Inc/stm32g4xx_ll_dac.h ****   *         @arg @ref LL_DAC_OUTPUT_MODE_NORMAL
1535:Drivers/STM32G4xx_HAL_Driver/Inc/stm32g4xx_ll_dac.h ****   *         @arg @ref LL_DAC_OUTPUT_MODE_SAMPLE_AND_HOLD
1536:Drivers/STM32G4xx_HAL_Driver/Inc/stm32g4xx_ll_dac.h ****   */
1537:Drivers/STM32G4xx_HAL_Driver/Inc/stm32g4xx_ll_dac.h **** __STATIC_INLINE uint32_t LL_DAC_GetOutputMode(DAC_TypeDef *DACx, uint32_t DAC_Channel)
1538:Drivers/STM32G4xx_HAL_Driver/Inc/stm32g4xx_ll_dac.h **** {
1539:Drivers/STM32G4xx_HAL_Driver/Inc/stm32g4xx_ll_dac.h ****   return (uint32_t)(READ_BIT(DACx->MCR, (uint32_t)DAC_MCR_MODE1_2 << (DAC_Channel & DAC_CR_CHX_BITO
1540:Drivers/STM32G4xx_HAL_Driver/Inc/stm32g4xx_ll_dac.h ****                     >> (DAC_Channel & DAC_CR_CHX_BITOFFSET_MASK)
1541:Drivers/STM32G4xx_HAL_Driver/Inc/stm32g4xx_ll_dac.h ****                    );
1542:Drivers/STM32G4xx_HAL_Driver/Inc/stm32g4xx_ll_dac.h **** }
1543:Drivers/STM32G4xx_HAL_Driver/Inc/stm32g4xx_ll_dac.h **** 
1544:Drivers/STM32G4xx_HAL_Driver/Inc/stm32g4xx_ll_dac.h **** /**
1545:Drivers/STM32G4xx_HAL_Driver/Inc/stm32g4xx_ll_dac.h ****   * @brief  Set the output buffer for the selected DAC channel.
1546:Drivers/STM32G4xx_HAL_Driver/Inc/stm32g4xx_ll_dac.h ****   * @note   On this STM32 series, when buffer is enabled, its offset can be
1547:Drivers/STM32G4xx_HAL_Driver/Inc/stm32g4xx_ll_dac.h ****   *         trimmed: factory calibration default values can be
1548:Drivers/STM32G4xx_HAL_Driver/Inc/stm32g4xx_ll_dac.h ****   *         replaced by user trimming values, using function
1549:Drivers/STM32G4xx_HAL_Driver/Inc/stm32g4xx_ll_dac.h ****   *         @ref LL_DAC_SetTrimmingValue().
1550:Drivers/STM32G4xx_HAL_Driver/Inc/stm32g4xx_ll_dac.h ****   * @rmtoll CR       MODE1          LL_DAC_SetOutputBuffer\n
1551:Drivers/STM32G4xx_HAL_Driver/Inc/stm32g4xx_ll_dac.h ****   *         CR       MODE2          LL_DAC_SetOutputBuffer
1552:Drivers/STM32G4xx_HAL_Driver/Inc/stm32g4xx_ll_dac.h ****   * @param  DACx DAC instance
1553:Drivers/STM32G4xx_HAL_Driver/Inc/stm32g4xx_ll_dac.h ****   * @param  DAC_Channel This parameter can be one of the following values:
1554:Drivers/STM32G4xx_HAL_Driver/Inc/stm32g4xx_ll_dac.h ****   *         @arg @ref LL_DAC_CHANNEL_1
1555:Drivers/STM32G4xx_HAL_Driver/Inc/stm32g4xx_ll_dac.h ****   *         @arg @ref LL_DAC_CHANNEL_2 (1)
1556:Drivers/STM32G4xx_HAL_Driver/Inc/stm32g4xx_ll_dac.h ****   *
1557:Drivers/STM32G4xx_HAL_Driver/Inc/stm32g4xx_ll_dac.h ****   *         (1) On this STM32 series, parameter not available on all instances.
1558:Drivers/STM32G4xx_HAL_Driver/Inc/stm32g4xx_ll_dac.h ****   *             Refer to device datasheet for channels availability.
1559:Drivers/STM32G4xx_HAL_Driver/Inc/stm32g4xx_ll_dac.h ****   * @param  OutputBuffer This parameter can be one of the following values:
1560:Drivers/STM32G4xx_HAL_Driver/Inc/stm32g4xx_ll_dac.h ****   *         @arg @ref LL_DAC_OUTPUT_BUFFER_ENABLE
1561:Drivers/STM32G4xx_HAL_Driver/Inc/stm32g4xx_ll_dac.h ****   *         @arg @ref LL_DAC_OUTPUT_BUFFER_DISABLE
1562:Drivers/STM32G4xx_HAL_Driver/Inc/stm32g4xx_ll_dac.h ****   * @retval None
1563:Drivers/STM32G4xx_HAL_Driver/Inc/stm32g4xx_ll_dac.h ****   */
1564:Drivers/STM32G4xx_HAL_Driver/Inc/stm32g4xx_ll_dac.h **** __STATIC_INLINE void LL_DAC_SetOutputBuffer(DAC_TypeDef *DACx, uint32_t DAC_Channel, uint32_t Outpu
1565:Drivers/STM32G4xx_HAL_Driver/Inc/stm32g4xx_ll_dac.h **** {
1566:Drivers/STM32G4xx_HAL_Driver/Inc/stm32g4xx_ll_dac.h ****   MODIFY_REG(DACx->MCR,
1567:Drivers/STM32G4xx_HAL_Driver/Inc/stm32g4xx_ll_dac.h ****              (uint32_t)DAC_MCR_MODE1_1 << (DAC_Channel & DAC_CR_CHX_BITOFFSET_MASK),
1568:Drivers/STM32G4xx_HAL_Driver/Inc/stm32g4xx_ll_dac.h ****              OutputBuffer << (DAC_Channel & DAC_CR_CHX_BITOFFSET_MASK));
1569:Drivers/STM32G4xx_HAL_Driver/Inc/stm32g4xx_ll_dac.h **** }
1570:Drivers/STM32G4xx_HAL_Driver/Inc/stm32g4xx_ll_dac.h **** 
1571:Drivers/STM32G4xx_HAL_Driver/Inc/stm32g4xx_ll_dac.h **** /**
1572:Drivers/STM32G4xx_HAL_Driver/Inc/stm32g4xx_ll_dac.h ****   * @brief  Get the output buffer state for the selected DAC channel.
1573:Drivers/STM32G4xx_HAL_Driver/Inc/stm32g4xx_ll_dac.h ****   * @rmtoll CR       MODE1          LL_DAC_GetOutputBuffer\n
1574:Drivers/STM32G4xx_HAL_Driver/Inc/stm32g4xx_ll_dac.h ****   *         CR       MODE2          LL_DAC_GetOutputBuffer
1575:Drivers/STM32G4xx_HAL_Driver/Inc/stm32g4xx_ll_dac.h ****   * @param  DACx DAC instance
1576:Drivers/STM32G4xx_HAL_Driver/Inc/stm32g4xx_ll_dac.h ****   * @param  DAC_Channel This parameter can be one of the following values:
1577:Drivers/STM32G4xx_HAL_Driver/Inc/stm32g4xx_ll_dac.h ****   *         @arg @ref LL_DAC_CHANNEL_1
ARM GAS  D:\apps\VSCode\data\tmp\ccbuGfzv.s 			page 30


1578:Drivers/STM32G4xx_HAL_Driver/Inc/stm32g4xx_ll_dac.h ****   *         @arg @ref LL_DAC_CHANNEL_2 (1)
1579:Drivers/STM32G4xx_HAL_Driver/Inc/stm32g4xx_ll_dac.h ****   *
1580:Drivers/STM32G4xx_HAL_Driver/Inc/stm32g4xx_ll_dac.h ****   *         (1) On this STM32 series, parameter not available on all instances.
1581:Drivers/STM32G4xx_HAL_Driver/Inc/stm32g4xx_ll_dac.h ****   *             Refer to device datasheet for channels availability.
1582:Drivers/STM32G4xx_HAL_Driver/Inc/stm32g4xx_ll_dac.h ****   * @retval Returned value can be one of the following values:
1583:Drivers/STM32G4xx_HAL_Driver/Inc/stm32g4xx_ll_dac.h ****   *         @arg @ref LL_DAC_OUTPUT_BUFFER_ENABLE
1584:Drivers/STM32G4xx_HAL_Driver/Inc/stm32g4xx_ll_dac.h ****   *         @arg @ref LL_DAC_OUTPUT_BUFFER_DISABLE
1585:Drivers/STM32G4xx_HAL_Driver/Inc/stm32g4xx_ll_dac.h ****   */
1586:Drivers/STM32G4xx_HAL_Driver/Inc/stm32g4xx_ll_dac.h **** __STATIC_INLINE uint32_t LL_DAC_GetOutputBuffer(DAC_TypeDef *DACx, uint32_t DAC_Channel)
1587:Drivers/STM32G4xx_HAL_Driver/Inc/stm32g4xx_ll_dac.h **** {
1588:Drivers/STM32G4xx_HAL_Driver/Inc/stm32g4xx_ll_dac.h ****   return (uint32_t)(READ_BIT(DACx->MCR, (uint32_t)DAC_MCR_MODE1_1 << (DAC_Channel & DAC_CR_CHX_BITO
1589:Drivers/STM32G4xx_HAL_Driver/Inc/stm32g4xx_ll_dac.h ****                     >> (DAC_Channel & DAC_CR_CHX_BITOFFSET_MASK)
1590:Drivers/STM32G4xx_HAL_Driver/Inc/stm32g4xx_ll_dac.h ****                    );
1591:Drivers/STM32G4xx_HAL_Driver/Inc/stm32g4xx_ll_dac.h **** }
1592:Drivers/STM32G4xx_HAL_Driver/Inc/stm32g4xx_ll_dac.h **** 
1593:Drivers/STM32G4xx_HAL_Driver/Inc/stm32g4xx_ll_dac.h **** /**
1594:Drivers/STM32G4xx_HAL_Driver/Inc/stm32g4xx_ll_dac.h ****   * @brief  Set the output connection for the selected DAC channel.
1595:Drivers/STM32G4xx_HAL_Driver/Inc/stm32g4xx_ll_dac.h ****   * @note   On this STM32 series, output connection depends on output mode (normal or
1596:Drivers/STM32G4xx_HAL_Driver/Inc/stm32g4xx_ll_dac.h ****   *         sample and hold) and output buffer state.
1597:Drivers/STM32G4xx_HAL_Driver/Inc/stm32g4xx_ll_dac.h ****   *         - if output connection is set to internal path and output buffer
1598:Drivers/STM32G4xx_HAL_Driver/Inc/stm32g4xx_ll_dac.h ****   *           is enabled (whatever output mode):
1599:Drivers/STM32G4xx_HAL_Driver/Inc/stm32g4xx_ll_dac.h ****   *           output connection is also connected to GPIO pin
1600:Drivers/STM32G4xx_HAL_Driver/Inc/stm32g4xx_ll_dac.h ****   *           (both connections to GPIO pin and internal path).
1601:Drivers/STM32G4xx_HAL_Driver/Inc/stm32g4xx_ll_dac.h ****   *         - if output connection is set to GPIO pin, output buffer
1602:Drivers/STM32G4xx_HAL_Driver/Inc/stm32g4xx_ll_dac.h ****   *           is disabled, output mode set to sample and hold:
1603:Drivers/STM32G4xx_HAL_Driver/Inc/stm32g4xx_ll_dac.h ****   *           output connection is also connected to internal path
1604:Drivers/STM32G4xx_HAL_Driver/Inc/stm32g4xx_ll_dac.h ****   *           (both connections to GPIO pin and internal path).
1605:Drivers/STM32G4xx_HAL_Driver/Inc/stm32g4xx_ll_dac.h ****   * @rmtoll CR       MODE1          LL_DAC_SetOutputConnection\n
1606:Drivers/STM32G4xx_HAL_Driver/Inc/stm32g4xx_ll_dac.h ****   *         CR       MODE2          LL_DAC_SetOutputConnection
1607:Drivers/STM32G4xx_HAL_Driver/Inc/stm32g4xx_ll_dac.h ****   * @param  DACx DAC instance
1608:Drivers/STM32G4xx_HAL_Driver/Inc/stm32g4xx_ll_dac.h ****   * @param  DAC_Channel This parameter can be one of the following values:
1609:Drivers/STM32G4xx_HAL_Driver/Inc/stm32g4xx_ll_dac.h ****   *         @arg @ref LL_DAC_CHANNEL_1
1610:Drivers/STM32G4xx_HAL_Driver/Inc/stm32g4xx_ll_dac.h ****   *         @arg @ref LL_DAC_CHANNEL_2 (1)
1611:Drivers/STM32G4xx_HAL_Driver/Inc/stm32g4xx_ll_dac.h ****   *
1612:Drivers/STM32G4xx_HAL_Driver/Inc/stm32g4xx_ll_dac.h ****   *         (1) On this STM32 series, parameter not available on all instances.
1613:Drivers/STM32G4xx_HAL_Driver/Inc/stm32g4xx_ll_dac.h ****   *             Refer to device datasheet for channels availability.
1614:Drivers/STM32G4xx_HAL_Driver/Inc/stm32g4xx_ll_dac.h ****   * @param  OutputConnection This parameter can be one of the following values:
1615:Drivers/STM32G4xx_HAL_Driver/Inc/stm32g4xx_ll_dac.h ****   *         @arg @ref LL_DAC_OUTPUT_CONNECT_GPIO
1616:Drivers/STM32G4xx_HAL_Driver/Inc/stm32g4xx_ll_dac.h ****   *         @arg @ref LL_DAC_OUTPUT_CONNECT_INTERNAL
1617:Drivers/STM32G4xx_HAL_Driver/Inc/stm32g4xx_ll_dac.h ****   * @retval None
1618:Drivers/STM32G4xx_HAL_Driver/Inc/stm32g4xx_ll_dac.h ****   */
1619:Drivers/STM32G4xx_HAL_Driver/Inc/stm32g4xx_ll_dac.h **** __STATIC_INLINE void LL_DAC_SetOutputConnection(DAC_TypeDef *DACx, uint32_t DAC_Channel, uint32_t O
1620:Drivers/STM32G4xx_HAL_Driver/Inc/stm32g4xx_ll_dac.h **** {
1621:Drivers/STM32G4xx_HAL_Driver/Inc/stm32g4xx_ll_dac.h ****   MODIFY_REG(DACx->MCR,
1622:Drivers/STM32G4xx_HAL_Driver/Inc/stm32g4xx_ll_dac.h ****              (uint32_t)DAC_MCR_MODE1_0 << (DAC_Channel & DAC_CR_CHX_BITOFFSET_MASK),
1623:Drivers/STM32G4xx_HAL_Driver/Inc/stm32g4xx_ll_dac.h ****              OutputConnection << (DAC_Channel & DAC_CR_CHX_BITOFFSET_MASK));
1624:Drivers/STM32G4xx_HAL_Driver/Inc/stm32g4xx_ll_dac.h **** }
1625:Drivers/STM32G4xx_HAL_Driver/Inc/stm32g4xx_ll_dac.h **** 
1626:Drivers/STM32G4xx_HAL_Driver/Inc/stm32g4xx_ll_dac.h **** /**
1627:Drivers/STM32G4xx_HAL_Driver/Inc/stm32g4xx_ll_dac.h ****   * @brief  Get the output connection for the selected DAC channel.
1628:Drivers/STM32G4xx_HAL_Driver/Inc/stm32g4xx_ll_dac.h ****   * @note   On this STM32 series, output connection depends on output mode (normal or
1629:Drivers/STM32G4xx_HAL_Driver/Inc/stm32g4xx_ll_dac.h ****   *         sample and hold) and output buffer state.
1630:Drivers/STM32G4xx_HAL_Driver/Inc/stm32g4xx_ll_dac.h ****   *         - if output connection is set to internal path and output buffer
1631:Drivers/STM32G4xx_HAL_Driver/Inc/stm32g4xx_ll_dac.h ****   *           is enabled (whatever output mode):
1632:Drivers/STM32G4xx_HAL_Driver/Inc/stm32g4xx_ll_dac.h ****   *           output connection is also connected to GPIO pin
1633:Drivers/STM32G4xx_HAL_Driver/Inc/stm32g4xx_ll_dac.h ****   *           (both connections to GPIO pin and internal path).
1634:Drivers/STM32G4xx_HAL_Driver/Inc/stm32g4xx_ll_dac.h ****   *         - if output connection is set to GPIO pin, output buffer
ARM GAS  D:\apps\VSCode\data\tmp\ccbuGfzv.s 			page 31


1635:Drivers/STM32G4xx_HAL_Driver/Inc/stm32g4xx_ll_dac.h ****   *           is disabled, output mode set to sample and hold:
1636:Drivers/STM32G4xx_HAL_Driver/Inc/stm32g4xx_ll_dac.h ****   *           output connection is also connected to internal path
1637:Drivers/STM32G4xx_HAL_Driver/Inc/stm32g4xx_ll_dac.h ****   *           (both connections to GPIO pin and internal path).
1638:Drivers/STM32G4xx_HAL_Driver/Inc/stm32g4xx_ll_dac.h ****   * @rmtoll CR       MODE1          LL_DAC_GetOutputConnection\n
1639:Drivers/STM32G4xx_HAL_Driver/Inc/stm32g4xx_ll_dac.h ****   *         CR       MODE2          LL_DAC_GetOutputConnection
1640:Drivers/STM32G4xx_HAL_Driver/Inc/stm32g4xx_ll_dac.h ****   * @param  DACx DAC instance
1641:Drivers/STM32G4xx_HAL_Driver/Inc/stm32g4xx_ll_dac.h ****   * @param  DAC_Channel This parameter can be one of the following values:
1642:Drivers/STM32G4xx_HAL_Driver/Inc/stm32g4xx_ll_dac.h ****   *         @arg @ref LL_DAC_CHANNEL_1
1643:Drivers/STM32G4xx_HAL_Driver/Inc/stm32g4xx_ll_dac.h ****   *         @arg @ref LL_DAC_CHANNEL_2 (1)
1644:Drivers/STM32G4xx_HAL_Driver/Inc/stm32g4xx_ll_dac.h ****   *
1645:Drivers/STM32G4xx_HAL_Driver/Inc/stm32g4xx_ll_dac.h ****   *         (1) On this STM32 series, parameter not available on all instances.
1646:Drivers/STM32G4xx_HAL_Driver/Inc/stm32g4xx_ll_dac.h ****   *             Refer to device datasheet for channels availability.
1647:Drivers/STM32G4xx_HAL_Driver/Inc/stm32g4xx_ll_dac.h ****   * @retval Returned value can be one of the following values:
1648:Drivers/STM32G4xx_HAL_Driver/Inc/stm32g4xx_ll_dac.h ****   *         @arg @ref LL_DAC_OUTPUT_CONNECT_GPIO
1649:Drivers/STM32G4xx_HAL_Driver/Inc/stm32g4xx_ll_dac.h ****   *         @arg @ref LL_DAC_OUTPUT_CONNECT_INTERNAL
1650:Drivers/STM32G4xx_HAL_Driver/Inc/stm32g4xx_ll_dac.h ****   */
1651:Drivers/STM32G4xx_HAL_Driver/Inc/stm32g4xx_ll_dac.h **** __STATIC_INLINE uint32_t LL_DAC_GetOutputConnection(DAC_TypeDef *DACx, uint32_t DAC_Channel)
1652:Drivers/STM32G4xx_HAL_Driver/Inc/stm32g4xx_ll_dac.h **** {
1653:Drivers/STM32G4xx_HAL_Driver/Inc/stm32g4xx_ll_dac.h ****   return (uint32_t)(READ_BIT(DACx->MCR, (uint32_t)DAC_MCR_MODE1_0 << (DAC_Channel & DAC_CR_CHX_BITO
1654:Drivers/STM32G4xx_HAL_Driver/Inc/stm32g4xx_ll_dac.h ****                     >> (DAC_Channel & DAC_CR_CHX_BITOFFSET_MASK)
1655:Drivers/STM32G4xx_HAL_Driver/Inc/stm32g4xx_ll_dac.h ****                    );
1656:Drivers/STM32G4xx_HAL_Driver/Inc/stm32g4xx_ll_dac.h **** }
1657:Drivers/STM32G4xx_HAL_Driver/Inc/stm32g4xx_ll_dac.h **** 
1658:Drivers/STM32G4xx_HAL_Driver/Inc/stm32g4xx_ll_dac.h **** /**
1659:Drivers/STM32G4xx_HAL_Driver/Inc/stm32g4xx_ll_dac.h ****   * @brief  Set the sample-and-hold timing for the selected DAC channel:
1660:Drivers/STM32G4xx_HAL_Driver/Inc/stm32g4xx_ll_dac.h ****   *         sample time
1661:Drivers/STM32G4xx_HAL_Driver/Inc/stm32g4xx_ll_dac.h ****   * @note   Sample time must be set when DAC channel is disabled
1662:Drivers/STM32G4xx_HAL_Driver/Inc/stm32g4xx_ll_dac.h ****   *         or during DAC operation when DAC channel flag BWSTx is reset,
1663:Drivers/STM32G4xx_HAL_Driver/Inc/stm32g4xx_ll_dac.h ****   *         otherwise the setting is ignored.
1664:Drivers/STM32G4xx_HAL_Driver/Inc/stm32g4xx_ll_dac.h ****   *         Check BWSTx flag state using function "LL_DAC_IsActiveFlag_BWSTx()".
1665:Drivers/STM32G4xx_HAL_Driver/Inc/stm32g4xx_ll_dac.h ****   * @rmtoll SHSR1    TSAMPLE1       LL_DAC_SetSampleAndHoldSampleTime\n
1666:Drivers/STM32G4xx_HAL_Driver/Inc/stm32g4xx_ll_dac.h ****   *         SHSR2    TSAMPLE2       LL_DAC_SetSampleAndHoldSampleTime
1667:Drivers/STM32G4xx_HAL_Driver/Inc/stm32g4xx_ll_dac.h ****   * @param  DACx DAC instance
1668:Drivers/STM32G4xx_HAL_Driver/Inc/stm32g4xx_ll_dac.h ****   * @param  DAC_Channel This parameter can be one of the following values:
1669:Drivers/STM32G4xx_HAL_Driver/Inc/stm32g4xx_ll_dac.h ****   *         @arg @ref LL_DAC_CHANNEL_1
1670:Drivers/STM32G4xx_HAL_Driver/Inc/stm32g4xx_ll_dac.h ****   *         @arg @ref LL_DAC_CHANNEL_2 (1)
1671:Drivers/STM32G4xx_HAL_Driver/Inc/stm32g4xx_ll_dac.h ****   *
1672:Drivers/STM32G4xx_HAL_Driver/Inc/stm32g4xx_ll_dac.h ****   *         (1) On this STM32 series, parameter not available on all instances.
1673:Drivers/STM32G4xx_HAL_Driver/Inc/stm32g4xx_ll_dac.h ****   *             Refer to device datasheet for channels availability.
1674:Drivers/STM32G4xx_HAL_Driver/Inc/stm32g4xx_ll_dac.h ****   * @param  SampleTime Value between Min_Data=0x000 and Max_Data=0x3FF
1675:Drivers/STM32G4xx_HAL_Driver/Inc/stm32g4xx_ll_dac.h ****   * @retval None
1676:Drivers/STM32G4xx_HAL_Driver/Inc/stm32g4xx_ll_dac.h ****   */
1677:Drivers/STM32G4xx_HAL_Driver/Inc/stm32g4xx_ll_dac.h **** __STATIC_INLINE void LL_DAC_SetSampleAndHoldSampleTime(DAC_TypeDef *DACx, uint32_t DAC_Channel, uin
1678:Drivers/STM32G4xx_HAL_Driver/Inc/stm32g4xx_ll_dac.h **** {
1679:Drivers/STM32G4xx_HAL_Driver/Inc/stm32g4xx_ll_dac.h ****   __IO uint32_t *preg = __DAC_PTR_REG_OFFSET(DACx->SHSR1, (DAC_Channel >> DAC_REG_SHSRX_REGOFFSET_B
1680:Drivers/STM32G4xx_HAL_Driver/Inc/stm32g4xx_ll_dac.h ****                                              & DAC_REG_SHSRX_REGOFFSET_MASK_POSBIT0);
1681:Drivers/STM32G4xx_HAL_Driver/Inc/stm32g4xx_ll_dac.h **** 
1682:Drivers/STM32G4xx_HAL_Driver/Inc/stm32g4xx_ll_dac.h ****   MODIFY_REG(*preg, DAC_SHSR1_TSAMPLE1, SampleTime);
1683:Drivers/STM32G4xx_HAL_Driver/Inc/stm32g4xx_ll_dac.h **** }
1684:Drivers/STM32G4xx_HAL_Driver/Inc/stm32g4xx_ll_dac.h **** 
1685:Drivers/STM32G4xx_HAL_Driver/Inc/stm32g4xx_ll_dac.h **** /**
1686:Drivers/STM32G4xx_HAL_Driver/Inc/stm32g4xx_ll_dac.h ****   * @brief  Get the sample-and-hold timing for the selected DAC channel:
1687:Drivers/STM32G4xx_HAL_Driver/Inc/stm32g4xx_ll_dac.h ****   *         sample time
1688:Drivers/STM32G4xx_HAL_Driver/Inc/stm32g4xx_ll_dac.h ****   * @rmtoll SHSR1    TSAMPLE1       LL_DAC_GetSampleAndHoldSampleTime\n
1689:Drivers/STM32G4xx_HAL_Driver/Inc/stm32g4xx_ll_dac.h ****   *         SHSR2    TSAMPLE2       LL_DAC_GetSampleAndHoldSampleTime
1690:Drivers/STM32G4xx_HAL_Driver/Inc/stm32g4xx_ll_dac.h ****   * @param  DACx DAC instance
1691:Drivers/STM32G4xx_HAL_Driver/Inc/stm32g4xx_ll_dac.h ****   * @param  DAC_Channel This parameter can be one of the following values:
ARM GAS  D:\apps\VSCode\data\tmp\ccbuGfzv.s 			page 32


1692:Drivers/STM32G4xx_HAL_Driver/Inc/stm32g4xx_ll_dac.h ****   *         @arg @ref LL_DAC_CHANNEL_1
1693:Drivers/STM32G4xx_HAL_Driver/Inc/stm32g4xx_ll_dac.h ****   *         @arg @ref LL_DAC_CHANNEL_2 (1)
1694:Drivers/STM32G4xx_HAL_Driver/Inc/stm32g4xx_ll_dac.h ****   *
1695:Drivers/STM32G4xx_HAL_Driver/Inc/stm32g4xx_ll_dac.h ****   *         (1) On this STM32 series, parameter not available on all instances.
1696:Drivers/STM32G4xx_HAL_Driver/Inc/stm32g4xx_ll_dac.h ****   *             Refer to device datasheet for channels availability.
1697:Drivers/STM32G4xx_HAL_Driver/Inc/stm32g4xx_ll_dac.h ****   * @retval Value between Min_Data=0x000 and Max_Data=0x3FF
1698:Drivers/STM32G4xx_HAL_Driver/Inc/stm32g4xx_ll_dac.h ****   */
1699:Drivers/STM32G4xx_HAL_Driver/Inc/stm32g4xx_ll_dac.h **** __STATIC_INLINE uint32_t LL_DAC_GetSampleAndHoldSampleTime(DAC_TypeDef *DACx, uint32_t DAC_Channel)
1700:Drivers/STM32G4xx_HAL_Driver/Inc/stm32g4xx_ll_dac.h **** {
1701:Drivers/STM32G4xx_HAL_Driver/Inc/stm32g4xx_ll_dac.h ****   __IO uint32_t const *preg = __DAC_PTR_REG_OFFSET(DACx->SHSR1, (DAC_Channel >> DAC_REG_SHSRX_REGOF
1702:Drivers/STM32G4xx_HAL_Driver/Inc/stm32g4xx_ll_dac.h ****                                                    & DAC_REG_SHSRX_REGOFFSET_MASK_POSBIT0);
1703:Drivers/STM32G4xx_HAL_Driver/Inc/stm32g4xx_ll_dac.h **** 
1704:Drivers/STM32G4xx_HAL_Driver/Inc/stm32g4xx_ll_dac.h ****   return (uint32_t) READ_BIT(*preg, DAC_SHSR1_TSAMPLE1);
1705:Drivers/STM32G4xx_HAL_Driver/Inc/stm32g4xx_ll_dac.h **** }
1706:Drivers/STM32G4xx_HAL_Driver/Inc/stm32g4xx_ll_dac.h **** 
1707:Drivers/STM32G4xx_HAL_Driver/Inc/stm32g4xx_ll_dac.h **** /**
1708:Drivers/STM32G4xx_HAL_Driver/Inc/stm32g4xx_ll_dac.h ****   * @brief  Set the sample-and-hold timing for the selected DAC channel:
1709:Drivers/STM32G4xx_HAL_Driver/Inc/stm32g4xx_ll_dac.h ****   *         hold time
1710:Drivers/STM32G4xx_HAL_Driver/Inc/stm32g4xx_ll_dac.h ****   * @rmtoll SHHR     THOLD1         LL_DAC_SetSampleAndHoldHoldTime\n
1711:Drivers/STM32G4xx_HAL_Driver/Inc/stm32g4xx_ll_dac.h ****   *         SHHR     THOLD2         LL_DAC_SetSampleAndHoldHoldTime
1712:Drivers/STM32G4xx_HAL_Driver/Inc/stm32g4xx_ll_dac.h ****   * @param  DACx DAC instance
1713:Drivers/STM32G4xx_HAL_Driver/Inc/stm32g4xx_ll_dac.h ****   * @param  DAC_Channel This parameter can be one of the following values:
1714:Drivers/STM32G4xx_HAL_Driver/Inc/stm32g4xx_ll_dac.h ****   *         @arg @ref LL_DAC_CHANNEL_1
1715:Drivers/STM32G4xx_HAL_Driver/Inc/stm32g4xx_ll_dac.h ****   *         @arg @ref LL_DAC_CHANNEL_2 (1)
1716:Drivers/STM32G4xx_HAL_Driver/Inc/stm32g4xx_ll_dac.h ****   *
1717:Drivers/STM32G4xx_HAL_Driver/Inc/stm32g4xx_ll_dac.h ****   *         (1) On this STM32 series, parameter not available on all instances.
1718:Drivers/STM32G4xx_HAL_Driver/Inc/stm32g4xx_ll_dac.h ****   *             Refer to device datasheet for channels availability.
1719:Drivers/STM32G4xx_HAL_Driver/Inc/stm32g4xx_ll_dac.h ****   * @param  HoldTime Value between Min_Data=0x000 and Max_Data=0x3FF
1720:Drivers/STM32G4xx_HAL_Driver/Inc/stm32g4xx_ll_dac.h ****   * @retval None
1721:Drivers/STM32G4xx_HAL_Driver/Inc/stm32g4xx_ll_dac.h ****   */
1722:Drivers/STM32G4xx_HAL_Driver/Inc/stm32g4xx_ll_dac.h **** __STATIC_INLINE void LL_DAC_SetSampleAndHoldHoldTime(DAC_TypeDef *DACx, uint32_t DAC_Channel, uint3
1723:Drivers/STM32G4xx_HAL_Driver/Inc/stm32g4xx_ll_dac.h **** {
1724:Drivers/STM32G4xx_HAL_Driver/Inc/stm32g4xx_ll_dac.h ****   MODIFY_REG(DACx->SHHR,
1725:Drivers/STM32G4xx_HAL_Driver/Inc/stm32g4xx_ll_dac.h ****              DAC_SHHR_THOLD1 << (DAC_Channel & DAC_CR_CHX_BITOFFSET_MASK),
1726:Drivers/STM32G4xx_HAL_Driver/Inc/stm32g4xx_ll_dac.h ****              HoldTime << (DAC_Channel & DAC_CR_CHX_BITOFFSET_MASK));
1727:Drivers/STM32G4xx_HAL_Driver/Inc/stm32g4xx_ll_dac.h **** }
1728:Drivers/STM32G4xx_HAL_Driver/Inc/stm32g4xx_ll_dac.h **** 
1729:Drivers/STM32G4xx_HAL_Driver/Inc/stm32g4xx_ll_dac.h **** /**
1730:Drivers/STM32G4xx_HAL_Driver/Inc/stm32g4xx_ll_dac.h ****   * @brief  Get the sample-and-hold timing for the selected DAC channel:
1731:Drivers/STM32G4xx_HAL_Driver/Inc/stm32g4xx_ll_dac.h ****   *         hold time
1732:Drivers/STM32G4xx_HAL_Driver/Inc/stm32g4xx_ll_dac.h ****   * @rmtoll SHHR     THOLD1         LL_DAC_GetSampleAndHoldHoldTime\n
1733:Drivers/STM32G4xx_HAL_Driver/Inc/stm32g4xx_ll_dac.h ****   *         SHHR     THOLD2         LL_DAC_GetSampleAndHoldHoldTime
1734:Drivers/STM32G4xx_HAL_Driver/Inc/stm32g4xx_ll_dac.h ****   * @param  DACx DAC instance
1735:Drivers/STM32G4xx_HAL_Driver/Inc/stm32g4xx_ll_dac.h ****   * @param  DAC_Channel This parameter can be one of the following values:
1736:Drivers/STM32G4xx_HAL_Driver/Inc/stm32g4xx_ll_dac.h ****   *         @arg @ref LL_DAC_CHANNEL_1
1737:Drivers/STM32G4xx_HAL_Driver/Inc/stm32g4xx_ll_dac.h ****   *         @arg @ref LL_DAC_CHANNEL_2 (1)
1738:Drivers/STM32G4xx_HAL_Driver/Inc/stm32g4xx_ll_dac.h ****   *
1739:Drivers/STM32G4xx_HAL_Driver/Inc/stm32g4xx_ll_dac.h ****   *         (1) On this STM32 series, parameter not available on all instances.
1740:Drivers/STM32G4xx_HAL_Driver/Inc/stm32g4xx_ll_dac.h ****   *             Refer to device datasheet for channels availability.
1741:Drivers/STM32G4xx_HAL_Driver/Inc/stm32g4xx_ll_dac.h ****   * @retval Value between Min_Data=0x000 and Max_Data=0x3FF
1742:Drivers/STM32G4xx_HAL_Driver/Inc/stm32g4xx_ll_dac.h ****   */
1743:Drivers/STM32G4xx_HAL_Driver/Inc/stm32g4xx_ll_dac.h **** __STATIC_INLINE uint32_t LL_DAC_GetSampleAndHoldHoldTime(DAC_TypeDef *DACx, uint32_t DAC_Channel)
1744:Drivers/STM32G4xx_HAL_Driver/Inc/stm32g4xx_ll_dac.h **** {
1745:Drivers/STM32G4xx_HAL_Driver/Inc/stm32g4xx_ll_dac.h ****   return (uint32_t)(READ_BIT(DACx->SHHR, DAC_SHHR_THOLD1 << (DAC_Channel & DAC_CR_CHX_BITOFFSET_MAS
1746:Drivers/STM32G4xx_HAL_Driver/Inc/stm32g4xx_ll_dac.h ****                     >> (DAC_Channel & DAC_CR_CHX_BITOFFSET_MASK)
1747:Drivers/STM32G4xx_HAL_Driver/Inc/stm32g4xx_ll_dac.h ****                    );
1748:Drivers/STM32G4xx_HAL_Driver/Inc/stm32g4xx_ll_dac.h **** }
ARM GAS  D:\apps\VSCode\data\tmp\ccbuGfzv.s 			page 33


1749:Drivers/STM32G4xx_HAL_Driver/Inc/stm32g4xx_ll_dac.h **** 
1750:Drivers/STM32G4xx_HAL_Driver/Inc/stm32g4xx_ll_dac.h **** /**
1751:Drivers/STM32G4xx_HAL_Driver/Inc/stm32g4xx_ll_dac.h ****   * @brief  Set the sample-and-hold timing for the selected DAC channel:
1752:Drivers/STM32G4xx_HAL_Driver/Inc/stm32g4xx_ll_dac.h ****   *         refresh time
1753:Drivers/STM32G4xx_HAL_Driver/Inc/stm32g4xx_ll_dac.h ****   * @rmtoll SHRR     TREFRESH1      LL_DAC_SetSampleAndHoldRefreshTime\n
1754:Drivers/STM32G4xx_HAL_Driver/Inc/stm32g4xx_ll_dac.h ****   *         SHRR     TREFRESH2      LL_DAC_SetSampleAndHoldRefreshTime
1755:Drivers/STM32G4xx_HAL_Driver/Inc/stm32g4xx_ll_dac.h ****   * @param  DACx DAC instance
1756:Drivers/STM32G4xx_HAL_Driver/Inc/stm32g4xx_ll_dac.h ****   * @param  DAC_Channel This parameter can be one of the following values:
1757:Drivers/STM32G4xx_HAL_Driver/Inc/stm32g4xx_ll_dac.h ****   *         @arg @ref LL_DAC_CHANNEL_1
1758:Drivers/STM32G4xx_HAL_Driver/Inc/stm32g4xx_ll_dac.h ****   *         @arg @ref LL_DAC_CHANNEL_2 (1)
1759:Drivers/STM32G4xx_HAL_Driver/Inc/stm32g4xx_ll_dac.h ****   *
1760:Drivers/STM32G4xx_HAL_Driver/Inc/stm32g4xx_ll_dac.h ****   *         (1) On this STM32 series, parameter not available on all instances.
1761:Drivers/STM32G4xx_HAL_Driver/Inc/stm32g4xx_ll_dac.h ****   *             Refer to device datasheet for channels availability.
1762:Drivers/STM32G4xx_HAL_Driver/Inc/stm32g4xx_ll_dac.h ****   * @param  RefreshTime Value between Min_Data=0x00 and Max_Data=0xFF
1763:Drivers/STM32G4xx_HAL_Driver/Inc/stm32g4xx_ll_dac.h ****   * @retval None
1764:Drivers/STM32G4xx_HAL_Driver/Inc/stm32g4xx_ll_dac.h ****   */
1765:Drivers/STM32G4xx_HAL_Driver/Inc/stm32g4xx_ll_dac.h **** __STATIC_INLINE void LL_DAC_SetSampleAndHoldRefreshTime(DAC_TypeDef *DACx, uint32_t DAC_Channel, ui
1766:Drivers/STM32G4xx_HAL_Driver/Inc/stm32g4xx_ll_dac.h **** {
1767:Drivers/STM32G4xx_HAL_Driver/Inc/stm32g4xx_ll_dac.h ****   MODIFY_REG(DACx->SHRR,
1768:Drivers/STM32G4xx_HAL_Driver/Inc/stm32g4xx_ll_dac.h ****              DAC_SHRR_TREFRESH1 << (DAC_Channel & DAC_CR_CHX_BITOFFSET_MASK),
1769:Drivers/STM32G4xx_HAL_Driver/Inc/stm32g4xx_ll_dac.h ****              RefreshTime << (DAC_Channel & DAC_CR_CHX_BITOFFSET_MASK));
1770:Drivers/STM32G4xx_HAL_Driver/Inc/stm32g4xx_ll_dac.h **** }
1771:Drivers/STM32G4xx_HAL_Driver/Inc/stm32g4xx_ll_dac.h **** 
1772:Drivers/STM32G4xx_HAL_Driver/Inc/stm32g4xx_ll_dac.h **** /**
1773:Drivers/STM32G4xx_HAL_Driver/Inc/stm32g4xx_ll_dac.h ****   * @brief  Get the sample-and-hold timing for the selected DAC channel:
1774:Drivers/STM32G4xx_HAL_Driver/Inc/stm32g4xx_ll_dac.h ****   *         refresh time
1775:Drivers/STM32G4xx_HAL_Driver/Inc/stm32g4xx_ll_dac.h ****   * @rmtoll SHRR     TREFRESH1      LL_DAC_GetSampleAndHoldRefreshTime\n
1776:Drivers/STM32G4xx_HAL_Driver/Inc/stm32g4xx_ll_dac.h ****   *         SHRR     TREFRESH2      LL_DAC_GetSampleAndHoldRefreshTime
1777:Drivers/STM32G4xx_HAL_Driver/Inc/stm32g4xx_ll_dac.h ****   * @param  DACx DAC instance
1778:Drivers/STM32G4xx_HAL_Driver/Inc/stm32g4xx_ll_dac.h ****   * @param  DAC_Channel This parameter can be one of the following values:
1779:Drivers/STM32G4xx_HAL_Driver/Inc/stm32g4xx_ll_dac.h ****   *         @arg @ref LL_DAC_CHANNEL_1
1780:Drivers/STM32G4xx_HAL_Driver/Inc/stm32g4xx_ll_dac.h ****   *         @arg @ref LL_DAC_CHANNEL_2 (1)
1781:Drivers/STM32G4xx_HAL_Driver/Inc/stm32g4xx_ll_dac.h ****   *
1782:Drivers/STM32G4xx_HAL_Driver/Inc/stm32g4xx_ll_dac.h ****   *         (1) On this STM32 series, parameter not available on all instances.
1783:Drivers/STM32G4xx_HAL_Driver/Inc/stm32g4xx_ll_dac.h ****   *             Refer to device datasheet for channels availability.
1784:Drivers/STM32G4xx_HAL_Driver/Inc/stm32g4xx_ll_dac.h ****   * @retval Value between Min_Data=0x00 and Max_Data=0xFF
1785:Drivers/STM32G4xx_HAL_Driver/Inc/stm32g4xx_ll_dac.h ****   */
1786:Drivers/STM32G4xx_HAL_Driver/Inc/stm32g4xx_ll_dac.h **** __STATIC_INLINE uint32_t LL_DAC_GetSampleAndHoldRefreshTime(DAC_TypeDef *DACx, uint32_t DAC_Channel
1787:Drivers/STM32G4xx_HAL_Driver/Inc/stm32g4xx_ll_dac.h **** {
1788:Drivers/STM32G4xx_HAL_Driver/Inc/stm32g4xx_ll_dac.h ****   return (uint32_t)(READ_BIT(DACx->SHRR, DAC_SHRR_TREFRESH1 << (DAC_Channel & DAC_CR_CHX_BITOFFSET_
1789:Drivers/STM32G4xx_HAL_Driver/Inc/stm32g4xx_ll_dac.h ****                     >> (DAC_Channel & DAC_CR_CHX_BITOFFSET_MASK)
1790:Drivers/STM32G4xx_HAL_Driver/Inc/stm32g4xx_ll_dac.h ****                    );
1791:Drivers/STM32G4xx_HAL_Driver/Inc/stm32g4xx_ll_dac.h **** }
1792:Drivers/STM32G4xx_HAL_Driver/Inc/stm32g4xx_ll_dac.h **** 
1793:Drivers/STM32G4xx_HAL_Driver/Inc/stm32g4xx_ll_dac.h **** /**
1794:Drivers/STM32G4xx_HAL_Driver/Inc/stm32g4xx_ll_dac.h ****   * @brief  Set the signed format for the selected DAC channel.
1795:Drivers/STM32G4xx_HAL_Driver/Inc/stm32g4xx_ll_dac.h ****   * @note   On this STM32 series, signed format can be used to inject
1796:Drivers/STM32G4xx_HAL_Driver/Inc/stm32g4xx_ll_dac.h ****   *         Q1.15, Q1.11, Q1.7 signed format data to DAC.
1797:Drivers/STM32G4xx_HAL_Driver/Inc/stm32g4xx_ll_dac.h ****   *         Ex when using 12bits data format (Q1.11 is used):
1798:Drivers/STM32G4xx_HAL_Driver/Inc/stm32g4xx_ll_dac.h ****   *             0x800 will output 0v level
1799:Drivers/STM32G4xx_HAL_Driver/Inc/stm32g4xx_ll_dac.h ****   *             0xFFF will output mid-scale level
1800:Drivers/STM32G4xx_HAL_Driver/Inc/stm32g4xx_ll_dac.h ****   *             0x000 will output mid-scale level
1801:Drivers/STM32G4xx_HAL_Driver/Inc/stm32g4xx_ll_dac.h ****   *             0x7FF will output full-scale level
1802:Drivers/STM32G4xx_HAL_Driver/Inc/stm32g4xx_ll_dac.h ****   * @rmtoll MCR      SINFORMAT1     LL_DAC_SetSignedFormat\n
1803:Drivers/STM32G4xx_HAL_Driver/Inc/stm32g4xx_ll_dac.h ****   *         MCR      SINFORMAT2     LL_DAC_SetSignedFormat
1804:Drivers/STM32G4xx_HAL_Driver/Inc/stm32g4xx_ll_dac.h ****   * @param  DACx DAC instance
1805:Drivers/STM32G4xx_HAL_Driver/Inc/stm32g4xx_ll_dac.h ****   * @param  DAC_Channel This parameter can be one of the following values:
ARM GAS  D:\apps\VSCode\data\tmp\ccbuGfzv.s 			page 34


1806:Drivers/STM32G4xx_HAL_Driver/Inc/stm32g4xx_ll_dac.h ****   *         @arg @ref LL_DAC_CHANNEL_1
1807:Drivers/STM32G4xx_HAL_Driver/Inc/stm32g4xx_ll_dac.h ****   *         @arg @ref LL_DAC_CHANNEL_2 (1)
1808:Drivers/STM32G4xx_HAL_Driver/Inc/stm32g4xx_ll_dac.h ****   *
1809:Drivers/STM32G4xx_HAL_Driver/Inc/stm32g4xx_ll_dac.h ****   *         (1) On this STM32 series, parameter not available on all instances.
1810:Drivers/STM32G4xx_HAL_Driver/Inc/stm32g4xx_ll_dac.h ****   *             Refer to device datasheet for channels availability.
1811:Drivers/STM32G4xx_HAL_Driver/Inc/stm32g4xx_ll_dac.h ****   * @param  SignedFormat This parameter can be one of the following values:
1812:Drivers/STM32G4xx_HAL_Driver/Inc/stm32g4xx_ll_dac.h ****   *         @arg @ref LL_DAC_SIGNED_FORMAT_ENABLE
1813:Drivers/STM32G4xx_HAL_Driver/Inc/stm32g4xx_ll_dac.h ****   *         @arg @ref LL_DAC_SIGNED_FORMAT_DISABLE
1814:Drivers/STM32G4xx_HAL_Driver/Inc/stm32g4xx_ll_dac.h ****   * @retval None
1815:Drivers/STM32G4xx_HAL_Driver/Inc/stm32g4xx_ll_dac.h ****   */
1816:Drivers/STM32G4xx_HAL_Driver/Inc/stm32g4xx_ll_dac.h **** __STATIC_INLINE void LL_DAC_SetSignedFormat(DAC_TypeDef *DACx, uint32_t DAC_Channel, uint32_t Signe
1817:Drivers/STM32G4xx_HAL_Driver/Inc/stm32g4xx_ll_dac.h **** {
1818:Drivers/STM32G4xx_HAL_Driver/Inc/stm32g4xx_ll_dac.h ****   MODIFY_REG(DACx->MCR,
1819:Drivers/STM32G4xx_HAL_Driver/Inc/stm32g4xx_ll_dac.h ****              DAC_MCR_SINFORMAT1 << (DAC_Channel & DAC_CR_CHX_BITOFFSET_MASK),
1820:Drivers/STM32G4xx_HAL_Driver/Inc/stm32g4xx_ll_dac.h ****              SignedFormat << (DAC_Channel & DAC_CR_CHX_BITOFFSET_MASK));
1821:Drivers/STM32G4xx_HAL_Driver/Inc/stm32g4xx_ll_dac.h **** }
1822:Drivers/STM32G4xx_HAL_Driver/Inc/stm32g4xx_ll_dac.h **** 
1823:Drivers/STM32G4xx_HAL_Driver/Inc/stm32g4xx_ll_dac.h **** /**
1824:Drivers/STM32G4xx_HAL_Driver/Inc/stm32g4xx_ll_dac.h ****   * @brief  Get the signed format state for the selected DAC channel.
1825:Drivers/STM32G4xx_HAL_Driver/Inc/stm32g4xx_ll_dac.h ****   * @rmtoll MCR      SINFORMAT1     LL_DAC_GetSignedFormat\n
1826:Drivers/STM32G4xx_HAL_Driver/Inc/stm32g4xx_ll_dac.h ****   *         MCR      SINFORMAT2     LL_DAC_GetSignedFormat
1827:Drivers/STM32G4xx_HAL_Driver/Inc/stm32g4xx_ll_dac.h ****   * @param  DACx DAC instance
1828:Drivers/STM32G4xx_HAL_Driver/Inc/stm32g4xx_ll_dac.h ****   * @param  DAC_Channel This parameter can be one of the following values:
1829:Drivers/STM32G4xx_HAL_Driver/Inc/stm32g4xx_ll_dac.h ****   *         @arg @ref LL_DAC_CHANNEL_1
1830:Drivers/STM32G4xx_HAL_Driver/Inc/stm32g4xx_ll_dac.h ****   *         @arg @ref LL_DAC_CHANNEL_2 (1)
1831:Drivers/STM32G4xx_HAL_Driver/Inc/stm32g4xx_ll_dac.h ****   *
1832:Drivers/STM32G4xx_HAL_Driver/Inc/stm32g4xx_ll_dac.h ****   *         (1) On this STM32 series, parameter not available on all instances.
1833:Drivers/STM32G4xx_HAL_Driver/Inc/stm32g4xx_ll_dac.h ****   *             Refer to device datasheet for channels availability.
1834:Drivers/STM32G4xx_HAL_Driver/Inc/stm32g4xx_ll_dac.h ****   * @retval Returned value can be one of the following values:
1835:Drivers/STM32G4xx_HAL_Driver/Inc/stm32g4xx_ll_dac.h ****   *         @arg @ref LL_DAC_SIGNED_FORMAT_ENABLE
1836:Drivers/STM32G4xx_HAL_Driver/Inc/stm32g4xx_ll_dac.h ****   *         @arg @ref LL_DAC_SIGNED_FORMAT_DISABLE
1837:Drivers/STM32G4xx_HAL_Driver/Inc/stm32g4xx_ll_dac.h ****   */
1838:Drivers/STM32G4xx_HAL_Driver/Inc/stm32g4xx_ll_dac.h **** __STATIC_INLINE uint32_t LL_DAC_GetSignedFormat(DAC_TypeDef *DACx, uint32_t DAC_Channel)
1839:Drivers/STM32G4xx_HAL_Driver/Inc/stm32g4xx_ll_dac.h **** {
1840:Drivers/STM32G4xx_HAL_Driver/Inc/stm32g4xx_ll_dac.h ****   return (uint32_t)(READ_BIT(DACx->MCR, DAC_MCR_SINFORMAT1 << (DAC_Channel & DAC_CR_CHX_BITOFFSET_M
1841:Drivers/STM32G4xx_HAL_Driver/Inc/stm32g4xx_ll_dac.h ****                     >> (DAC_Channel & DAC_CR_CHX_BITOFFSET_MASK)
1842:Drivers/STM32G4xx_HAL_Driver/Inc/stm32g4xx_ll_dac.h ****                    );
1843:Drivers/STM32G4xx_HAL_Driver/Inc/stm32g4xx_ll_dac.h **** }
1844:Drivers/STM32G4xx_HAL_Driver/Inc/stm32g4xx_ll_dac.h **** 
1845:Drivers/STM32G4xx_HAL_Driver/Inc/stm32g4xx_ll_dac.h **** /**
1846:Drivers/STM32G4xx_HAL_Driver/Inc/stm32g4xx_ll_dac.h ****   * @}
1847:Drivers/STM32G4xx_HAL_Driver/Inc/stm32g4xx_ll_dac.h ****   */
1848:Drivers/STM32G4xx_HAL_Driver/Inc/stm32g4xx_ll_dac.h **** 
1849:Drivers/STM32G4xx_HAL_Driver/Inc/stm32g4xx_ll_dac.h **** /** @defgroup DAC_LL_EF_DMA_Management DMA Management
1850:Drivers/STM32G4xx_HAL_Driver/Inc/stm32g4xx_ll_dac.h ****   * @{
1851:Drivers/STM32G4xx_HAL_Driver/Inc/stm32g4xx_ll_dac.h ****   */
1852:Drivers/STM32G4xx_HAL_Driver/Inc/stm32g4xx_ll_dac.h **** 
1853:Drivers/STM32G4xx_HAL_Driver/Inc/stm32g4xx_ll_dac.h **** /**
1854:Drivers/STM32G4xx_HAL_Driver/Inc/stm32g4xx_ll_dac.h ****   * @brief  Enable DAC DMA transfer request of the selected channel.
1855:Drivers/STM32G4xx_HAL_Driver/Inc/stm32g4xx_ll_dac.h ****   * @note   To configure DMA source address (peripheral address),
1856:Drivers/STM32G4xx_HAL_Driver/Inc/stm32g4xx_ll_dac.h ****   *         use function @ref LL_DAC_DMA_GetRegAddr().
1857:Drivers/STM32G4xx_HAL_Driver/Inc/stm32g4xx_ll_dac.h ****   * @rmtoll CR       DMAEN1         LL_DAC_EnableDMAReq\n
1858:Drivers/STM32G4xx_HAL_Driver/Inc/stm32g4xx_ll_dac.h ****   *         CR       DMAEN2         LL_DAC_EnableDMAReq
1859:Drivers/STM32G4xx_HAL_Driver/Inc/stm32g4xx_ll_dac.h ****   * @param  DACx DAC instance
1860:Drivers/STM32G4xx_HAL_Driver/Inc/stm32g4xx_ll_dac.h ****   * @param  DAC_Channel This parameter can be one of the following values:
1861:Drivers/STM32G4xx_HAL_Driver/Inc/stm32g4xx_ll_dac.h ****   *         @arg @ref LL_DAC_CHANNEL_1
1862:Drivers/STM32G4xx_HAL_Driver/Inc/stm32g4xx_ll_dac.h ****   *         @arg @ref LL_DAC_CHANNEL_2 (1)
ARM GAS  D:\apps\VSCode\data\tmp\ccbuGfzv.s 			page 35


1863:Drivers/STM32G4xx_HAL_Driver/Inc/stm32g4xx_ll_dac.h ****   *
1864:Drivers/STM32G4xx_HAL_Driver/Inc/stm32g4xx_ll_dac.h ****   *         (1) On this STM32 series, parameter not available on all instances.
1865:Drivers/STM32G4xx_HAL_Driver/Inc/stm32g4xx_ll_dac.h ****   *             Refer to device datasheet for channels availability.
1866:Drivers/STM32G4xx_HAL_Driver/Inc/stm32g4xx_ll_dac.h ****   * @retval None
1867:Drivers/STM32G4xx_HAL_Driver/Inc/stm32g4xx_ll_dac.h ****   */
1868:Drivers/STM32G4xx_HAL_Driver/Inc/stm32g4xx_ll_dac.h **** __STATIC_INLINE void LL_DAC_EnableDMAReq(DAC_TypeDef *DACx, uint32_t DAC_Channel)
1869:Drivers/STM32G4xx_HAL_Driver/Inc/stm32g4xx_ll_dac.h **** {
1870:Drivers/STM32G4xx_HAL_Driver/Inc/stm32g4xx_ll_dac.h ****   SET_BIT(DACx->CR,
1871:Drivers/STM32G4xx_HAL_Driver/Inc/stm32g4xx_ll_dac.h ****           DAC_CR_DMAEN1 << (DAC_Channel & DAC_CR_CHX_BITOFFSET_MASK));
1872:Drivers/STM32G4xx_HAL_Driver/Inc/stm32g4xx_ll_dac.h **** }
1873:Drivers/STM32G4xx_HAL_Driver/Inc/stm32g4xx_ll_dac.h **** 
1874:Drivers/STM32G4xx_HAL_Driver/Inc/stm32g4xx_ll_dac.h **** /**
1875:Drivers/STM32G4xx_HAL_Driver/Inc/stm32g4xx_ll_dac.h ****   * @brief  Disable DAC DMA transfer request of the selected channel.
1876:Drivers/STM32G4xx_HAL_Driver/Inc/stm32g4xx_ll_dac.h ****   * @note   To configure DMA source address (peripheral address),
1877:Drivers/STM32G4xx_HAL_Driver/Inc/stm32g4xx_ll_dac.h ****   *         use function @ref LL_DAC_DMA_GetRegAddr().
1878:Drivers/STM32G4xx_HAL_Driver/Inc/stm32g4xx_ll_dac.h ****   * @rmtoll CR       DMAEN1         LL_DAC_DisableDMAReq\n
1879:Drivers/STM32G4xx_HAL_Driver/Inc/stm32g4xx_ll_dac.h ****   *         CR       DMAEN2         LL_DAC_DisableDMAReq
1880:Drivers/STM32G4xx_HAL_Driver/Inc/stm32g4xx_ll_dac.h ****   * @param  DACx DAC instance
1881:Drivers/STM32G4xx_HAL_Driver/Inc/stm32g4xx_ll_dac.h ****   * @param  DAC_Channel This parameter can be one of the following values:
1882:Drivers/STM32G4xx_HAL_Driver/Inc/stm32g4xx_ll_dac.h ****   *         @arg @ref LL_DAC_CHANNEL_1
1883:Drivers/STM32G4xx_HAL_Driver/Inc/stm32g4xx_ll_dac.h ****   *         @arg @ref LL_DAC_CHANNEL_2 (1)
1884:Drivers/STM32G4xx_HAL_Driver/Inc/stm32g4xx_ll_dac.h ****   *
1885:Drivers/STM32G4xx_HAL_Driver/Inc/stm32g4xx_ll_dac.h ****   *         (1) On this STM32 series, parameter not available on all instances.
1886:Drivers/STM32G4xx_HAL_Driver/Inc/stm32g4xx_ll_dac.h ****   *             Refer to device datasheet for channels availability.
1887:Drivers/STM32G4xx_HAL_Driver/Inc/stm32g4xx_ll_dac.h ****   * @retval None
1888:Drivers/STM32G4xx_HAL_Driver/Inc/stm32g4xx_ll_dac.h ****   */
1889:Drivers/STM32G4xx_HAL_Driver/Inc/stm32g4xx_ll_dac.h **** __STATIC_INLINE void LL_DAC_DisableDMAReq(DAC_TypeDef *DACx, uint32_t DAC_Channel)
1890:Drivers/STM32G4xx_HAL_Driver/Inc/stm32g4xx_ll_dac.h **** {
1891:Drivers/STM32G4xx_HAL_Driver/Inc/stm32g4xx_ll_dac.h ****   CLEAR_BIT(DACx->CR,
1892:Drivers/STM32G4xx_HAL_Driver/Inc/stm32g4xx_ll_dac.h ****             DAC_CR_DMAEN1 << (DAC_Channel & DAC_CR_CHX_BITOFFSET_MASK));
1893:Drivers/STM32G4xx_HAL_Driver/Inc/stm32g4xx_ll_dac.h **** }
1894:Drivers/STM32G4xx_HAL_Driver/Inc/stm32g4xx_ll_dac.h **** 
1895:Drivers/STM32G4xx_HAL_Driver/Inc/stm32g4xx_ll_dac.h **** /**
1896:Drivers/STM32G4xx_HAL_Driver/Inc/stm32g4xx_ll_dac.h ****   * @brief  Get DAC DMA transfer request state of the selected channel.
1897:Drivers/STM32G4xx_HAL_Driver/Inc/stm32g4xx_ll_dac.h ****   *         (0: DAC DMA transfer request is disabled, 1: DAC DMA transfer request is enabled)
1898:Drivers/STM32G4xx_HAL_Driver/Inc/stm32g4xx_ll_dac.h ****   * @rmtoll CR       DMAEN1         LL_DAC_IsDMAReqEnabled\n
1899:Drivers/STM32G4xx_HAL_Driver/Inc/stm32g4xx_ll_dac.h ****   *         CR       DMAEN2         LL_DAC_IsDMAReqEnabled
1900:Drivers/STM32G4xx_HAL_Driver/Inc/stm32g4xx_ll_dac.h ****   * @param  DACx DAC instance
1901:Drivers/STM32G4xx_HAL_Driver/Inc/stm32g4xx_ll_dac.h ****   * @param  DAC_Channel This parameter can be one of the following values:
1902:Drivers/STM32G4xx_HAL_Driver/Inc/stm32g4xx_ll_dac.h ****   *         @arg @ref LL_DAC_CHANNEL_1
1903:Drivers/STM32G4xx_HAL_Driver/Inc/stm32g4xx_ll_dac.h ****   *         @arg @ref LL_DAC_CHANNEL_2 (1)
1904:Drivers/STM32G4xx_HAL_Driver/Inc/stm32g4xx_ll_dac.h ****   *
1905:Drivers/STM32G4xx_HAL_Driver/Inc/stm32g4xx_ll_dac.h ****   *         (1) On this STM32 series, parameter not available on all instances.
1906:Drivers/STM32G4xx_HAL_Driver/Inc/stm32g4xx_ll_dac.h ****   *             Refer to device datasheet for channels availability.
1907:Drivers/STM32G4xx_HAL_Driver/Inc/stm32g4xx_ll_dac.h ****   * @retval State of bit (1 or 0).
1908:Drivers/STM32G4xx_HAL_Driver/Inc/stm32g4xx_ll_dac.h ****   */
1909:Drivers/STM32G4xx_HAL_Driver/Inc/stm32g4xx_ll_dac.h **** __STATIC_INLINE uint32_t LL_DAC_IsDMAReqEnabled(DAC_TypeDef *DACx, uint32_t DAC_Channel)
1910:Drivers/STM32G4xx_HAL_Driver/Inc/stm32g4xx_ll_dac.h **** {
1911:Drivers/STM32G4xx_HAL_Driver/Inc/stm32g4xx_ll_dac.h ****   return ((READ_BIT(DACx->CR,
1912:Drivers/STM32G4xx_HAL_Driver/Inc/stm32g4xx_ll_dac.h ****                     DAC_CR_DMAEN1 << (DAC_Channel & DAC_CR_CHX_BITOFFSET_MASK))
1913:Drivers/STM32G4xx_HAL_Driver/Inc/stm32g4xx_ll_dac.h ****            == (DAC_CR_DMAEN1 << (DAC_Channel & DAC_CR_CHX_BITOFFSET_MASK))) ? 1UL : 0UL);
1914:Drivers/STM32G4xx_HAL_Driver/Inc/stm32g4xx_ll_dac.h **** }
1915:Drivers/STM32G4xx_HAL_Driver/Inc/stm32g4xx_ll_dac.h **** 
1916:Drivers/STM32G4xx_HAL_Driver/Inc/stm32g4xx_ll_dac.h **** /**
1917:Drivers/STM32G4xx_HAL_Driver/Inc/stm32g4xx_ll_dac.h ****   * @brief  Enable DAC DMA Double data mode of the selected channel.
1918:Drivers/STM32G4xx_HAL_Driver/Inc/stm32g4xx_ll_dac.h ****   * @rmtoll MCR      DMADOUBLE1     LL_DAC_EnableDMADoubleDataMode\n
1919:Drivers/STM32G4xx_HAL_Driver/Inc/stm32g4xx_ll_dac.h ****   *         MCR      DMADOUBLE2     LL_DAC_EnableDMADoubleDataMode
ARM GAS  D:\apps\VSCode\data\tmp\ccbuGfzv.s 			page 36


1920:Drivers/STM32G4xx_HAL_Driver/Inc/stm32g4xx_ll_dac.h ****   * @param  DACx DAC instance
1921:Drivers/STM32G4xx_HAL_Driver/Inc/stm32g4xx_ll_dac.h ****   * @param  DAC_Channel This parameter can be one of the following values:
1922:Drivers/STM32G4xx_HAL_Driver/Inc/stm32g4xx_ll_dac.h ****   *         @arg @ref LL_DAC_CHANNEL_1
1923:Drivers/STM32G4xx_HAL_Driver/Inc/stm32g4xx_ll_dac.h ****   *         @arg @ref LL_DAC_CHANNEL_2 (1)
1924:Drivers/STM32G4xx_HAL_Driver/Inc/stm32g4xx_ll_dac.h ****   *
1925:Drivers/STM32G4xx_HAL_Driver/Inc/stm32g4xx_ll_dac.h ****   *         (1) On this STM32 series, parameter not available on all instances.
1926:Drivers/STM32G4xx_HAL_Driver/Inc/stm32g4xx_ll_dac.h ****   *             Refer to device datasheet for channels availability.
1927:Drivers/STM32G4xx_HAL_Driver/Inc/stm32g4xx_ll_dac.h ****   * @retval None
1928:Drivers/STM32G4xx_HAL_Driver/Inc/stm32g4xx_ll_dac.h ****   */
1929:Drivers/STM32G4xx_HAL_Driver/Inc/stm32g4xx_ll_dac.h **** __STATIC_INLINE void LL_DAC_EnableDMADoubleDataMode(DAC_TypeDef *DACx, uint32_t DAC_Channel)
1930:Drivers/STM32G4xx_HAL_Driver/Inc/stm32g4xx_ll_dac.h **** {
1931:Drivers/STM32G4xx_HAL_Driver/Inc/stm32g4xx_ll_dac.h ****   SET_BIT(DACx->MCR,
1932:Drivers/STM32G4xx_HAL_Driver/Inc/stm32g4xx_ll_dac.h ****           DAC_MCR_DMADOUBLE1 << (DAC_Channel & DAC_CR_CHX_BITOFFSET_MASK));
1933:Drivers/STM32G4xx_HAL_Driver/Inc/stm32g4xx_ll_dac.h **** }
1934:Drivers/STM32G4xx_HAL_Driver/Inc/stm32g4xx_ll_dac.h **** 
1935:Drivers/STM32G4xx_HAL_Driver/Inc/stm32g4xx_ll_dac.h **** /**
1936:Drivers/STM32G4xx_HAL_Driver/Inc/stm32g4xx_ll_dac.h ****   * @brief  Disable DAC DMA Double data mode of the selected channel.
1937:Drivers/STM32G4xx_HAL_Driver/Inc/stm32g4xx_ll_dac.h ****   * @rmtoll MCR      DMADOUBLE1     LL_DAC_DisableDMADoubleDataMode\n
1938:Drivers/STM32G4xx_HAL_Driver/Inc/stm32g4xx_ll_dac.h ****   *         MCR      DMADOUBLE2     LL_DAC_DisableDMADoubleDataMode
1939:Drivers/STM32G4xx_HAL_Driver/Inc/stm32g4xx_ll_dac.h ****   * @param  DACx DAC instance
1940:Drivers/STM32G4xx_HAL_Driver/Inc/stm32g4xx_ll_dac.h ****   * @param  DAC_Channel This parameter can be one of the following values:
1941:Drivers/STM32G4xx_HAL_Driver/Inc/stm32g4xx_ll_dac.h ****   *         @arg @ref LL_DAC_CHANNEL_1
1942:Drivers/STM32G4xx_HAL_Driver/Inc/stm32g4xx_ll_dac.h ****   *         @arg @ref LL_DAC_CHANNEL_2 (1)
1943:Drivers/STM32G4xx_HAL_Driver/Inc/stm32g4xx_ll_dac.h ****   *
1944:Drivers/STM32G4xx_HAL_Driver/Inc/stm32g4xx_ll_dac.h ****   *         (1) On this STM32 series, parameter not available on all instances.
1945:Drivers/STM32G4xx_HAL_Driver/Inc/stm32g4xx_ll_dac.h ****   *             Refer to device datasheet for channels availability.
1946:Drivers/STM32G4xx_HAL_Driver/Inc/stm32g4xx_ll_dac.h ****   * @retval None
1947:Drivers/STM32G4xx_HAL_Driver/Inc/stm32g4xx_ll_dac.h ****   */
1948:Drivers/STM32G4xx_HAL_Driver/Inc/stm32g4xx_ll_dac.h **** __STATIC_INLINE void LL_DAC_DisableDMADoubleDataMode(DAC_TypeDef *DACx, uint32_t DAC_Channel)
1949:Drivers/STM32G4xx_HAL_Driver/Inc/stm32g4xx_ll_dac.h **** {
1950:Drivers/STM32G4xx_HAL_Driver/Inc/stm32g4xx_ll_dac.h ****   CLEAR_BIT(DACx->MCR,
1951:Drivers/STM32G4xx_HAL_Driver/Inc/stm32g4xx_ll_dac.h ****             DAC_MCR_DMADOUBLE1 << (DAC_Channel & DAC_CR_CHX_BITOFFSET_MASK));
1952:Drivers/STM32G4xx_HAL_Driver/Inc/stm32g4xx_ll_dac.h **** }
1953:Drivers/STM32G4xx_HAL_Driver/Inc/stm32g4xx_ll_dac.h **** 
1954:Drivers/STM32G4xx_HAL_Driver/Inc/stm32g4xx_ll_dac.h **** /**
1955:Drivers/STM32G4xx_HAL_Driver/Inc/stm32g4xx_ll_dac.h ****   * @brief  Get DAC DMA double data mode state of the selected channel.
1956:Drivers/STM32G4xx_HAL_Driver/Inc/stm32g4xx_ll_dac.h ****   *         (0: DAC DMA double data mode is disabled, 1: DAC DMA double data mode is enabled)
1957:Drivers/STM32G4xx_HAL_Driver/Inc/stm32g4xx_ll_dac.h ****   * @rmtoll MCR      DMADOUBLE1     LL_DAC_IsDMADoubleDataModeEnabled\n
1958:Drivers/STM32G4xx_HAL_Driver/Inc/stm32g4xx_ll_dac.h ****   *         MCR      DMADOUBLE2     LL_DAC_IsDMADoubleDataModeEnabled
1959:Drivers/STM32G4xx_HAL_Driver/Inc/stm32g4xx_ll_dac.h ****   * @param  DACx DAC instance
1960:Drivers/STM32G4xx_HAL_Driver/Inc/stm32g4xx_ll_dac.h ****   * @param  DAC_Channel This parameter can be one of the following values:
1961:Drivers/STM32G4xx_HAL_Driver/Inc/stm32g4xx_ll_dac.h ****   *         @arg @ref LL_DAC_CHANNEL_1
1962:Drivers/STM32G4xx_HAL_Driver/Inc/stm32g4xx_ll_dac.h ****   *         @arg @ref LL_DAC_CHANNEL_2 (1)
1963:Drivers/STM32G4xx_HAL_Driver/Inc/stm32g4xx_ll_dac.h ****   *
1964:Drivers/STM32G4xx_HAL_Driver/Inc/stm32g4xx_ll_dac.h ****   *         (1) On this STM32 series, parameter not available on all instances.
1965:Drivers/STM32G4xx_HAL_Driver/Inc/stm32g4xx_ll_dac.h ****   *             Refer to device datasheet for channels availability.
1966:Drivers/STM32G4xx_HAL_Driver/Inc/stm32g4xx_ll_dac.h ****   * @retval State of bit (1 or 0).
1967:Drivers/STM32G4xx_HAL_Driver/Inc/stm32g4xx_ll_dac.h ****   */
1968:Drivers/STM32G4xx_HAL_Driver/Inc/stm32g4xx_ll_dac.h **** __STATIC_INLINE uint32_t LL_DAC_IsDMADoubleDataModeEnabled(DAC_TypeDef *DACx, uint32_t DAC_Channel)
1969:Drivers/STM32G4xx_HAL_Driver/Inc/stm32g4xx_ll_dac.h **** {
1970:Drivers/STM32G4xx_HAL_Driver/Inc/stm32g4xx_ll_dac.h ****   return ((READ_BIT(DACx->MCR,
1971:Drivers/STM32G4xx_HAL_Driver/Inc/stm32g4xx_ll_dac.h ****                     DAC_MCR_DMADOUBLE1 << (DAC_Channel & DAC_CR_CHX_BITOFFSET_MASK))
1972:Drivers/STM32G4xx_HAL_Driver/Inc/stm32g4xx_ll_dac.h ****            == (DAC_MCR_DMADOUBLE1 << (DAC_Channel & DAC_CR_CHX_BITOFFSET_MASK))) ? 1UL : 0UL);
1973:Drivers/STM32G4xx_HAL_Driver/Inc/stm32g4xx_ll_dac.h **** }
1974:Drivers/STM32G4xx_HAL_Driver/Inc/stm32g4xx_ll_dac.h **** 
1975:Drivers/STM32G4xx_HAL_Driver/Inc/stm32g4xx_ll_dac.h **** /**
1976:Drivers/STM32G4xx_HAL_Driver/Inc/stm32g4xx_ll_dac.h ****   * @brief  Function to help to configure DMA transfer to DAC: retrieve the
ARM GAS  D:\apps\VSCode\data\tmp\ccbuGfzv.s 			page 37


1977:Drivers/STM32G4xx_HAL_Driver/Inc/stm32g4xx_ll_dac.h ****   *         DAC register address from DAC instance and a list of DAC registers
1978:Drivers/STM32G4xx_HAL_Driver/Inc/stm32g4xx_ll_dac.h ****   *         intended to be used (most commonly) with DMA transfer.
1979:Drivers/STM32G4xx_HAL_Driver/Inc/stm32g4xx_ll_dac.h ****   * @note   These DAC registers are data holding registers:
1980:Drivers/STM32G4xx_HAL_Driver/Inc/stm32g4xx_ll_dac.h ****   *         when DAC conversion is requested, DAC generates a DMA transfer
1981:Drivers/STM32G4xx_HAL_Driver/Inc/stm32g4xx_ll_dac.h ****   *         request to have data available in DAC data holding registers.
1982:Drivers/STM32G4xx_HAL_Driver/Inc/stm32g4xx_ll_dac.h ****   * @note   This macro is intended to be used with LL DMA driver, refer to
1983:Drivers/STM32G4xx_HAL_Driver/Inc/stm32g4xx_ll_dac.h ****   *         function "LL_DMA_ConfigAddresses()".
1984:Drivers/STM32G4xx_HAL_Driver/Inc/stm32g4xx_ll_dac.h ****   *         Example:
1985:Drivers/STM32G4xx_HAL_Driver/Inc/stm32g4xx_ll_dac.h ****   *           LL_DMA_ConfigAddresses(DMA1,
1986:Drivers/STM32G4xx_HAL_Driver/Inc/stm32g4xx_ll_dac.h ****   *                                  LL_DMA_CHANNEL_1,
1987:Drivers/STM32G4xx_HAL_Driver/Inc/stm32g4xx_ll_dac.h ****   *                                  (uint32_t)&< array or variable >,
1988:Drivers/STM32G4xx_HAL_Driver/Inc/stm32g4xx_ll_dac.h ****   *                                  LL_DAC_DMA_GetRegAddr(DAC1, LL_DAC_CHANNEL_1,
1989:Drivers/STM32G4xx_HAL_Driver/Inc/stm32g4xx_ll_dac.h ****   *                                  LL_DAC_DMA_REG_DATA_12BITS_RIGHT_ALIGNED),
1990:Drivers/STM32G4xx_HAL_Driver/Inc/stm32g4xx_ll_dac.h ****   *                                  LL_DMA_DIRECTION_MEMORY_TO_PERIPH);
1991:Drivers/STM32G4xx_HAL_Driver/Inc/stm32g4xx_ll_dac.h ****   * @rmtoll DHR12R1  DACC1DHR       LL_DAC_DMA_GetRegAddr\n
1992:Drivers/STM32G4xx_HAL_Driver/Inc/stm32g4xx_ll_dac.h ****   *         DHR12L1  DACC1DHR       LL_DAC_DMA_GetRegAddr\n
1993:Drivers/STM32G4xx_HAL_Driver/Inc/stm32g4xx_ll_dac.h ****   *         DHR8R1   DACC1DHR       LL_DAC_DMA_GetRegAddr\n
1994:Drivers/STM32G4xx_HAL_Driver/Inc/stm32g4xx_ll_dac.h ****   *         DHR12R2  DACC2DHR       LL_DAC_DMA_GetRegAddr\n
1995:Drivers/STM32G4xx_HAL_Driver/Inc/stm32g4xx_ll_dac.h ****   *         DHR12L2  DACC2DHR       LL_DAC_DMA_GetRegAddr\n
1996:Drivers/STM32G4xx_HAL_Driver/Inc/stm32g4xx_ll_dac.h ****   *         DHR8R2   DACC2DHR       LL_DAC_DMA_GetRegAddr
1997:Drivers/STM32G4xx_HAL_Driver/Inc/stm32g4xx_ll_dac.h ****   * @param  DACx DAC instance
1998:Drivers/STM32G4xx_HAL_Driver/Inc/stm32g4xx_ll_dac.h ****   * @param  DAC_Channel This parameter can be one of the following values:
1999:Drivers/STM32G4xx_HAL_Driver/Inc/stm32g4xx_ll_dac.h ****   *         @arg @ref LL_DAC_CHANNEL_1
2000:Drivers/STM32G4xx_HAL_Driver/Inc/stm32g4xx_ll_dac.h ****   *         @arg @ref LL_DAC_CHANNEL_2 (1)
2001:Drivers/STM32G4xx_HAL_Driver/Inc/stm32g4xx_ll_dac.h ****   *
2002:Drivers/STM32G4xx_HAL_Driver/Inc/stm32g4xx_ll_dac.h ****   *         (1) On this STM32 series, parameter not available on all instances.
2003:Drivers/STM32G4xx_HAL_Driver/Inc/stm32g4xx_ll_dac.h ****   *             Refer to device datasheet for channels availability.
2004:Drivers/STM32G4xx_HAL_Driver/Inc/stm32g4xx_ll_dac.h ****   * @param  Register This parameter can be one of the following values:
2005:Drivers/STM32G4xx_HAL_Driver/Inc/stm32g4xx_ll_dac.h ****   *         @arg @ref LL_DAC_DMA_REG_DATA_12BITS_RIGHT_ALIGNED
2006:Drivers/STM32G4xx_HAL_Driver/Inc/stm32g4xx_ll_dac.h ****   *         @arg @ref LL_DAC_DMA_REG_DATA_12BITS_LEFT_ALIGNED
2007:Drivers/STM32G4xx_HAL_Driver/Inc/stm32g4xx_ll_dac.h ****   *         @arg @ref LL_DAC_DMA_REG_DATA_8BITS_RIGHT_ALIGNED
2008:Drivers/STM32G4xx_HAL_Driver/Inc/stm32g4xx_ll_dac.h ****   * @retval DAC register address
2009:Drivers/STM32G4xx_HAL_Driver/Inc/stm32g4xx_ll_dac.h ****   */
2010:Drivers/STM32G4xx_HAL_Driver/Inc/stm32g4xx_ll_dac.h **** __STATIC_INLINE uint32_t LL_DAC_DMA_GetRegAddr(DAC_TypeDef *DACx, uint32_t DAC_Channel, uint32_t Re
2011:Drivers/STM32G4xx_HAL_Driver/Inc/stm32g4xx_ll_dac.h **** {
2012:Drivers/STM32G4xx_HAL_Driver/Inc/stm32g4xx_ll_dac.h ****   /* Retrieve address of register DHR12Rx, DHR12Lx or DHR8Rx depending on     */
2013:Drivers/STM32G4xx_HAL_Driver/Inc/stm32g4xx_ll_dac.h ****   /* DAC channel selected.                                                    */
2014:Drivers/STM32G4xx_HAL_Driver/Inc/stm32g4xx_ll_dac.h ****   return ((uint32_t)(__DAC_PTR_REG_OFFSET((DACx)->DHR12R1, ((DAC_Channel >> (Register & 0x1FUL))
2015:Drivers/STM32G4xx_HAL_Driver/Inc/stm32g4xx_ll_dac.h ****                                                             & DAC_REG_DHR_REGOFFSET_MASK_POSBIT0)))
2016:Drivers/STM32G4xx_HAL_Driver/Inc/stm32g4xx_ll_dac.h **** }
2017:Drivers/STM32G4xx_HAL_Driver/Inc/stm32g4xx_ll_dac.h **** /**
2018:Drivers/STM32G4xx_HAL_Driver/Inc/stm32g4xx_ll_dac.h ****   * @}
2019:Drivers/STM32G4xx_HAL_Driver/Inc/stm32g4xx_ll_dac.h ****   */
2020:Drivers/STM32G4xx_HAL_Driver/Inc/stm32g4xx_ll_dac.h **** 
2021:Drivers/STM32G4xx_HAL_Driver/Inc/stm32g4xx_ll_dac.h **** /** @defgroup DAC_LL_EF_Operation Operation on DAC channels
2022:Drivers/STM32G4xx_HAL_Driver/Inc/stm32g4xx_ll_dac.h ****   * @{
2023:Drivers/STM32G4xx_HAL_Driver/Inc/stm32g4xx_ll_dac.h ****   */
2024:Drivers/STM32G4xx_HAL_Driver/Inc/stm32g4xx_ll_dac.h **** 
2025:Drivers/STM32G4xx_HAL_Driver/Inc/stm32g4xx_ll_dac.h **** /**
2026:Drivers/STM32G4xx_HAL_Driver/Inc/stm32g4xx_ll_dac.h ****   * @brief  Enable DAC selected channel.
2027:Drivers/STM32G4xx_HAL_Driver/Inc/stm32g4xx_ll_dac.h ****   * @rmtoll CR       EN1            LL_DAC_Enable\n
2028:Drivers/STM32G4xx_HAL_Driver/Inc/stm32g4xx_ll_dac.h ****   *         CR       EN2            LL_DAC_Enable
2029:Drivers/STM32G4xx_HAL_Driver/Inc/stm32g4xx_ll_dac.h ****   * @note   After enable from off state, DAC channel requires a delay
2030:Drivers/STM32G4xx_HAL_Driver/Inc/stm32g4xx_ll_dac.h ****   *         for output voltage to reach accuracy +/- 1 LSB.
2031:Drivers/STM32G4xx_HAL_Driver/Inc/stm32g4xx_ll_dac.h ****   *         Refer to device datasheet, parameter "tWAKEUP".
2032:Drivers/STM32G4xx_HAL_Driver/Inc/stm32g4xx_ll_dac.h ****   * @param  DACx DAC instance
2033:Drivers/STM32G4xx_HAL_Driver/Inc/stm32g4xx_ll_dac.h ****   * @param  DAC_Channel This parameter can be one of the following values:
ARM GAS  D:\apps\VSCode\data\tmp\ccbuGfzv.s 			page 38


2034:Drivers/STM32G4xx_HAL_Driver/Inc/stm32g4xx_ll_dac.h ****   *         @arg @ref LL_DAC_CHANNEL_1
2035:Drivers/STM32G4xx_HAL_Driver/Inc/stm32g4xx_ll_dac.h ****   *         @arg @ref LL_DAC_CHANNEL_2 (1)
2036:Drivers/STM32G4xx_HAL_Driver/Inc/stm32g4xx_ll_dac.h ****   *
2037:Drivers/STM32G4xx_HAL_Driver/Inc/stm32g4xx_ll_dac.h ****   *         (1) On this STM32 series, parameter not available on all instances.
2038:Drivers/STM32G4xx_HAL_Driver/Inc/stm32g4xx_ll_dac.h ****   *             Refer to device datasheet for channels availability.
2039:Drivers/STM32G4xx_HAL_Driver/Inc/stm32g4xx_ll_dac.h ****   * @retval None
2040:Drivers/STM32G4xx_HAL_Driver/Inc/stm32g4xx_ll_dac.h ****   */
2041:Drivers/STM32G4xx_HAL_Driver/Inc/stm32g4xx_ll_dac.h **** __STATIC_INLINE void LL_DAC_Enable(DAC_TypeDef *DACx, uint32_t DAC_Channel)
2042:Drivers/STM32G4xx_HAL_Driver/Inc/stm32g4xx_ll_dac.h **** {
2043:Drivers/STM32G4xx_HAL_Driver/Inc/stm32g4xx_ll_dac.h ****   SET_BIT(DACx->CR,
  51              		.loc 2 2043 3 view .LVU4
  52 0006 2848     		ldr	r0, .L10
  53              	.LBE61:
  54              	.LBE60:
  55              		.loc 1 26 17 view .LVU5
  56 0008 0193     		str	r3, [sp, #4]
  27:Src/dac.c     **** 
  28:Src/dac.c     ****   /* Enable DAC channel */
  29:Src/dac.c     ****   LL_DAC_Enable(DAC2, LL_DAC_CHANNEL_1);
  57              		.loc 1 29 3 is_stmt 1 view .LVU6
  58              	.LVL0:
  59              	.LBB64:
  60              	.LBI60:
2041:Drivers/STM32G4xx_HAL_Driver/Inc/stm32g4xx_ll_dac.h **** {
  61              		.loc 2 2041 22 view .LVU7
  62              	.LBB62:
  63              		.loc 2 2043 3 view .LVU8
  64 000a 0168     		ldr	r1, [r0]
  65              	.LBE62:
  66              	.LBE64:
  67              	.LBB65:
  68              	.LBB66:
  69 000c 274A     		ldr	r2, .L10+4
  70              	.LBE66:
  71              	.LBE65:
  30:Src/dac.c     ****   LL_DAC_Enable(DAC3, LL_DAC_CHANNEL_1);
  31:Src/dac.c     ****   LL_DAC_Enable(DAC3, LL_DAC_CHANNEL_2);
  32:Src/dac.c     **** 
  33:Src/dac.c     ****   /* Delay for DAC channel voltage settling time from DAC channel startup.    */
  34:Src/dac.c     ****   /* Compute number of CPU cycles to wait for, from delay in us.              */
  35:Src/dac.c     ****   /* Note: Variable divided by 2 to compensate partially                      */
  36:Src/dac.c     ****   /*       CPU processing cycles (depends on compilation optimization).       */
  37:Src/dac.c     ****   /* Note: If system core clock frequency is below 200kHz, wait time          */
  38:Src/dac.c     ****   /*       is only a few CPU processing cycles.                               */
  39:Src/dac.c     ****   wait_loop_index = ((LL_DAC_DELAY_STARTUP_VOLTAGE_SETTLING_US * (SystemCoreClock / (100000 * 2))) 
  72              		.loc 1 39 83 is_stmt 0 view .LVU9
  73 000e 284B     		ldr	r3, .L10+8
  74 0010 284D     		ldr	r5, .L10+12
  75              		.loc 1 39 100 view .LVU10
  76 0012 294C     		ldr	r4, .L10+16
  77              	.LBB68:
  78              	.LBB63:
  79              		.loc 2 2043 3 view .LVU11
  80 0014 41F00101 		orr	r1, r1, #1
  81 0018 0160     		str	r1, [r0]
  82              	.LVL1:
  83              		.loc 2 2043 3 view .LVU12
ARM GAS  D:\apps\VSCode\data\tmp\ccbuGfzv.s 			page 39


  84              	.LBE63:
  85              	.LBE68:
  30:Src/dac.c     ****   LL_DAC_Enable(DAC3, LL_DAC_CHANNEL_1);
  86              		.loc 1 30 3 is_stmt 1 view .LVU13
  87              	.LBB69:
  88              	.LBI65:
2041:Drivers/STM32G4xx_HAL_Driver/Inc/stm32g4xx_ll_dac.h **** {
  89              		.loc 2 2041 22 view .LVU14
  90              	.LBB67:
  91              		.loc 2 2043 3 view .LVU15
  92 001a 1168     		ldr	r1, [r2]
  93 001c 41F00101 		orr	r1, r1, #1
  94 0020 1160     		str	r1, [r2]
  95              	.LVL2:
  96              		.loc 2 2043 3 is_stmt 0 view .LVU16
  97              	.LBE67:
  98              	.LBE69:
  31:Src/dac.c     **** 
  99              		.loc 1 31 3 is_stmt 1 view .LVU17
 100              	.LBB70:
 101              	.LBI70:
2041:Drivers/STM32G4xx_HAL_Driver/Inc/stm32g4xx_ll_dac.h **** {
 102              		.loc 2 2041 22 view .LVU18
 103              	.LBB71:
 104              		.loc 2 2043 3 view .LVU19
 105 0022 1168     		ldr	r1, [r2]
 106 0024 41F48031 		orr	r1, r1, #65536
 107 0028 1160     		str	r1, [r2]
 108              	.LVL3:
 109              		.loc 2 2043 3 is_stmt 0 view .LVU20
 110              	.LBE71:
 111              	.LBE70:
 112              		.loc 1 39 3 is_stmt 1 view .LVU21
 113              		.loc 1 39 83 is_stmt 0 view .LVU22
 114 002a 1B68     		ldr	r3, [r3]
 115 002c 9B09     		lsrs	r3, r3, #6
 116 002e A5FB0323 		umull	r2, r3, r5, r3
 117 0032 9B09     		lsrs	r3, r3, #6
 118              		.loc 1 39 64 view .LVU23
 119 0034 DB00     		lsls	r3, r3, #3
 120              		.loc 1 39 100 view .LVU24
 121 0036 A4FB0323 		umull	r2, r3, r4, r3
 122 003a DB08     		lsrs	r3, r3, #3
 123              		.loc 1 39 19 view .LVU25
 124 003c 0193     		str	r3, [sp, #4]
  40:Src/dac.c     ****   while (wait_loop_index != 0)
 125              		.loc 1 40 3 is_stmt 1 view .LVU26
 126              		.loc 1 40 26 is_stmt 0 view .LVU27
 127 003e 019B     		ldr	r3, [sp, #4]
 128              		.loc 1 40 9 view .LVU28
 129 0040 2BB1     		cbz	r3, .L2
 130              	.L3:
  41:Src/dac.c     ****   {
  42:Src/dac.c     ****     wait_loop_index--;
 131              		.loc 1 42 5 is_stmt 1 view .LVU29
 132              		.loc 1 42 20 is_stmt 0 view .LVU30
 133 0042 019B     		ldr	r3, [sp, #4]
ARM GAS  D:\apps\VSCode\data\tmp\ccbuGfzv.s 			page 40


 134 0044 013B     		subs	r3, r3, #1
 135 0046 0193     		str	r3, [sp, #4]
  40:Src/dac.c     ****   while (wait_loop_index != 0)
 136              		.loc 1 40 26 view .LVU31
 137 0048 019B     		ldr	r3, [sp, #4]
  40:Src/dac.c     ****   while (wait_loop_index != 0)
 138              		.loc 1 40 9 view .LVU32
 139 004a 002B     		cmp	r3, #0
 140 004c F9D1     		bne	.L3
 141              	.L2:
  43:Src/dac.c     ****   }
  44:Src/dac.c     **** 
  45:Src/dac.c     ****   /* Enable DAC channel trigger */
  46:Src/dac.c     ****   /* Note: DAC channel conversion can start from trigger enable:              */
  47:Src/dac.c     ****   /*       - if DAC channel trigger source is set to SW:                      */
  48:Src/dac.c     ****   /*         DAC channel conversion will start after trig order               */
  49:Src/dac.c     ****   /*         using function "LL_DAC_TrigSWConversion()".                      */
  50:Src/dac.c     ****   /*       - if DAC channel trigger source is set to external trigger         */
  51:Src/dac.c     ****   /*         (timer, ...):                                                    */
  52:Src/dac.c     ****   /*         DAC channel conversion can start immediately                     */
  53:Src/dac.c     ****   /*         (after next trig order from external trigger)                    */
  54:Src/dac.c     ****   LL_DAC_EnableTrigger(DAC2, LL_DAC_CHANNEL_1);
 142              		.loc 1 54 3 is_stmt 1 view .LVU33
 143              	.LVL4:
 144              	.LBB72:
 145              	.LBI72:
2044:Drivers/STM32G4xx_HAL_Driver/Inc/stm32g4xx_ll_dac.h ****           DAC_CR_EN1 << (DAC_Channel & DAC_CR_CHX_BITOFFSET_MASK));
2045:Drivers/STM32G4xx_HAL_Driver/Inc/stm32g4xx_ll_dac.h **** }
2046:Drivers/STM32G4xx_HAL_Driver/Inc/stm32g4xx_ll_dac.h **** 
2047:Drivers/STM32G4xx_HAL_Driver/Inc/stm32g4xx_ll_dac.h **** /**
2048:Drivers/STM32G4xx_HAL_Driver/Inc/stm32g4xx_ll_dac.h ****   * @brief  Disable DAC selected channel.
2049:Drivers/STM32G4xx_HAL_Driver/Inc/stm32g4xx_ll_dac.h ****   * @rmtoll CR       EN1            LL_DAC_Disable\n
2050:Drivers/STM32G4xx_HAL_Driver/Inc/stm32g4xx_ll_dac.h ****   *         CR       EN2            LL_DAC_Disable
2051:Drivers/STM32G4xx_HAL_Driver/Inc/stm32g4xx_ll_dac.h ****   * @param  DACx DAC instance
2052:Drivers/STM32G4xx_HAL_Driver/Inc/stm32g4xx_ll_dac.h ****   * @param  DAC_Channel This parameter can be one of the following values:
2053:Drivers/STM32G4xx_HAL_Driver/Inc/stm32g4xx_ll_dac.h ****   *         @arg @ref LL_DAC_CHANNEL_1
2054:Drivers/STM32G4xx_HAL_Driver/Inc/stm32g4xx_ll_dac.h ****   *         @arg @ref LL_DAC_CHANNEL_2 (1)
2055:Drivers/STM32G4xx_HAL_Driver/Inc/stm32g4xx_ll_dac.h ****   *
2056:Drivers/STM32G4xx_HAL_Driver/Inc/stm32g4xx_ll_dac.h ****   *         (1) On this STM32 series, parameter not available on all instances.
2057:Drivers/STM32G4xx_HAL_Driver/Inc/stm32g4xx_ll_dac.h ****   *             Refer to device datasheet for channels availability.
2058:Drivers/STM32G4xx_HAL_Driver/Inc/stm32g4xx_ll_dac.h ****   * @retval None
2059:Drivers/STM32G4xx_HAL_Driver/Inc/stm32g4xx_ll_dac.h ****   */
2060:Drivers/STM32G4xx_HAL_Driver/Inc/stm32g4xx_ll_dac.h **** __STATIC_INLINE void LL_DAC_Disable(DAC_TypeDef *DACx, uint32_t DAC_Channel)
2061:Drivers/STM32G4xx_HAL_Driver/Inc/stm32g4xx_ll_dac.h **** {
2062:Drivers/STM32G4xx_HAL_Driver/Inc/stm32g4xx_ll_dac.h ****   CLEAR_BIT(DACx->CR,
2063:Drivers/STM32G4xx_HAL_Driver/Inc/stm32g4xx_ll_dac.h ****             DAC_CR_EN1 << (DAC_Channel & DAC_CR_CHX_BITOFFSET_MASK));
2064:Drivers/STM32G4xx_HAL_Driver/Inc/stm32g4xx_ll_dac.h **** }
2065:Drivers/STM32G4xx_HAL_Driver/Inc/stm32g4xx_ll_dac.h **** 
2066:Drivers/STM32G4xx_HAL_Driver/Inc/stm32g4xx_ll_dac.h **** /**
2067:Drivers/STM32G4xx_HAL_Driver/Inc/stm32g4xx_ll_dac.h ****   * @brief  Get DAC enable state of the selected channel.
2068:Drivers/STM32G4xx_HAL_Driver/Inc/stm32g4xx_ll_dac.h ****   *         (0: DAC channel is disabled, 1: DAC channel is enabled)
2069:Drivers/STM32G4xx_HAL_Driver/Inc/stm32g4xx_ll_dac.h ****   * @rmtoll CR       EN1            LL_DAC_IsEnabled\n
2070:Drivers/STM32G4xx_HAL_Driver/Inc/stm32g4xx_ll_dac.h ****   *         CR       EN2            LL_DAC_IsEnabled
2071:Drivers/STM32G4xx_HAL_Driver/Inc/stm32g4xx_ll_dac.h ****   * @param  DACx DAC instance
2072:Drivers/STM32G4xx_HAL_Driver/Inc/stm32g4xx_ll_dac.h ****   * @param  DAC_Channel This parameter can be one of the following values:
2073:Drivers/STM32G4xx_HAL_Driver/Inc/stm32g4xx_ll_dac.h ****   *         @arg @ref LL_DAC_CHANNEL_1
2074:Drivers/STM32G4xx_HAL_Driver/Inc/stm32g4xx_ll_dac.h ****   *         @arg @ref LL_DAC_CHANNEL_2 (1)
ARM GAS  D:\apps\VSCode\data\tmp\ccbuGfzv.s 			page 41


2075:Drivers/STM32G4xx_HAL_Driver/Inc/stm32g4xx_ll_dac.h ****   *
2076:Drivers/STM32G4xx_HAL_Driver/Inc/stm32g4xx_ll_dac.h ****   *         (1) On this STM32 series, parameter not available on all instances.
2077:Drivers/STM32G4xx_HAL_Driver/Inc/stm32g4xx_ll_dac.h ****   *             Refer to device datasheet for channels availability.
2078:Drivers/STM32G4xx_HAL_Driver/Inc/stm32g4xx_ll_dac.h ****   * @retval State of bit (1 or 0).
2079:Drivers/STM32G4xx_HAL_Driver/Inc/stm32g4xx_ll_dac.h ****   */
2080:Drivers/STM32G4xx_HAL_Driver/Inc/stm32g4xx_ll_dac.h **** __STATIC_INLINE uint32_t LL_DAC_IsEnabled(DAC_TypeDef *DACx, uint32_t DAC_Channel)
2081:Drivers/STM32G4xx_HAL_Driver/Inc/stm32g4xx_ll_dac.h **** {
2082:Drivers/STM32G4xx_HAL_Driver/Inc/stm32g4xx_ll_dac.h ****   return ((READ_BIT(DACx->CR,
2083:Drivers/STM32G4xx_HAL_Driver/Inc/stm32g4xx_ll_dac.h ****                     DAC_CR_EN1 << (DAC_Channel & DAC_CR_CHX_BITOFFSET_MASK))
2084:Drivers/STM32G4xx_HAL_Driver/Inc/stm32g4xx_ll_dac.h ****            == (DAC_CR_EN1 << (DAC_Channel & DAC_CR_CHX_BITOFFSET_MASK))) ? 1UL : 0UL);
2085:Drivers/STM32G4xx_HAL_Driver/Inc/stm32g4xx_ll_dac.h **** }
2086:Drivers/STM32G4xx_HAL_Driver/Inc/stm32g4xx_ll_dac.h **** 
2087:Drivers/STM32G4xx_HAL_Driver/Inc/stm32g4xx_ll_dac.h **** /**
2088:Drivers/STM32G4xx_HAL_Driver/Inc/stm32g4xx_ll_dac.h ****   * @brief  Get DAC ready for conversion state of the selected channel.
2089:Drivers/STM32G4xx_HAL_Driver/Inc/stm32g4xx_ll_dac.h ****   *         (0: DAC channel is not ready, 1: DAC channel is ready)
2090:Drivers/STM32G4xx_HAL_Driver/Inc/stm32g4xx_ll_dac.h ****   * @rmtoll SR       DAC1RDY        LL_DAC_IsReady\n
2091:Drivers/STM32G4xx_HAL_Driver/Inc/stm32g4xx_ll_dac.h ****   *         SR       DAC2RDY        LL_DAC_IsReady
2092:Drivers/STM32G4xx_HAL_Driver/Inc/stm32g4xx_ll_dac.h ****   * @param  DACx DAC instance
2093:Drivers/STM32G4xx_HAL_Driver/Inc/stm32g4xx_ll_dac.h ****   * @param  DAC_Channel This parameter can be one of the following values:
2094:Drivers/STM32G4xx_HAL_Driver/Inc/stm32g4xx_ll_dac.h ****   *         @arg @ref LL_DAC_CHANNEL_1
2095:Drivers/STM32G4xx_HAL_Driver/Inc/stm32g4xx_ll_dac.h ****   *         @arg @ref LL_DAC_CHANNEL_2 (1)
2096:Drivers/STM32G4xx_HAL_Driver/Inc/stm32g4xx_ll_dac.h ****   *
2097:Drivers/STM32G4xx_HAL_Driver/Inc/stm32g4xx_ll_dac.h ****   *         (1) On this STM32 series, parameter not available on all instances.
2098:Drivers/STM32G4xx_HAL_Driver/Inc/stm32g4xx_ll_dac.h ****   *             Refer to device datasheet for channels availability.
2099:Drivers/STM32G4xx_HAL_Driver/Inc/stm32g4xx_ll_dac.h ****   * @retval State of bit (1 or 0).
2100:Drivers/STM32G4xx_HAL_Driver/Inc/stm32g4xx_ll_dac.h ****   */
2101:Drivers/STM32G4xx_HAL_Driver/Inc/stm32g4xx_ll_dac.h **** __STATIC_INLINE uint32_t LL_DAC_IsReady(DAC_TypeDef *DACx, uint32_t DAC_Channel)
2102:Drivers/STM32G4xx_HAL_Driver/Inc/stm32g4xx_ll_dac.h **** {
2103:Drivers/STM32G4xx_HAL_Driver/Inc/stm32g4xx_ll_dac.h ****   return ((READ_BIT(DACx->SR,
2104:Drivers/STM32G4xx_HAL_Driver/Inc/stm32g4xx_ll_dac.h ****                     DAC_SR_DAC1RDY << (DAC_Channel & DAC_CR_CHX_BITOFFSET_MASK))
2105:Drivers/STM32G4xx_HAL_Driver/Inc/stm32g4xx_ll_dac.h ****            == (DAC_SR_DAC1RDY << (DAC_Channel & DAC_CR_CHX_BITOFFSET_MASK))) ? 1UL : 0UL);
2106:Drivers/STM32G4xx_HAL_Driver/Inc/stm32g4xx_ll_dac.h **** }
2107:Drivers/STM32G4xx_HAL_Driver/Inc/stm32g4xx_ll_dac.h **** 
2108:Drivers/STM32G4xx_HAL_Driver/Inc/stm32g4xx_ll_dac.h **** /**
2109:Drivers/STM32G4xx_HAL_Driver/Inc/stm32g4xx_ll_dac.h ****   * @brief  Enable DAC trigger of the selected channel.
2110:Drivers/STM32G4xx_HAL_Driver/Inc/stm32g4xx_ll_dac.h ****   * @note   - If DAC trigger is disabled, DAC conversion is performed
2111:Drivers/STM32G4xx_HAL_Driver/Inc/stm32g4xx_ll_dac.h ****   *           automatically once the data holding register is updated,
2112:Drivers/STM32G4xx_HAL_Driver/Inc/stm32g4xx_ll_dac.h ****   *           using functions "LL_DAC_ConvertData{8; 12}{Right; Left} Aligned()":
2113:Drivers/STM32G4xx_HAL_Driver/Inc/stm32g4xx_ll_dac.h ****   *           @ref LL_DAC_ConvertData12RightAligned(), ...
2114:Drivers/STM32G4xx_HAL_Driver/Inc/stm32g4xx_ll_dac.h ****   *         - If DAC trigger is enabled, DAC conversion is performed
2115:Drivers/STM32G4xx_HAL_Driver/Inc/stm32g4xx_ll_dac.h ****   *           only when a hardware of software trigger event is occurring.
2116:Drivers/STM32G4xx_HAL_Driver/Inc/stm32g4xx_ll_dac.h ****   *           Select trigger source using
2117:Drivers/STM32G4xx_HAL_Driver/Inc/stm32g4xx_ll_dac.h ****   *           function @ref LL_DAC_SetTriggerSource().
2118:Drivers/STM32G4xx_HAL_Driver/Inc/stm32g4xx_ll_dac.h ****   * @rmtoll CR       TEN1           LL_DAC_EnableTrigger\n
2119:Drivers/STM32G4xx_HAL_Driver/Inc/stm32g4xx_ll_dac.h ****   *         CR       TEN2           LL_DAC_EnableTrigger
2120:Drivers/STM32G4xx_HAL_Driver/Inc/stm32g4xx_ll_dac.h ****   * @param  DACx DAC instance
2121:Drivers/STM32G4xx_HAL_Driver/Inc/stm32g4xx_ll_dac.h ****   * @param  DAC_Channel This parameter can be one of the following values:
2122:Drivers/STM32G4xx_HAL_Driver/Inc/stm32g4xx_ll_dac.h ****   *         @arg @ref LL_DAC_CHANNEL_1
2123:Drivers/STM32G4xx_HAL_Driver/Inc/stm32g4xx_ll_dac.h ****   *         @arg @ref LL_DAC_CHANNEL_2 (1)
2124:Drivers/STM32G4xx_HAL_Driver/Inc/stm32g4xx_ll_dac.h ****   *
2125:Drivers/STM32G4xx_HAL_Driver/Inc/stm32g4xx_ll_dac.h ****   *         (1) On this STM32 series, parameter not available on all instances.
2126:Drivers/STM32G4xx_HAL_Driver/Inc/stm32g4xx_ll_dac.h ****   *             Refer to device datasheet for channels availability.
2127:Drivers/STM32G4xx_HAL_Driver/Inc/stm32g4xx_ll_dac.h ****   * @retval None
2128:Drivers/STM32G4xx_HAL_Driver/Inc/stm32g4xx_ll_dac.h ****   */
2129:Drivers/STM32G4xx_HAL_Driver/Inc/stm32g4xx_ll_dac.h **** __STATIC_INLINE void LL_DAC_EnableTrigger(DAC_TypeDef *DACx, uint32_t DAC_Channel)
 146              		.loc 2 2129 22 view .LVU34
 147              	.LBB73:
ARM GAS  D:\apps\VSCode\data\tmp\ccbuGfzv.s 			page 42


2130:Drivers/STM32G4xx_HAL_Driver/Inc/stm32g4xx_ll_dac.h **** {
2131:Drivers/STM32G4xx_HAL_Driver/Inc/stm32g4xx_ll_dac.h ****   SET_BIT(DACx->CR,
 148              		.loc 2 2131 3 view .LVU35
 149 004e 164A     		ldr	r2, .L10
 150              	.LBE73:
 151              	.LBE72:
 152              	.LBB76:
 153              	.LBB77:
 154 0050 164B     		ldr	r3, .L10+4
 155              	.LBE77:
 156              	.LBE76:
 157              	.LBB79:
 158              	.LBB74:
 159 0052 1168     		ldr	r1, [r2]
 160              	.LBE74:
 161              	.LBE79:
 162              	.LBB80:
 163              	.LBB81:
2132:Drivers/STM32G4xx_HAL_Driver/Inc/stm32g4xx_ll_dac.h ****           DAC_CR_TEN1 << (DAC_Channel & DAC_CR_CHX_BITOFFSET_MASK));
2133:Drivers/STM32G4xx_HAL_Driver/Inc/stm32g4xx_ll_dac.h **** }
2134:Drivers/STM32G4xx_HAL_Driver/Inc/stm32g4xx_ll_dac.h **** 
2135:Drivers/STM32G4xx_HAL_Driver/Inc/stm32g4xx_ll_dac.h **** /**
2136:Drivers/STM32G4xx_HAL_Driver/Inc/stm32g4xx_ll_dac.h ****   * @brief  Disable DAC trigger of the selected channel.
2137:Drivers/STM32G4xx_HAL_Driver/Inc/stm32g4xx_ll_dac.h ****   * @rmtoll CR       TEN1           LL_DAC_DisableTrigger\n
2138:Drivers/STM32G4xx_HAL_Driver/Inc/stm32g4xx_ll_dac.h ****   *         CR       TEN2           LL_DAC_DisableTrigger
2139:Drivers/STM32G4xx_HAL_Driver/Inc/stm32g4xx_ll_dac.h ****   * @param  DACx DAC instance
