ARM GAS  D:\apps\VSCode\data\tmp\cc1Dl4Ov.s 			page 1


   1              		.cpu cortex-m4
   2              		.eabi_attribute 27, 1
   3              		.eabi_attribute 28, 1
   4              		.eabi_attribute 20, 1
   5              		.eabi_attribute 21, 1
   6              		.eabi_attribute 23, 3
   7              		.eabi_attribute 24, 1
   8              		.eabi_attribute 25, 1
   9              		.eabi_attribute 26, 1
  10              		.eabi_attribute 30, 2
  11              		.eabi_attribute 34, 1
  12              		.eabi_attribute 18, 4
  13              		.file	"fdcan.c"
  14              		.text
  15              	.Ltext0:
  16              		.cfi_sections	.debug_frame
  17              		.section	.text.can_filters_config,"ax",%progbits
  18              		.align	1
  19              		.p2align 2,,3
  20              		.global	can_filters_config
  21              		.arch armv7e-m
  22              		.syntax unified
  23              		.thumb
  24              		.thumb_func
  25              		.fpu fpv4-sp-d16
  27              	can_filters_config:
  28              	.LFB2053:
  29              		.file 1 "Src/fdcan.c"
   1:Src/fdcan.c   **** /**
   2:Src/fdcan.c   ****   ******************************************************************************
   3:Src/fdcan.c   ****   * @file    fdc
   4:Src/fdcan.c   ****   * @brief   This file provides code for the configuration
   5:Src/fdcan.c   ****   *          of the FDCAN instances.
   6:Src/fdcan.c   ****   ******************************************************************************
   7:Src/fdcan.c   ****   * @attention
   8:Src/fdcan.c   ****   *
   9:Src/fdcan.c   ****   * <h2><center>&copy; Copyright (c) 2021 STMicroelectronics.
  10:Src/fdcan.c   ****   * All rights reserved.</center></h2>
  11:Src/fdcan.c   ****   *
  12:Src/fdcan.c   ****   * This software component is licensed by ST under BSD 3-Clause license,
  13:Src/fdcan.c   ****   * the "License"; You may not use this file except in compliance with the
  14:Src/fdcan.c   ****   * License. You may obtain a copy of the License at:
  15:Src/fdcan.c   ****   *                        opensource.org/licenses/BSD-3-Clause
  16:Src/fdcan.c   ****   *
  17:Src/fdcan.c   ****   ******************************************************************************
  18:Src/fdcan.c   ****   */
  19:Src/fdcan.c   **** 
  20:Src/fdcan.c   **** /* Includes ------------------------------------------------------------------*/
  21:Src/fdcan.c   **** #include "fdcan.h"
  22:Src/fdcan.c   **** 
  23:Src/fdcan.c   **** // FDCAN_FilterTypeDef sFilterConfig;
  24:Src/fdcan.c   **** // FDCAN_TxHeaderTypeDef TxHeader;
  25:Src/fdcan.c   **** // FDCAN_RxHeaderTypeDef RxHeader;
  26:Src/fdcan.c   **** // uint8_t TxData[8];
  27:Src/fdcan.c   **** // uint8_t RxData[8];
  28:Src/fdcan.c   **** canData_t can;
  29:Src/fdcan.c   **** 
ARM GAS  D:\apps\VSCode\data\tmp\cc1Dl4Ov.s 			page 2


  30:Src/fdcan.c   **** /* */
  31:Src/fdcan.c   **** void can_filters_config(void)
  32:Src/fdcan.c   **** {
  30              		.loc 1 32 1 view -0
  31              		.cfi_startproc
  32              		@ args = 0, pretend = 0, frame = 0
  33              		@ frame_needed = 0, uses_anonymous_args = 0
  33:Src/fdcan.c   ****   /* Configure extended ID reception filter to Rx FIFO 0 */
  34:Src/fdcan.c   ****   can.sFilterConfig.IdType = FDCAN_STANDARD_ID;
  34              		.loc 1 34 3 view .LVU1
  32:Src/fdcan.c   ****   /* Configure extended ID reception filter to Rx FIFO 0 */
  35              		.loc 1 32 1 is_stmt 0 view .LVU2
  36 0000 30B5     		push	{r4, r5, lr}
  37              	.LCFI0:
  38              		.cfi_def_cfa_offset 12
  39              		.cfi_offset 4, -12
  40              		.cfi_offset 5, -8
  41              		.cfi_offset 14, -4
  42              		.loc 1 34 28 view .LVU3
  43 0002 0D4C     		ldr	r4, .L4
  32:Src/fdcan.c   ****   /* Configure extended ID reception filter to Rx FIFO 0 */
  44              		.loc 1 32 1 view .LVU4
  45 0004 83B0     		sub	sp, sp, #12
  46              	.LCFI1:
  47              		.cfi_def_cfa_offset 24
  48              		.loc 1 34 28 view .LVU5
  49 0006 0025     		movs	r5, #0
  35:Src/fdcan.c   ****   can.sFilterConfig.FilterIndex = 0;
  36:Src/fdcan.c   ****   can.sFilterConfig.FilterType = FDCAN_FILTER_RANGE;
  37:Src/fdcan.c   ****   can.sFilterConfig.FilterConfig = FDCAN_FILTER_DISABLE; //FDCAN_FILTER_TO_RXFIFO0;
  38:Src/fdcan.c   ****   can.sFilterConfig.FilterID1 = 0x111;
  50              		.loc 1 38 31 view .LVU6
  51 0008 40F21112 		movw	r2, #273
  39:Src/fdcan.c   ****   can.sFilterConfig.FilterID2 = 0x7FF;
  52              		.loc 1 39 31 view .LVU7
  53 000c 40F2FF73 		movw	r3, #2047
  40:Src/fdcan.c   ****   HAL_FDCAN_ConfigFilter(&can.hfdcan1, &can.sFilterConfig);
  54              		.loc 1 40 3 view .LVU8
  55 0010 04F16401 		add	r1, r4, #100
  56 0014 2046     		mov	r0, r4
  39:Src/fdcan.c   ****   can.sFilterConfig.FilterID2 = 0x7FF;
  57              		.loc 1 39 31 view .LVU9
  58 0016 C4E91D23 		strd	r2, r3, [r4, #116]
  35:Src/fdcan.c   ****   can.sFilterConfig.FilterIndex = 0;
  59              		.loc 1 35 33 view .LVU10
  60 001a C4E91955 		strd	r5, r5, [r4, #100]
  36:Src/fdcan.c   ****   can.sFilterConfig.FilterConfig = FDCAN_FILTER_DISABLE; //FDCAN_FILTER_TO_RXFIFO0;
  61              		.loc 1 36 3 is_stmt 1 view .LVU11
  37:Src/fdcan.c   ****   can.sFilterConfig.FilterID1 = 0x111;
  62              		.loc 1 37 34 is_stmt 0 view .LVU12
  63 001e C4E91B55 		strd	r5, r5, [r4, #108]
  38:Src/fdcan.c   ****   can.sFilterConfig.FilterID2 = 0x7FF;
  64              		.loc 1 38 3 is_stmt 1 view .LVU13
  39:Src/fdcan.c   ****   HAL_FDCAN_ConfigFilter(&can.hfdcan1, &can.sFilterConfig);
  65              		.loc 1 39 3 view .LVU14
  66              		.loc 1 40 3 view .LVU15
  67 0022 FFF7FEFF 		bl	HAL_FDCAN_ConfigFilter
ARM GAS  D:\apps\VSCode\data\tmp\cc1Dl4Ov.s 			page 3


  68              	.LVL0:
  41:Src/fdcan.c   ****   /* Configure global filter:
  42:Src/fdcan.c   ****      Filter all remote frames with STD and EXT ID
  43:Src/fdcan.c   ****      Reject non matching frames with STD ID and EXT ID */
  44:Src/fdcan.c   ****   HAL_FDCAN_ConfigGlobalFilter(&can.hfdcan1, FDCAN_ACCEPT_IN_RX_FIFO0, FDCAN_REJECT, FDCAN_FILTER_R
  69              		.loc 1 44 3 view .LVU16
  70 0026 0095     		str	r5, [sp]
  71 0028 2046     		mov	r0, r4
  72 002a 2B46     		mov	r3, r5
  73 002c 2946     		mov	r1, r5
  74 002e 0222     		movs	r2, #2
  75 0030 FFF7FEFF 		bl	HAL_FDCAN_ConfigGlobalFilter
  76              	.LVL1:
  45:Src/fdcan.c   **** }
  77              		.loc 1 45 1 is_stmt 0 view .LVU17
  78 0034 03B0     		add	sp, sp, #12
  79              	.LCFI2:
  80              		.cfi_def_cfa_offset 12
  81              		@ sp needed
  82 0036 30BD     		pop	{r4, r5, pc}
  83              	.L5:
  84              		.align	2
  85              	.L4:
  86 0038 00000000 		.word	can
  87              		.cfi_endproc
  88              	.LFE2053:
  90              		.section	.text.can_transmit_massege,"ax",%progbits
  91              		.align	1
  92              		.p2align 2,,3
  93              		.global	can_transmit_massege
  94              		.syntax unified
  95              		.thumb
  96              		.thumb_func
  97              		.fpu fpv4-sp-d16
  99              	can_transmit_massege:
 100              	.LVL2:
 101              	.LFB2054:
  46:Src/fdcan.c   **** 
  47:Src/fdcan.c   **** /* */
  48:Src/fdcan.c   **** void can_transmit_massege(FDCAN_TxHeaderTypeDef TxHeader, uint32_t id, uint8_t *message, uint8_t DL
  49:Src/fdcan.c   **** {
 102              		.loc 1 49 1 is_stmt 1 view -0
 103              		.cfi_startproc
 104              		@ args = 52, pretend = 16, frame = 0
 105              		@ frame_needed = 0, uses_anonymous_args = 0
  50:Src/fdcan.c   ****   // /* Add message to Tx FIFO */
  51:Src/fdcan.c   ****   TxHeader.Identifier = id;
 106              		.loc 1 51 3 view .LVU19
  49:Src/fdcan.c   ****   // /* Add message to Tx FIFO */
 107              		.loc 1 49 1 is_stmt 0 view .LVU20
 108 0000 84B0     		sub	sp, sp, #16
 109              	.LCFI3:
 110              		.cfi_def_cfa_offset 16
 111 0002 70B5     		push	{r4, r5, r6, lr}
 112              	.LCFI4:
 113              		.cfi_def_cfa_offset 32
 114              		.cfi_offset 4, -32
ARM GAS  D:\apps\VSCode\data\tmp\cc1Dl4Ov.s 			page 4


 115              		.cfi_offset 5, -28
 116              		.cfi_offset 6, -24
 117              		.cfi_offset 14, -20
  49:Src/fdcan.c   ****   // /* Add message to Tx FIFO */
 118              		.loc 1 49 1 view .LVU21
 119 0004 9DF83C40 		ldrb	r4, [sp, #60]	@ zero_extendqisi2
 120 0008 0D9D     		ldr	r5, [sp, #52]
 121 000a 04AE     		add	r6, sp, #16
  52:Src/fdcan.c   ****   TxHeader.IdType = FDCAN_STANDARD_ID;
  53:Src/fdcan.c   ****   TxHeader.TxFrameType = FDCAN_DATA_FRAME;
  54:Src/fdcan.c   ****   //TxHeader.DataLength = FDCAN_DLC_BYTES_8;
  55:Src/fdcan.c   ****   TxHeader.DataLength = (uint32_t)(DLC << 16);
 122              		.loc 1 55 40 view .LVU22
 123 000c 2404     		lsls	r4, r4, #16
  49:Src/fdcan.c   ****   // /* Add message to Tx FIFO */
 124              		.loc 1 49 1 view .LVU23
 125 000e 86E80F00 		stm	r6, {r0, r1, r2, r3}
  52:Src/fdcan.c   ****   TxHeader.IdType = FDCAN_STANDARD_ID;
 126              		.loc 1 52 19 view .LVU24
 127 0012 0023     		movs	r3, #0
  49:Src/fdcan.c   ****   // /* Add message to Tx FIFO */
 128              		.loc 1 49 1 view .LVU25
 129 0014 9DF84060 		ldrb	r6, [sp, #64]	@ zero_extendqisi2
 130              		.loc 1 55 23 view .LVU26
 131 0018 0794     		str	r4, [sp, #28]
  56:Src/fdcan.c   ****   TxHeader.ErrorStateIndicator = FDCAN_ESI_PASSIVE;
  57:Src/fdcan.c   ****   TxHeader.BitRateSwitch = FDCAN_BRS_OFF;
  58:Src/fdcan.c   ****   TxHeader.FDFormat = FDCAN_CLASSIC_CAN;
  59:Src/fdcan.c   ****   TxHeader.TxEventFifoControl = FDCAN_NO_TX_EVENTS;
  60:Src/fdcan.c   ****   TxHeader.MessageMarker = messageId;
  61:Src/fdcan.c   ****   HAL_FDCAN_AddMessageToTxFifoQ(&can.hfdcan1, &TxHeader, message);
 132              		.loc 1 61 3 view .LVU27
 133 001a 0E9A     		ldr	r2, [sp, #56]
 134 001c 0848     		ldr	r0, .L8
  51:Src/fdcan.c   ****   TxHeader.IdType = FDCAN_STANDARD_ID;
 135              		.loc 1 51 23 view .LVU28
 136 001e 0495     		str	r5, [sp, #16]
  52:Src/fdcan.c   ****   TxHeader.IdType = FDCAN_STANDARD_ID;
 137              		.loc 1 52 3 is_stmt 1 view .LVU29
  56:Src/fdcan.c   ****   TxHeader.ErrorStateIndicator = FDCAN_ESI_PASSIVE;
 138              		.loc 1 56 32 is_stmt 0 view .LVU30
 139 0020 4FF00044 		mov	r4, #-2147483648
 140              		.loc 1 61 3 view .LVU31
 141 0024 04A9     		add	r1, sp, #16
  60:Src/fdcan.c   ****   HAL_FDCAN_AddMessageToTxFifoQ(&can.hfdcan1, &TxHeader, message);
 142              		.loc 1 60 26 view .LVU32
 143 0026 0C96     		str	r6, [sp, #48]
  53:Src/fdcan.c   ****   //TxHeader.DataLength = FDCAN_DLC_BYTES_8;
 144              		.loc 1 53 24 view .LVU33
 145 0028 CDE90533 		strd	r3, r3, [sp, #20]
  55:Src/fdcan.c   ****   TxHeader.ErrorStateIndicator = FDCAN_ESI_PASSIVE;
 146              		.loc 1 55 3 is_stmt 1 view .LVU34
  56:Src/fdcan.c   ****   TxHeader.BitRateSwitch = FDCAN_BRS_OFF;
 147              		.loc 1 56 3 view .LVU35
  58:Src/fdcan.c   ****   TxHeader.TxEventFifoControl = FDCAN_NO_TX_EVENTS;
 148              		.loc 1 58 21 is_stmt 0 view .LVU36
 149 002c CDE90933 		strd	r3, r3, [sp, #36]
ARM GAS  D:\apps\VSCode\data\tmp\cc1Dl4Ov.s 			page 5


  59:Src/fdcan.c   ****   TxHeader.MessageMarker = messageId;
 150              		.loc 1 59 31 view .LVU37
 151 0030 0B93     		str	r3, [sp, #44]
  56:Src/fdcan.c   ****   TxHeader.BitRateSwitch = FDCAN_BRS_OFF;
 152              		.loc 1 56 32 view .LVU38
 153 0032 0894     		str	r4, [sp, #32]
  57:Src/fdcan.c   ****   TxHeader.FDFormat = FDCAN_CLASSIC_CAN;
 154              		.loc 1 57 3 is_stmt 1 view .LVU39
  58:Src/fdcan.c   ****   TxHeader.TxEventFifoControl = FDCAN_NO_TX_EVENTS;
 155              		.loc 1 58 3 view .LVU40
  59:Src/fdcan.c   ****   TxHeader.MessageMarker = messageId;
 156              		.loc 1 59 3 view .LVU41
  60:Src/fdcan.c   ****   HAL_FDCAN_AddMessageToTxFifoQ(&can.hfdcan1, &TxHeader, message);
 157              		.loc 1 60 3 view .LVU42
 158              		.loc 1 61 3 view .LVU43
 159 0034 FFF7FEFF 		bl	HAL_FDCAN_AddMessageToTxFifoQ
 160              	.LVL3:
  62:Src/fdcan.c   **** }
 161              		.loc 1 62 1 is_stmt 0 view .LVU44
 162 0038 BDE87040 		pop	{r4, r5, r6, lr}
 163              	.LCFI5:
 164              		.cfi_restore 14
 165              		.cfi_restore 6
 166              		.cfi_restore 5
 167              		.cfi_restore 4
 168              		.cfi_def_cfa_offset 16
 169 003c 04B0     		add	sp, sp, #16
 170              	.LCFI6:
 171              		.cfi_def_cfa_offset 0
 172 003e 7047     		bx	lr
 173              	.L9:
 174              		.align	2
 175              	.L8:
 176 0040 00000000 		.word	can
 177              		.cfi_endproc
 178              	.LFE2054:
 180              		.section	.text.can_receive_massege,"ax",%progbits
 181              		.align	1
 182              		.p2align 2,,3
 183              		.global	can_receive_massege
 184              		.syntax unified
 185              		.thumb
 186              		.thumb_func
 187              		.fpu fpv4-sp-d16
 189              	can_receive_massege:
 190              	.LFB2055:
  63:Src/fdcan.c   **** void can_receive_massege(void)
  64:Src/fdcan.c   **** {
 191              		.loc 1 64 1 is_stmt 1 view -0
 192              		.cfi_startproc
 193              		@ args = 0, pretend = 0, frame = 0
 194              		@ frame_needed = 0, uses_anonymous_args = 0
  65:Src/fdcan.c   ****   if (can.RxFlag != 0)
 195              		.loc 1 65 3 view .LVU46
  64:Src/fdcan.c   ****   if (can.RxFlag != 0)
 196              		.loc 1 64 1 is_stmt 0 view .LVU47
 197 0000 10B5     		push	{r4, lr}
ARM GAS  D:\apps\VSCode\data\tmp\cc1Dl4Ov.s 			page 6


 198              	.LCFI7:
 199              		.cfi_def_cfa_offset 8
 200              		.cfi_offset 4, -8
 201              		.cfi_offset 14, -4
 202              		.loc 1 65 10 view .LVU48
 203 0002 084C     		ldr	r4, .L17
 204              		.loc 1 65 6 view .LVU49
 205 0004 94F82931 		ldrb	r3, [r4, #297]	@ zero_extendqisi2
 206 0008 03B9     		cbnz	r3, .L16
  66:Src/fdcan.c   ****   {
  67:Src/fdcan.c   ****     HAL_FDCAN_GetRxMessage(&can.hfdcan1, FDCAN_RX_FIFO0, &can.RxHeader, can.RxData);
  68:Src/fdcan.c   ****     can.RxFlag = 0;
  69:Src/fdcan.c   ****   }
  70:Src/fdcan.c   **** }
 207              		.loc 1 70 1 view .LVU50
 208 000a 10BD     		pop	{r4, pc}
 209              	.L16:
  67:Src/fdcan.c   ****     can.RxFlag = 0;
 210              		.loc 1 67 5 is_stmt 1 view .LVU51
 211 000c 04F59073 		add	r3, r4, #288
 212 0010 04F1C402 		add	r2, r4, #196
 213 0014 4021     		movs	r1, #64
 214 0016 2046     		mov	r0, r4
 215 0018 FFF7FEFF 		bl	HAL_FDCAN_GetRxMessage
 216              	.LVL4:
  68:Src/fdcan.c   ****   }
 217              		.loc 1 68 5 view .LVU52
  68:Src/fdcan.c   ****   }
 218              		.loc 1 68 16 is_stmt 0 view .LVU53
 219 001c 0023     		movs	r3, #0
 220 001e 84F82931 		strb	r3, [r4, #297]
 221              		.loc 1 70 1 view .LVU54
 222 0022 10BD     		pop	{r4, pc}
 223              	.L18:
 224              		.align	2
 225              	.L17:
 226 0024 00000000 		.word	can
 227              		.cfi_endproc
 228              	.LFE2055:
 230              		.section	.text.MX_FDCAN1_Init,"ax",%progbits
 231              		.align	1
 232              		.p2align 2,,3
 233              		.global	MX_FDCAN1_Init
 234              		.syntax unified
 235              		.thumb
 236              		.thumb_func
 237              		.fpu fpv4-sp-d16
 239              	MX_FDCAN1_Init:
 240              	.LFB2056:
  71:Src/fdcan.c   **** 
  72:Src/fdcan.c   **** /* FDCAN1 init function */
  73:Src/fdcan.c   **** void MX_FDCAN1_Init(void)
  74:Src/fdcan.c   **** {
 241              		.loc 1 74 1 is_stmt 1 view -0
 242              		.cfi_startproc
 243              		@ args = 0, pretend = 0, frame = 0
 244              		@ frame_needed = 0, uses_anonymous_args = 0
ARM GAS  D:\apps\VSCode\data\tmp\cc1Dl4Ov.s 			page 7


  75:Src/fdcan.c   ****   can.hfdcan1.Instance = FDCAN1;
 245              		.loc 1 75 3 view .LVU56
  76:Src/fdcan.c   ****   can.hfdcan1.Init.ClockDivider = FDCAN_CLOCK_DIV2;
 246              		.loc 1 76 3 view .LVU57
  77:Src/fdcan.c   ****   can.hfdcan1.Init.FrameFormat = FDCAN_FRAME_CLASSIC;
 247              		.loc 1 77 3 view .LVU58
  78:Src/fdcan.c   ****   can.hfdcan1.Init.Mode = FDCAN_MODE_NORMAL;
 248              		.loc 1 78 3 view .LVU59
  79:Src/fdcan.c   ****   can.hfdcan1.Init.AutoRetransmission = DISABLE;
 249              		.loc 1 79 3 view .LVU60
  80:Src/fdcan.c   ****   can.hfdcan1.Init.TransmitPause = DISABLE;
 250              		.loc 1 80 3 view .LVU61
  81:Src/fdcan.c   ****   can.hfdcan1.Init.ProtocolException = DISABLE;
 251              		.loc 1 81 3 view .LVU62
  74:Src/fdcan.c   ****   can.hfdcan1.Instance = FDCAN1;
 252              		.loc 1 74 1 is_stmt 0 view .LVU63
 253 0000 30B5     		push	{r4, r5, lr}
 254              	.LCFI8:
 255              		.cfi_def_cfa_offset 12
 256              		.cfi_offset 4, -12
 257              		.cfi_offset 5, -8
 258              		.cfi_offset 14, -4
  75:Src/fdcan.c   ****   can.hfdcan1.Init.ClockDivider = FDCAN_CLOCK_DIV2;
 259              		.loc 1 75 24 view .LVU64
 260 0002 214C     		ldr	r4, .L26
 261 0004 214B     		ldr	r3, .L26+4
 262 0006 2360     		str	r3, [r4]
  76:Src/fdcan.c   ****   can.hfdcan1.Init.FrameFormat = FDCAN_FRAME_CLASSIC;
 263              		.loc 1 76 33 view .LVU65
 264 0008 0121     		movs	r1, #1
  77:Src/fdcan.c   ****   can.hfdcan1.Init.Mode = FDCAN_MODE_NORMAL;
 265              		.loc 1 77 32 view .LVU66
 266 000a 0023     		movs	r3, #0
  82:Src/fdcan.c   ****   can.hfdcan1.Init.NominalPrescaler = 2;
 267              		.loc 1 82 37 view .LVU67
 268 000c 0222     		movs	r2, #2
  83:Src/fdcan.c   ****   can.hfdcan1.Init.NominalSyncJumpWidth = 2;
  84:Src/fdcan.c   ****   can.hfdcan1.Init.NominalTimeSeg1 = 71;
 269              		.loc 1 84 36 view .LVU68
 270 000e 4725     		movs	r5, #71
  74:Src/fdcan.c   ****   can.hfdcan1.Instance = FDCAN1;
 271              		.loc 1 74 1 view .LVU69
 272 0010 83B0     		sub	sp, sp, #12
 273              	.LCFI9:
 274              		.cfi_def_cfa_offset 24
  76:Src/fdcan.c   ****   can.hfdcan1.Init.FrameFormat = FDCAN_FRAME_CLASSIC;
 275              		.loc 1 76 33 view .LVU70
 276 0012 6160     		str	r1, [r4, #4]
  85:Src/fdcan.c   ****   can.hfdcan1.Init.NominalTimeSeg2 = 13;
  86:Src/fdcan.c   ****   can.hfdcan1.Init.DataPrescaler = 2;
  87:Src/fdcan.c   ****   can.hfdcan1.Init.DataSyncJumpWidth = 2;
  88:Src/fdcan.c   ****   can.hfdcan1.Init.DataTimeSeg1 = 71;
  89:Src/fdcan.c   ****   can.hfdcan1.Init.DataTimeSeg2 = 13;
  90:Src/fdcan.c   ****   can.hfdcan1.Init.StdFiltersNbr = 1;
 277              		.loc 1 90 34 view .LVU71
 278 0014 6163     		str	r1, [r4, #52]
  91:Src/fdcan.c   ****   can.hfdcan1.Init.ExtFiltersNbr = 0;
ARM GAS  D:\apps\VSCode\data\tmp\cc1Dl4Ov.s 			page 8


  92:Src/fdcan.c   ****   can.hfdcan1.Init.TxFifoQueueMode = FDCAN_TX_FIFO_OPERATION;
  93:Src/fdcan.c   ****   if (HAL_FDCAN_Init(&can.hfdcan1) != HAL_OK)
 279              		.loc 1 93 7 view .LVU72
 280 0016 2046     		mov	r0, r4
  85:Src/fdcan.c   ****   can.hfdcan1.Init.NominalTimeSeg2 = 13;
 281              		.loc 1 85 36 view .LVU73
 282 0018 0D21     		movs	r1, #13
  78:Src/fdcan.c   ****   can.hfdcan1.Init.AutoRetransmission = DISABLE;
 283              		.loc 1 78 25 view .LVU74
 284 001a C4E90233 		strd	r3, r3, [r4, #8]
  79:Src/fdcan.c   ****   can.hfdcan1.Init.TransmitPause = DISABLE;
 285              		.loc 1 79 39 view .LVU75
 286 001e 2382     		strh	r3, [r4, #16]	@ movhi
  81:Src/fdcan.c   ****   can.hfdcan1.Init.NominalPrescaler = 2;
 287              		.loc 1 81 38 view .LVU76
 288 0020 A374     		strb	r3, [r4, #18]
  82:Src/fdcan.c   ****   can.hfdcan1.Init.NominalSyncJumpWidth = 2;
 289              		.loc 1 82 3 is_stmt 1 view .LVU77
  92:Src/fdcan.c   ****   if (HAL_FDCAN_Init(&can.hfdcan1) != HAL_OK)
 290              		.loc 1 92 36 is_stmt 0 view .LVU78
 291 0022 C4E90E33 		strd	r3, r3, [r4, #56]
  83:Src/fdcan.c   ****   can.hfdcan1.Init.NominalTimeSeg1 = 71;
 292              		.loc 1 83 41 view .LVU79
 293 0026 C4E90522 		strd	r2, r2, [r4, #20]
  84:Src/fdcan.c   ****   can.hfdcan1.Init.NominalTimeSeg2 = 13;
 294              		.loc 1 84 3 is_stmt 1 view .LVU80
  87:Src/fdcan.c   ****   can.hfdcan1.Init.DataTimeSeg1 = 71;
 295              		.loc 1 87 38 is_stmt 0 view .LVU81
 296 002a C4E90922 		strd	r2, r2, [r4, #36]
  84:Src/fdcan.c   ****   can.hfdcan1.Init.NominalTimeSeg2 = 13;
 297              		.loc 1 84 36 view .LVU82
 298 002e E561     		str	r5, [r4, #28]
  85:Src/fdcan.c   ****   can.hfdcan1.Init.DataPrescaler = 2;
 299              		.loc 1 85 3 is_stmt 1 view .LVU83
  88:Src/fdcan.c   ****   can.hfdcan1.Init.DataTimeSeg2 = 13;
 300              		.loc 1 88 33 is_stmt 0 view .LVU84
 301 0030 E562     		str	r5, [r4, #44]
  85:Src/fdcan.c   ****   can.hfdcan1.Init.DataPrescaler = 2;
 302              		.loc 1 85 36 view .LVU85
 303 0032 2162     		str	r1, [r4, #32]
  86:Src/fdcan.c   ****   can.hfdcan1.Init.DataSyncJumpWidth = 2;
 304              		.loc 1 86 3 is_stmt 1 view .LVU86
  87:Src/fdcan.c   ****   can.hfdcan1.Init.DataTimeSeg1 = 71;
 305              		.loc 1 87 3 view .LVU87
  88:Src/fdcan.c   ****   can.hfdcan1.Init.DataTimeSeg2 = 13;
 306              		.loc 1 88 3 view .LVU88
  89:Src/fdcan.c   ****   can.hfdcan1.Init.StdFiltersNbr = 1;
 307              		.loc 1 89 3 view .LVU89
  89:Src/fdcan.c   ****   can.hfdcan1.Init.StdFiltersNbr = 1;
 308              		.loc 1 89 33 is_stmt 0 view .LVU90
 309 0034 2163     		str	r1, [r4, #48]
  90:Src/fdcan.c   ****   can.hfdcan1.Init.ExtFiltersNbr = 0;
 310              		.loc 1 90 3 is_stmt 1 view .LVU91
  91:Src/fdcan.c   ****   can.hfdcan1.Init.TxFifoQueueMode = FDCAN_TX_FIFO_OPERATION;
 311              		.loc 1 91 3 view .LVU92
  92:Src/fdcan.c   ****   if (HAL_FDCAN_Init(&can.hfdcan1) != HAL_OK)
 312              		.loc 1 92 3 view .LVU93
ARM GAS  D:\apps\VSCode\data\tmp\cc1Dl4Ov.s 			page 9


 313              		.loc 1 93 3 view .LVU94
 314              		.loc 1 93 7 is_stmt 0 view .LVU95
 315 0036 FFF7FEFF 		bl	HAL_FDCAN_Init
 316              	.LVL5:
 317              		.loc 1 93 6 view .LVU96
 318 003a 08BB     		cbnz	r0, .L25
 319              	.L20:
  94:Src/fdcan.c   ****   {
  95:Src/fdcan.c   ****     Error_Handler();
  96:Src/fdcan.c   ****   }
  97:Src/fdcan.c   ****   /* USER CODE BEGIN FDCAN1_Init 2 */
  98:Src/fdcan.c   ****   can_filters_config();
 320              		.loc 1 98 3 is_stmt 1 view .LVU97
 321              	.LBB32:
 322              	.LBI32:
  31:Src/fdcan.c   **** {
 323              		.loc 1 31 6 view .LVU98
 324              	.LBB33:
  34:Src/fdcan.c   ****   can.sFilterConfig.FilterIndex = 0;
 325              		.loc 1 34 3 view .LVU99
  40:Src/fdcan.c   ****   /* Configure global filter:
 326              		.loc 1 40 3 is_stmt 0 view .LVU100
 327 003c 1449     		ldr	r1, .L26+8
  34:Src/fdcan.c   ****   can.sFilterConfig.FilterIndex = 0;
 328              		.loc 1 34 28 view .LVU101
 329 003e 0025     		movs	r5, #0
  38:Src/fdcan.c   ****   can.sFilterConfig.FilterID2 = 0x7FF;
 330              		.loc 1 38 31 view .LVU102
 331 0040 40F21112 		movw	r2, #273
  39:Src/fdcan.c   ****   HAL_FDCAN_ConfigFilter(&can.hfdcan1, &can.sFilterConfig);
 332              		.loc 1 39 31 view .LVU103
 333 0044 40F2FF73 		movw	r3, #2047
  40:Src/fdcan.c   ****   /* Configure global filter:
 334              		.loc 1 40 3 view .LVU104
 335 0048 A1F16400 		sub	r0, r1, #100
  39:Src/fdcan.c   ****   HAL_FDCAN_ConfigFilter(&can.hfdcan1, &can.sFilterConfig);
 336              		.loc 1 39 31 view .LVU105
 337 004c C4E91D23 		strd	r2, r3, [r4, #116]
  35:Src/fdcan.c   ****   can.sFilterConfig.FilterType = FDCAN_FILTER_RANGE;
 338              		.loc 1 35 33 view .LVU106
 339 0050 C4E91955 		strd	r5, r5, [r4, #100]
  36:Src/fdcan.c   ****   can.sFilterConfig.FilterConfig = FDCAN_FILTER_DISABLE; //FDCAN_FILTER_TO_RXFIFO0;
 340              		.loc 1 36 3 is_stmt 1 view .LVU107
  37:Src/fdcan.c   ****   can.sFilterConfig.FilterID1 = 0x111;
 341              		.loc 1 37 34 is_stmt 0 view .LVU108
 342 0054 C4E91B55 		strd	r5, r5, [r4, #108]
  38:Src/fdcan.c   ****   can.sFilterConfig.FilterID2 = 0x7FF;
 343              		.loc 1 38 3 is_stmt 1 view .LVU109
  40:Src/fdcan.c   ****   /* Configure global filter:
 344              		.loc 1 40 3 view .LVU110
 345 0058 FFF7FEFF 		bl	HAL_FDCAN_ConfigFilter
 346              	.LVL6:
  44:Src/fdcan.c   **** }
 347              		.loc 1 44 3 view .LVU111
 348 005c 2946     		mov	r1, r5
 349 005e 2B46     		mov	r3, r5
 350 0060 0222     		movs	r2, #2
ARM GAS  D:\apps\VSCode\data\tmp\cc1Dl4Ov.s 			page 10


 351 0062 0095     		str	r5, [sp]
 352 0064 0848     		ldr	r0, .L26
 353 0066 FFF7FEFF 		bl	HAL_FDCAN_ConfigGlobalFilter
 354              	.LVL7:
 355              	.LBE33:
 356              	.LBE32:
  99:Src/fdcan.c   ****   HAL_FDCAN_Start(&can.hfdcan1);
 357              		.loc 1 99 3 view .LVU112
 358 006a 0748     		ldr	r0, .L26
 359 006c FFF7FEFF 		bl	HAL_FDCAN_Start
 360              	.LVL8:
 100:Src/fdcan.c   ****   HAL_FDCAN_ActivateNotification(&can.hfdcan1, FDCAN_IT_RX_FIFO0_NEW_MESSAGE, 0);
 361              		.loc 1 100 3 view .LVU113
 362 0070 0548     		ldr	r0, .L26
 363 0072 2A46     		mov	r2, r5
 364 0074 0121     		movs	r1, #1
 101:Src/fdcan.c   **** 
 102:Src/fdcan.c   ****   /* USER CODE END FDCAN1_Init 2 */
 103:Src/fdcan.c   **** }
 365              		.loc 1 103 1 is_stmt 0 view .LVU114
 366 0076 03B0     		add	sp, sp, #12
 367              	.LCFI10:
 368              		.cfi_remember_state
 369              		.cfi_def_cfa_offset 12
 370              		@ sp needed
 371 0078 BDE83040 		pop	{r4, r5, lr}
 372              	.LCFI11:
 373              		.cfi_restore 14
 374              		.cfi_restore 5
 375              		.cfi_restore 4
 376              		.cfi_def_cfa_offset 0
 100:Src/fdcan.c   ****   HAL_FDCAN_ActivateNotification(&can.hfdcan1, FDCAN_IT_RX_FIFO0_NEW_MESSAGE, 0);
 377              		.loc 1 100 3 view .LVU115
 378 007c FFF7FEBF 		b	HAL_FDCAN_ActivateNotification
 379              	.LVL9:
 380              	.L25:
 381              	.LCFI12:
 382              		.cfi_restore_state
  95:Src/fdcan.c   ****   }
 383              		.loc 1 95 5 is_stmt 1 view .LVU116
 384 0080 FFF7FEFF 		bl	Error_Handler
 385              	.LVL10:
 386 0084 DAE7     		b	.L20
 387              	.L27:
 388 0086 00BF     		.align	2
 389              	.L26:
 390 0088 00000000 		.word	can
 391 008c 00640040 		.word	1073767424
 392 0090 64000000 		.word	can+100
 393              		.cfi_endproc
 394              	.LFE2056:
 396              		.section	.text.HAL_FDCAN_MspInit,"ax",%progbits
 397              		.align	1
 398              		.p2align 2,,3
 399              		.global	HAL_FDCAN_MspInit
 400              		.syntax unified
 401              		.thumb
ARM GAS  D:\apps\VSCode\data\tmp\cc1Dl4Ov.s 			page 11


 402              		.thumb_func
 403              		.fpu fpv4-sp-d16
 405              	HAL_FDCAN_MspInit:
 406              	.LVL11:
 407              	.LFB2057:
 104:Src/fdcan.c   **** 
 105:Src/fdcan.c   **** void HAL_FDCAN_MspInit(FDCAN_HandleTypeDef *fdcanHandle)
 106:Src/fdcan.c   **** {
 408              		.loc 1 106 1 view -0
 409              		.cfi_startproc
 410              		@ args = 0, pretend = 0, frame = 32
 411              		@ frame_needed = 0, uses_anonymous_args = 0
 107:Src/fdcan.c   **** 
 108:Src/fdcan.c   ****   LL_GPIO_InitTypeDef GPIO_InitStruct = {0};
 412              		.loc 1 108 3 view .LVU118
 106:Src/fdcan.c   **** 
 413              		.loc 1 106 1 is_stmt 0 view .LVU119
 414 0000 2DE9F043 		push	{r4, r5, r6, r7, r8, r9, lr}
 415              	.LCFI13:
 416              		.cfi_def_cfa_offset 28
 417              		.cfi_offset 4, -28
 418              		.cfi_offset 5, -24
 419              		.cfi_offset 6, -20
 420              		.cfi_offset 7, -16
 421              		.cfi_offset 8, -12
 422              		.cfi_offset 9, -8
 423              		.cfi_offset 14, -4
 109:Src/fdcan.c   ****   if (fdcanHandle->Instance == FDCAN1)
 424              		.loc 1 109 6 view .LVU120
 425 0004 314B     		ldr	r3, .L34
 426 0006 0268     		ldr	r2, [r0]
 106:Src/fdcan.c   **** 
 427              		.loc 1 106 1 view .LVU121
 428 0008 89B0     		sub	sp, sp, #36
 429              	.LCFI14:
 430              		.cfi_def_cfa_offset 64
 108:Src/fdcan.c   ****   if (fdcanHandle->Instance == FDCAN1)
 431              		.loc 1 108 23 view .LVU122
 432 000a 0024     		movs	r4, #0
 433              		.loc 1 109 6 view .LVU123
 434 000c 9A42     		cmp	r2, r3
 108:Src/fdcan.c   ****   if (fdcanHandle->Instance == FDCAN1)
 435              		.loc 1 108 23 view .LVU124
 436 000e CDE90244 		strd	r4, r4, [sp, #8]
 437 0012 CDE90444 		strd	r4, r4, [sp, #16]
 438 0016 CDE90644 		strd	r4, r4, [sp, #24]
 439              		.loc 1 109 3 is_stmt 1 view .LVU125
 440              		.loc 1 109 6 is_stmt 0 view .LVU126
 441 001a 02D0     		beq	.L33
 110:Src/fdcan.c   ****   {
 111:Src/fdcan.c   ****     /* GPIO Ports Clock Enable */
 112:Src/fdcan.c   ****     LL_AHB2_GRP1_EnableClock(LL_AHB2_GRP1_PERIPH_GPIOA);
 113:Src/fdcan.c   ****     LL_APB1_GRP1_EnableClock(LL_APB1_GRP1_PERIPH_FDCAN);
 114:Src/fdcan.c   ****     /**/
 115:Src/fdcan.c   ****     LL_GPIO_ResetOutputPin(FDCAN_RX_GPIO_Port, FDCAN_RX_Pin);
 116:Src/fdcan.c   ****     LL_GPIO_ResetOutputPin(FDCAN_TX_GPIO_Port, FDCAN_TX_Pin);
 117:Src/fdcan.c   ****     /**/
ARM GAS  D:\apps\VSCode\data\tmp\cc1Dl4Ov.s 			page 12


 118:Src/fdcan.c   ****     GPIO_InitStruct.Pin = FDCAN_RX_Pin;
 119:Src/fdcan.c   ****     GPIO_InitStruct.Mode = LL_GPIO_MODE_ALTERNATE;
 120:Src/fdcan.c   ****     GPIO_InitStruct.Speed = LL_GPIO_SPEED_FREQ_VERY_HIGH;
 121:Src/fdcan.c   ****     GPIO_InitStruct.Pull = LL_GPIO_PULL_NO;
 122:Src/fdcan.c   ****     GPIO_InitStruct.Alternate = LL_GPIO_AF_9;
 123:Src/fdcan.c   ****     LL_GPIO_Init(GPIOA, &GPIO_InitStruct);
 124:Src/fdcan.c   ****     /**/
 125:Src/fdcan.c   ****     GPIO_InitStruct.Pin = FDCAN_TX_Pin;
 126:Src/fdcan.c   ****     GPIO_InitStruct.Mode = LL_GPIO_MODE_ALTERNATE;
 127:Src/fdcan.c   ****     GPIO_InitStruct.Speed = LL_GPIO_SPEED_FREQ_VERY_HIGH;
 128:Src/fdcan.c   ****     GPIO_InitStruct.Pull = LL_GPIO_PULL_NO;
 129:Src/fdcan.c   ****     GPIO_InitStruct.Alternate = LL_GPIO_AF_9;
 130:Src/fdcan.c   ****     LL_GPIO_Init(GPIOA, &GPIO_InitStruct);
 131:Src/fdcan.c   **** 
 132:Src/fdcan.c   ****     /* FDCAN1 interrupt Init */
 133:Src/fdcan.c   ****     NVIC_SetPriority(FDCAN1_IT0_IRQn, NVIC_EncodePriority(NVIC_GetPriorityGrouping(), 2, 0));
 134:Src/fdcan.c   ****     NVIC_EnableIRQ(FDCAN1_IT0_IRQn);
 135:Src/fdcan.c   ****     /* USER CODE BEGIN FDCAN1_MspInit 1 */
 136:Src/fdcan.c   **** 
 137:Src/fdcan.c   ****     /* USER CODE END FDCAN1_MspInit 1 */
 138:Src/fdcan.c   ****   }
 139:Src/fdcan.c   **** }
 442              		.loc 1 139 1 view .LVU127
 443 001c 09B0     		add	sp, sp, #36
 444              	.LCFI15:
 445              		.cfi_remember_state
 446              		.cfi_def_cfa_offset 28
 447              		@ sp needed
 448 001e BDE8F083 		pop	{r4, r5, r6, r7, r8, r9, pc}
 449              	.L33:
 450              	.LCFI16:
 451              		.cfi_restore_state
 112:Src/fdcan.c   ****     LL_APB1_GRP1_EnableClock(LL_APB1_GRP1_PERIPH_FDCAN);
 452              		.loc 1 112 5 is_stmt 1 view .LVU128
 453              	.LVL12:
 454              	.LBB34:
 455              	.LBI34:
 456              		.file 2 "Drivers/STM32G4xx_HAL_Driver/Inc/stm32g4xx_ll_bus.h"
   1:Drivers/STM32G4xx_HAL_Driver/Inc/stm32g4xx_ll_bus.h **** /**
   2:Drivers/STM32G4xx_HAL_Driver/Inc/stm32g4xx_ll_bus.h ****   ******************************************************************************
   3:Drivers/STM32G4xx_HAL_Driver/Inc/stm32g4xx_ll_bus.h ****   * @file    stm32g4xx_ll_bus.h
   4:Drivers/STM32G4xx_HAL_Driver/Inc/stm32g4xx_ll_bus.h ****   * @author  MCD Application Team
   5:Drivers/STM32G4xx_HAL_Driver/Inc/stm32g4xx_ll_bus.h ****   * @brief   Header file of BUS LL module.
   6:Drivers/STM32G4xx_HAL_Driver/Inc/stm32g4xx_ll_bus.h **** 
   7:Drivers/STM32G4xx_HAL_Driver/Inc/stm32g4xx_ll_bus.h ****   @verbatim
   8:Drivers/STM32G4xx_HAL_Driver/Inc/stm32g4xx_ll_bus.h ****                       ##### RCC Limitations #####
   9:Drivers/STM32G4xx_HAL_Driver/Inc/stm32g4xx_ll_bus.h ****   ==============================================================================
  10:Drivers/STM32G4xx_HAL_Driver/Inc/stm32g4xx_ll_bus.h ****     [..]
  11:Drivers/STM32G4xx_HAL_Driver/Inc/stm32g4xx_ll_bus.h ****       A delay between an RCC peripheral clock enable and the effective peripheral
  12:Drivers/STM32G4xx_HAL_Driver/Inc/stm32g4xx_ll_bus.h ****       enabling should be taken into account in order to manage the peripheral read/write
  13:Drivers/STM32G4xx_HAL_Driver/Inc/stm32g4xx_ll_bus.h ****       from/to registers.
  14:Drivers/STM32G4xx_HAL_Driver/Inc/stm32g4xx_ll_bus.h ****       (+) This delay depends on the peripheral mapping.
  15:Drivers/STM32G4xx_HAL_Driver/Inc/stm32g4xx_ll_bus.h ****         (++) AHB & APB peripherals, 1 dummy read is necessary
  16:Drivers/STM32G4xx_HAL_Driver/Inc/stm32g4xx_ll_bus.h **** 
  17:Drivers/STM32G4xx_HAL_Driver/Inc/stm32g4xx_ll_bus.h ****     [..]
  18:Drivers/STM32G4xx_HAL_Driver/Inc/stm32g4xx_ll_bus.h ****       Workarounds:
  19:Drivers/STM32G4xx_HAL_Driver/Inc/stm32g4xx_ll_bus.h ****       (#) For AHB & APB peripherals, a dummy read to the peripheral register has been
ARM GAS  D:\apps\VSCode\data\tmp\cc1Dl4Ov.s 			page 13


  20:Drivers/STM32G4xx_HAL_Driver/Inc/stm32g4xx_ll_bus.h ****           inserted in each LL_{BUS}_GRP{x}_EnableClock() function.
  21:Drivers/STM32G4xx_HAL_Driver/Inc/stm32g4xx_ll_bus.h **** 
  22:Drivers/STM32G4xx_HAL_Driver/Inc/stm32g4xx_ll_bus.h ****   @endverbatim
  23:Drivers/STM32G4xx_HAL_Driver/Inc/stm32g4xx_ll_bus.h ****   ******************************************************************************
  24:Drivers/STM32G4xx_HAL_Driver/Inc/stm32g4xx_ll_bus.h ****   * @attention
  25:Drivers/STM32G4xx_HAL_Driver/Inc/stm32g4xx_ll_bus.h ****   *
  26:Drivers/STM32G4xx_HAL_Driver/Inc/stm32g4xx_ll_bus.h ****   * <h2><center>&copy; Copyright (c) 2019 STMicroelectronics.
  27:Drivers/STM32G4xx_HAL_Driver/Inc/stm32g4xx_ll_bus.h ****   * All rights reserved.</center></h2>
  28:Drivers/STM32G4xx_HAL_Driver/Inc/stm32g4xx_ll_bus.h ****   *
  29:Drivers/STM32G4xx_HAL_Driver/Inc/stm32g4xx_ll_bus.h ****   * This software component is licensed by ST under BSD 3-Clause license,
  30:Drivers/STM32G4xx_HAL_Driver/Inc/stm32g4xx_ll_bus.h ****   * the "License"; You may not use this file except in compliance with the
  31:Drivers/STM32G4xx_HAL_Driver/Inc/stm32g4xx_ll_bus.h ****   * License. You may obtain a copy of the License at:
  32:Drivers/STM32G4xx_HAL_Driver/Inc/stm32g4xx_ll_bus.h ****   *                        opensource.org/licenses/BSD-3-Clause
  33:Drivers/STM32G4xx_HAL_Driver/Inc/stm32g4xx_ll_bus.h ****   *
  34:Drivers/STM32G4xx_HAL_Driver/Inc/stm32g4xx_ll_bus.h ****   ******************************************************************************
  35:Drivers/STM32G4xx_HAL_Driver/Inc/stm32g4xx_ll_bus.h ****   */
  36:Drivers/STM32G4xx_HAL_Driver/Inc/stm32g4xx_ll_bus.h **** 
  37:Drivers/STM32G4xx_HAL_Driver/Inc/stm32g4xx_ll_bus.h **** /* Define to prevent recursive inclusion -------------------------------------*/
  38:Drivers/STM32G4xx_HAL_Driver/Inc/stm32g4xx_ll_bus.h **** #ifndef STM32G4xx_LL_BUS_H
  39:Drivers/STM32G4xx_HAL_Driver/Inc/stm32g4xx_ll_bus.h **** #define STM32G4xx_LL_BUS_H
  40:Drivers/STM32G4xx_HAL_Driver/Inc/stm32g4xx_ll_bus.h **** 
  41:Drivers/STM32G4xx_HAL_Driver/Inc/stm32g4xx_ll_bus.h **** #ifdef __cplusplus
  42:Drivers/STM32G4xx_HAL_Driver/Inc/stm32g4xx_ll_bus.h **** extern "C" {
  43:Drivers/STM32G4xx_HAL_Driver/Inc/stm32g4xx_ll_bus.h **** #endif
  44:Drivers/STM32G4xx_HAL_Driver/Inc/stm32g4xx_ll_bus.h **** 
  45:Drivers/STM32G4xx_HAL_Driver/Inc/stm32g4xx_ll_bus.h **** /* Includes ------------------------------------------------------------------*/
  46:Drivers/STM32G4xx_HAL_Driver/Inc/stm32g4xx_ll_bus.h **** #include "stm32g4xx.h"
  47:Drivers/STM32G4xx_HAL_Driver/Inc/stm32g4xx_ll_bus.h **** 
  48:Drivers/STM32G4xx_HAL_Driver/Inc/stm32g4xx_ll_bus.h **** /** @addtogroup STM32G4xx_LL_Driver
  49:Drivers/STM32G4xx_HAL_Driver/Inc/stm32g4xx_ll_bus.h ****   * @{
  50:Drivers/STM32G4xx_HAL_Driver/Inc/stm32g4xx_ll_bus.h ****   */
  51:Drivers/STM32G4xx_HAL_Driver/Inc/stm32g4xx_ll_bus.h **** 
  52:Drivers/STM32G4xx_HAL_Driver/Inc/stm32g4xx_ll_bus.h **** #if defined(RCC)
  53:Drivers/STM32G4xx_HAL_Driver/Inc/stm32g4xx_ll_bus.h **** 
  54:Drivers/STM32G4xx_HAL_Driver/Inc/stm32g4xx_ll_bus.h **** /** @defgroup BUS_LL BUS
  55:Drivers/STM32G4xx_HAL_Driver/Inc/stm32g4xx_ll_bus.h ****   * @{
  56:Drivers/STM32G4xx_HAL_Driver/Inc/stm32g4xx_ll_bus.h ****   */
  57:Drivers/STM32G4xx_HAL_Driver/Inc/stm32g4xx_ll_bus.h **** 
  58:Drivers/STM32G4xx_HAL_Driver/Inc/stm32g4xx_ll_bus.h **** /* Private types -------------------------------------------------------------*/
  59:Drivers/STM32G4xx_HAL_Driver/Inc/stm32g4xx_ll_bus.h **** /* Private variables ---------------------------------------------------------*/
  60:Drivers/STM32G4xx_HAL_Driver/Inc/stm32g4xx_ll_bus.h **** 
  61:Drivers/STM32G4xx_HAL_Driver/Inc/stm32g4xx_ll_bus.h **** /* Private constants ---------------------------------------------------------*/
  62:Drivers/STM32G4xx_HAL_Driver/Inc/stm32g4xx_ll_bus.h **** 
  63:Drivers/STM32G4xx_HAL_Driver/Inc/stm32g4xx_ll_bus.h **** /* Private macros ------------------------------------------------------------*/
  64:Drivers/STM32G4xx_HAL_Driver/Inc/stm32g4xx_ll_bus.h **** 
  65:Drivers/STM32G4xx_HAL_Driver/Inc/stm32g4xx_ll_bus.h **** /* Exported types ------------------------------------------------------------*/
  66:Drivers/STM32G4xx_HAL_Driver/Inc/stm32g4xx_ll_bus.h **** /* Exported constants --------------------------------------------------------*/
  67:Drivers/STM32G4xx_HAL_Driver/Inc/stm32g4xx_ll_bus.h **** /** @defgroup BUS_LL_Exported_Constants BUS Exported Constants
  68:Drivers/STM32G4xx_HAL_Driver/Inc/stm32g4xx_ll_bus.h ****   * @{
  69:Drivers/STM32G4xx_HAL_Driver/Inc/stm32g4xx_ll_bus.h ****   */
  70:Drivers/STM32G4xx_HAL_Driver/Inc/stm32g4xx_ll_bus.h **** 
  71:Drivers/STM32G4xx_HAL_Driver/Inc/stm32g4xx_ll_bus.h **** /** @defgroup BUS_LL_EC_AHB1_GRP1_PERIPH  AHB1 GRP1 PERIPH
  72:Drivers/STM32G4xx_HAL_Driver/Inc/stm32g4xx_ll_bus.h ****   * @{
  73:Drivers/STM32G4xx_HAL_Driver/Inc/stm32g4xx_ll_bus.h ****   */
  74:Drivers/STM32G4xx_HAL_Driver/Inc/stm32g4xx_ll_bus.h **** #define LL_AHB1_GRP1_PERIPH_ALL            0xFFFFFFFFU
  75:Drivers/STM32G4xx_HAL_Driver/Inc/stm32g4xx_ll_bus.h **** #define LL_AHB1_GRP1_PERIPH_DMA1           RCC_AHB1ENR_DMA1EN
  76:Drivers/STM32G4xx_HAL_Driver/Inc/stm32g4xx_ll_bus.h **** #define LL_AHB1_GRP1_PERIPH_DMA2           RCC_AHB1ENR_DMA2EN
ARM GAS  D:\apps\VSCode\data\tmp\cc1Dl4Ov.s 			page 14


  77:Drivers/STM32G4xx_HAL_Driver/Inc/stm32g4xx_ll_bus.h **** #define LL_AHB1_GRP1_PERIPH_DMAMUX1        RCC_AHB1ENR_DMAMUX1EN
  78:Drivers/STM32G4xx_HAL_Driver/Inc/stm32g4xx_ll_bus.h **** #define LL_AHB1_GRP1_PERIPH_CORDIC         RCC_AHB1ENR_CORDICEN
  79:Drivers/STM32G4xx_HAL_Driver/Inc/stm32g4xx_ll_bus.h **** #define LL_AHB1_GRP1_PERIPH_FMAC           RCC_AHB1ENR_FMACEN
  80:Drivers/STM32G4xx_HAL_Driver/Inc/stm32g4xx_ll_bus.h **** #define LL_AHB1_GRP1_PERIPH_FLASH          RCC_AHB1ENR_FLASHEN
  81:Drivers/STM32G4xx_HAL_Driver/Inc/stm32g4xx_ll_bus.h **** #define LL_AHB1_GRP1_PERIPH_SRAM1          RCC_AHB1SMENR_SRAM1SMEN
  82:Drivers/STM32G4xx_HAL_Driver/Inc/stm32g4xx_ll_bus.h **** #define LL_AHB1_GRP1_PERIPH_CRC            RCC_AHB1ENR_CRCEN
  83:Drivers/STM32G4xx_HAL_Driver/Inc/stm32g4xx_ll_bus.h **** /**
  84:Drivers/STM32G4xx_HAL_Driver/Inc/stm32g4xx_ll_bus.h ****   * @}
  85:Drivers/STM32G4xx_HAL_Driver/Inc/stm32g4xx_ll_bus.h ****   */
  86:Drivers/STM32G4xx_HAL_Driver/Inc/stm32g4xx_ll_bus.h **** 
  87:Drivers/STM32G4xx_HAL_Driver/Inc/stm32g4xx_ll_bus.h **** /** @defgroup BUS_LL_EC_AHB2_GRP1_PERIPH  AHB2 GRP1 PERIPH
  88:Drivers/STM32G4xx_HAL_Driver/Inc/stm32g4xx_ll_bus.h ****   * @{
  89:Drivers/STM32G4xx_HAL_Driver/Inc/stm32g4xx_ll_bus.h ****   */
  90:Drivers/STM32G4xx_HAL_Driver/Inc/stm32g4xx_ll_bus.h **** #define LL_AHB2_GRP1_PERIPH_ALL            0xFFFFFFFFU
  91:Drivers/STM32G4xx_HAL_Driver/Inc/stm32g4xx_ll_bus.h **** #define LL_AHB2_GRP1_PERIPH_GPIOA          RCC_AHB2ENR_GPIOAEN
  92:Drivers/STM32G4xx_HAL_Driver/Inc/stm32g4xx_ll_bus.h **** #define LL_AHB2_GRP1_PERIPH_GPIOB          RCC_AHB2ENR_GPIOBEN
  93:Drivers/STM32G4xx_HAL_Driver/Inc/stm32g4xx_ll_bus.h **** #define LL_AHB2_GRP1_PERIPH_GPIOC          RCC_AHB2ENR_GPIOCEN
  94:Drivers/STM32G4xx_HAL_Driver/Inc/stm32g4xx_ll_bus.h **** #define LL_AHB2_GRP1_PERIPH_GPIOD          RCC_AHB2ENR_GPIODEN
  95:Drivers/STM32G4xx_HAL_Driver/Inc/stm32g4xx_ll_bus.h **** #define LL_AHB2_GRP1_PERIPH_GPIOE          RCC_AHB2ENR_GPIOEEN
  96:Drivers/STM32G4xx_HAL_Driver/Inc/stm32g4xx_ll_bus.h **** #define LL_AHB2_GRP1_PERIPH_GPIOF          RCC_AHB2ENR_GPIOFEN
  97:Drivers/STM32G4xx_HAL_Driver/Inc/stm32g4xx_ll_bus.h **** #define LL_AHB2_GRP1_PERIPH_GPIOG          RCC_AHB2ENR_GPIOGEN
  98:Drivers/STM32G4xx_HAL_Driver/Inc/stm32g4xx_ll_bus.h **** #define LL_AHB2_GRP1_PERIPH_CCM            RCC_AHB2SMENR_CCMSMEN
  99:Drivers/STM32G4xx_HAL_Driver/Inc/stm32g4xx_ll_bus.h **** #define LL_AHB2_GRP1_PERIPH_SRAM2          RCC_AHB2SMENR_SRAM2SMEN
 100:Drivers/STM32G4xx_HAL_Driver/Inc/stm32g4xx_ll_bus.h **** #define LL_AHB2_GRP1_PERIPH_ADC12          RCC_AHB2ENR_ADC12EN
 101:Drivers/STM32G4xx_HAL_Driver/Inc/stm32g4xx_ll_bus.h **** #if defined(ADC345_COMMON)
 102:Drivers/STM32G4xx_HAL_Driver/Inc/stm32g4xx_ll_bus.h **** #define LL_AHB2_GRP1_PERIPH_ADC345         RCC_AHB2ENR_ADC345EN
 103:Drivers/STM32G4xx_HAL_Driver/Inc/stm32g4xx_ll_bus.h **** #endif /* ADC345_COMMON */
 104:Drivers/STM32G4xx_HAL_Driver/Inc/stm32g4xx_ll_bus.h **** #define LL_AHB2_GRP1_PERIPH_DAC1           RCC_AHB2ENR_DAC1EN
 105:Drivers/STM32G4xx_HAL_Driver/Inc/stm32g4xx_ll_bus.h **** #if defined(DAC2)
 106:Drivers/STM32G4xx_HAL_Driver/Inc/stm32g4xx_ll_bus.h **** #define LL_AHB2_GRP1_PERIPH_DAC2           RCC_AHB2ENR_DAC2EN
 107:Drivers/STM32G4xx_HAL_Driver/Inc/stm32g4xx_ll_bus.h **** #endif /* DAC2 */
 108:Drivers/STM32G4xx_HAL_Driver/Inc/stm32g4xx_ll_bus.h **** #define LL_AHB2_GRP1_PERIPH_DAC3           RCC_AHB2ENR_DAC3EN
 109:Drivers/STM32G4xx_HAL_Driver/Inc/stm32g4xx_ll_bus.h **** #if defined(DAC4)
 110:Drivers/STM32G4xx_HAL_Driver/Inc/stm32g4xx_ll_bus.h **** #define LL_AHB2_GRP1_PERIPH_DAC4           RCC_AHB2ENR_DAC4EN
 111:Drivers/STM32G4xx_HAL_Driver/Inc/stm32g4xx_ll_bus.h **** #endif /* DAC4 */
 112:Drivers/STM32G4xx_HAL_Driver/Inc/stm32g4xx_ll_bus.h **** #if defined(AES)
 113:Drivers/STM32G4xx_HAL_Driver/Inc/stm32g4xx_ll_bus.h **** #define LL_AHB2_GRP1_PERIPH_AES            RCC_AHB2ENR_AESEN
 114:Drivers/STM32G4xx_HAL_Driver/Inc/stm32g4xx_ll_bus.h **** #endif /* AES */
 115:Drivers/STM32G4xx_HAL_Driver/Inc/stm32g4xx_ll_bus.h **** #define LL_AHB2_GRP1_PERIPH_RNG            RCC_AHB2ENR_RNGEN
 116:Drivers/STM32G4xx_HAL_Driver/Inc/stm32g4xx_ll_bus.h **** /**
 117:Drivers/STM32G4xx_HAL_Driver/Inc/stm32g4xx_ll_bus.h ****   * @}
 118:Drivers/STM32G4xx_HAL_Driver/Inc/stm32g4xx_ll_bus.h ****   */
 119:Drivers/STM32G4xx_HAL_Driver/Inc/stm32g4xx_ll_bus.h **** 
 120:Drivers/STM32G4xx_HAL_Driver/Inc/stm32g4xx_ll_bus.h **** /** @defgroup BUS_LL_EC_AHB3_GRP1_PERIPH  AHB3 GRP1 PERIPH
 121:Drivers/STM32G4xx_HAL_Driver/Inc/stm32g4xx_ll_bus.h ****   * @{
 122:Drivers/STM32G4xx_HAL_Driver/Inc/stm32g4xx_ll_bus.h ****   */
 123:Drivers/STM32G4xx_HAL_Driver/Inc/stm32g4xx_ll_bus.h **** #define LL_AHB3_GRP1_PERIPH_ALL            0xFFFFFFFFU
 124:Drivers/STM32G4xx_HAL_Driver/Inc/stm32g4xx_ll_bus.h **** #if defined(FMC_Bank1_R)
 125:Drivers/STM32G4xx_HAL_Driver/Inc/stm32g4xx_ll_bus.h **** #define LL_AHB3_GRP1_PERIPH_FMC            RCC_AHB3ENR_FMCEN
 126:Drivers/STM32G4xx_HAL_Driver/Inc/stm32g4xx_ll_bus.h **** #endif /* FMC_Bank1_R */
 127:Drivers/STM32G4xx_HAL_Driver/Inc/stm32g4xx_ll_bus.h **** #if defined(QUADSPI)
 128:Drivers/STM32G4xx_HAL_Driver/Inc/stm32g4xx_ll_bus.h **** #define LL_AHB3_GRP1_PERIPH_QSPI           RCC_AHB3ENR_QSPIEN
 129:Drivers/STM32G4xx_HAL_Driver/Inc/stm32g4xx_ll_bus.h **** #endif /* QUADSPI */
 130:Drivers/STM32G4xx_HAL_Driver/Inc/stm32g4xx_ll_bus.h **** /**
 131:Drivers/STM32G4xx_HAL_Driver/Inc/stm32g4xx_ll_bus.h ****   * @}
 132:Drivers/STM32G4xx_HAL_Driver/Inc/stm32g4xx_ll_bus.h ****   */
 133:Drivers/STM32G4xx_HAL_Driver/Inc/stm32g4xx_ll_bus.h **** 
ARM GAS  D:\apps\VSCode\data\tmp\cc1Dl4Ov.s 			page 15


 134:Drivers/STM32G4xx_HAL_Driver/Inc/stm32g4xx_ll_bus.h **** /** @defgroup BUS_LL_EC_APB1_GRP1_PERIPH  APB1 GRP1 PERIPH
 135:Drivers/STM32G4xx_HAL_Driver/Inc/stm32g4xx_ll_bus.h ****   * @{
 136:Drivers/STM32G4xx_HAL_Driver/Inc/stm32g4xx_ll_bus.h ****   */
 137:Drivers/STM32G4xx_HAL_Driver/Inc/stm32g4xx_ll_bus.h **** #define LL_APB1_GRP1_PERIPH_ALL            0xFFFFFFFFU
 138:Drivers/STM32G4xx_HAL_Driver/Inc/stm32g4xx_ll_bus.h **** #define LL_APB1_GRP1_PERIPH_TIM2           RCC_APB1ENR1_TIM2EN
 139:Drivers/STM32G4xx_HAL_Driver/Inc/stm32g4xx_ll_bus.h **** #define LL_APB1_GRP1_PERIPH_TIM3           RCC_APB1ENR1_TIM3EN
 140:Drivers/STM32G4xx_HAL_Driver/Inc/stm32g4xx_ll_bus.h **** #define LL_APB1_GRP1_PERIPH_TIM4           RCC_APB1ENR1_TIM4EN
 141:Drivers/STM32G4xx_HAL_Driver/Inc/stm32g4xx_ll_bus.h **** #if defined(TIM5)
 142:Drivers/STM32G4xx_HAL_Driver/Inc/stm32g4xx_ll_bus.h **** #define LL_APB1_GRP1_PERIPH_TIM5           RCC_APB1ENR1_TIM5EN
 143:Drivers/STM32G4xx_HAL_Driver/Inc/stm32g4xx_ll_bus.h **** #endif /* TIM5 */
 144:Drivers/STM32G4xx_HAL_Driver/Inc/stm32g4xx_ll_bus.h **** #define LL_APB1_GRP1_PERIPH_TIM6           RCC_APB1ENR1_TIM6EN
 145:Drivers/STM32G4xx_HAL_Driver/Inc/stm32g4xx_ll_bus.h **** #define LL_APB1_GRP1_PERIPH_TIM7           RCC_APB1ENR1_TIM7EN
 146:Drivers/STM32G4xx_HAL_Driver/Inc/stm32g4xx_ll_bus.h **** #define LL_APB1_GRP1_PERIPH_CRS            RCC_APB1ENR1_CRSEN
 147:Drivers/STM32G4xx_HAL_Driver/Inc/stm32g4xx_ll_bus.h **** #define LL_APB1_GRP1_PERIPH_RTCAPB         RCC_APB1ENR1_RTCAPBEN
 148:Drivers/STM32G4xx_HAL_Driver/Inc/stm32g4xx_ll_bus.h **** #define LL_APB1_GRP1_PERIPH_WWDG           RCC_APB1ENR1_WWDGEN
 149:Drivers/STM32G4xx_HAL_Driver/Inc/stm32g4xx_ll_bus.h **** #define LL_APB1_GRP1_PERIPH_SPI2           RCC_APB1ENR1_SPI2EN
 150:Drivers/STM32G4xx_HAL_Driver/Inc/stm32g4xx_ll_bus.h **** #define LL_APB1_GRP1_PERIPH_SPI3           RCC_APB1ENR1_SPI3EN
 151:Drivers/STM32G4xx_HAL_Driver/Inc/stm32g4xx_ll_bus.h **** #define LL_APB1_GRP1_PERIPH_USART2         RCC_APB1ENR1_USART2EN
 152:Drivers/STM32G4xx_HAL_Driver/Inc/stm32g4xx_ll_bus.h **** #define LL_APB1_GRP1_PERIPH_USART3         RCC_APB1ENR1_USART3EN
 153:Drivers/STM32G4xx_HAL_Driver/Inc/stm32g4xx_ll_bus.h **** #if defined(UART4)
 154:Drivers/STM32G4xx_HAL_Driver/Inc/stm32g4xx_ll_bus.h **** #define LL_APB1_GRP1_PERIPH_UART4          RCC_APB1ENR1_UART4EN
 155:Drivers/STM32G4xx_HAL_Driver/Inc/stm32g4xx_ll_bus.h **** #endif /* UART4 */
 156:Drivers/STM32G4xx_HAL_Driver/Inc/stm32g4xx_ll_bus.h **** #if defined(UART5)
 157:Drivers/STM32G4xx_HAL_Driver/Inc/stm32g4xx_ll_bus.h **** #define LL_APB1_GRP1_PERIPH_UART5          RCC_APB1ENR1_UART5EN
 158:Drivers/STM32G4xx_HAL_Driver/Inc/stm32g4xx_ll_bus.h **** #endif /* UART5 */
 159:Drivers/STM32G4xx_HAL_Driver/Inc/stm32g4xx_ll_bus.h **** #define LL_APB1_GRP1_PERIPH_I2C1           RCC_APB1ENR1_I2C1EN
 160:Drivers/STM32G4xx_HAL_Driver/Inc/stm32g4xx_ll_bus.h **** #define LL_APB1_GRP1_PERIPH_I2C2           RCC_APB1ENR1_I2C2EN
 161:Drivers/STM32G4xx_HAL_Driver/Inc/stm32g4xx_ll_bus.h **** #define LL_APB1_GRP1_PERIPH_USB            RCC_APB1ENR1_USBEN
 162:Drivers/STM32G4xx_HAL_Driver/Inc/stm32g4xx_ll_bus.h **** #if defined(FDCAN1)
 163:Drivers/STM32G4xx_HAL_Driver/Inc/stm32g4xx_ll_bus.h **** #define LL_APB1_GRP1_PERIPH_FDCAN          RCC_APB1ENR1_FDCANEN
 164:Drivers/STM32G4xx_HAL_Driver/Inc/stm32g4xx_ll_bus.h **** #endif /* FDCAN1 */
 165:Drivers/STM32G4xx_HAL_Driver/Inc/stm32g4xx_ll_bus.h **** #define LL_APB1_GRP1_PERIPH_PWR            RCC_APB1ENR1_PWREN
 166:Drivers/STM32G4xx_HAL_Driver/Inc/stm32g4xx_ll_bus.h **** #define LL_APB1_GRP1_PERIPH_I2C3           RCC_APB1ENR1_I2C3EN
 167:Drivers/STM32G4xx_HAL_Driver/Inc/stm32g4xx_ll_bus.h **** #define LL_APB1_GRP1_PERIPH_LPTIM1         RCC_APB1ENR1_LPTIM1EN
 168:Drivers/STM32G4xx_HAL_Driver/Inc/stm32g4xx_ll_bus.h **** /**
 169:Drivers/STM32G4xx_HAL_Driver/Inc/stm32g4xx_ll_bus.h ****   * @}
 170:Drivers/STM32G4xx_HAL_Driver/Inc/stm32g4xx_ll_bus.h ****   */
 171:Drivers/STM32G4xx_HAL_Driver/Inc/stm32g4xx_ll_bus.h **** 
 172:Drivers/STM32G4xx_HAL_Driver/Inc/stm32g4xx_ll_bus.h **** 
 173:Drivers/STM32G4xx_HAL_Driver/Inc/stm32g4xx_ll_bus.h **** /** @defgroup BUS_LL_EC_APB1_GRP2_PERIPH  APB1 GRP2 PERIPH
 174:Drivers/STM32G4xx_HAL_Driver/Inc/stm32g4xx_ll_bus.h ****   * @{
 175:Drivers/STM32G4xx_HAL_Driver/Inc/stm32g4xx_ll_bus.h ****   */
 176:Drivers/STM32G4xx_HAL_Driver/Inc/stm32g4xx_ll_bus.h **** #define LL_APB1_GRP2_PERIPH_ALL            0xFFFFFFFFU
 177:Drivers/STM32G4xx_HAL_Driver/Inc/stm32g4xx_ll_bus.h **** #define LL_APB1_GRP2_PERIPH_LPUART1        RCC_APB1ENR2_LPUART1EN
 178:Drivers/STM32G4xx_HAL_Driver/Inc/stm32g4xx_ll_bus.h **** #if defined(I2C4)
 179:Drivers/STM32G4xx_HAL_Driver/Inc/stm32g4xx_ll_bus.h **** #define LL_APB1_GRP2_PERIPH_I2C4           RCC_APB1ENR2_I2C4EN
 180:Drivers/STM32G4xx_HAL_Driver/Inc/stm32g4xx_ll_bus.h **** #endif /* I2C4 */
 181:Drivers/STM32G4xx_HAL_Driver/Inc/stm32g4xx_ll_bus.h **** #define LL_APB1_GRP2_PERIPH_UCPD1         RCC_APB1ENR2_UCPD1EN
 182:Drivers/STM32G4xx_HAL_Driver/Inc/stm32g4xx_ll_bus.h **** /**
 183:Drivers/STM32G4xx_HAL_Driver/Inc/stm32g4xx_ll_bus.h ****   * @}
 184:Drivers/STM32G4xx_HAL_Driver/Inc/stm32g4xx_ll_bus.h ****   */
 185:Drivers/STM32G4xx_HAL_Driver/Inc/stm32g4xx_ll_bus.h **** 
 186:Drivers/STM32G4xx_HAL_Driver/Inc/stm32g4xx_ll_bus.h **** /** @defgroup BUS_LL_EC_APB2_GRP1_PERIPH  APB2 GRP1 PERIPH
 187:Drivers/STM32G4xx_HAL_Driver/Inc/stm32g4xx_ll_bus.h ****   * @{
 188:Drivers/STM32G4xx_HAL_Driver/Inc/stm32g4xx_ll_bus.h ****   */
 189:Drivers/STM32G4xx_HAL_Driver/Inc/stm32g4xx_ll_bus.h **** #define LL_APB2_GRP1_PERIPH_ALL            0xFFFFFFFFU
 190:Drivers/STM32G4xx_HAL_Driver/Inc/stm32g4xx_ll_bus.h **** #define LL_APB2_GRP1_PERIPH_SYSCFG         RCC_APB2ENR_SYSCFGEN
ARM GAS  D:\apps\VSCode\data\tmp\cc1Dl4Ov.s 			page 16


 191:Drivers/STM32G4xx_HAL_Driver/Inc/stm32g4xx_ll_bus.h **** #define LL_APB2_GRP1_PERIPH_TIM1           RCC_APB2ENR_TIM1EN
 192:Drivers/STM32G4xx_HAL_Driver/Inc/stm32g4xx_ll_bus.h **** #define LL_APB2_GRP1_PERIPH_SPI1           RCC_APB2ENR_SPI1EN
 193:Drivers/STM32G4xx_HAL_Driver/Inc/stm32g4xx_ll_bus.h **** #define LL_APB2_GRP1_PERIPH_TIM8           RCC_APB2ENR_TIM8EN
 194:Drivers/STM32G4xx_HAL_Driver/Inc/stm32g4xx_ll_bus.h **** #define LL_APB2_GRP1_PERIPH_USART1         RCC_APB2ENR_USART1EN
 195:Drivers/STM32G4xx_HAL_Driver/Inc/stm32g4xx_ll_bus.h **** #if defined(SPI4)
 196:Drivers/STM32G4xx_HAL_Driver/Inc/stm32g4xx_ll_bus.h **** #define LL_APB2_GRP1_PERIPH_SPI4           RCC_APB2ENR_SPI4EN
 197:Drivers/STM32G4xx_HAL_Driver/Inc/stm32g4xx_ll_bus.h **** #endif /* SPI4 */
 198:Drivers/STM32G4xx_HAL_Driver/Inc/stm32g4xx_ll_bus.h **** #define LL_APB2_GRP1_PERIPH_TIM15          RCC_APB2ENR_TIM15EN
 199:Drivers/STM32G4xx_HAL_Driver/Inc/stm32g4xx_ll_bus.h **** #define LL_APB2_GRP1_PERIPH_TIM16          RCC_APB2ENR_TIM16EN
 200:Drivers/STM32G4xx_HAL_Driver/Inc/stm32g4xx_ll_bus.h **** #define LL_APB2_GRP1_PERIPH_TIM17          RCC_APB2ENR_TIM17EN
 201:Drivers/STM32G4xx_HAL_Driver/Inc/stm32g4xx_ll_bus.h **** #if defined(TIM20)
 202:Drivers/STM32G4xx_HAL_Driver/Inc/stm32g4xx_ll_bus.h **** #define LL_APB2_GRP1_PERIPH_TIM20          RCC_APB2ENR_TIM20EN
 203:Drivers/STM32G4xx_HAL_Driver/Inc/stm32g4xx_ll_bus.h **** #endif /* TIM20 */
 204:Drivers/STM32G4xx_HAL_Driver/Inc/stm32g4xx_ll_bus.h **** #define LL_APB2_GRP1_PERIPH_SAI1           RCC_APB2ENR_SAI1EN
 205:Drivers/STM32G4xx_HAL_Driver/Inc/stm32g4xx_ll_bus.h **** #if defined(HRTIM1)
 206:Drivers/STM32G4xx_HAL_Driver/Inc/stm32g4xx_ll_bus.h **** #define LL_APB2_GRP1_PERIPH_HRTIM1         RCC_APB2ENR_HRTIM1EN
 207:Drivers/STM32G4xx_HAL_Driver/Inc/stm32g4xx_ll_bus.h **** #endif /* HRTIM1 */
 208:Drivers/STM32G4xx_HAL_Driver/Inc/stm32g4xx_ll_bus.h **** /**
 209:Drivers/STM32G4xx_HAL_Driver/Inc/stm32g4xx_ll_bus.h ****   * @}
 210:Drivers/STM32G4xx_HAL_Driver/Inc/stm32g4xx_ll_bus.h ****   */
 211:Drivers/STM32G4xx_HAL_Driver/Inc/stm32g4xx_ll_bus.h **** 
 212:Drivers/STM32G4xx_HAL_Driver/Inc/stm32g4xx_ll_bus.h **** /**
 213:Drivers/STM32G4xx_HAL_Driver/Inc/stm32g4xx_ll_bus.h ****   * @}
 214:Drivers/STM32G4xx_HAL_Driver/Inc/stm32g4xx_ll_bus.h ****   */
 215:Drivers/STM32G4xx_HAL_Driver/Inc/stm32g4xx_ll_bus.h **** 
 216:Drivers/STM32G4xx_HAL_Driver/Inc/stm32g4xx_ll_bus.h **** /* Exported macro ------------------------------------------------------------*/
 217:Drivers/STM32G4xx_HAL_Driver/Inc/stm32g4xx_ll_bus.h **** /* Exported functions --------------------------------------------------------*/
 218:Drivers/STM32G4xx_HAL_Driver/Inc/stm32g4xx_ll_bus.h **** /** @defgroup BUS_LL_Exported_Functions BUS Exported Functions
 219:Drivers/STM32G4xx_HAL_Driver/Inc/stm32g4xx_ll_bus.h ****   * @{
 220:Drivers/STM32G4xx_HAL_Driver/Inc/stm32g4xx_ll_bus.h ****   */
 221:Drivers/STM32G4xx_HAL_Driver/Inc/stm32g4xx_ll_bus.h **** 
 222:Drivers/STM32G4xx_HAL_Driver/Inc/stm32g4xx_ll_bus.h **** /** @defgroup BUS_LL_EF_AHB1 AHB1
 223:Drivers/STM32G4xx_HAL_Driver/Inc/stm32g4xx_ll_bus.h ****   * @{
 224:Drivers/STM32G4xx_HAL_Driver/Inc/stm32g4xx_ll_bus.h ****   */
 225:Drivers/STM32G4xx_HAL_Driver/Inc/stm32g4xx_ll_bus.h **** 
 226:Drivers/STM32G4xx_HAL_Driver/Inc/stm32g4xx_ll_bus.h **** /**
 227:Drivers/STM32G4xx_HAL_Driver/Inc/stm32g4xx_ll_bus.h ****   * @brief  Enable AHB1 peripherals clock.
 228:Drivers/STM32G4xx_HAL_Driver/Inc/stm32g4xx_ll_bus.h ****   * @rmtoll AHB1ENR      DMA1EN        LL_AHB1_GRP1_EnableClock\n
 229:Drivers/STM32G4xx_HAL_Driver/Inc/stm32g4xx_ll_bus.h ****   *         AHB1ENR      DMA2EN        LL_AHB1_GRP1_EnableClock\n
 230:Drivers/STM32G4xx_HAL_Driver/Inc/stm32g4xx_ll_bus.h ****   *         AHB1ENR      DMAMMUXEN     LL_AHB1_GRP1_EnableClock\n
 231:Drivers/STM32G4xx_HAL_Driver/Inc/stm32g4xx_ll_bus.h ****   *         AHB1ENR      CORDICEN      LL_AHB1_GRP1_EnableClock\n
 232:Drivers/STM32G4xx_HAL_Driver/Inc/stm32g4xx_ll_bus.h ****   *         AHB1ENR      FMACEN        LL_AHB1_GRP1_EnableClock\n
 233:Drivers/STM32G4xx_HAL_Driver/Inc/stm32g4xx_ll_bus.h ****   *         AHB1ENR      FLASHEN       LL_AHB1_GRP1_EnableClock\n
 234:Drivers/STM32G4xx_HAL_Driver/Inc/stm32g4xx_ll_bus.h ****   *         AHB1ENR      CRCEN         LL_AHB1_GRP1_EnableClock
 235:Drivers/STM32G4xx_HAL_Driver/Inc/stm32g4xx_ll_bus.h ****   * @param  Periphs This parameter can be a combination of the following values:
 236:Drivers/STM32G4xx_HAL_Driver/Inc/stm32g4xx_ll_bus.h ****   *         @arg @ref LL_AHB1_GRP1_PERIPH_DMA1
 237:Drivers/STM32G4xx_HAL_Driver/Inc/stm32g4xx_ll_bus.h ****   *         @arg @ref LL_AHB1_GRP1_PERIPH_DMA2
 238:Drivers/STM32G4xx_HAL_Driver/Inc/stm32g4xx_ll_bus.h ****   *         @arg @ref LL_AHB1_GRP1_PERIPH_DMAMUX1
 239:Drivers/STM32G4xx_HAL_Driver/Inc/stm32g4xx_ll_bus.h ****   *         @arg @ref LL_AHB1_GRP1_PERIPH_CORDIC
 240:Drivers/STM32G4xx_HAL_Driver/Inc/stm32g4xx_ll_bus.h ****   *         @arg @ref LL_AHB1_GRP1_PERIPH_FMAC
 241:Drivers/STM32G4xx_HAL_Driver/Inc/stm32g4xx_ll_bus.h ****   *         @arg @ref LL_AHB1_GRP1_PERIPH_FLASH
 242:Drivers/STM32G4xx_HAL_Driver/Inc/stm32g4xx_ll_bus.h ****   *         @arg @ref LL_AHB1_GRP1_PERIPH_CRC
 243:Drivers/STM32G4xx_HAL_Driver/Inc/stm32g4xx_ll_bus.h ****   * @retval None
 244:Drivers/STM32G4xx_HAL_Driver/Inc/stm32g4xx_ll_bus.h ****   */
 245:Drivers/STM32G4xx_HAL_Driver/Inc/stm32g4xx_ll_bus.h **** __STATIC_INLINE void LL_AHB1_GRP1_EnableClock(uint32_t Periphs)
 246:Drivers/STM32G4xx_HAL_Driver/Inc/stm32g4xx_ll_bus.h **** {
 247:Drivers/STM32G4xx_HAL_Driver/Inc/stm32g4xx_ll_bus.h ****   __IO uint32_t tmpreg;
ARM GAS  D:\apps\VSCode\data\tmp\cc1Dl4Ov.s 			page 17


 248:Drivers/STM32G4xx_HAL_Driver/Inc/stm32g4xx_ll_bus.h ****   SET_BIT(RCC->AHB1ENR, Periphs);
 249:Drivers/STM32G4xx_HAL_Driver/Inc/stm32g4xx_ll_bus.h ****   /* Delay after an RCC peripheral clock enabling */
 250:Drivers/STM32G4xx_HAL_Driver/Inc/stm32g4xx_ll_bus.h ****   tmpreg = READ_BIT(RCC->AHB1ENR, Periphs);
 251:Drivers/STM32G4xx_HAL_Driver/Inc/stm32g4xx_ll_bus.h ****   (void)tmpreg;
 252:Drivers/STM32G4xx_HAL_Driver/Inc/stm32g4xx_ll_bus.h **** }
 253:Drivers/STM32G4xx_HAL_Driver/Inc/stm32g4xx_ll_bus.h **** 
 254:Drivers/STM32G4xx_HAL_Driver/Inc/stm32g4xx_ll_bus.h **** /**
 255:Drivers/STM32G4xx_HAL_Driver/Inc/stm32g4xx_ll_bus.h ****   * @brief  Check if AHB1 peripheral clock is enabled or not
 256:Drivers/STM32G4xx_HAL_Driver/Inc/stm32g4xx_ll_bus.h ****   * @rmtoll AHB1ENR      DMA1EN        LL_AHB1_GRP1_IsEnabledClock\n
 257:Drivers/STM32G4xx_HAL_Driver/Inc/stm32g4xx_ll_bus.h ****   *         AHB1ENR      DMA2EN        LL_AHB1_GRP1_IsEnabledClock\n
 258:Drivers/STM32G4xx_HAL_Driver/Inc/stm32g4xx_ll_bus.h ****   *         AHB1ENR      DMAMUXEN      LL_AHB1_GRP1_IsEnabledClock\n
 259:Drivers/STM32G4xx_HAL_Driver/Inc/stm32g4xx_ll_bus.h ****   *         AHB1ENR      CORDICEN      LL_AHB1_GRP1_IsEnabledClock\n
 260:Drivers/STM32G4xx_HAL_Driver/Inc/stm32g4xx_ll_bus.h ****   *         AHB1ENR      FMACEN        LL_AHB1_GRP1_IsEnabledClock\n
 261:Drivers/STM32G4xx_HAL_Driver/Inc/stm32g4xx_ll_bus.h ****   *         AHB1ENR      FLASHEN       LL_AHB1_GRP1_IsEnabledClock\n
 262:Drivers/STM32G4xx_HAL_Driver/Inc/stm32g4xx_ll_bus.h ****   *         AHB1ENR      CRCEN         LL_AHB1_GRP1_IsEnabledClock
 263:Drivers/STM32G4xx_HAL_Driver/Inc/stm32g4xx_ll_bus.h ****   * @param  Periphs This parameter can be a combination of the following values:
 264:Drivers/STM32G4xx_HAL_Driver/Inc/stm32g4xx_ll_bus.h ****   *         @arg @ref LL_AHB1_GRP1_PERIPH_DMA1
 265:Drivers/STM32G4xx_HAL_Driver/Inc/stm32g4xx_ll_bus.h ****   *         @arg @ref LL_AHB1_GRP1_PERIPH_DMA2
 266:Drivers/STM32G4xx_HAL_Driver/Inc/stm32g4xx_ll_bus.h ****   *         @arg @ref LL_AHB1_GRP1_PERIPH_DMAMUX1
 267:Drivers/STM32G4xx_HAL_Driver/Inc/stm32g4xx_ll_bus.h ****   *         @arg @ref LL_AHB1_GRP1_PERIPH_CORDIC
 268:Drivers/STM32G4xx_HAL_Driver/Inc/stm32g4xx_ll_bus.h ****   *         @arg @ref LL_AHB1_GRP1_PERIPH_FMAC
 269:Drivers/STM32G4xx_HAL_Driver/Inc/stm32g4xx_ll_bus.h ****   *         @arg @ref LL_AHB1_GRP1_PERIPH_FLASH
 270:Drivers/STM32G4xx_HAL_Driver/Inc/stm32g4xx_ll_bus.h ****   *         @arg @ref LL_AHB1_GRP1_PERIPH_CRC
 271:Drivers/STM32G4xx_HAL_Driver/Inc/stm32g4xx_ll_bus.h ****   * @retval State of Periphs (1 or 0).
 272:Drivers/STM32G4xx_HAL_Driver/Inc/stm32g4xx_ll_bus.h ****   */
 273:Drivers/STM32G4xx_HAL_Driver/Inc/stm32g4xx_ll_bus.h **** __STATIC_INLINE uint32_t LL_AHB1_GRP1_IsEnabledClock(uint32_t Periphs)
 274:Drivers/STM32G4xx_HAL_Driver/Inc/stm32g4xx_ll_bus.h **** {
 275:Drivers/STM32G4xx_HAL_Driver/Inc/stm32g4xx_ll_bus.h ****   return ((READ_BIT(RCC->AHB1ENR, Periphs) == Periphs) ? 1UL : 0UL);
 276:Drivers/STM32G4xx_HAL_Driver/Inc/stm32g4xx_ll_bus.h **** }
 277:Drivers/STM32G4xx_HAL_Driver/Inc/stm32g4xx_ll_bus.h **** 
 278:Drivers/STM32G4xx_HAL_Driver/Inc/stm32g4xx_ll_bus.h **** /**
 279:Drivers/STM32G4xx_HAL_Driver/Inc/stm32g4xx_ll_bus.h ****   * @brief  Disable AHB1 peripherals clock.
 280:Drivers/STM32G4xx_HAL_Driver/Inc/stm32g4xx_ll_bus.h ****   * @rmtoll AHB1ENR      DMA1EN        LL_AHB1_GRP1_DisableClock\n
 281:Drivers/STM32G4xx_HAL_Driver/Inc/stm32g4xx_ll_bus.h ****   *         AHB1ENR      DMA2EN        LL_AHB1_GRP1_DisableClock\n
 282:Drivers/STM32G4xx_HAL_Driver/Inc/stm32g4xx_ll_bus.h ****   *         AHB1ENR      DMAMUXEN      LL_AHB1_GRP1_DisableClock\n
 283:Drivers/STM32G4xx_HAL_Driver/Inc/stm32g4xx_ll_bus.h ****   *         AHB1ENR      CORDICEN      LL_AHB1_GRP1_DisableClock\n
 284:Drivers/STM32G4xx_HAL_Driver/Inc/stm32g4xx_ll_bus.h ****   *         AHB1ENR      FMACEN        LL_AHB1_GRP1_DisableClock\n
 285:Drivers/STM32G4xx_HAL_Driver/Inc/stm32g4xx_ll_bus.h ****   *         AHB1ENR      FLASHEN       LL_AHB1_GRP1_DisableClock\n
 286:Drivers/STM32G4xx_HAL_Driver/Inc/stm32g4xx_ll_bus.h ****   *         AHB1ENR      CRCEN         LL_AHB1_GRP1_DisableClock
 287:Drivers/STM32G4xx_HAL_Driver/Inc/stm32g4xx_ll_bus.h ****   * @param  Periphs This parameter can be a combination of the following values:
 288:Drivers/STM32G4xx_HAL_Driver/Inc/stm32g4xx_ll_bus.h ****   *         @arg @ref LL_AHB1_GRP1_PERIPH_DMA1
 289:Drivers/STM32G4xx_HAL_Driver/Inc/stm32g4xx_ll_bus.h ****   *         @arg @ref LL_AHB1_GRP1_PERIPH_DMA2
 290:Drivers/STM32G4xx_HAL_Driver/Inc/stm32g4xx_ll_bus.h ****   *         @arg @ref LL_AHB1_GRP1_PERIPH_DMAMUX1
 291:Drivers/STM32G4xx_HAL_Driver/Inc/stm32g4xx_ll_bus.h ****   *         @arg @ref LL_AHB1_GRP1_PERIPH_CORDIC
 292:Drivers/STM32G4xx_HAL_Driver/Inc/stm32g4xx_ll_bus.h ****   *         @arg @ref LL_AHB1_GRP1_PERIPH_FMAC
 293:Drivers/STM32G4xx_HAL_Driver/Inc/stm32g4xx_ll_bus.h ****   *         @arg @ref LL_AHB1_GRP1_PERIPH_FLASH
 294:Drivers/STM32G4xx_HAL_Driver/Inc/stm32g4xx_ll_bus.h ****   *         @arg @ref LL_AHB1_GRP1_PERIPH_CRC
 295:Drivers/STM32G4xx_HAL_Driver/Inc/stm32g4xx_ll_bus.h ****   * @retval None
 296:Drivers/STM32G4xx_HAL_Driver/Inc/stm32g4xx_ll_bus.h ****   */
 297:Drivers/STM32G4xx_HAL_Driver/Inc/stm32g4xx_ll_bus.h **** __STATIC_INLINE void LL_AHB1_GRP1_DisableClock(uint32_t Periphs)
 298:Drivers/STM32G4xx_HAL_Driver/Inc/stm32g4xx_ll_bus.h **** {
 299:Drivers/STM32G4xx_HAL_Driver/Inc/stm32g4xx_ll_bus.h ****   CLEAR_BIT(RCC->AHB1ENR, Periphs);
 300:Drivers/STM32G4xx_HAL_Driver/Inc/stm32g4xx_ll_bus.h **** }
 301:Drivers/STM32G4xx_HAL_Driver/Inc/stm32g4xx_ll_bus.h **** 
 302:Drivers/STM32G4xx_HAL_Driver/Inc/stm32g4xx_ll_bus.h **** /**
 303:Drivers/STM32G4xx_HAL_Driver/Inc/stm32g4xx_ll_bus.h ****   * @brief  Force AHB1 peripherals reset.
 304:Drivers/STM32G4xx_HAL_Driver/Inc/stm32g4xx_ll_bus.h ****   * @rmtoll AHB1RSTR     DMA1RST       LL_AHB1_GRP1_ForceReset\n
ARM GAS  D:\apps\VSCode\data\tmp\cc1Dl4Ov.s 			page 18


 305:Drivers/STM32G4xx_HAL_Driver/Inc/stm32g4xx_ll_bus.h ****   *         AHB1RSTR     DMA2RST       LL_AHB1_GRP1_ForceReset\n
 306:Drivers/STM32G4xx_HAL_Driver/Inc/stm32g4xx_ll_bus.h ****   *         AHB1RSTR     DMAMUXRST     LL_AHB1_GRP1_ForceReset\n
 307:Drivers/STM32G4xx_HAL_Driver/Inc/stm32g4xx_ll_bus.h ****   *         AHB1RSTR     CORDICRST     LL_AHB1_GRP1_ForceReset\n
 308:Drivers/STM32G4xx_HAL_Driver/Inc/stm32g4xx_ll_bus.h ****   *         AHB1RSTR     FMACRST       LL_AHB1_GRP1_ForceReset\n
 309:Drivers/STM32G4xx_HAL_Driver/Inc/stm32g4xx_ll_bus.h ****   *         AHB1RSTR     FLASHRST      LL_AHB1_GRP1_ForceReset\n
 310:Drivers/STM32G4xx_HAL_Driver/Inc/stm32g4xx_ll_bus.h ****   *         AHB1RSTR     CRCRST        LL_AHB1_GRP1_ForceReset
 311:Drivers/STM32G4xx_HAL_Driver/Inc/stm32g4xx_ll_bus.h ****   * @param  Periphs This parameter can be a combination of the following values:
 312:Drivers/STM32G4xx_HAL_Driver/Inc/stm32g4xx_ll_bus.h ****   *         @arg @ref LL_AHB1_GRP1_PERIPH_ALL
 313:Drivers/STM32G4xx_HAL_Driver/Inc/stm32g4xx_ll_bus.h ****   *         @arg @ref LL_AHB1_GRP1_PERIPH_DMA1
 314:Drivers/STM32G4xx_HAL_Driver/Inc/stm32g4xx_ll_bus.h ****   *         @arg @ref LL_AHB1_GRP1_PERIPH_DMA2
 315:Drivers/STM32G4xx_HAL_Driver/Inc/stm32g4xx_ll_bus.h ****   *         @arg @ref LL_AHB1_GRP1_PERIPH_DMAMUX1
 316:Drivers/STM32G4xx_HAL_Driver/Inc/stm32g4xx_ll_bus.h ****   *         @arg @ref LL_AHB1_GRP1_PERIPH_CORDIC
 317:Drivers/STM32G4xx_HAL_Driver/Inc/stm32g4xx_ll_bus.h ****   *         @arg @ref LL_AHB1_GRP1_PERIPH_FMAC
 318:Drivers/STM32G4xx_HAL_Driver/Inc/stm32g4xx_ll_bus.h ****   *         @arg @ref LL_AHB1_GRP1_PERIPH_FLASH
 319:Drivers/STM32G4xx_HAL_Driver/Inc/stm32g4xx_ll_bus.h ****   *         @arg @ref LL_AHB1_GRP1_PERIPH_CRC
 320:Drivers/STM32G4xx_HAL_Driver/Inc/stm32g4xx_ll_bus.h ****   * @retval None
 321:Drivers/STM32G4xx_HAL_Driver/Inc/stm32g4xx_ll_bus.h ****   */
 322:Drivers/STM32G4xx_HAL_Driver/Inc/stm32g4xx_ll_bus.h **** __STATIC_INLINE void LL_AHB1_GRP1_ForceReset(uint32_t Periphs)
 323:Drivers/STM32G4xx_HAL_Driver/Inc/stm32g4xx_ll_bus.h **** {
 324:Drivers/STM32G4xx_HAL_Driver/Inc/stm32g4xx_ll_bus.h ****   SET_BIT(RCC->AHB1RSTR, Periphs);
 325:Drivers/STM32G4xx_HAL_Driver/Inc/stm32g4xx_ll_bus.h **** }
 326:Drivers/STM32G4xx_HAL_Driver/Inc/stm32g4xx_ll_bus.h **** 
 327:Drivers/STM32G4xx_HAL_Driver/Inc/stm32g4xx_ll_bus.h **** /**
 328:Drivers/STM32G4xx_HAL_Driver/Inc/stm32g4xx_ll_bus.h ****   * @brief  Release AHB1 peripherals reset.
 329:Drivers/STM32G4xx_HAL_Driver/Inc/stm32g4xx_ll_bus.h ****   * @rmtoll AHB1RSTR     DMA1RST       LL_AHB1_GRP1_ReleaseReset\n
 330:Drivers/STM32G4xx_HAL_Driver/Inc/stm32g4xx_ll_bus.h ****   *         AHB1RSTR     DMA2RST       LL_AHB1_GRP1_ReleaseReset\n
 331:Drivers/STM32G4xx_HAL_Driver/Inc/stm32g4xx_ll_bus.h ****   *         AHB1RSTR     DMAMUXRST     LL_AHB1_GRP1_ReleaseReset\n
 332:Drivers/STM32G4xx_HAL_Driver/Inc/stm32g4xx_ll_bus.h ****   *         AHB1RSTR     CORDICRST     LL_AHB1_GRP1_ReleaseReset\n
 333:Drivers/STM32G4xx_HAL_Driver/Inc/stm32g4xx_ll_bus.h ****   *         AHB1RSTR     FMACRST       LL_AHB1_GRP1_ReleaseReset\n
 334:Drivers/STM32G4xx_HAL_Driver/Inc/stm32g4xx_ll_bus.h ****   *         AHB1RSTR     FLASHRST      LL_AHB1_GRP1_ReleaseReset\n
 335:Drivers/STM32G4xx_HAL_Driver/Inc/stm32g4xx_ll_bus.h ****   *         AHB1RSTR     CRCRST        LL_AHB1_GRP1_ReleaseReset
 336:Drivers/STM32G4xx_HAL_Driver/Inc/stm32g4xx_ll_bus.h ****   * @param  Periphs This parameter can be a combination of the following values:
 337:Drivers/STM32G4xx_HAL_Driver/Inc/stm32g4xx_ll_bus.h ****   *         @arg @ref LL_AHB1_GRP1_PERIPH_ALL
 338:Drivers/STM32G4xx_HAL_Driver/Inc/stm32g4xx_ll_bus.h ****   *         @arg @ref LL_AHB1_GRP1_PERIPH_DMA1
 339:Drivers/STM32G4xx_HAL_Driver/Inc/stm32g4xx_ll_bus.h ****   *         @arg @ref LL_AHB1_GRP1_PERIPH_DMA2
 340:Drivers/STM32G4xx_HAL_Driver/Inc/stm32g4xx_ll_bus.h ****   *         @arg @ref LL_AHB1_GRP1_PERIPH_DMAMUX1
 341:Drivers/STM32G4xx_HAL_Driver/Inc/stm32g4xx_ll_bus.h ****   *         @arg @ref LL_AHB1_GRP1_PERIPH_CORDIC
 342:Drivers/STM32G4xx_HAL_Driver/Inc/stm32g4xx_ll_bus.h ****   *         @arg @ref LL_AHB1_GRP1_PERIPH_FMAC
 343:Drivers/STM32G4xx_HAL_Driver/Inc/stm32g4xx_ll_bus.h ****   *         @arg @ref LL_AHB1_GRP1_PERIPH_FLASH
 344:Drivers/STM32G4xx_HAL_Driver/Inc/stm32g4xx_ll_bus.h ****   *         @arg @ref LL_AHB1_GRP1_PERIPH_CRC
 345:Drivers/STM32G4xx_HAL_Driver/Inc/stm32g4xx_ll_bus.h ****   * @retval None
 346:Drivers/STM32G4xx_HAL_Driver/Inc/stm32g4xx_ll_bus.h ****   */
 347:Drivers/STM32G4xx_HAL_Driver/Inc/stm32g4xx_ll_bus.h **** __STATIC_INLINE void LL_AHB1_GRP1_ReleaseReset(uint32_t Periphs)
 348:Drivers/STM32G4xx_HAL_Driver/Inc/stm32g4xx_ll_bus.h **** {
 349:Drivers/STM32G4xx_HAL_Driver/Inc/stm32g4xx_ll_bus.h ****   CLEAR_BIT(RCC->AHB1RSTR, Periphs);
 350:Drivers/STM32G4xx_HAL_Driver/Inc/stm32g4xx_ll_bus.h **** }
 351:Drivers/STM32G4xx_HAL_Driver/Inc/stm32g4xx_ll_bus.h **** 
 352:Drivers/STM32G4xx_HAL_Driver/Inc/stm32g4xx_ll_bus.h **** /**
 353:Drivers/STM32G4xx_HAL_Driver/Inc/stm32g4xx_ll_bus.h ****   * @brief  Enable AHB1 peripheral clocks in Sleep and Stop modes
 354:Drivers/STM32G4xx_HAL_Driver/Inc/stm32g4xx_ll_bus.h ****   * @rmtoll AHB1SMENR    DMA1SMEN      LL_AHB1_GRP1_EnableClockStopSleep\n
 355:Drivers/STM32G4xx_HAL_Driver/Inc/stm32g4xx_ll_bus.h ****   *         AHB1SMENR    DMA2SMEN      LL_AHB1_GRP1_EnableClockStopSleep\n
 356:Drivers/STM32G4xx_HAL_Driver/Inc/stm32g4xx_ll_bus.h ****   *         AHB1SMENR    DMAMUXSMEN    LL_AHB1_GRP1_EnableClockStopSleep\n
 357:Drivers/STM32G4xx_HAL_Driver/Inc/stm32g4xx_ll_bus.h ****   *         AHB1SMENR    CORDICSMEN    LL_AHB1_GRP1_EnableClockStopSleep\n
 358:Drivers/STM32G4xx_HAL_Driver/Inc/stm32g4xx_ll_bus.h ****   *         AHB1SMENR    FMACSMEN      LL_AHB1_GRP1_EnableClockStopSleep\n
 359:Drivers/STM32G4xx_HAL_Driver/Inc/stm32g4xx_ll_bus.h ****   *         AHB1SMENR    FLASHSMEN     LL_AHB1_GRP1_EnableClockStopSleep\n
 360:Drivers/STM32G4xx_HAL_Driver/Inc/stm32g4xx_ll_bus.h ****   *         AHB1SMENR    SRAM1SMEN     LL_AHB1_GRP1_DisableClockStopSleep\n
 361:Drivers/STM32G4xx_HAL_Driver/Inc/stm32g4xx_ll_bus.h ****   *         AHB1SMENR    CRCSMEN       LL_AHB1_GRP1_EnableClockStopSleep
ARM GAS  D:\apps\VSCode\data\tmp\cc1Dl4Ov.s 			page 19


 362:Drivers/STM32G4xx_HAL_Driver/Inc/stm32g4xx_ll_bus.h ****   * @param  Periphs This parameter can be a combination of the following values:
 363:Drivers/STM32G4xx_HAL_Driver/Inc/stm32g4xx_ll_bus.h ****   *         @arg @ref LL_AHB1_GRP1_PERIPH_DMA1
 364:Drivers/STM32G4xx_HAL_Driver/Inc/stm32g4xx_ll_bus.h ****   *         @arg @ref LL_AHB1_GRP1_PERIPH_DMA2
 365:Drivers/STM32G4xx_HAL_Driver/Inc/stm32g4xx_ll_bus.h ****   *         @arg @ref LL_AHB1_GRP1_PERIPH_DMAMUX1
 366:Drivers/STM32G4xx_HAL_Driver/Inc/stm32g4xx_ll_bus.h ****   *         @arg @ref LL_AHB1_GRP1_PERIPH_CORDIC
 367:Drivers/STM32G4xx_HAL_Driver/Inc/stm32g4xx_ll_bus.h ****   *         @arg @ref LL_AHB1_GRP1_PERIPH_FMAC
 368:Drivers/STM32G4xx_HAL_Driver/Inc/stm32g4xx_ll_bus.h ****   *         @arg @ref LL_AHB1_GRP1_PERIPH_FLASH
 369:Drivers/STM32G4xx_HAL_Driver/Inc/stm32g4xx_ll_bus.h ****   *         @arg @ref LL_AHB1_GRP1_PERIPH_SRAM1
 370:Drivers/STM32G4xx_HAL_Driver/Inc/stm32g4xx_ll_bus.h ****   *         @arg @ref LL_AHB1_GRP1_PERIPH_CRC
 371:Drivers/STM32G4xx_HAL_Driver/Inc/stm32g4xx_ll_bus.h ****   * @retval None
 372:Drivers/STM32G4xx_HAL_Driver/Inc/stm32g4xx_ll_bus.h ****   */
 373:Drivers/STM32G4xx_HAL_Driver/Inc/stm32g4xx_ll_bus.h **** __STATIC_INLINE void LL_AHB1_GRP1_EnableClockStopSleep(uint32_t Periphs)
 374:Drivers/STM32G4xx_HAL_Driver/Inc/stm32g4xx_ll_bus.h **** {
 375:Drivers/STM32G4xx_HAL_Driver/Inc/stm32g4xx_ll_bus.h ****   __IO uint32_t tmpreg;
 376:Drivers/STM32G4xx_HAL_Driver/Inc/stm32g4xx_ll_bus.h ****   SET_BIT(RCC->AHB1SMENR, Periphs);
 377:Drivers/STM32G4xx_HAL_Driver/Inc/stm32g4xx_ll_bus.h ****   /* Delay after an RCC peripheral clock enabling */
 378:Drivers/STM32G4xx_HAL_Driver/Inc/stm32g4xx_ll_bus.h ****   tmpreg = READ_BIT(RCC->AHB1SMENR, Periphs);
 379:Drivers/STM32G4xx_HAL_Driver/Inc/stm32g4xx_ll_bus.h ****   (void)tmpreg;
 380:Drivers/STM32G4xx_HAL_Driver/Inc/stm32g4xx_ll_bus.h **** }
 381:Drivers/STM32G4xx_HAL_Driver/Inc/stm32g4xx_ll_bus.h **** 
 382:Drivers/STM32G4xx_HAL_Driver/Inc/stm32g4xx_ll_bus.h **** /**
 383:Drivers/STM32G4xx_HAL_Driver/Inc/stm32g4xx_ll_bus.h ****   * @brief  Disable AHB1 peripheral clocks in Sleep and Stop modes
 384:Drivers/STM32G4xx_HAL_Driver/Inc/stm32g4xx_ll_bus.h ****   * @rmtoll AHB1SMENR    DMA1SMEN      LL_AHB1_GRP1_DisableClockStopSleep\n
 385:Drivers/STM32G4xx_HAL_Driver/Inc/stm32g4xx_ll_bus.h ****   *         AHB1SMENR    DMA2SMEN      LL_AHB1_GRP1_DisableClockStopSleep\n
 386:Drivers/STM32G4xx_HAL_Driver/Inc/stm32g4xx_ll_bus.h ****   *         AHB1SMENR    DMAMUXSMEN    LL_AHB1_GRP1_DisableClockStopSleep\n
 387:Drivers/STM32G4xx_HAL_Driver/Inc/stm32g4xx_ll_bus.h ****   *         AHB1SMENR    CORDICSMEN    LL_AHB1_GRP1_DisableClockStopSleep\n
 388:Drivers/STM32G4xx_HAL_Driver/Inc/stm32g4xx_ll_bus.h ****   *         AHB1SMENR    FMACSMEN      LL_AHB1_GRP1_DisableClockStopSleep\n
 389:Drivers/STM32G4xx_HAL_Driver/Inc/stm32g4xx_ll_bus.h ****   *         AHB1SMENR    FLASHSMEN     LL_AHB1_GRP1_DisableClockStopSleep\n
 390:Drivers/STM32G4xx_HAL_Driver/Inc/stm32g4xx_ll_bus.h ****   *         AHB1SMENR    SRAM1SMEN     LL_AHB1_GRP1_DisableClockStopSleep\n
 391:Drivers/STM32G4xx_HAL_Driver/Inc/stm32g4xx_ll_bus.h ****   *         AHB1SMENR    CRCSMEN       LL_AHB1_GRP1_DisableClockStopSleep
 392:Drivers/STM32G4xx_HAL_Driver/Inc/stm32g4xx_ll_bus.h ****   * @param  Periphs This parameter can be a combination of the following values:
 393:Drivers/STM32G4xx_HAL_Driver/Inc/stm32g4xx_ll_bus.h ****   *         @arg @ref LL_AHB1_GRP1_PERIPH_DMA1
 394:Drivers/STM32G4xx_HAL_Driver/Inc/stm32g4xx_ll_bus.h ****   *         @arg @ref LL_AHB1_GRP1_PERIPH_DMA2
 395:Drivers/STM32G4xx_HAL_Driver/Inc/stm32g4xx_ll_bus.h ****   *         @arg @ref LL_AHB1_GRP1_PERIPH_DMAMUX1
 396:Drivers/STM32G4xx_HAL_Driver/Inc/stm32g4xx_ll_bus.h ****   *         @arg @ref LL_AHB1_GRP1_PERIPH_CORDIC
 397:Drivers/STM32G4xx_HAL_Driver/Inc/stm32g4xx_ll_bus.h ****   *         @arg @ref LL_AHB1_GRP1_PERIPH_FMAC
 398:Drivers/STM32G4xx_HAL_Driver/Inc/stm32g4xx_ll_bus.h ****   *         @arg @ref LL_AHB1_GRP1_PERIPH_FLASH
 399:Drivers/STM32G4xx_HAL_Driver/Inc/stm32g4xx_ll_bus.h ****   *         @arg @ref LL_AHB1_GRP1_PERIPH_SRAM1
 400:Drivers/STM32G4xx_HAL_Driver/Inc/stm32g4xx_ll_bus.h ****   *         @arg @ref LL_AHB1_GRP1_PERIPH_CRC
 401:Drivers/STM32G4xx_HAL_Driver/Inc/stm32g4xx_ll_bus.h ****   * @retval None
 402:Drivers/STM32G4xx_HAL_Driver/Inc/stm32g4xx_ll_bus.h ****   */
 403:Drivers/STM32G4xx_HAL_Driver/Inc/stm32g4xx_ll_bus.h **** __STATIC_INLINE void LL_AHB1_GRP1_DisableClockStopSleep(uint32_t Periphs)
 404:Drivers/STM32G4xx_HAL_Driver/Inc/stm32g4xx_ll_bus.h **** {
 405:Drivers/STM32G4xx_HAL_Driver/Inc/stm32g4xx_ll_bus.h ****   CLEAR_BIT(RCC->AHB1SMENR, Periphs);
 406:Drivers/STM32G4xx_HAL_Driver/Inc/stm32g4xx_ll_bus.h **** }
 407:Drivers/STM32G4xx_HAL_Driver/Inc/stm32g4xx_ll_bus.h **** 
 408:Drivers/STM32G4xx_HAL_Driver/Inc/stm32g4xx_ll_bus.h **** /**
 409:Drivers/STM32G4xx_HAL_Driver/Inc/stm32g4xx_ll_bus.h ****   * @}
 410:Drivers/STM32G4xx_HAL_Driver/Inc/stm32g4xx_ll_bus.h ****   */
 411:Drivers/STM32G4xx_HAL_Driver/Inc/stm32g4xx_ll_bus.h **** 
 412:Drivers/STM32G4xx_HAL_Driver/Inc/stm32g4xx_ll_bus.h **** /** @defgroup BUS_LL_EF_AHB2 AHB2
 413:Drivers/STM32G4xx_HAL_Driver/Inc/stm32g4xx_ll_bus.h ****   * @{
 414:Drivers/STM32G4xx_HAL_Driver/Inc/stm32g4xx_ll_bus.h ****   */
 415:Drivers/STM32G4xx_HAL_Driver/Inc/stm32g4xx_ll_bus.h **** 
 416:Drivers/STM32G4xx_HAL_Driver/Inc/stm32g4xx_ll_bus.h **** /**
 417:Drivers/STM32G4xx_HAL_Driver/Inc/stm32g4xx_ll_bus.h ****   * @brief  Enable AHB2 peripherals clock.
 418:Drivers/STM32G4xx_HAL_Driver/Inc/stm32g4xx_ll_bus.h ****   * @rmtoll AHB2ENR      GPIOAEN       LL_AHB2_GRP1_EnableClock\n
ARM GAS  D:\apps\VSCode\data\tmp\cc1Dl4Ov.s 			page 20


 419:Drivers/STM32G4xx_HAL_Driver/Inc/stm32g4xx_ll_bus.h ****   *         AHB2ENR      GPIOBEN       LL_AHB2_GRP1_EnableClock\n
 420:Drivers/STM32G4xx_HAL_Driver/Inc/stm32g4xx_ll_bus.h ****   *         AHB2ENR      GPIOCEN       LL_AHB2_GRP1_EnableClock\n
 421:Drivers/STM32G4xx_HAL_Driver/Inc/stm32g4xx_ll_bus.h ****   *         AHB2ENR      GPIODEN       LL_AHB2_GRP1_EnableClock\n
 422:Drivers/STM32G4xx_HAL_Driver/Inc/stm32g4xx_ll_bus.h ****   *         AHB2ENR      GPIOEEN       LL_AHB2_GRP1_EnableClock\n
 423:Drivers/STM32G4xx_HAL_Driver/Inc/stm32g4xx_ll_bus.h ****   *         AHB2ENR      GPIOFEN       LL_AHB2_GRP1_EnableClock\n
 424:Drivers/STM32G4xx_HAL_Driver/Inc/stm32g4xx_ll_bus.h ****   *         AHB2ENR      GPIOGEN       LL_AHB2_GRP1_EnableClock\n
 425:Drivers/STM32G4xx_HAL_Driver/Inc/stm32g4xx_ll_bus.h ****   *         AHB2ENR      ADC12EN       LL_AHB2_GRP1_EnableClock\n
 426:Drivers/STM32G4xx_HAL_Driver/Inc/stm32g4xx_ll_bus.h ****   *         AHB2ENR      ADC345EN      LL_AHB2_GRP1_EnableClock\n
 427:Drivers/STM32G4xx_HAL_Driver/Inc/stm32g4xx_ll_bus.h ****   *         AHB2ENR      DAC1EN        LL_AHB2_GRP1_EnableClock\n
 428:Drivers/STM32G4xx_HAL_Driver/Inc/stm32g4xx_ll_bus.h ****   *         AHB2ENR      DAC2EN        LL_AHB2_GRP1_EnableClock\n
 429:Drivers/STM32G4xx_HAL_Driver/Inc/stm32g4xx_ll_bus.h ****   *         AHB2ENR      DAC3EN        LL_AHB2_GRP1_EnableClock\n
 430:Drivers/STM32G4xx_HAL_Driver/Inc/stm32g4xx_ll_bus.h ****   *         AHB2ENR      DAC4EN        LL_AHB2_GRP1_EnableClock\n
 431:Drivers/STM32G4xx_HAL_Driver/Inc/stm32g4xx_ll_bus.h ****   *         AHB2ENR      AESEN         LL_AHB2_GRP1_EnableClock\n
 432:Drivers/STM32G4xx_HAL_Driver/Inc/stm32g4xx_ll_bus.h ****   *         AHB2ENR      RNGEN         LL_AHB2_GRP1_EnableClock
 433:Drivers/STM32G4xx_HAL_Driver/Inc/stm32g4xx_ll_bus.h ****   * @param  Periphs This parameter can be a combination of the following values:
 434:Drivers/STM32G4xx_HAL_Driver/Inc/stm32g4xx_ll_bus.h ****   *         @arg @ref LL_AHB2_GRP1_PERIPH_GPIOA
 435:Drivers/STM32G4xx_HAL_Driver/Inc/stm32g4xx_ll_bus.h ****   *         @arg @ref LL_AHB2_GRP1_PERIPH_GPIOB
 436:Drivers/STM32G4xx_HAL_Driver/Inc/stm32g4xx_ll_bus.h ****   *         @arg @ref LL_AHB2_GRP1_PERIPH_GPIOC
 437:Drivers/STM32G4xx_HAL_Driver/Inc/stm32g4xx_ll_bus.h ****   *         @arg @ref LL_AHB2_GRP1_PERIPH_GPIOD
 438:Drivers/STM32G4xx_HAL_Driver/Inc/stm32g4xx_ll_bus.h ****   *         @arg @ref LL_AHB2_GRP1_PERIPH_GPIOE
 439:Drivers/STM32G4xx_HAL_Driver/Inc/stm32g4xx_ll_bus.h ****   *         @arg @ref LL_AHB2_GRP1_PERIPH_GPIOF
 440:Drivers/STM32G4xx_HAL_Driver/Inc/stm32g4xx_ll_bus.h ****   *         @arg @ref LL_AHB2_GRP1_PERIPH_GPIOG
 441:Drivers/STM32G4xx_HAL_Driver/Inc/stm32g4xx_ll_bus.h ****   *         @arg @ref LL_AHB2_GRP1_PERIPH_ADC12
 442:Drivers/STM32G4xx_HAL_Driver/Inc/stm32g4xx_ll_bus.h ****   *         @arg @ref LL_AHB2_GRP1_PERIPH_ADC345 (*)
 443:Drivers/STM32G4xx_HAL_Driver/Inc/stm32g4xx_ll_bus.h ****   *         @arg @ref LL_AHB2_GRP1_PERIPH_DAC1
 444:Drivers/STM32G4xx_HAL_Driver/Inc/stm32g4xx_ll_bus.h ****   *         @arg @ref LL_AHB2_GRP1_PERIPH_DAC2 (*)
 445:Drivers/STM32G4xx_HAL_Driver/Inc/stm32g4xx_ll_bus.h ****   *         @arg @ref LL_AHB2_GRP1_PERIPH_DAC3
 446:Drivers/STM32G4xx_HAL_Driver/Inc/stm32g4xx_ll_bus.h ****   *         @arg @ref LL_AHB2_GRP1_PERIPH_DAC4 (*)
 447:Drivers/STM32G4xx_HAL_Driver/Inc/stm32g4xx_ll_bus.h ****   *         @arg @ref LL_AHB2_GRP1_PERIPH_AES (*)
 448:Drivers/STM32G4xx_HAL_Driver/Inc/stm32g4xx_ll_bus.h ****   *         @arg @ref LL_AHB2_GRP1_PERIPH_RNG
 449:Drivers/STM32G4xx_HAL_Driver/Inc/stm32g4xx_ll_bus.h ****   *
 450:Drivers/STM32G4xx_HAL_Driver/Inc/stm32g4xx_ll_bus.h ****   *         (*) value not defined in all devices.
 451:Drivers/STM32G4xx_HAL_Driver/Inc/stm32g4xx_ll_bus.h ****   * @retval None
 452:Drivers/STM32G4xx_HAL_Driver/Inc/stm32g4xx_ll_bus.h ****   */
 453:Drivers/STM32G4xx_HAL_Driver/Inc/stm32g4xx_ll_bus.h **** __STATIC_INLINE void LL_AHB2_GRP1_EnableClock(uint32_t Periphs)
 457              		.loc 2 453 22 view .LVU129
 458              	.LBB35:
 454:Drivers/STM32G4xx_HAL_Driver/Inc/stm32g4xx_ll_bus.h **** {
 455:Drivers/STM32G4xx_HAL_Driver/Inc/stm32g4xx_ll_bus.h ****   __IO uint32_t tmpreg;
 459              		.loc 2 455 3 view .LVU130
 456:Drivers/STM32G4xx_HAL_Driver/Inc/stm32g4xx_ll_bus.h ****   SET_BIT(RCC->AHB2ENR, Periphs);
 460              		.loc 2 456 3 view .LVU131
 461 0022 03F5D633 		add	r3, r3, #109568
 462              	.LBE35:
 463              	.LBE34:
 464              	.LBB37:
 465              	.LBB38:
 466              		.file 3 "Drivers/STM32G4xx_HAL_Driver/Inc/stm32g4xx_ll_gpio.h"
   1:Drivers/STM32G4xx_HAL_Driver/Inc/stm32g4xx_ll_gpio.h **** /**
   2:Drivers/STM32G4xx_HAL_Driver/Inc/stm32g4xx_ll_gpio.h ****   ******************************************************************************
   3:Drivers/STM32G4xx_HAL_Driver/Inc/stm32g4xx_ll_gpio.h ****   * @file    stm32g4xx_ll_gpio.h
   4:Drivers/STM32G4xx_HAL_Driver/Inc/stm32g4xx_ll_gpio.h ****   * @author  MCD Application Team
   5:Drivers/STM32G4xx_HAL_Driver/Inc/stm32g4xx_ll_gpio.h ****   * @brief   Header file of GPIO LL module.
   6:Drivers/STM32G4xx_HAL_Driver/Inc/stm32g4xx_ll_gpio.h ****   ******************************************************************************
   7:Drivers/STM32G4xx_HAL_Driver/Inc/stm32g4xx_ll_gpio.h ****   * @attention
   8:Drivers/STM32G4xx_HAL_Driver/Inc/stm32g4xx_ll_gpio.h ****   *
   9:Drivers/STM32G4xx_HAL_Driver/Inc/stm32g4xx_ll_gpio.h ****   * <h2><center>&copy; Copyright (c) 2019 STMicroelectronics.
ARM GAS  D:\apps\VSCode\data\tmp\cc1Dl4Ov.s 			page 21


  10:Drivers/STM32G4xx_HAL_Driver/Inc/stm32g4xx_ll_gpio.h ****   * All rights reserved.</center></h2>
  11:Drivers/STM32G4xx_HAL_Driver/Inc/stm32g4xx_ll_gpio.h ****   *
  12:Drivers/STM32G4xx_HAL_Driver/Inc/stm32g4xx_ll_gpio.h ****   * This software component is licensed by ST under BSD 3-Clause license,
  13:Drivers/STM32G4xx_HAL_Driver/Inc/stm32g4xx_ll_gpio.h ****   * the "License"; You may not use this file except in compliance with the
  14:Drivers/STM32G4xx_HAL_Driver/Inc/stm32g4xx_ll_gpio.h ****   * License. You may obtain a copy of the License at:
  15:Drivers/STM32G4xx_HAL_Driver/Inc/stm32g4xx_ll_gpio.h ****   *                        opensource.org/licenses/BSD-3-Clause
  16:Drivers/STM32G4xx_HAL_Driver/Inc/stm32g4xx_ll_gpio.h ****   *
  17:Drivers/STM32G4xx_HAL_Driver/Inc/stm32g4xx_ll_gpio.h ****   ******************************************************************************
  18:Drivers/STM32G4xx_HAL_Driver/Inc/stm32g4xx_ll_gpio.h ****   */
  19:Drivers/STM32G4xx_HAL_Driver/Inc/stm32g4xx_ll_gpio.h **** 
  20:Drivers/STM32G4xx_HAL_Driver/Inc/stm32g4xx_ll_gpio.h **** /* Define to prevent recursive inclusion -------------------------------------*/
  21:Drivers/STM32G4xx_HAL_Driver/Inc/stm32g4xx_ll_gpio.h **** #ifndef STM32G4xx_LL_GPIO_H
  22:Drivers/STM32G4xx_HAL_Driver/Inc/stm32g4xx_ll_gpio.h **** #define STM32G4xx_LL_GPIO_H
  23:Drivers/STM32G4xx_HAL_Driver/Inc/stm32g4xx_ll_gpio.h **** 
  24:Drivers/STM32G4xx_HAL_Driver/Inc/stm32g4xx_ll_gpio.h **** #ifdef __cplusplus
  25:Drivers/STM32G4xx_HAL_Driver/Inc/stm32g4xx_ll_gpio.h **** extern "C" {
  26:Drivers/STM32G4xx_HAL_Driver/Inc/stm32g4xx_ll_gpio.h **** #endif
  27:Drivers/STM32G4xx_HAL_Driver/Inc/stm32g4xx_ll_gpio.h **** 
  28:Drivers/STM32G4xx_HAL_Driver/Inc/stm32g4xx_ll_gpio.h **** /* Includes ------------------------------------------------------------------*/
  29:Drivers/STM32G4xx_HAL_Driver/Inc/stm32g4xx_ll_gpio.h **** #include "stm32g4xx.h"
  30:Drivers/STM32G4xx_HAL_Driver/Inc/stm32g4xx_ll_gpio.h **** 
  31:Drivers/STM32G4xx_HAL_Driver/Inc/stm32g4xx_ll_gpio.h **** /** @addtogroup STM32G4xx_LL_Driver
  32:Drivers/STM32G4xx_HAL_Driver/Inc/stm32g4xx_ll_gpio.h ****   * @{
  33:Drivers/STM32G4xx_HAL_Driver/Inc/stm32g4xx_ll_gpio.h ****   */
  34:Drivers/STM32G4xx_HAL_Driver/Inc/stm32g4xx_ll_gpio.h **** 
  35:Drivers/STM32G4xx_HAL_Driver/Inc/stm32g4xx_ll_gpio.h **** #if defined (GPIOA) || defined (GPIOB) || defined (GPIOC) || defined (GPIOD) || defined (GPIOE) || 
  36:Drivers/STM32G4xx_HAL_Driver/Inc/stm32g4xx_ll_gpio.h **** 
  37:Drivers/STM32G4xx_HAL_Driver/Inc/stm32g4xx_ll_gpio.h **** /** @defgroup GPIO_LL GPIO
  38:Drivers/STM32G4xx_HAL_Driver/Inc/stm32g4xx_ll_gpio.h ****   * @{
  39:Drivers/STM32G4xx_HAL_Driver/Inc/stm32g4xx_ll_gpio.h ****   */
  40:Drivers/STM32G4xx_HAL_Driver/Inc/stm32g4xx_ll_gpio.h **** /** MISRA C:2012 deviation rule has been granted for following rules:
  41:Drivers/STM32G4xx_HAL_Driver/Inc/stm32g4xx_ll_gpio.h ****   * Rule-18.1_d - Medium: Array pointer `GPIOx' is accessed with index [..,..]
  42:Drivers/STM32G4xx_HAL_Driver/Inc/stm32g4xx_ll_gpio.h ****   * which may be out of array bounds [..,UNKNOWN] in following APIs:
  43:Drivers/STM32G4xx_HAL_Driver/Inc/stm32g4xx_ll_gpio.h ****   * LL_GPIO_GetAFPin_0_7
  44:Drivers/STM32G4xx_HAL_Driver/Inc/stm32g4xx_ll_gpio.h ****   * LL_GPIO_SetAFPin_0_7
  45:Drivers/STM32G4xx_HAL_Driver/Inc/stm32g4xx_ll_gpio.h ****   * LL_GPIO_SetAFPin_8_15
  46:Drivers/STM32G4xx_HAL_Driver/Inc/stm32g4xx_ll_gpio.h ****   * LL_GPIO_GetAFPin_8_15
  47:Drivers/STM32G4xx_HAL_Driver/Inc/stm32g4xx_ll_gpio.h ****   */
  48:Drivers/STM32G4xx_HAL_Driver/Inc/stm32g4xx_ll_gpio.h **** 
  49:Drivers/STM32G4xx_HAL_Driver/Inc/stm32g4xx_ll_gpio.h **** /* Private types -------------------------------------------------------------*/
  50:Drivers/STM32G4xx_HAL_Driver/Inc/stm32g4xx_ll_gpio.h **** /* Private variables ---------------------------------------------------------*/
  51:Drivers/STM32G4xx_HAL_Driver/Inc/stm32g4xx_ll_gpio.h **** /* Private constants ---------------------------------------------------------*/
  52:Drivers/STM32G4xx_HAL_Driver/Inc/stm32g4xx_ll_gpio.h **** /* Private macros ------------------------------------------------------------*/
  53:Drivers/STM32G4xx_HAL_Driver/Inc/stm32g4xx_ll_gpio.h **** #if defined(USE_FULL_LL_DRIVER)
  54:Drivers/STM32G4xx_HAL_Driver/Inc/stm32g4xx_ll_gpio.h **** /** @defgroup GPIO_LL_Private_Macros GPIO Private Macros
  55:Drivers/STM32G4xx_HAL_Driver/Inc/stm32g4xx_ll_gpio.h ****   * @{
  56:Drivers/STM32G4xx_HAL_Driver/Inc/stm32g4xx_ll_gpio.h ****   */
  57:Drivers/STM32G4xx_HAL_Driver/Inc/stm32g4xx_ll_gpio.h **** 
  58:Drivers/STM32G4xx_HAL_Driver/Inc/stm32g4xx_ll_gpio.h **** /**
  59:Drivers/STM32G4xx_HAL_Driver/Inc/stm32g4xx_ll_gpio.h ****   * @}
  60:Drivers/STM32G4xx_HAL_Driver/Inc/stm32g4xx_ll_gpio.h ****   */
  61:Drivers/STM32G4xx_HAL_Driver/Inc/stm32g4xx_ll_gpio.h **** #endif /*USE_FULL_LL_DRIVER*/
  62:Drivers/STM32G4xx_HAL_Driver/Inc/stm32g4xx_ll_gpio.h **** 
  63:Drivers/STM32G4xx_HAL_Driver/Inc/stm32g4xx_ll_gpio.h **** /* Exported types ------------------------------------------------------------*/
  64:Drivers/STM32G4xx_HAL_Driver/Inc/stm32g4xx_ll_gpio.h **** #if defined(USE_FULL_LL_DRIVER)
  65:Drivers/STM32G4xx_HAL_Driver/Inc/stm32g4xx_ll_gpio.h **** /** @defgroup GPIO_LL_ES_INIT GPIO Exported Init structures
  66:Drivers/STM32G4xx_HAL_Driver/Inc/stm32g4xx_ll_gpio.h ****   * @{
ARM GAS  D:\apps\VSCode\data\tmp\cc1Dl4Ov.s 			page 22


  67:Drivers/STM32G4xx_HAL_Driver/Inc/stm32g4xx_ll_gpio.h ****   */
  68:Drivers/STM32G4xx_HAL_Driver/Inc/stm32g4xx_ll_gpio.h **** 
  69:Drivers/STM32G4xx_HAL_Driver/Inc/stm32g4xx_ll_gpio.h **** /**
  70:Drivers/STM32G4xx_HAL_Driver/Inc/stm32g4xx_ll_gpio.h ****   * @brief LL GPIO Init Structure definition
  71:Drivers/STM32G4xx_HAL_Driver/Inc/stm32g4xx_ll_gpio.h ****   */
  72:Drivers/STM32G4xx_HAL_Driver/Inc/stm32g4xx_ll_gpio.h **** typedef struct
  73:Drivers/STM32G4xx_HAL_Driver/Inc/stm32g4xx_ll_gpio.h **** {
  74:Drivers/STM32G4xx_HAL_Driver/Inc/stm32g4xx_ll_gpio.h ****   uint32_t Pin;          /*!< Specifies the GPIO pins to be configured.
  75:Drivers/STM32G4xx_HAL_Driver/Inc/stm32g4xx_ll_gpio.h ****                               This parameter can be any value of @ref GPIO_LL_EC_PIN */
  76:Drivers/STM32G4xx_HAL_Driver/Inc/stm32g4xx_ll_gpio.h **** 
  77:Drivers/STM32G4xx_HAL_Driver/Inc/stm32g4xx_ll_gpio.h ****   uint32_t Mode;         /*!< Specifies the operating mode for the selected pins.
  78:Drivers/STM32G4xx_HAL_Driver/Inc/stm32g4xx_ll_gpio.h ****                               This parameter can be a value of @ref GPIO_LL_EC_MODE.
  79:Drivers/STM32G4xx_HAL_Driver/Inc/stm32g4xx_ll_gpio.h **** 
  80:Drivers/STM32G4xx_HAL_Driver/Inc/stm32g4xx_ll_gpio.h ****                               GPIO HW configuration can be modified afterwards using unitary functi
  81:Drivers/STM32G4xx_HAL_Driver/Inc/stm32g4xx_ll_gpio.h **** 
  82:Drivers/STM32G4xx_HAL_Driver/Inc/stm32g4xx_ll_gpio.h ****   uint32_t Speed;        /*!< Specifies the speed for the selected pins.
  83:Drivers/STM32G4xx_HAL_Driver/Inc/stm32g4xx_ll_gpio.h ****                               This parameter can be a value of @ref GPIO_LL_EC_SPEED.
  84:Drivers/STM32G4xx_HAL_Driver/Inc/stm32g4xx_ll_gpio.h **** 
  85:Drivers/STM32G4xx_HAL_Driver/Inc/stm32g4xx_ll_gpio.h ****                               GPIO HW configuration can be modified afterwards using unitary functi
  86:Drivers/STM32G4xx_HAL_Driver/Inc/stm32g4xx_ll_gpio.h **** 
  87:Drivers/STM32G4xx_HAL_Driver/Inc/stm32g4xx_ll_gpio.h ****   uint32_t OutputType;   /*!< Specifies the operating output type for the selected pins.
  88:Drivers/STM32G4xx_HAL_Driver/Inc/stm32g4xx_ll_gpio.h ****                               This parameter can be a value of @ref GPIO_LL_EC_OUTPUT.
  89:Drivers/STM32G4xx_HAL_Driver/Inc/stm32g4xx_ll_gpio.h **** 
  90:Drivers/STM32G4xx_HAL_Driver/Inc/stm32g4xx_ll_gpio.h ****                               GPIO HW configuration can be modified afterwards using unitary functi
  91:Drivers/STM32G4xx_HAL_Driver/Inc/stm32g4xx_ll_gpio.h **** 
  92:Drivers/STM32G4xx_HAL_Driver/Inc/stm32g4xx_ll_gpio.h ****   uint32_t Pull;         /*!< Specifies the operating Pull-up/Pull down for the selected pins.
  93:Drivers/STM32G4xx_HAL_Driver/Inc/stm32g4xx_ll_gpio.h ****                               This parameter can be a value of @ref GPIO_LL_EC_PULL.
  94:Drivers/STM32G4xx_HAL_Driver/Inc/stm32g4xx_ll_gpio.h **** 
  95:Drivers/STM32G4xx_HAL_Driver/Inc/stm32g4xx_ll_gpio.h ****                               GPIO HW configuration can be modified afterwards using unitary functi
  96:Drivers/STM32G4xx_HAL_Driver/Inc/stm32g4xx_ll_gpio.h **** 
  97:Drivers/STM32G4xx_HAL_Driver/Inc/stm32g4xx_ll_gpio.h ****   uint32_t Alternate;    /*!< Specifies the Peripheral to be connected to the selected pins.
  98:Drivers/STM32G4xx_HAL_Driver/Inc/stm32g4xx_ll_gpio.h ****                               This parameter can be a value of @ref GPIO_LL_EC_AF.
  99:Drivers/STM32G4xx_HAL_Driver/Inc/stm32g4xx_ll_gpio.h **** 
 100:Drivers/STM32G4xx_HAL_Driver/Inc/stm32g4xx_ll_gpio.h ****                               GPIO HW configuration can be modified afterwards using unitary functi
 101:Drivers/STM32G4xx_HAL_Driver/Inc/stm32g4xx_ll_gpio.h **** } LL_GPIO_InitTypeDef;
 102:Drivers/STM32G4xx_HAL_Driver/Inc/stm32g4xx_ll_gpio.h **** 
 103:Drivers/STM32G4xx_HAL_Driver/Inc/stm32g4xx_ll_gpio.h **** /**
 104:Drivers/STM32G4xx_HAL_Driver/Inc/stm32g4xx_ll_gpio.h ****   * @}
 105:Drivers/STM32G4xx_HAL_Driver/Inc/stm32g4xx_ll_gpio.h ****   */
 106:Drivers/STM32G4xx_HAL_Driver/Inc/stm32g4xx_ll_gpio.h **** #endif /* USE_FULL_LL_DRIVER */
 107:Drivers/STM32G4xx_HAL_Driver/Inc/stm32g4xx_ll_gpio.h **** 
 108:Drivers/STM32G4xx_HAL_Driver/Inc/stm32g4xx_ll_gpio.h **** /* Exported constants --------------------------------------------------------*/
 109:Drivers/STM32G4xx_HAL_Driver/Inc/stm32g4xx_ll_gpio.h **** /** @defgroup GPIO_LL_Exported_Constants GPIO Exported Constants
 110:Drivers/STM32G4xx_HAL_Driver/Inc/stm32g4xx_ll_gpio.h ****   * @{
 111:Drivers/STM32G4xx_HAL_Driver/Inc/stm32g4xx_ll_gpio.h ****   */
 112:Drivers/STM32G4xx_HAL_Driver/Inc/stm32g4xx_ll_gpio.h **** 
 113:Drivers/STM32G4xx_HAL_Driver/Inc/stm32g4xx_ll_gpio.h **** /** @defgroup GPIO_LL_EC_PIN PIN
 114:Drivers/STM32G4xx_HAL_Driver/Inc/stm32g4xx_ll_gpio.h ****   * @{
 115:Drivers/STM32G4xx_HAL_Driver/Inc/stm32g4xx_ll_gpio.h ****   */
 116:Drivers/STM32G4xx_HAL_Driver/Inc/stm32g4xx_ll_gpio.h **** #define LL_GPIO_PIN_0                      GPIO_BSRR_BS0 /*!< Select pin 0 */
 117:Drivers/STM32G4xx_HAL_Driver/Inc/stm32g4xx_ll_gpio.h **** #define LL_GPIO_PIN_1                      GPIO_BSRR_BS1 /*!< Select pin 1 */
 118:Drivers/STM32G4xx_HAL_Driver/Inc/stm32g4xx_ll_gpio.h **** #define LL_GPIO_PIN_2                      GPIO_BSRR_BS2 /*!< Select pin 2 */
 119:Drivers/STM32G4xx_HAL_Driver/Inc/stm32g4xx_ll_gpio.h **** #define LL_GPIO_PIN_3                      GPIO_BSRR_BS3 /*!< Select pin 3 */
 120:Drivers/STM32G4xx_HAL_Driver/Inc/stm32g4xx_ll_gpio.h **** #define LL_GPIO_PIN_4                      GPIO_BSRR_BS4 /*!< Select pin 4 */
 121:Drivers/STM32G4xx_HAL_Driver/Inc/stm32g4xx_ll_gpio.h **** #define LL_GPIO_PIN_5                      GPIO_BSRR_BS5 /*!< Select pin 5 */
 122:Drivers/STM32G4xx_HAL_Driver/Inc/stm32g4xx_ll_gpio.h **** #define LL_GPIO_PIN_6                      GPIO_BSRR_BS6 /*!< Select pin 6 */
 123:Drivers/STM32G4xx_HAL_Driver/Inc/stm32g4xx_ll_gpio.h **** #define LL_GPIO_PIN_7                      GPIO_BSRR_BS7 /*!< Select pin 7 */
ARM GAS  D:\apps\VSCode\data\tmp\cc1Dl4Ov.s 			page 23


 124:Drivers/STM32G4xx_HAL_Driver/Inc/stm32g4xx_ll_gpio.h **** #define LL_GPIO_PIN_8                      GPIO_BSRR_BS8 /*!< Select pin 8 */
 125:Drivers/STM32G4xx_HAL_Driver/Inc/stm32g4xx_ll_gpio.h **** #define LL_GPIO_PIN_9                      GPIO_BSRR_BS9 /*!< Select pin 9 */
 126:Drivers/STM32G4xx_HAL_Driver/Inc/stm32g4xx_ll_gpio.h **** #define LL_GPIO_PIN_10                     GPIO_BSRR_BS10 /*!< Select pin 10 */
 127:Drivers/STM32G4xx_HAL_Driver/Inc/stm32g4xx_ll_gpio.h **** #define LL_GPIO_PIN_11                     GPIO_BSRR_BS11 /*!< Select pin 11 */
 128:Drivers/STM32G4xx_HAL_Driver/Inc/stm32g4xx_ll_gpio.h **** #define LL_GPIO_PIN_12                     GPIO_BSRR_BS12 /*!< Select pin 12 */
 129:Drivers/STM32G4xx_HAL_Driver/Inc/stm32g4xx_ll_gpio.h **** #define LL_GPIO_PIN_13                     GPIO_BSRR_BS13 /*!< Select pin 13 */
 130:Drivers/STM32G4xx_HAL_Driver/Inc/stm32g4xx_ll_gpio.h **** #define LL_GPIO_PIN_14                     GPIO_BSRR_BS14 /*!< Select pin 14 */
 131:Drivers/STM32G4xx_HAL_Driver/Inc/stm32g4xx_ll_gpio.h **** #define LL_GPIO_PIN_15                     GPIO_BSRR_BS15 /*!< Select pin 15 */
 132:Drivers/STM32G4xx_HAL_Driver/Inc/stm32g4xx_ll_gpio.h **** #define LL_GPIO_PIN_ALL                    (GPIO_BSRR_BS0 | GPIO_BSRR_BS1  | GPIO_BSRR_BS2  | \
 133:Drivers/STM32G4xx_HAL_Driver/Inc/stm32g4xx_ll_gpio.h ****                                            GPIO_BSRR_BS3  | GPIO_BSRR_BS4  | GPIO_BSRR_BS5  | \
 134:Drivers/STM32G4xx_HAL_Driver/Inc/stm32g4xx_ll_gpio.h ****                                            GPIO_BSRR_BS6  | GPIO_BSRR_BS7  | GPIO_BSRR_BS8  | \
 135:Drivers/STM32G4xx_HAL_Driver/Inc/stm32g4xx_ll_gpio.h ****                                            GPIO_BSRR_BS9  | GPIO_BSRR_BS10 | GPIO_BSRR_BS11 | \
 136:Drivers/STM32G4xx_HAL_Driver/Inc/stm32g4xx_ll_gpio.h ****                                            GPIO_BSRR_BS12 | GPIO_BSRR_BS13 | GPIO_BSRR_BS14 | \
 137:Drivers/STM32G4xx_HAL_Driver/Inc/stm32g4xx_ll_gpio.h ****                                            GPIO_BSRR_BS15) /*!< Select all pins */
 138:Drivers/STM32G4xx_HAL_Driver/Inc/stm32g4xx_ll_gpio.h **** /**
 139:Drivers/STM32G4xx_HAL_Driver/Inc/stm32g4xx_ll_gpio.h ****   * @}
 140:Drivers/STM32G4xx_HAL_Driver/Inc/stm32g4xx_ll_gpio.h ****   */
 141:Drivers/STM32G4xx_HAL_Driver/Inc/stm32g4xx_ll_gpio.h **** 
 142:Drivers/STM32G4xx_HAL_Driver/Inc/stm32g4xx_ll_gpio.h **** /** @defgroup GPIO_LL_EC_MODE Mode
 143:Drivers/STM32G4xx_HAL_Driver/Inc/stm32g4xx_ll_gpio.h ****   * @{
 144:Drivers/STM32G4xx_HAL_Driver/Inc/stm32g4xx_ll_gpio.h ****   */
 145:Drivers/STM32G4xx_HAL_Driver/Inc/stm32g4xx_ll_gpio.h **** #define LL_GPIO_MODE_INPUT                 (0x00000000U) /*!< Select input mode */
 146:Drivers/STM32G4xx_HAL_Driver/Inc/stm32g4xx_ll_gpio.h **** #define LL_GPIO_MODE_OUTPUT                GPIO_MODER_MODE0_0  /*!< Select output mode */
 147:Drivers/STM32G4xx_HAL_Driver/Inc/stm32g4xx_ll_gpio.h **** #define LL_GPIO_MODE_ALTERNATE             GPIO_MODER_MODE0_1  /*!< Select alternate function mode 
 148:Drivers/STM32G4xx_HAL_Driver/Inc/stm32g4xx_ll_gpio.h **** #define LL_GPIO_MODE_ANALOG                GPIO_MODER_MODE0    /*!< Select analog mode */
 149:Drivers/STM32G4xx_HAL_Driver/Inc/stm32g4xx_ll_gpio.h **** /**
 150:Drivers/STM32G4xx_HAL_Driver/Inc/stm32g4xx_ll_gpio.h ****   * @}
 151:Drivers/STM32G4xx_HAL_Driver/Inc/stm32g4xx_ll_gpio.h ****   */
 152:Drivers/STM32G4xx_HAL_Driver/Inc/stm32g4xx_ll_gpio.h **** 
 153:Drivers/STM32G4xx_HAL_Driver/Inc/stm32g4xx_ll_gpio.h **** /** @defgroup GPIO_LL_EC_OUTPUT Output Type
 154:Drivers/STM32G4xx_HAL_Driver/Inc/stm32g4xx_ll_gpio.h ****   * @{
 155:Drivers/STM32G4xx_HAL_Driver/Inc/stm32g4xx_ll_gpio.h ****   */
 156:Drivers/STM32G4xx_HAL_Driver/Inc/stm32g4xx_ll_gpio.h **** #define LL_GPIO_OUTPUT_PUSHPULL            (0x00000000U) /*!< Select push-pull as output type */
 157:Drivers/STM32G4xx_HAL_Driver/Inc/stm32g4xx_ll_gpio.h **** #define LL_GPIO_OUTPUT_OPENDRAIN           GPIO_OTYPER_OT0 /*!< Select open-drain as output type */
 158:Drivers/STM32G4xx_HAL_Driver/Inc/stm32g4xx_ll_gpio.h **** /**
 159:Drivers/STM32G4xx_HAL_Driver/Inc/stm32g4xx_ll_gpio.h ****   * @}
 160:Drivers/STM32G4xx_HAL_Driver/Inc/stm32g4xx_ll_gpio.h ****   */
 161:Drivers/STM32G4xx_HAL_Driver/Inc/stm32g4xx_ll_gpio.h **** 
 162:Drivers/STM32G4xx_HAL_Driver/Inc/stm32g4xx_ll_gpio.h **** /** @defgroup GPIO_LL_EC_SPEED Output Speed
 163:Drivers/STM32G4xx_HAL_Driver/Inc/stm32g4xx_ll_gpio.h ****   * @{
 164:Drivers/STM32G4xx_HAL_Driver/Inc/stm32g4xx_ll_gpio.h ****   */
 165:Drivers/STM32G4xx_HAL_Driver/Inc/stm32g4xx_ll_gpio.h **** #define LL_GPIO_SPEED_FREQ_LOW             (0x00000000U) /*!< Select I/O low output speed    */
 166:Drivers/STM32G4xx_HAL_Driver/Inc/stm32g4xx_ll_gpio.h **** #define LL_GPIO_SPEED_FREQ_MEDIUM          GPIO_OSPEEDR_OSPEED0_0 /*!< Select I/O medium output spe
 167:Drivers/STM32G4xx_HAL_Driver/Inc/stm32g4xx_ll_gpio.h **** #define LL_GPIO_SPEED_FREQ_HIGH            GPIO_OSPEEDR_OSPEED0_1 /*!< Select I/O fast output speed
 168:Drivers/STM32G4xx_HAL_Driver/Inc/stm32g4xx_ll_gpio.h **** #define LL_GPIO_SPEED_FREQ_VERY_HIGH       GPIO_OSPEEDR_OSPEED0   /*!< Select I/O high output speed
 169:Drivers/STM32G4xx_HAL_Driver/Inc/stm32g4xx_ll_gpio.h **** /**
 170:Drivers/STM32G4xx_HAL_Driver/Inc/stm32g4xx_ll_gpio.h ****   * @}
 171:Drivers/STM32G4xx_HAL_Driver/Inc/stm32g4xx_ll_gpio.h ****   */
 172:Drivers/STM32G4xx_HAL_Driver/Inc/stm32g4xx_ll_gpio.h **** #define LL_GPIO_SPEED_LOW                  LL_GPIO_SPEED_FREQ_LOW
 173:Drivers/STM32G4xx_HAL_Driver/Inc/stm32g4xx_ll_gpio.h **** #define LL_GPIO_SPEED_MEDIUM               LL_GPIO_SPEED_FREQ_MEDIUM
 174:Drivers/STM32G4xx_HAL_Driver/Inc/stm32g4xx_ll_gpio.h **** #define LL_GPIO_SPEED_FAST                 LL_GPIO_SPEED_FREQ_HIGH
 175:Drivers/STM32G4xx_HAL_Driver/Inc/stm32g4xx_ll_gpio.h **** #define LL_GPIO_SPEED_HIGH                 LL_GPIO_SPEED_FREQ_VERY_HIGH
 176:Drivers/STM32G4xx_HAL_Driver/Inc/stm32g4xx_ll_gpio.h **** 
 177:Drivers/STM32G4xx_HAL_Driver/Inc/stm32g4xx_ll_gpio.h **** /** @defgroup GPIO_LL_EC_PULL Pull Up Pull Down
 178:Drivers/STM32G4xx_HAL_Driver/Inc/stm32g4xx_ll_gpio.h ****   * @{
 179:Drivers/STM32G4xx_HAL_Driver/Inc/stm32g4xx_ll_gpio.h ****   */
 180:Drivers/STM32G4xx_HAL_Driver/Inc/stm32g4xx_ll_gpio.h **** #define LL_GPIO_PULL_NO                    (0x00000000U) /*!< Select I/O no pull */
ARM GAS  D:\apps\VSCode\data\tmp\cc1Dl4Ov.s 			page 24


 181:Drivers/STM32G4xx_HAL_Driver/Inc/stm32g4xx_ll_gpio.h **** #define LL_GPIO_PULL_UP                    GPIO_PUPDR_PUPD0_0 /*!< Select I/O pull up */
 182:Drivers/STM32G4xx_HAL_Driver/Inc/stm32g4xx_ll_gpio.h **** #define LL_GPIO_PULL_DOWN                  GPIO_PUPDR_PUPD0_1 /*!< Select I/O pull down */
 183:Drivers/STM32G4xx_HAL_Driver/Inc/stm32g4xx_ll_gpio.h **** /**
 184:Drivers/STM32G4xx_HAL_Driver/Inc/stm32g4xx_ll_gpio.h ****   * @}
 185:Drivers/STM32G4xx_HAL_Driver/Inc/stm32g4xx_ll_gpio.h ****   */
 186:Drivers/STM32G4xx_HAL_Driver/Inc/stm32g4xx_ll_gpio.h **** 
 187:Drivers/STM32G4xx_HAL_Driver/Inc/stm32g4xx_ll_gpio.h **** /** @defgroup GPIO_LL_EC_AF Alternate Function
 188:Drivers/STM32G4xx_HAL_Driver/Inc/stm32g4xx_ll_gpio.h ****   * @{
 189:Drivers/STM32G4xx_HAL_Driver/Inc/stm32g4xx_ll_gpio.h ****   */
 190:Drivers/STM32G4xx_HAL_Driver/Inc/stm32g4xx_ll_gpio.h **** #define LL_GPIO_AF_0                       (0x0000000U) /*!< Select alternate function 0 */
 191:Drivers/STM32G4xx_HAL_Driver/Inc/stm32g4xx_ll_gpio.h **** #define LL_GPIO_AF_1                       (0x0000001U) /*!< Select alternate function 1 */
 192:Drivers/STM32G4xx_HAL_Driver/Inc/stm32g4xx_ll_gpio.h **** #define LL_GPIO_AF_2                       (0x0000002U) /*!< Select alternate function 2 */
 193:Drivers/STM32G4xx_HAL_Driver/Inc/stm32g4xx_ll_gpio.h **** #define LL_GPIO_AF_3                       (0x0000003U) /*!< Select alternate function 3 */
 194:Drivers/STM32G4xx_HAL_Driver/Inc/stm32g4xx_ll_gpio.h **** #define LL_GPIO_AF_4                       (0x0000004U) /*!< Select alternate function 4 */
 195:Drivers/STM32G4xx_HAL_Driver/Inc/stm32g4xx_ll_gpio.h **** #define LL_GPIO_AF_5                       (0x0000005U) /*!< Select alternate function 5 */
 196:Drivers/STM32G4xx_HAL_Driver/Inc/stm32g4xx_ll_gpio.h **** #define LL_GPIO_AF_6                       (0x0000006U) /*!< Select alternate function 6 */
 197:Drivers/STM32G4xx_HAL_Driver/Inc/stm32g4xx_ll_gpio.h **** #define LL_GPIO_AF_7                       (0x0000007U) /*!< Select alternate function 7 */
 198:Drivers/STM32G4xx_HAL_Driver/Inc/stm32g4xx_ll_gpio.h **** #define LL_GPIO_AF_8                       (0x0000008U) /*!< Select alternate function 8 */
 199:Drivers/STM32G4xx_HAL_Driver/Inc/stm32g4xx_ll_gpio.h **** #define LL_GPIO_AF_9                       (0x0000009U) /*!< Select alternate function 9 */
 200:Drivers/STM32G4xx_HAL_Driver/Inc/stm32g4xx_ll_gpio.h **** #define LL_GPIO_AF_10                      (0x000000AU) /*!< Select alternate function 10 */
 201:Drivers/STM32G4xx_HAL_Driver/Inc/stm32g4xx_ll_gpio.h **** #define LL_GPIO_AF_11                      (0x000000BU) /*!< Select alternate function 11 */
 202:Drivers/STM32G4xx_HAL_Driver/Inc/stm32g4xx_ll_gpio.h **** #define LL_GPIO_AF_12                      (0x000000CU) /*!< Select alternate function 12 */
 203:Drivers/STM32G4xx_HAL_Driver/Inc/stm32g4xx_ll_gpio.h **** #define LL_GPIO_AF_13                      (0x000000DU) /*!< Select alternate function 13 */
 204:Drivers/STM32G4xx_HAL_Driver/Inc/stm32g4xx_ll_gpio.h **** #define LL_GPIO_AF_14                      (0x000000EU) /*!< Select alternate function 14 */
 205:Drivers/STM32G4xx_HAL_Driver/Inc/stm32g4xx_ll_gpio.h **** #define LL_GPIO_AF_15                      (0x000000FU) /*!< Select alternate function 15 */
 206:Drivers/STM32G4xx_HAL_Driver/Inc/stm32g4xx_ll_gpio.h **** /**
 207:Drivers/STM32G4xx_HAL_Driver/Inc/stm32g4xx_ll_gpio.h ****   * @}
 208:Drivers/STM32G4xx_HAL_Driver/Inc/stm32g4xx_ll_gpio.h ****   */
 209:Drivers/STM32G4xx_HAL_Driver/Inc/stm32g4xx_ll_gpio.h **** 
 210:Drivers/STM32G4xx_HAL_Driver/Inc/stm32g4xx_ll_gpio.h **** /**
 211:Drivers/STM32G4xx_HAL_Driver/Inc/stm32g4xx_ll_gpio.h ****   * @}
 212:Drivers/STM32G4xx_HAL_Driver/Inc/stm32g4xx_ll_gpio.h ****   */
 213:Drivers/STM32G4xx_HAL_Driver/Inc/stm32g4xx_ll_gpio.h **** 
 214:Drivers/STM32G4xx_HAL_Driver/Inc/stm32g4xx_ll_gpio.h **** /* Exported macro ------------------------------------------------------------*/
 215:Drivers/STM32G4xx_HAL_Driver/Inc/stm32g4xx_ll_gpio.h **** /** @defgroup GPIO_LL_Exported_Macros GPIO Exported Macros
 216:Drivers/STM32G4xx_HAL_Driver/Inc/stm32g4xx_ll_gpio.h ****   * @{
 217:Drivers/STM32G4xx_HAL_Driver/Inc/stm32g4xx_ll_gpio.h ****   */
 218:Drivers/STM32G4xx_HAL_Driver/Inc/stm32g4xx_ll_gpio.h **** 
 219:Drivers/STM32G4xx_HAL_Driver/Inc/stm32g4xx_ll_gpio.h **** /** @defgroup GPIO_LL_EM_WRITE_READ Common Write and read registers Macros
 220:Drivers/STM32G4xx_HAL_Driver/Inc/stm32g4xx_ll_gpio.h ****   * @{
 221:Drivers/STM32G4xx_HAL_Driver/Inc/stm32g4xx_ll_gpio.h ****   */
 222:Drivers/STM32G4xx_HAL_Driver/Inc/stm32g4xx_ll_gpio.h **** 
 223:Drivers/STM32G4xx_HAL_Driver/Inc/stm32g4xx_ll_gpio.h **** /**
 224:Drivers/STM32G4xx_HAL_Driver/Inc/stm32g4xx_ll_gpio.h ****   * @brief  Write a value in GPIO register
 225:Drivers/STM32G4xx_HAL_Driver/Inc/stm32g4xx_ll_gpio.h ****   * @param  __INSTANCE__ GPIO Instance
 226:Drivers/STM32G4xx_HAL_Driver/Inc/stm32g4xx_ll_gpio.h ****   * @param  __REG__ Register to be written
 227:Drivers/STM32G4xx_HAL_Driver/Inc/stm32g4xx_ll_gpio.h ****   * @param  __VALUE__ Value to be written in the register
 228:Drivers/STM32G4xx_HAL_Driver/Inc/stm32g4xx_ll_gpio.h ****   * @retval None
 229:Drivers/STM32G4xx_HAL_Driver/Inc/stm32g4xx_ll_gpio.h ****   */
 230:Drivers/STM32G4xx_HAL_Driver/Inc/stm32g4xx_ll_gpio.h **** #define LL_GPIO_WriteReg(__INSTANCE__, __REG__, __VALUE__) WRITE_REG(__INSTANCE__->__REG__, (__VALU
 231:Drivers/STM32G4xx_HAL_Driver/Inc/stm32g4xx_ll_gpio.h **** 
 232:Drivers/STM32G4xx_HAL_Driver/Inc/stm32g4xx_ll_gpio.h **** /**
 233:Drivers/STM32G4xx_HAL_Driver/Inc/stm32g4xx_ll_gpio.h ****   * @brief  Read a value in GPIO register
 234:Drivers/STM32G4xx_HAL_Driver/Inc/stm32g4xx_ll_gpio.h ****   * @param  __INSTANCE__ GPIO Instance
 235:Drivers/STM32G4xx_HAL_Driver/Inc/stm32g4xx_ll_gpio.h ****   * @param  __REG__ Register to be read
 236:Drivers/STM32G4xx_HAL_Driver/Inc/stm32g4xx_ll_gpio.h ****   * @retval Register value
 237:Drivers/STM32G4xx_HAL_Driver/Inc/stm32g4xx_ll_gpio.h ****   */
ARM GAS  D:\apps\VSCode\data\tmp\cc1Dl4Ov.s 			page 25


 238:Drivers/STM32G4xx_HAL_Driver/Inc/stm32g4xx_ll_gpio.h **** #define LL_GPIO_ReadReg(__INSTANCE__, __REG__) READ_REG(__INSTANCE__->__REG__)
 239:Drivers/STM32G4xx_HAL_Driver/Inc/stm32g4xx_ll_gpio.h **** /**
 240:Drivers/STM32G4xx_HAL_Driver/Inc/stm32g4xx_ll_gpio.h ****   * @}
 241:Drivers/STM32G4xx_HAL_Driver/Inc/stm32g4xx_ll_gpio.h ****   */
 242:Drivers/STM32G4xx_HAL_Driver/Inc/stm32g4xx_ll_gpio.h **** 
 243:Drivers/STM32G4xx_HAL_Driver/Inc/stm32g4xx_ll_gpio.h **** /**
 244:Drivers/STM32G4xx_HAL_Driver/Inc/stm32g4xx_ll_gpio.h ****   * @}
 245:Drivers/STM32G4xx_HAL_Driver/Inc/stm32g4xx_ll_gpio.h ****   */
 246:Drivers/STM32G4xx_HAL_Driver/Inc/stm32g4xx_ll_gpio.h **** 
 247:Drivers/STM32G4xx_HAL_Driver/Inc/stm32g4xx_ll_gpio.h **** /* Exported functions --------------------------------------------------------*/
 248:Drivers/STM32G4xx_HAL_Driver/Inc/stm32g4xx_ll_gpio.h **** /** @defgroup GPIO_LL_Exported_Functions GPIO Exported Functions
 249:Drivers/STM32G4xx_HAL_Driver/Inc/stm32g4xx_ll_gpio.h ****   * @{
 250:Drivers/STM32G4xx_HAL_Driver/Inc/stm32g4xx_ll_gpio.h ****   */
 251:Drivers/STM32G4xx_HAL_Driver/Inc/stm32g4xx_ll_gpio.h **** 
 252:Drivers/STM32G4xx_HAL_Driver/Inc/stm32g4xx_ll_gpio.h **** /** @defgroup GPIO_LL_EF_Port_Configuration Port Configuration
 253:Drivers/STM32G4xx_HAL_Driver/Inc/stm32g4xx_ll_gpio.h ****   * @{
 254:Drivers/STM32G4xx_HAL_Driver/Inc/stm32g4xx_ll_gpio.h ****   */
 255:Drivers/STM32G4xx_HAL_Driver/Inc/stm32g4xx_ll_gpio.h **** 
 256:Drivers/STM32G4xx_HAL_Driver/Inc/stm32g4xx_ll_gpio.h **** /**
 257:Drivers/STM32G4xx_HAL_Driver/Inc/stm32g4xx_ll_gpio.h ****   * @brief  Configure gpio mode for a dedicated pin on dedicated port.
 258:Drivers/STM32G4xx_HAL_Driver/Inc/stm32g4xx_ll_gpio.h ****   * @note   I/O mode can be Input mode, General purpose output, Alternate function mode or Analog.
 259:Drivers/STM32G4xx_HAL_Driver/Inc/stm32g4xx_ll_gpio.h ****   * @note   Warning: only one pin can be passed as parameter.
 260:Drivers/STM32G4xx_HAL_Driver/Inc/stm32g4xx_ll_gpio.h ****   * @rmtoll MODER        MODEy         LL_GPIO_SetPinMode
 261:Drivers/STM32G4xx_HAL_Driver/Inc/stm32g4xx_ll_gpio.h ****   * @param  GPIOx GPIO Port
 262:Drivers/STM32G4xx_HAL_Driver/Inc/stm32g4xx_ll_gpio.h ****   * @param  Pin This parameter can be one of the following values:
 263:Drivers/STM32G4xx_HAL_Driver/Inc/stm32g4xx_ll_gpio.h ****   *         @arg @ref LL_GPIO_PIN_0
 264:Drivers/STM32G4xx_HAL_Driver/Inc/stm32g4xx_ll_gpio.h ****   *         @arg @ref LL_GPIO_PIN_1
 265:Drivers/STM32G4xx_HAL_Driver/Inc/stm32g4xx_ll_gpio.h ****   *         @arg @ref LL_GPIO_PIN_2
 266:Drivers/STM32G4xx_HAL_Driver/Inc/stm32g4xx_ll_gpio.h ****   *         @arg @ref LL_GPIO_PIN_3
 267:Drivers/STM32G4xx_HAL_Driver/Inc/stm32g4xx_ll_gpio.h ****   *         @arg @ref LL_GPIO_PIN_4
 268:Drivers/STM32G4xx_HAL_Driver/Inc/stm32g4xx_ll_gpio.h ****   *         @arg @ref LL_GPIO_PIN_5
 269:Drivers/STM32G4xx_HAL_Driver/Inc/stm32g4xx_ll_gpio.h ****   *         @arg @ref LL_GPIO_PIN_6
 270:Drivers/STM32G4xx_HAL_Driver/Inc/stm32g4xx_ll_gpio.h ****   *         @arg @ref LL_GPIO_PIN_7
 271:Drivers/STM32G4xx_HAL_Driver/Inc/stm32g4xx_ll_gpio.h ****   *         @arg @ref LL_GPIO_PIN_8
 272:Drivers/STM32G4xx_HAL_Driver/Inc/stm32g4xx_ll_gpio.h ****   *         @arg @ref LL_GPIO_PIN_9
 273:Drivers/STM32G4xx_HAL_Driver/Inc/stm32g4xx_ll_gpio.h ****   *         @arg @ref LL_GPIO_PIN_10
 274:Drivers/STM32G4xx_HAL_Driver/Inc/stm32g4xx_ll_gpio.h ****   *         @arg @ref LL_GPIO_PIN_11
 275:Drivers/STM32G4xx_HAL_Driver/Inc/stm32g4xx_ll_gpio.h ****   *         @arg @ref LL_GPIO_PIN_12
 276:Drivers/STM32G4xx_HAL_Driver/Inc/stm32g4xx_ll_gpio.h ****   *         @arg @ref LL_GPIO_PIN_13
 277:Drivers/STM32G4xx_HAL_Driver/Inc/stm32g4xx_ll_gpio.h ****   *         @arg @ref LL_GPIO_PIN_14
 278:Drivers/STM32G4xx_HAL_Driver/Inc/stm32g4xx_ll_gpio.h ****   *         @arg @ref LL_GPIO_PIN_15
 279:Drivers/STM32G4xx_HAL_Driver/Inc/stm32g4xx_ll_gpio.h ****   * @param  Mode This parameter can be one of the following values:
 280:Drivers/STM32G4xx_HAL_Driver/Inc/stm32g4xx_ll_gpio.h ****   *         @arg @ref LL_GPIO_MODE_INPUT
 281:Drivers/STM32G4xx_HAL_Driver/Inc/stm32g4xx_ll_gpio.h ****   *         @arg @ref LL_GPIO_MODE_OUTPUT
 282:Drivers/STM32G4xx_HAL_Driver/Inc/stm32g4xx_ll_gpio.h ****   *         @arg @ref LL_GPIO_MODE_ALTERNATE
 283:Drivers/STM32G4xx_HAL_Driver/Inc/stm32g4xx_ll_gpio.h ****   *         @arg @ref LL_GPIO_MODE_ANALOG
 284:Drivers/STM32G4xx_HAL_Driver/Inc/stm32g4xx_ll_gpio.h ****   * @retval None
 285:Drivers/STM32G4xx_HAL_Driver/Inc/stm32g4xx_ll_gpio.h ****   */
 286:Drivers/STM32G4xx_HAL_Driver/Inc/stm32g4xx_ll_gpio.h **** __STATIC_INLINE void LL_GPIO_SetPinMode(GPIO_TypeDef *GPIOx, uint32_t Pin, uint32_t Mode)
 287:Drivers/STM32G4xx_HAL_Driver/Inc/stm32g4xx_ll_gpio.h **** {
 288:Drivers/STM32G4xx_HAL_Driver/Inc/stm32g4xx_ll_gpio.h ****   MODIFY_REG(GPIOx->MODER, (GPIO_MODER_MODE0 << (POSITION_VAL(Pin) * 2U)), (Mode << (POSITION_VAL(P
 289:Drivers/STM32G4xx_HAL_Driver/Inc/stm32g4xx_ll_gpio.h **** }
 290:Drivers/STM32G4xx_HAL_Driver/Inc/stm32g4xx_ll_gpio.h **** 
 291:Drivers/STM32G4xx_HAL_Driver/Inc/stm32g4xx_ll_gpio.h **** /**
 292:Drivers/STM32G4xx_HAL_Driver/Inc/stm32g4xx_ll_gpio.h ****   * @brief  Return gpio mode for a dedicated pin on dedicated port.
 293:Drivers/STM32G4xx_HAL_Driver/Inc/stm32g4xx_ll_gpio.h ****   * @note   I/O mode can be Input mode, General purpose output, Alternate function mode or Analog.
 294:Drivers/STM32G4xx_HAL_Driver/Inc/stm32g4xx_ll_gpio.h ****   * @note   Warning: only one pin can be passed as parameter.
ARM GAS  D:\apps\VSCode\data\tmp\cc1Dl4Ov.s 			page 26


 295:Drivers/STM32G4xx_HAL_Driver/Inc/stm32g4xx_ll_gpio.h ****   * @rmtoll MODER        MODEy         LL_GPIO_GetPinMode
 296:Drivers/STM32G4xx_HAL_Driver/Inc/stm32g4xx_ll_gpio.h ****   * @param  GPIOx GPIO Port
 297:Drivers/STM32G4xx_HAL_Driver/Inc/stm32g4xx_ll_gpio.h ****   * @param  Pin This parameter can be one of the following values:
 298:Drivers/STM32G4xx_HAL_Driver/Inc/stm32g4xx_ll_gpio.h ****   *         @arg @ref LL_GPIO_PIN_0
 299:Drivers/STM32G4xx_HAL_Driver/Inc/stm32g4xx_ll_gpio.h ****   *         @arg @ref LL_GPIO_PIN_1
 300:Drivers/STM32G4xx_HAL_Driver/Inc/stm32g4xx_ll_gpio.h ****   *         @arg @ref LL_GPIO_PIN_2
 301:Drivers/STM32G4xx_HAL_Driver/Inc/stm32g4xx_ll_gpio.h ****   *         @arg @ref LL_GPIO_PIN_3
 302:Drivers/STM32G4xx_HAL_Driver/Inc/stm32g4xx_ll_gpio.h ****   *         @arg @ref LL_GPIO_PIN_4
 303:Drivers/STM32G4xx_HAL_Driver/Inc/stm32g4xx_ll_gpio.h ****   *         @arg @ref LL_GPIO_PIN_5
 304:Drivers/STM32G4xx_HAL_Driver/Inc/stm32g4xx_ll_gpio.h ****   *         @arg @ref LL_GPIO_PIN_6
 305:Drivers/STM32G4xx_HAL_Driver/Inc/stm32g4xx_ll_gpio.h ****   *         @arg @ref LL_GPIO_PIN_7
 306:Drivers/STM32G4xx_HAL_Driver/Inc/stm32g4xx_ll_gpio.h ****   *         @arg @ref LL_GPIO_PIN_8
 307:Drivers/STM32G4xx_HAL_Driver/Inc/stm32g4xx_ll_gpio.h ****   *         @arg @ref LL_GPIO_PIN_9
 308:Drivers/STM32G4xx_HAL_Driver/Inc/stm32g4xx_ll_gpio.h ****   *         @arg @ref LL_GPIO_PIN_10
 309:Drivers/STM32G4xx_HAL_Driver/Inc/stm32g4xx_ll_gpio.h ****   *         @arg @ref LL_GPIO_PIN_11
 310:Drivers/STM32G4xx_HAL_Driver/Inc/stm32g4xx_ll_gpio.h ****   *         @arg @ref LL_GPIO_PIN_12
 311:Drivers/STM32G4xx_HAL_Driver/Inc/stm32g4xx_ll_gpio.h ****   *         @arg @ref LL_GPIO_PIN_13
 312:Drivers/STM32G4xx_HAL_Driver/Inc/stm32g4xx_ll_gpio.h ****   *         @arg @ref LL_GPIO_PIN_14
 313:Drivers/STM32G4xx_HAL_Driver/Inc/stm32g4xx_ll_gpio.h ****   *         @arg @ref LL_GPIO_PIN_15
 314:Drivers/STM32G4xx_HAL_Driver/Inc/stm32g4xx_ll_gpio.h ****   * @retval Returned value can be one of the following values:
 315:Drivers/STM32G4xx_HAL_Driver/Inc/stm32g4xx_ll_gpio.h ****   *         @arg @ref LL_GPIO_MODE_INPUT
 316:Drivers/STM32G4xx_HAL_Driver/Inc/stm32g4xx_ll_gpio.h ****   *         @arg @ref LL_GPIO_MODE_OUTPUT
 317:Drivers/STM32G4xx_HAL_Driver/Inc/stm32g4xx_ll_gpio.h ****   *         @arg @ref LL_GPIO_MODE_ALTERNATE
 318:Drivers/STM32G4xx_HAL_Driver/Inc/stm32g4xx_ll_gpio.h ****   *         @arg @ref LL_GPIO_MODE_ANALOG
 319:Drivers/STM32G4xx_HAL_Driver/Inc/stm32g4xx_ll_gpio.h ****   */
 320:Drivers/STM32G4xx_HAL_Driver/Inc/stm32g4xx_ll_gpio.h **** __STATIC_INLINE uint32_t LL_GPIO_GetPinMode(GPIO_TypeDef *GPIOx, uint32_t Pin)
 321:Drivers/STM32G4xx_HAL_Driver/Inc/stm32g4xx_ll_gpio.h **** {
 322:Drivers/STM32G4xx_HAL_Driver/Inc/stm32g4xx_ll_gpio.h ****   return (uint32_t)(READ_BIT(GPIOx->MODER,
 323:Drivers/STM32G4xx_HAL_Driver/Inc/stm32g4xx_ll_gpio.h ****                              (GPIO_MODER_MODE0 << (POSITION_VAL(Pin) * 2U))) >> (POSITION_VAL(Pin) 
 324:Drivers/STM32G4xx_HAL_Driver/Inc/stm32g4xx_ll_gpio.h **** }
 325:Drivers/STM32G4xx_HAL_Driver/Inc/stm32g4xx_ll_gpio.h **** 
 326:Drivers/STM32G4xx_HAL_Driver/Inc/stm32g4xx_ll_gpio.h **** /**
 327:Drivers/STM32G4xx_HAL_Driver/Inc/stm32g4xx_ll_gpio.h ****   * @brief  Configure gpio output type for several pins on dedicated port.
 328:Drivers/STM32G4xx_HAL_Driver/Inc/stm32g4xx_ll_gpio.h ****   * @note   Output type as to be set when gpio pin is in output or
 329:Drivers/STM32G4xx_HAL_Driver/Inc/stm32g4xx_ll_gpio.h ****   *         alternate modes. Possible type are Push-pull or Open-drain.
 330:Drivers/STM32G4xx_HAL_Driver/Inc/stm32g4xx_ll_gpio.h ****   * @rmtoll OTYPER       OTy           LL_GPIO_SetPinOutputType
 331:Drivers/STM32G4xx_HAL_Driver/Inc/stm32g4xx_ll_gpio.h ****   * @param  GPIOx GPIO Port
 332:Drivers/STM32G4xx_HAL_Driver/Inc/stm32g4xx_ll_gpio.h ****   * @param  PinMask This parameter can be a combination of the following values:
 333:Drivers/STM32G4xx_HAL_Driver/Inc/stm32g4xx_ll_gpio.h ****   *         @arg @ref LL_GPIO_PIN_0
 334:Drivers/STM32G4xx_HAL_Driver/Inc/stm32g4xx_ll_gpio.h ****   *         @arg @ref LL_GPIO_PIN_1
 335:Drivers/STM32G4xx_HAL_Driver/Inc/stm32g4xx_ll_gpio.h ****   *         @arg @ref LL_GPIO_PIN_2
 336:Drivers/STM32G4xx_HAL_Driver/Inc/stm32g4xx_ll_gpio.h ****   *         @arg @ref LL_GPIO_PIN_3
 337:Drivers/STM32G4xx_HAL_Driver/Inc/stm32g4xx_ll_gpio.h ****   *         @arg @ref LL_GPIO_PIN_4
 338:Drivers/STM32G4xx_HAL_Driver/Inc/stm32g4xx_ll_gpio.h ****   *         @arg @ref LL_GPIO_PIN_5
 339:Drivers/STM32G4xx_HAL_Driver/Inc/stm32g4xx_ll_gpio.h ****   *         @arg @ref LL_GPIO_PIN_6
 340:Drivers/STM32G4xx_HAL_Driver/Inc/stm32g4xx_ll_gpio.h ****   *         @arg @ref LL_GPIO_PIN_7
 341:Drivers/STM32G4xx_HAL_Driver/Inc/stm32g4xx_ll_gpio.h ****   *         @arg @ref LL_GPIO_PIN_8
 342:Drivers/STM32G4xx_HAL_Driver/Inc/stm32g4xx_ll_gpio.h ****   *         @arg @ref LL_GPIO_PIN_9
 343:Drivers/STM32G4xx_HAL_Driver/Inc/stm32g4xx_ll_gpio.h ****   *         @arg @ref LL_GPIO_PIN_10
 344:Drivers/STM32G4xx_HAL_Driver/Inc/stm32g4xx_ll_gpio.h ****   *         @arg @ref LL_GPIO_PIN_11
 345:Drivers/STM32G4xx_HAL_Driver/Inc/stm32g4xx_ll_gpio.h ****   *         @arg @ref LL_GPIO_PIN_12
 346:Drivers/STM32G4xx_HAL_Driver/Inc/stm32g4xx_ll_gpio.h ****   *         @arg @ref LL_GPIO_PIN_13
 347:Drivers/STM32G4xx_HAL_Driver/Inc/stm32g4xx_ll_gpio.h ****   *         @arg @ref LL_GPIO_PIN_14
 348:Drivers/STM32G4xx_HAL_Driver/Inc/stm32g4xx_ll_gpio.h ****   *         @arg @ref LL_GPIO_PIN_15
 349:Drivers/STM32G4xx_HAL_Driver/Inc/stm32g4xx_ll_gpio.h ****   *         @arg @ref LL_GPIO_PIN_ALL
 350:Drivers/STM32G4xx_HAL_Driver/Inc/stm32g4xx_ll_gpio.h ****   * @param  OutputType This parameter can be one of the following values:
 351:Drivers/STM32G4xx_HAL_Driver/Inc/stm32g4xx_ll_gpio.h ****   *         @arg @ref LL_GPIO_OUTPUT_PUSHPULL
ARM GAS  D:\apps\VSCode\data\tmp\cc1Dl4Ov.s 			page 27


 352:Drivers/STM32G4xx_HAL_Driver/Inc/stm32g4xx_ll_gpio.h ****   *         @arg @ref LL_GPIO_OUTPUT_OPENDRAIN
 353:Drivers/STM32G4xx_HAL_Driver/Inc/stm32g4xx_ll_gpio.h ****   * @retval None
 354:Drivers/STM32G4xx_HAL_Driver/Inc/stm32g4xx_ll_gpio.h ****   */
 355:Drivers/STM32G4xx_HAL_Driver/Inc/stm32g4xx_ll_gpio.h **** __STATIC_INLINE void LL_GPIO_SetPinOutputType(GPIO_TypeDef *GPIOx, uint32_t PinMask, uint32_t Outpu
 356:Drivers/STM32G4xx_HAL_Driver/Inc/stm32g4xx_ll_gpio.h **** {
 357:Drivers/STM32G4xx_HAL_Driver/Inc/stm32g4xx_ll_gpio.h ****   MODIFY_REG(GPIOx->OTYPER, PinMask, (PinMask * OutputType));
 358:Drivers/STM32G4xx_HAL_Driver/Inc/stm32g4xx_ll_gpio.h **** }
 359:Drivers/STM32G4xx_HAL_Driver/Inc/stm32g4xx_ll_gpio.h **** 
 360:Drivers/STM32G4xx_HAL_Driver/Inc/stm32g4xx_ll_gpio.h **** /**
 361:Drivers/STM32G4xx_HAL_Driver/Inc/stm32g4xx_ll_gpio.h ****   * @brief  Return gpio output type for several pins on dedicated port.
 362:Drivers/STM32G4xx_HAL_Driver/Inc/stm32g4xx_ll_gpio.h ****   * @note   Output type as to be set when gpio pin is in output or
 363:Drivers/STM32G4xx_HAL_Driver/Inc/stm32g4xx_ll_gpio.h ****   *         alternate modes. Possible type are Push-pull or Open-drain.
 364:Drivers/STM32G4xx_HAL_Driver/Inc/stm32g4xx_ll_gpio.h ****   * @note   Warning: only one pin can be passed as parameter.
 365:Drivers/STM32G4xx_HAL_Driver/Inc/stm32g4xx_ll_gpio.h ****   * @rmtoll OTYPER       OTy           LL_GPIO_GetPinOutputType
 366:Drivers/STM32G4xx_HAL_Driver/Inc/stm32g4xx_ll_gpio.h ****   * @param  GPIOx GPIO Port
 367:Drivers/STM32G4xx_HAL_Driver/Inc/stm32g4xx_ll_gpio.h ****   * @param  Pin This parameter can be one of the following values:
 368:Drivers/STM32G4xx_HAL_Driver/Inc/stm32g4xx_ll_gpio.h ****   *         @arg @ref LL_GPIO_PIN_0
 369:Drivers/STM32G4xx_HAL_Driver/Inc/stm32g4xx_ll_gpio.h ****   *         @arg @ref LL_GPIO_PIN_1
 370:Drivers/STM32G4xx_HAL_Driver/Inc/stm32g4xx_ll_gpio.h ****   *         @arg @ref LL_GPIO_PIN_2
 371:Drivers/STM32G4xx_HAL_Driver/Inc/stm32g4xx_ll_gpio.h ****   *         @arg @ref LL_GPIO_PIN_3
 372:Drivers/STM32G4xx_HAL_Driver/Inc/stm32g4xx_ll_gpio.h ****   *         @arg @ref LL_GPIO_PIN_4
 373:Drivers/STM32G4xx_HAL_Driver/Inc/stm32g4xx_ll_gpio.h ****   *         @arg @ref LL_GPIO_PIN_5
 374:Drivers/STM32G4xx_HAL_Driver/Inc/stm32g4xx_ll_gpio.h ****   *         @arg @ref LL_GPIO_PIN_6
 375:Drivers/STM32G4xx_HAL_Driver/Inc/stm32g4xx_ll_gpio.h ****   *         @arg @ref LL_GPIO_PIN_7
 376:Drivers/STM32G4xx_HAL_Driver/Inc/stm32g4xx_ll_gpio.h ****   *         @arg @ref LL_GPIO_PIN_8
 377:Drivers/STM32G4xx_HAL_Driver/Inc/stm32g4xx_ll_gpio.h ****   *         @arg @ref LL_GPIO_PIN_9
 378:Drivers/STM32G4xx_HAL_Driver/Inc/stm32g4xx_ll_gpio.h ****   *         @arg @ref LL_GPIO_PIN_10
 379:Drivers/STM32G4xx_HAL_Driver/Inc/stm32g4xx_ll_gpio.h ****   *         @arg @ref LL_GPIO_PIN_11
 380:Drivers/STM32G4xx_HAL_Driver/Inc/stm32g4xx_ll_gpio.h ****   *         @arg @ref LL_GPIO_PIN_12
 381:Drivers/STM32G4xx_HAL_Driver/Inc/stm32g4xx_ll_gpio.h ****   *         @arg @ref LL_GPIO_PIN_13
 382:Drivers/STM32G4xx_HAL_Driver/Inc/stm32g4xx_ll_gpio.h ****   *         @arg @ref LL_GPIO_PIN_14
 383:Drivers/STM32G4xx_HAL_Driver/Inc/stm32g4xx_ll_gpio.h ****   *         @arg @ref LL_GPIO_PIN_15
 384:Drivers/STM32G4xx_HAL_Driver/Inc/stm32g4xx_ll_gpio.h ****   *         @arg @ref LL_GPIO_PIN_ALL
 385:Drivers/STM32G4xx_HAL_Driver/Inc/stm32g4xx_ll_gpio.h ****   * @retval Returned value can be one of the following values:
 386:Drivers/STM32G4xx_HAL_Driver/Inc/stm32g4xx_ll_gpio.h ****   *         @arg @ref LL_GPIO_OUTPUT_PUSHPULL
 387:Drivers/STM32G4xx_HAL_Driver/Inc/stm32g4xx_ll_gpio.h ****   *         @arg @ref LL_GPIO_OUTPUT_OPENDRAIN
 388:Drivers/STM32G4xx_HAL_Driver/Inc/stm32g4xx_ll_gpio.h ****   */
 389:Drivers/STM32G4xx_HAL_Driver/Inc/stm32g4xx_ll_gpio.h **** __STATIC_INLINE uint32_t LL_GPIO_GetPinOutputType(GPIO_TypeDef *GPIOx, uint32_t Pin)
 390:Drivers/STM32G4xx_HAL_Driver/Inc/stm32g4xx_ll_gpio.h **** {
 391:Drivers/STM32G4xx_HAL_Driver/Inc/stm32g4xx_ll_gpio.h ****   return (uint32_t)(READ_BIT(GPIOx->OTYPER, Pin) >> POSITION_VAL(Pin));
 392:Drivers/STM32G4xx_HAL_Driver/Inc/stm32g4xx_ll_gpio.h **** }
 393:Drivers/STM32G4xx_HAL_Driver/Inc/stm32g4xx_ll_gpio.h **** 
 394:Drivers/STM32G4xx_HAL_Driver/Inc/stm32g4xx_ll_gpio.h **** /**
 395:Drivers/STM32G4xx_HAL_Driver/Inc/stm32g4xx_ll_gpio.h ****   * @brief  Configure gpio speed for a dedicated pin on dedicated port.
 396:Drivers/STM32G4xx_HAL_Driver/Inc/stm32g4xx_ll_gpio.h ****   * @note   I/O speed can be Low, Medium, Fast or High speed.
 397:Drivers/STM32G4xx_HAL_Driver/Inc/stm32g4xx_ll_gpio.h ****   * @note   Warning: only one pin can be passed as parameter.
 398:Drivers/STM32G4xx_HAL_Driver/Inc/stm32g4xx_ll_gpio.h ****   * @note   Refer to datasheet for frequency specifications and the power
 399:Drivers/STM32G4xx_HAL_Driver/Inc/stm32g4xx_ll_gpio.h ****   *         supply and load conditions for each speed.
 400:Drivers/STM32G4xx_HAL_Driver/Inc/stm32g4xx_ll_gpio.h ****   * @rmtoll OSPEEDR      OSPEEDy       LL_GPIO_SetPinSpeed
 401:Drivers/STM32G4xx_HAL_Driver/Inc/stm32g4xx_ll_gpio.h ****   * @param  GPIOx GPIO Port
 402:Drivers/STM32G4xx_HAL_Driver/Inc/stm32g4xx_ll_gpio.h ****   * @param  Pin This parameter can be one of the following values:
 403:Drivers/STM32G4xx_HAL_Driver/Inc/stm32g4xx_ll_gpio.h ****   *         @arg @ref LL_GPIO_PIN_0
 404:Drivers/STM32G4xx_HAL_Driver/Inc/stm32g4xx_ll_gpio.h ****   *         @arg @ref LL_GPIO_PIN_1
 405:Drivers/STM32G4xx_HAL_Driver/Inc/stm32g4xx_ll_gpio.h ****   *         @arg @ref LL_GPIO_PIN_2
 406:Drivers/STM32G4xx_HAL_Driver/Inc/stm32g4xx_ll_gpio.h ****   *         @arg @ref LL_GPIO_PIN_3
 407:Drivers/STM32G4xx_HAL_Driver/Inc/stm32g4xx_ll_gpio.h ****   *         @arg @ref LL_GPIO_PIN_4
 408:Drivers/STM32G4xx_HAL_Driver/Inc/stm32g4xx_ll_gpio.h ****   *         @arg @ref LL_GPIO_PIN_5
ARM GAS  D:\apps\VSCode\data\tmp\cc1Dl4Ov.s 			page 28


 409:Drivers/STM32G4xx_HAL_Driver/Inc/stm32g4xx_ll_gpio.h ****   *         @arg @ref LL_GPIO_PIN_6
 410:Drivers/STM32G4xx_HAL_Driver/Inc/stm32g4xx_ll_gpio.h ****   *         @arg @ref LL_GPIO_PIN_7
 411:Drivers/STM32G4xx_HAL_Driver/Inc/stm32g4xx_ll_gpio.h ****   *         @arg @ref LL_GPIO_PIN_8
 412:Drivers/STM32G4xx_HAL_Driver/Inc/stm32g4xx_ll_gpio.h ****   *         @arg @ref LL_GPIO_PIN_9
 413:Drivers/STM32G4xx_HAL_Driver/Inc/stm32g4xx_ll_gpio.h ****   *         @arg @ref LL_GPIO_PIN_10
 414:Drivers/STM32G4xx_HAL_Driver/Inc/stm32g4xx_ll_gpio.h ****   *         @arg @ref LL_GPIO_PIN_11
 415:Drivers/STM32G4xx_HAL_Driver/Inc/stm32g4xx_ll_gpio.h ****   *         @arg @ref LL_GPIO_PIN_12
 416:Drivers/STM32G4xx_HAL_Driver/Inc/stm32g4xx_ll_gpio.h ****   *         @arg @ref LL_GPIO_PIN_13
 417:Drivers/STM32G4xx_HAL_Driver/Inc/stm32g4xx_ll_gpio.h ****   *         @arg @ref LL_GPIO_PIN_14
 418:Drivers/STM32G4xx_HAL_Driver/Inc/stm32g4xx_ll_gpio.h ****   *         @arg @ref LL_GPIO_PIN_15
 419:Drivers/STM32G4xx_HAL_Driver/Inc/stm32g4xx_ll_gpio.h ****   * @param  Speed This parameter can be one of the following values:
 420:Drivers/STM32G4xx_HAL_Driver/Inc/stm32g4xx_ll_gpio.h ****   *         @arg @ref LL_GPIO_SPEED_FREQ_LOW
 421:Drivers/STM32G4xx_HAL_Driver/Inc/stm32g4xx_ll_gpio.h ****   *         @arg @ref LL_GPIO_SPEED_FREQ_MEDIUM
 422:Drivers/STM32G4xx_HAL_Driver/Inc/stm32g4xx_ll_gpio.h ****   *         @arg @ref LL_GPIO_SPEED_FREQ_HIGH
 423:Drivers/STM32G4xx_HAL_Driver/Inc/stm32g4xx_ll_gpio.h ****   *         @arg @ref LL_GPIO_SPEED_FREQ_VERY_HIGH
 424:Drivers/STM32G4xx_HAL_Driver/Inc/stm32g4xx_ll_gpio.h ****   * @retval None
 425:Drivers/STM32G4xx_HAL_Driver/Inc/stm32g4xx_ll_gpio.h ****   */
 426:Drivers/STM32G4xx_HAL_Driver/Inc/stm32g4xx_ll_gpio.h **** __STATIC_INLINE void LL_GPIO_SetPinSpeed(GPIO_TypeDef *GPIOx, uint32_t Pin, uint32_t  Speed)
 427:Drivers/STM32G4xx_HAL_Driver/Inc/stm32g4xx_ll_gpio.h **** {
 428:Drivers/STM32G4xx_HAL_Driver/Inc/stm32g4xx_ll_gpio.h ****   MODIFY_REG(GPIOx->OSPEEDR, (GPIO_OSPEEDR_OSPEED0 << (POSITION_VAL(Pin) * 2U)),
 429:Drivers/STM32G4xx_HAL_Driver/Inc/stm32g4xx_ll_gpio.h ****              (Speed << (POSITION_VAL(Pin) * 2U)));
 430:Drivers/STM32G4xx_HAL_Driver/Inc/stm32g4xx_ll_gpio.h **** }
 431:Drivers/STM32G4xx_HAL_Driver/Inc/stm32g4xx_ll_gpio.h **** 
 432:Drivers/STM32G4xx_HAL_Driver/Inc/stm32g4xx_ll_gpio.h **** /**
 433:Drivers/STM32G4xx_HAL_Driver/Inc/stm32g4xx_ll_gpio.h ****   * @brief  Return gpio speed for a dedicated pin on dedicated port.
 434:Drivers/STM32G4xx_HAL_Driver/Inc/stm32g4xx_ll_gpio.h ****   * @note   I/O speed can be Low, Medium, Fast or High speed.
 435:Drivers/STM32G4xx_HAL_Driver/Inc/stm32g4xx_ll_gpio.h ****   * @note   Warning: only one pin can be passed as parameter.
 436:Drivers/STM32G4xx_HAL_Driver/Inc/stm32g4xx_ll_gpio.h ****   * @note   Refer to datasheet for frequency specifications and the power
 437:Drivers/STM32G4xx_HAL_Driver/Inc/stm32g4xx_ll_gpio.h ****   *         supply and load conditions for each speed.
 438:Drivers/STM32G4xx_HAL_Driver/Inc/stm32g4xx_ll_gpio.h ****   * @rmtoll OSPEEDR      OSPEEDy       LL_GPIO_GetPinSpeed
 439:Drivers/STM32G4xx_HAL_Driver/Inc/stm32g4xx_ll_gpio.h ****   * @param  GPIOx GPIO Port
 440:Drivers/STM32G4xx_HAL_Driver/Inc/stm32g4xx_ll_gpio.h ****   * @param  Pin This parameter can be one of the following values:
 441:Drivers/STM32G4xx_HAL_Driver/Inc/stm32g4xx_ll_gpio.h ****   *         @arg @ref LL_GPIO_PIN_0
 442:Drivers/STM32G4xx_HAL_Driver/Inc/stm32g4xx_ll_gpio.h ****   *         @arg @ref LL_GPIO_PIN_1
 443:Drivers/STM32G4xx_HAL_Driver/Inc/stm32g4xx_ll_gpio.h ****   *         @arg @ref LL_GPIO_PIN_2
 444:Drivers/STM32G4xx_HAL_Driver/Inc/stm32g4xx_ll_gpio.h ****   *         @arg @ref LL_GPIO_PIN_3
 445:Drivers/STM32G4xx_HAL_Driver/Inc/stm32g4xx_ll_gpio.h ****   *         @arg @ref LL_GPIO_PIN_4
 446:Drivers/STM32G4xx_HAL_Driver/Inc/stm32g4xx_ll_gpio.h ****   *         @arg @ref LL_GPIO_PIN_5
 447:Drivers/STM32G4xx_HAL_Driver/Inc/stm32g4xx_ll_gpio.h ****   *         @arg @ref LL_GPIO_PIN_6
 448:Drivers/STM32G4xx_HAL_Driver/Inc/stm32g4xx_ll_gpio.h ****   *         @arg @ref LL_GPIO_PIN_7
 449:Drivers/STM32G4xx_HAL_Driver/Inc/stm32g4xx_ll_gpio.h ****   *         @arg @ref LL_GPIO_PIN_8
 450:Drivers/STM32G4xx_HAL_Driver/Inc/stm32g4xx_ll_gpio.h ****   *         @arg @ref LL_GPIO_PIN_9
 451:Drivers/STM32G4xx_HAL_Driver/Inc/stm32g4xx_ll_gpio.h ****   *         @arg @ref LL_GPIO_PIN_10
 452:Drivers/STM32G4xx_HAL_Driver/Inc/stm32g4xx_ll_gpio.h ****   *         @arg @ref LL_GPIO_PIN_11
 453:Drivers/STM32G4xx_HAL_Driver/Inc/stm32g4xx_ll_gpio.h ****   *         @arg @ref LL_GPIO_PIN_12
 454:Drivers/STM32G4xx_HAL_Driver/Inc/stm32g4xx_ll_gpio.h ****   *         @arg @ref LL_GPIO_PIN_13
 455:Drivers/STM32G4xx_HAL_Driver/Inc/stm32g4xx_ll_gpio.h ****   *         @arg @ref LL_GPIO_PIN_14
 456:Drivers/STM32G4xx_HAL_Driver/Inc/stm32g4xx_ll_gpio.h ****   *         @arg @ref LL_GPIO_PIN_15
 457:Drivers/STM32G4xx_HAL_Driver/Inc/stm32g4xx_ll_gpio.h ****   * @retval Returned value can be one of the following values:
 458:Drivers/STM32G4xx_HAL_Driver/Inc/stm32g4xx_ll_gpio.h ****   *         @arg @ref LL_GPIO_SPEED_FREQ_LOW
 459:Drivers/STM32G4xx_HAL_Driver/Inc/stm32g4xx_ll_gpio.h ****   *         @arg @ref LL_GPIO_SPEED_FREQ_MEDIUM
 460:Drivers/STM32G4xx_HAL_Driver/Inc/stm32g4xx_ll_gpio.h ****   *         @arg @ref LL_GPIO_SPEED_FREQ_HIGH
 461:Drivers/STM32G4xx_HAL_Driver/Inc/stm32g4xx_ll_gpio.h ****   *         @arg @ref LL_GPIO_SPEED_FREQ_VERY_HIGH
 462:Drivers/STM32G4xx_HAL_Driver/Inc/stm32g4xx_ll_gpio.h ****   */
 463:Drivers/STM32G4xx_HAL_Driver/Inc/stm32g4xx_ll_gpio.h **** __STATIC_INLINE uint32_t LL_GPIO_GetPinSpeed(GPIO_TypeDef *GPIOx, uint32_t Pin)
 464:Drivers/STM32G4xx_HAL_Driver/Inc/stm32g4xx_ll_gpio.h **** {
 465:Drivers/STM32G4xx_HAL_Driver/Inc/stm32g4xx_ll_gpio.h ****   return (uint32_t)(READ_BIT(GPIOx->OSPEEDR,
ARM GAS  D:\apps\VSCode\data\tmp\cc1Dl4Ov.s 			page 29


 466:Drivers/STM32G4xx_HAL_Driver/Inc/stm32g4xx_ll_gpio.h ****                              (GPIO_OSPEEDR_OSPEED0 << (POSITION_VAL(Pin) * 2U))) >> (POSITION_VAL(P
 467:Drivers/STM32G4xx_HAL_Driver/Inc/stm32g4xx_ll_gpio.h **** }
 468:Drivers/STM32G4xx_HAL_Driver/Inc/stm32g4xx_ll_gpio.h **** 
 469:Drivers/STM32G4xx_HAL_Driver/Inc/stm32g4xx_ll_gpio.h **** /**
 470:Drivers/STM32G4xx_HAL_Driver/Inc/stm32g4xx_ll_gpio.h ****   * @brief  Configure gpio pull-up or pull-down for a dedicated pin on a dedicated port.
 471:Drivers/STM32G4xx_HAL_Driver/Inc/stm32g4xx_ll_gpio.h ****   * @note   Warning: only one pin can be passed as parameter.
 472:Drivers/STM32G4xx_HAL_Driver/Inc/stm32g4xx_ll_gpio.h ****   * @rmtoll PUPDR        PUPDy         LL_GPIO_SetPinPull
 473:Drivers/STM32G4xx_HAL_Driver/Inc/stm32g4xx_ll_gpio.h ****   * @param  GPIOx GPIO Port
 474:Drivers/STM32G4xx_HAL_Driver/Inc/stm32g4xx_ll_gpio.h ****   * @param  Pin This parameter can be one of the following values:
 475:Drivers/STM32G4xx_HAL_Driver/Inc/stm32g4xx_ll_gpio.h ****   *         @arg @ref LL_GPIO_PIN_0
 476:Drivers/STM32G4xx_HAL_Driver/Inc/stm32g4xx_ll_gpio.h ****   *         @arg @ref LL_GPIO_PIN_1
 477:Drivers/STM32G4xx_HAL_Driver/Inc/stm32g4xx_ll_gpio.h ****   *         @arg @ref LL_GPIO_PIN_2
 478:Drivers/STM32G4xx_HAL_Driver/Inc/stm32g4xx_ll_gpio.h ****   *         @arg @ref LL_GPIO_PIN_3
 479:Drivers/STM32G4xx_HAL_Driver/Inc/stm32g4xx_ll_gpio.h ****   *         @arg @ref LL_GPIO_PIN_4
 480:Drivers/STM32G4xx_HAL_Driver/Inc/stm32g4xx_ll_gpio.h ****   *         @arg @ref LL_GPIO_PIN_5
 481:Drivers/STM32G4xx_HAL_Driver/Inc/stm32g4xx_ll_gpio.h ****   *         @arg @ref LL_GPIO_PIN_6
 482:Drivers/STM32G4xx_HAL_Driver/Inc/stm32g4xx_ll_gpio.h ****   *         @arg @ref LL_GPIO_PIN_7
 483:Drivers/STM32G4xx_HAL_Driver/Inc/stm32g4xx_ll_gpio.h ****   *         @arg @ref LL_GPIO_PIN_8
 484:Drivers/STM32G4xx_HAL_Driver/Inc/stm32g4xx_ll_gpio.h ****   *         @arg @ref LL_GPIO_PIN_9
 485:Drivers/STM32G4xx_HAL_Driver/Inc/stm32g4xx_ll_gpio.h ****   *         @arg @ref LL_GPIO_PIN_10
 486:Drivers/STM32G4xx_HAL_Driver/Inc/stm32g4xx_ll_gpio.h ****   *         @arg @ref LL_GPIO_PIN_11
 487:Drivers/STM32G4xx_HAL_Driver/Inc/stm32g4xx_ll_gpio.h ****   *         @arg @ref LL_GPIO_PIN_12
 488:Drivers/STM32G4xx_HAL_Driver/Inc/stm32g4xx_ll_gpio.h ****   *         @arg @ref LL_GPIO_PIN_13
 489:Drivers/STM32G4xx_HAL_Driver/Inc/stm32g4xx_ll_gpio.h ****   *         @arg @ref LL_GPIO_PIN_14
 490:Drivers/STM32G4xx_HAL_Driver/Inc/stm32g4xx_ll_gpio.h ****   *         @arg @ref LL_GPIO_PIN_15
 491:Drivers/STM32G4xx_HAL_Driver/Inc/stm32g4xx_ll_gpio.h ****   * @param  Pull This parameter can be one of the following values:
 492:Drivers/STM32G4xx_HAL_Driver/Inc/stm32g4xx_ll_gpio.h ****   *         @arg @ref LL_GPIO_PULL_NO
 493:Drivers/STM32G4xx_HAL_Driver/Inc/stm32g4xx_ll_gpio.h ****   *         @arg @ref LL_GPIO_PULL_UP
 494:Drivers/STM32G4xx_HAL_Driver/Inc/stm32g4xx_ll_gpio.h ****   *         @arg @ref LL_GPIO_PULL_DOWN
 495:Drivers/STM32G4xx_HAL_Driver/Inc/stm32g4xx_ll_gpio.h ****   * @retval None
 496:Drivers/STM32G4xx_HAL_Driver/Inc/stm32g4xx_ll_gpio.h ****   */
 497:Drivers/STM32G4xx_HAL_Driver/Inc/stm32g4xx_ll_gpio.h **** __STATIC_INLINE void LL_GPIO_SetPinPull(GPIO_TypeDef *GPIOx, uint32_t Pin, uint32_t Pull)
 498:Drivers/STM32G4xx_HAL_Driver/Inc/stm32g4xx_ll_gpio.h **** {
 499:Drivers/STM32G4xx_HAL_Driver/Inc/stm32g4xx_ll_gpio.h ****   MODIFY_REG(GPIOx->PUPDR, (GPIO_PUPDR_PUPD0 << (POSITION_VAL(Pin) * 2U)), (Pull << (POSITION_VAL(P
 500:Drivers/STM32G4xx_HAL_Driver/Inc/stm32g4xx_ll_gpio.h **** }
 501:Drivers/STM32G4xx_HAL_Driver/Inc/stm32g4xx_ll_gpio.h **** 
 502:Drivers/STM32G4xx_HAL_Driver/Inc/stm32g4xx_ll_gpio.h **** /**
 503:Drivers/STM32G4xx_HAL_Driver/Inc/stm32g4xx_ll_gpio.h ****   * @brief  Return gpio pull-up or pull-down for a dedicated pin on a dedicated port
 504:Drivers/STM32G4xx_HAL_Driver/Inc/stm32g4xx_ll_gpio.h ****   * @note   Warning: only one pin can be passed as parameter.
 505:Drivers/STM32G4xx_HAL_Driver/Inc/stm32g4xx_ll_gpio.h ****   * @rmtoll PUPDR        PUPDy         LL_GPIO_GetPinPull
 506:Drivers/STM32G4xx_HAL_Driver/Inc/stm32g4xx_ll_gpio.h ****   * @param  GPIOx GPIO Port
 507:Drivers/STM32G4xx_HAL_Driver/Inc/stm32g4xx_ll_gpio.h ****   * @param  Pin This parameter can be one of the following values:
 508:Drivers/STM32G4xx_HAL_Driver/Inc/stm32g4xx_ll_gpio.h ****   *         @arg @ref LL_GPIO_PIN_0
 509:Drivers/STM32G4xx_HAL_Driver/Inc/stm32g4xx_ll_gpio.h ****   *         @arg @ref LL_GPIO_PIN_1
 510:Drivers/STM32G4xx_HAL_Driver/Inc/stm32g4xx_ll_gpio.h ****   *         @arg @ref LL_GPIO_PIN_2
 511:Drivers/STM32G4xx_HAL_Driver/Inc/stm32g4xx_ll_gpio.h ****   *         @arg @ref LL_GPIO_PIN_3
 512:Drivers/STM32G4xx_HAL_Driver/Inc/stm32g4xx_ll_gpio.h ****   *         @arg @ref LL_GPIO_PIN_4
 513:Drivers/STM32G4xx_HAL_Driver/Inc/stm32g4xx_ll_gpio.h ****   *         @arg @ref LL_GPIO_PIN_5
 514:Drivers/STM32G4xx_HAL_Driver/Inc/stm32g4xx_ll_gpio.h ****   *         @arg @ref LL_GPIO_PIN_6
 515:Drivers/STM32G4xx_HAL_Driver/Inc/stm32g4xx_ll_gpio.h ****   *         @arg @ref LL_GPIO_PIN_7
 516:Drivers/STM32G4xx_HAL_Driver/Inc/stm32g4xx_ll_gpio.h ****   *         @arg @ref LL_GPIO_PIN_8
 517:Drivers/STM32G4xx_HAL_Driver/Inc/stm32g4xx_ll_gpio.h ****   *         @arg @ref LL_GPIO_PIN_9
 518:Drivers/STM32G4xx_HAL_Driver/Inc/stm32g4xx_ll_gpio.h ****   *         @arg @ref LL_GPIO_PIN_10
 519:Drivers/STM32G4xx_HAL_Driver/Inc/stm32g4xx_ll_gpio.h ****   *         @arg @ref LL_GPIO_PIN_11
 520:Drivers/STM32G4xx_HAL_Driver/Inc/stm32g4xx_ll_gpio.h ****   *         @arg @ref LL_GPIO_PIN_12
 521:Drivers/STM32G4xx_HAL_Driver/Inc/stm32g4xx_ll_gpio.h ****   *         @arg @ref LL_GPIO_PIN_13
 522:Drivers/STM32G4xx_HAL_Driver/Inc/stm32g4xx_ll_gpio.h ****   *         @arg @ref LL_GPIO_PIN_14
ARM GAS  D:\apps\VSCode\data\tmp\cc1Dl4Ov.s 			page 30


 523:Drivers/STM32G4xx_HAL_Driver/Inc/stm32g4xx_ll_gpio.h ****   *         @arg @ref LL_GPIO_PIN_15
 524:Drivers/STM32G4xx_HAL_Driver/Inc/stm32g4xx_ll_gpio.h ****   * @retval Returned value can be one of the following values:
 525:Drivers/STM32G4xx_HAL_Driver/Inc/stm32g4xx_ll_gpio.h ****   *         @arg @ref LL_GPIO_PULL_NO
 526:Drivers/STM32G4xx_HAL_Driver/Inc/stm32g4xx_ll_gpio.h ****   *         @arg @ref LL_GPIO_PULL_UP
 527:Drivers/STM32G4xx_HAL_Driver/Inc/stm32g4xx_ll_gpio.h ****   *         @arg @ref LL_GPIO_PULL_DOWN
 528:Drivers/STM32G4xx_HAL_Driver/Inc/stm32g4xx_ll_gpio.h ****   */
 529:Drivers/STM32G4xx_HAL_Driver/Inc/stm32g4xx_ll_gpio.h **** __STATIC_INLINE uint32_t LL_GPIO_GetPinPull(GPIO_TypeDef *GPIOx, uint32_t Pin)
 530:Drivers/STM32G4xx_HAL_Driver/Inc/stm32g4xx_ll_gpio.h **** {
 531:Drivers/STM32G4xx_HAL_Driver/Inc/stm32g4xx_ll_gpio.h ****   return (uint32_t)(READ_BIT(GPIOx->PUPDR,
 532:Drivers/STM32G4xx_HAL_Driver/Inc/stm32g4xx_ll_gpio.h ****                              (GPIO_PUPDR_PUPD0 << (POSITION_VAL(Pin) * 2U))) >> (POSITION_VAL(Pin) 
 533:Drivers/STM32G4xx_HAL_Driver/Inc/stm32g4xx_ll_gpio.h **** }
 534:Drivers/STM32G4xx_HAL_Driver/Inc/stm32g4xx_ll_gpio.h **** 
 535:Drivers/STM32G4xx_HAL_Driver/Inc/stm32g4xx_ll_gpio.h **** /**
 536:Drivers/STM32G4xx_HAL_Driver/Inc/stm32g4xx_ll_gpio.h ****   * @brief  Configure gpio alternate function of a dedicated pin from 0 to 7 for a dedicated port.
 537:Drivers/STM32G4xx_HAL_Driver/Inc/stm32g4xx_ll_gpio.h ****   * @note   Possible values are from AF0 to AF15 depending on target.
 538:Drivers/STM32G4xx_HAL_Driver/Inc/stm32g4xx_ll_gpio.h ****   * @note   Warning: only one pin can be passed as parameter.
 539:Drivers/STM32G4xx_HAL_Driver/Inc/stm32g4xx_ll_gpio.h ****   * @rmtoll AFRL         AFSELy        LL_GPIO_SetAFPin_0_7
 540:Drivers/STM32G4xx_HAL_Driver/Inc/stm32g4xx_ll_gpio.h ****   * @param  GPIOx GPIO Port
 541:Drivers/STM32G4xx_HAL_Driver/Inc/stm32g4xx_ll_gpio.h ****   * @param  Pin This parameter can be one of the following values:
 542:Drivers/STM32G4xx_HAL_Driver/Inc/stm32g4xx_ll_gpio.h ****   *         @arg @ref LL_GPIO_PIN_0
 543:Drivers/STM32G4xx_HAL_Driver/Inc/stm32g4xx_ll_gpio.h ****   *         @arg @ref LL_GPIO_PIN_1
 544:Drivers/STM32G4xx_HAL_Driver/Inc/stm32g4xx_ll_gpio.h ****   *         @arg @ref LL_GPIO_PIN_2
 545:Drivers/STM32G4xx_HAL_Driver/Inc/stm32g4xx_ll_gpio.h ****   *         @arg @ref LL_GPIO_PIN_3
 546:Drivers/STM32G4xx_HAL_Driver/Inc/stm32g4xx_ll_gpio.h ****   *         @arg @ref LL_GPIO_PIN_4
 547:Drivers/STM32G4xx_HAL_Driver/Inc/stm32g4xx_ll_gpio.h ****   *         @arg @ref LL_GPIO_PIN_5
 548:Drivers/STM32G4xx_HAL_Driver/Inc/stm32g4xx_ll_gpio.h ****   *         @arg @ref LL_GPIO_PIN_6
 549:Drivers/STM32G4xx_HAL_Driver/Inc/stm32g4xx_ll_gpio.h ****   *         @arg @ref LL_GPIO_PIN_7
 550:Drivers/STM32G4xx_HAL_Driver/Inc/stm32g4xx_ll_gpio.h ****   * @param  Alternate This parameter can be one of the following values:
 551:Drivers/STM32G4xx_HAL_Driver/Inc/stm32g4xx_ll_gpio.h ****   *         @arg @ref LL_GPIO_AF_0
 552:Drivers/STM32G4xx_HAL_Driver/Inc/stm32g4xx_ll_gpio.h ****   *         @arg @ref LL_GPIO_AF_1
 553:Drivers/STM32G4xx_HAL_Driver/Inc/stm32g4xx_ll_gpio.h ****   *         @arg @ref LL_GPIO_AF_2
 554:Drivers/STM32G4xx_HAL_Driver/Inc/stm32g4xx_ll_gpio.h ****   *         @arg @ref LL_GPIO_AF_3
 555:Drivers/STM32G4xx_HAL_Driver/Inc/stm32g4xx_ll_gpio.h ****   *         @arg @ref LL_GPIO_AF_4
 556:Drivers/STM32G4xx_HAL_Driver/Inc/stm32g4xx_ll_gpio.h ****   *         @arg @ref LL_GPIO_AF_5
 557:Drivers/STM32G4xx_HAL_Driver/Inc/stm32g4xx_ll_gpio.h ****   *         @arg @ref LL_GPIO_AF_6
 558:Drivers/STM32G4xx_HAL_Driver/Inc/stm32g4xx_ll_gpio.h ****   *         @arg @ref LL_GPIO_AF_7
 559:Drivers/STM32G4xx_HAL_Driver/Inc/stm32g4xx_ll_gpio.h ****   *         @arg @ref LL_GPIO_AF_8
 560:Drivers/STM32G4xx_HAL_Driver/Inc/stm32g4xx_ll_gpio.h ****   *         @arg @ref LL_GPIO_AF_9
 561:Drivers/STM32G4xx_HAL_Driver/Inc/stm32g4xx_ll_gpio.h ****   *         @arg @ref LL_GPIO_AF_10
 562:Drivers/STM32G4xx_HAL_Driver/Inc/stm32g4xx_ll_gpio.h ****   *         @arg @ref LL_GPIO_AF_11
 563:Drivers/STM32G4xx_HAL_Driver/Inc/stm32g4xx_ll_gpio.h ****   *         @arg @ref LL_GPIO_AF_12
 564:Drivers/STM32G4xx_HAL_Driver/Inc/stm32g4xx_ll_gpio.h ****   *         @arg @ref LL_GPIO_AF_13
 565:Drivers/STM32G4xx_HAL_Driver/Inc/stm32g4xx_ll_gpio.h ****   *         @arg @ref LL_GPIO_AF_14
 566:Drivers/STM32G4xx_HAL_Driver/Inc/stm32g4xx_ll_gpio.h ****   *         @arg @ref LL_GPIO_AF_15
 567:Drivers/STM32G4xx_HAL_Driver/Inc/stm32g4xx_ll_gpio.h ****   * @retval None
 568:Drivers/STM32G4xx_HAL_Driver/Inc/stm32g4xx_ll_gpio.h ****   */
 569:Drivers/STM32G4xx_HAL_Driver/Inc/stm32g4xx_ll_gpio.h **** __STATIC_INLINE void LL_GPIO_SetAFPin_0_7(GPIO_TypeDef *GPIOx, uint32_t Pin, uint32_t Alternate)
 570:Drivers/STM32G4xx_HAL_Driver/Inc/stm32g4xx_ll_gpio.h **** {
 571:Drivers/STM32G4xx_HAL_Driver/Inc/stm32g4xx_ll_gpio.h ****   MODIFY_REG(GPIOx->AFR[0], (GPIO_AFRL_AFSEL0 << (POSITION_VAL(Pin) * 4U)),
 572:Drivers/STM32G4xx_HAL_Driver/Inc/stm32g4xx_ll_gpio.h ****              (Alternate << (POSITION_VAL(Pin) * 4U)));
 573:Drivers/STM32G4xx_HAL_Driver/Inc/stm32g4xx_ll_gpio.h **** }
 574:Drivers/STM32G4xx_HAL_Driver/Inc/stm32g4xx_ll_gpio.h **** 
 575:Drivers/STM32G4xx_HAL_Driver/Inc/stm32g4xx_ll_gpio.h **** /**
 576:Drivers/STM32G4xx_HAL_Driver/Inc/stm32g4xx_ll_gpio.h ****   * @brief  Return gpio alternate function of a dedicated pin from 0 to 7 for a dedicated port.
 577:Drivers/STM32G4xx_HAL_Driver/Inc/stm32g4xx_ll_gpio.h ****   * @rmtoll AFRL         AFSELy        LL_GPIO_GetAFPin_0_7
 578:Drivers/STM32G4xx_HAL_Driver/Inc/stm32g4xx_ll_gpio.h ****   * @param  GPIOx GPIO Port
 579:Drivers/STM32G4xx_HAL_Driver/Inc/stm32g4xx_ll_gpio.h ****   * @param  Pin This parameter can be one of the following values:
ARM GAS  D:\apps\VSCode\data\tmp\cc1Dl4Ov.s 			page 31


 580:Drivers/STM32G4xx_HAL_Driver/Inc/stm32g4xx_ll_gpio.h ****   *         @arg @ref LL_GPIO_PIN_0
 581:Drivers/STM32G4xx_HAL_Driver/Inc/stm32g4xx_ll_gpio.h ****   *         @arg @ref LL_GPIO_PIN_1
 582:Drivers/STM32G4xx_HAL_Driver/Inc/stm32g4xx_ll_gpio.h ****   *         @arg @ref LL_GPIO_PIN_2
 583:Drivers/STM32G4xx_HAL_Driver/Inc/stm32g4xx_ll_gpio.h ****   *         @arg @ref LL_GPIO_PIN_3
 584:Drivers/STM32G4xx_HAL_Driver/Inc/stm32g4xx_ll_gpio.h ****   *         @arg @ref LL_GPIO_PIN_4
 585:Drivers/STM32G4xx_HAL_Driver/Inc/stm32g4xx_ll_gpio.h ****   *         @arg @ref LL_GPIO_PIN_5
 586:Drivers/STM32G4xx_HAL_Driver/Inc/stm32g4xx_ll_gpio.h ****   *         @arg @ref LL_GPIO_PIN_6
 587:Drivers/STM32G4xx_HAL_Driver/Inc/stm32g4xx_ll_gpio.h ****   *         @arg @ref LL_GPIO_PIN_7
 588:Drivers/STM32G4xx_HAL_Driver/Inc/stm32g4xx_ll_gpio.h ****   * @retval Returned value can be one of the following values:
 589:Drivers/STM32G4xx_HAL_Driver/Inc/stm32g4xx_ll_gpio.h ****   *         @arg @ref LL_GPIO_AF_0
 590:Drivers/STM32G4xx_HAL_Driver/Inc/stm32g4xx_ll_gpio.h ****   *         @arg @ref LL_GPIO_AF_1
 591:Drivers/STM32G4xx_HAL_Driver/Inc/stm32g4xx_ll_gpio.h ****   *         @arg @ref LL_GPIO_AF_2
 592:Drivers/STM32G4xx_HAL_Driver/Inc/stm32g4xx_ll_gpio.h ****   *         @arg @ref LL_GPIO_AF_3
 593:Drivers/STM32G4xx_HAL_Driver/Inc/stm32g4xx_ll_gpio.h ****   *         @arg @ref LL_GPIO_AF_4
 594:Drivers/STM32G4xx_HAL_Driver/Inc/stm32g4xx_ll_gpio.h ****   *         @arg @ref LL_GPIO_AF_5
 595:Drivers/STM32G4xx_HAL_Driver/Inc/stm32g4xx_ll_gpio.h ****   *         @arg @ref LL_GPIO_AF_6
 596:Drivers/STM32G4xx_HAL_Driver/Inc/stm32g4xx_ll_gpio.h ****   *         @arg @ref LL_GPIO_AF_7
 597:Drivers/STM32G4xx_HAL_Driver/Inc/stm32g4xx_ll_gpio.h ****   *         @arg @ref LL_GPIO_AF_8
 598:Drivers/STM32G4xx_HAL_Driver/Inc/stm32g4xx_ll_gpio.h ****   *         @arg @ref LL_GPIO_AF_9
 599:Drivers/STM32G4xx_HAL_Driver/Inc/stm32g4xx_ll_gpio.h ****   *         @arg @ref LL_GPIO_AF_10
 600:Drivers/STM32G4xx_HAL_Driver/Inc/stm32g4xx_ll_gpio.h ****   *         @arg @ref LL_GPIO_AF_11
 601:Drivers/STM32G4xx_HAL_Driver/Inc/stm32g4xx_ll_gpio.h ****   *         @arg @ref LL_GPIO_AF_12
 602:Drivers/STM32G4xx_HAL_Driver/Inc/stm32g4xx_ll_gpio.h ****   *         @arg @ref LL_GPIO_AF_13
 603:Drivers/STM32G4xx_HAL_Driver/Inc/stm32g4xx_ll_gpio.h ****   *         @arg @ref LL_GPIO_AF_14
 604:Drivers/STM32G4xx_HAL_Driver/Inc/stm32g4xx_ll_gpio.h ****   *         @arg @ref LL_GPIO_AF_15
 605:Drivers/STM32G4xx_HAL_Driver/Inc/stm32g4xx_ll_gpio.h ****   */
 606:Drivers/STM32G4xx_HAL_Driver/Inc/stm32g4xx_ll_gpio.h **** __STATIC_INLINE uint32_t LL_GPIO_GetAFPin_0_7(GPIO_TypeDef *GPIOx, uint32_t Pin)
 607:Drivers/STM32G4xx_HAL_Driver/Inc/stm32g4xx_ll_gpio.h **** {
 608:Drivers/STM32G4xx_HAL_Driver/Inc/stm32g4xx_ll_gpio.h ****   return (uint32_t)(READ_BIT(GPIOx->AFR[0],
 609:Drivers/STM32G4xx_HAL_Driver/Inc/stm32g4xx_ll_gpio.h ****                              (GPIO_AFRL_AFSEL0 << (POSITION_VAL(Pin) * 4U))) >> (POSITION_VAL(Pin) 
 610:Drivers/STM32G4xx_HAL_Driver/Inc/stm32g4xx_ll_gpio.h **** }
 611:Drivers/STM32G4xx_HAL_Driver/Inc/stm32g4xx_ll_gpio.h **** 
 612:Drivers/STM32G4xx_HAL_Driver/Inc/stm32g4xx_ll_gpio.h **** /**
 613:Drivers/STM32G4xx_HAL_Driver/Inc/stm32g4xx_ll_gpio.h ****   * @brief  Configure gpio alternate function of a dedicated pin from 8 to 15 for a dedicated port.
 614:Drivers/STM32G4xx_HAL_Driver/Inc/stm32g4xx_ll_gpio.h ****   * @note   Possible values are from AF0 to AF15 depending on target.
 615:Drivers/STM32G4xx_HAL_Driver/Inc/stm32g4xx_ll_gpio.h ****   * @note   Warning: only one pin can be passed as parameter.
 616:Drivers/STM32G4xx_HAL_Driver/Inc/stm32g4xx_ll_gpio.h ****   * @rmtoll AFRH         AFSELy        LL_GPIO_SetAFPin_8_15
 617:Drivers/STM32G4xx_HAL_Driver/Inc/stm32g4xx_ll_gpio.h ****   * @param  GPIOx GPIO Port
 618:Drivers/STM32G4xx_HAL_Driver/Inc/stm32g4xx_ll_gpio.h ****   * @param  Pin This parameter can be one of the following values:
 619:Drivers/STM32G4xx_HAL_Driver/Inc/stm32g4xx_ll_gpio.h ****   *         @arg @ref LL_GPIO_PIN_8
 620:Drivers/STM32G4xx_HAL_Driver/Inc/stm32g4xx_ll_gpio.h ****   *         @arg @ref LL_GPIO_PIN_9
 621:Drivers/STM32G4xx_HAL_Driver/Inc/stm32g4xx_ll_gpio.h ****   *         @arg @ref LL_GPIO_PIN_10
 622:Drivers/STM32G4xx_HAL_Driver/Inc/stm32g4xx_ll_gpio.h ****   *         @arg @ref LL_GPIO_PIN_11
 623:Drivers/STM32G4xx_HAL_Driver/Inc/stm32g4xx_ll_gpio.h ****   *         @arg @ref LL_GPIO_PIN_12
 624:Drivers/STM32G4xx_HAL_Driver/Inc/stm32g4xx_ll_gpio.h ****   *         @arg @ref LL_GPIO_PIN_13
 625:Drivers/STM32G4xx_HAL_Driver/Inc/stm32g4xx_ll_gpio.h ****   *         @arg @ref LL_GPIO_PIN_14
 626:Drivers/STM32G4xx_HAL_Driver/Inc/stm32g4xx_ll_gpio.h ****   *         @arg @ref LL_GPIO_PIN_15
 627:Drivers/STM32G4xx_HAL_Driver/Inc/stm32g4xx_ll_gpio.h ****   * @param  Alternate This parameter can be one of the following values:
 628:Drivers/STM32G4xx_HAL_Driver/Inc/stm32g4xx_ll_gpio.h ****   *         @arg @ref LL_GPIO_AF_0
 629:Drivers/STM32G4xx_HAL_Driver/Inc/stm32g4xx_ll_gpio.h ****   *         @arg @ref LL_GPIO_AF_1
 630:Drivers/STM32G4xx_HAL_Driver/Inc/stm32g4xx_ll_gpio.h ****   *         @arg @ref LL_GPIO_AF_2
 631:Drivers/STM32G4xx_HAL_Driver/Inc/stm32g4xx_ll_gpio.h ****   *         @arg @ref LL_GPIO_AF_3
 632:Drivers/STM32G4xx_HAL_Driver/Inc/stm32g4xx_ll_gpio.h ****   *         @arg @ref LL_GPIO_AF_4
 633:Drivers/STM32G4xx_HAL_Driver/Inc/stm32g4xx_ll_gpio.h ****   *         @arg @ref LL_GPIO_AF_5
 634:Drivers/STM32G4xx_HAL_Driver/Inc/stm32g4xx_ll_gpio.h ****   *         @arg @ref LL_GPIO_AF_6
 635:Drivers/STM32G4xx_HAL_Driver/Inc/stm32g4xx_ll_gpio.h ****   *         @arg @ref LL_GPIO_AF_7
 636:Drivers/STM32G4xx_HAL_Driver/Inc/stm32g4xx_ll_gpio.h ****   *         @arg @ref LL_GPIO_AF_8
ARM GAS  D:\apps\VSCode\data\tmp\cc1Dl4Ov.s 			page 32


 637:Drivers/STM32G4xx_HAL_Driver/Inc/stm32g4xx_ll_gpio.h ****   *         @arg @ref LL_GPIO_AF_9
 638:Drivers/STM32G4xx_HAL_Driver/Inc/stm32g4xx_ll_gpio.h ****   *         @arg @ref LL_GPIO_AF_10
 639:Drivers/STM32G4xx_HAL_Driver/Inc/stm32g4xx_ll_gpio.h ****   *         @arg @ref LL_GPIO_AF_11
 640:Drivers/STM32G4xx_HAL_Driver/Inc/stm32g4xx_ll_gpio.h ****   *         @arg @ref LL_GPIO_AF_12
 641:Drivers/STM32G4xx_HAL_Driver/Inc/stm32g4xx_ll_gpio.h ****   *         @arg @ref LL_GPIO_AF_13
 642:Drivers/STM32G4xx_HAL_Driver/Inc/stm32g4xx_ll_gpio.h ****   *         @arg @ref LL_GPIO_AF_14
 643:Drivers/STM32G4xx_HAL_Driver/Inc/stm32g4xx_ll_gpio.h ****   *         @arg @ref LL_GPIO_AF_15
 644:Drivers/STM32G4xx_HAL_Driver/Inc/stm32g4xx_ll_gpio.h ****   * @retval None
 645:Drivers/STM32G4xx_HAL_Driver/Inc/stm32g4xx_ll_gpio.h ****   */
 646:Drivers/STM32G4xx_HAL_Driver/Inc/stm32g4xx_ll_gpio.h **** __STATIC_INLINE void LL_GPIO_SetAFPin_8_15(GPIO_TypeDef *GPIOx, uint32_t Pin, uint32_t Alternate)
 647:Drivers/STM32G4xx_HAL_Driver/Inc/stm32g4xx_ll_gpio.h **** {
 648:Drivers/STM32G4xx_HAL_Driver/Inc/stm32g4xx_ll_gpio.h ****   MODIFY_REG(GPIOx->AFR[1], (GPIO_AFRH_AFSEL8 << (POSITION_VAL(Pin >> 8U) * 4U)),
 649:Drivers/STM32G4xx_HAL_Driver/Inc/stm32g4xx_ll_gpio.h ****              (Alternate << (POSITION_VAL(Pin >> 8U) * 4U)));
 650:Drivers/STM32G4xx_HAL_Driver/Inc/stm32g4xx_ll_gpio.h **** }
 651:Drivers/STM32G4xx_HAL_Driver/Inc/stm32g4xx_ll_gpio.h **** 
 652:Drivers/STM32G4xx_HAL_Driver/Inc/stm32g4xx_ll_gpio.h **** /**
 653:Drivers/STM32G4xx_HAL_Driver/Inc/stm32g4xx_ll_gpio.h ****   * @brief  Return gpio alternate function of a dedicated pin from 8 to 15 for a dedicated port.
 654:Drivers/STM32G4xx_HAL_Driver/Inc/stm32g4xx_ll_gpio.h ****   * @note   Possible values are from AF0 to AF15 depending on target.
 655:Drivers/STM32G4xx_HAL_Driver/Inc/stm32g4xx_ll_gpio.h ****   * @rmtoll AFRH         AFSELy        LL_GPIO_GetAFPin_8_15
 656:Drivers/STM32G4xx_HAL_Driver/Inc/stm32g4xx_ll_gpio.h ****   * @param  GPIOx GPIO Port
 657:Drivers/STM32G4xx_HAL_Driver/Inc/stm32g4xx_ll_gpio.h ****   * @param  Pin This parameter can be one of the following values:
 658:Drivers/STM32G4xx_HAL_Driver/Inc/stm32g4xx_ll_gpio.h ****   *         @arg @ref LL_GPIO_PIN_8
 659:Drivers/STM32G4xx_HAL_Driver/Inc/stm32g4xx_ll_gpio.h ****   *         @arg @ref LL_GPIO_PIN_9
 660:Drivers/STM32G4xx_HAL_Driver/Inc/stm32g4xx_ll_gpio.h ****   *         @arg @ref LL_GPIO_PIN_10
 661:Drivers/STM32G4xx_HAL_Driver/Inc/stm32g4xx_ll_gpio.h ****   *         @arg @ref LL_GPIO_PIN_11
 662:Drivers/STM32G4xx_HAL_Driver/Inc/stm32g4xx_ll_gpio.h ****   *         @arg @ref LL_GPIO_PIN_12
 663:Drivers/STM32G4xx_HAL_Driver/Inc/stm32g4xx_ll_gpio.h ****   *         @arg @ref LL_GPIO_PIN_13
 664:Drivers/STM32G4xx_HAL_Driver/Inc/stm32g4xx_ll_gpio.h ****   *         @arg @ref LL_GPIO_PIN_14
 665:Drivers/STM32G4xx_HAL_Driver/Inc/stm32g4xx_ll_gpio.h ****   *         @arg @ref LL_GPIO_PIN_15
 666:Drivers/STM32G4xx_HAL_Driver/Inc/stm32g4xx_ll_gpio.h ****   * @retval Returned value can be one of the following values:
 667:Drivers/STM32G4xx_HAL_Driver/Inc/stm32g4xx_ll_gpio.h ****   *         @arg @ref LL_GPIO_AF_0
 668:Drivers/STM32G4xx_HAL_Driver/Inc/stm32g4xx_ll_gpio.h ****   *         @arg @ref LL_GPIO_AF_1
 669:Drivers/STM32G4xx_HAL_Driver/Inc/stm32g4xx_ll_gpio.h ****   *         @arg @ref LL_GPIO_AF_2
 670:Drivers/STM32G4xx_HAL_Driver/Inc/stm32g4xx_ll_gpio.h ****   *         @arg @ref LL_GPIO_AF_3
 671:Drivers/STM32G4xx_HAL_Driver/Inc/stm32g4xx_ll_gpio.h ****   *         @arg @ref LL_GPIO_AF_4
 672:Drivers/STM32G4xx_HAL_Driver/Inc/stm32g4xx_ll_gpio.h ****   *         @arg @ref LL_GPIO_AF_5
 673:Drivers/STM32G4xx_HAL_Driver/Inc/stm32g4xx_ll_gpio.h ****   *         @arg @ref LL_GPIO_AF_6
 674:Drivers/STM32G4xx_HAL_Driver/Inc/stm32g4xx_ll_gpio.h ****   *         @arg @ref LL_GPIO_AF_7
 675:Drivers/STM32G4xx_HAL_Driver/Inc/stm32g4xx_ll_gpio.h ****   *         @arg @ref LL_GPIO_AF_8
 676:Drivers/STM32G4xx_HAL_Driver/Inc/stm32g4xx_ll_gpio.h ****   *         @arg @ref LL_GPIO_AF_9
 677:Drivers/STM32G4xx_HAL_Driver/Inc/stm32g4xx_ll_gpio.h ****   *         @arg @ref LL_GPIO_AF_10
 678:Drivers/STM32G4xx_HAL_Driver/Inc/stm32g4xx_ll_gpio.h ****   *         @arg @ref LL_GPIO_AF_11
 679:Drivers/STM32G4xx_HAL_Driver/Inc/stm32g4xx_ll_gpio.h ****   *         @arg @ref LL_GPIO_AF_12
 680:Drivers/STM32G4xx_HAL_Driver/Inc/stm32g4xx_ll_gpio.h ****   *         @arg @ref LL_GPIO_AF_13
 681:Drivers/STM32G4xx_HAL_Driver/Inc/stm32g4xx_ll_gpio.h ****   *         @arg @ref LL_GPIO_AF_14
 682:Drivers/STM32G4xx_HAL_Driver/Inc/stm32g4xx_ll_gpio.h ****   *         @arg @ref LL_GPIO_AF_15
 683:Drivers/STM32G4xx_HAL_Driver/Inc/stm32g4xx_ll_gpio.h ****   */
 684:Drivers/STM32G4xx_HAL_Driver/Inc/stm32g4xx_ll_gpio.h **** __STATIC_INLINE uint32_t LL_GPIO_GetAFPin_8_15(GPIO_TypeDef *GPIOx, uint32_t Pin)
 685:Drivers/STM32G4xx_HAL_Driver/Inc/stm32g4xx_ll_gpio.h **** {
 686:Drivers/STM32G4xx_HAL_Driver/Inc/stm32g4xx_ll_gpio.h ****   return (uint32_t)(READ_BIT(GPIOx->AFR[1],
 687:Drivers/STM32G4xx_HAL_Driver/Inc/stm32g4xx_ll_gpio.h ****                              (GPIO_AFRH_AFSEL8 << (POSITION_VAL(Pin >> 8U) * 4U))) >> (POSITION_VAL
 688:Drivers/STM32G4xx_HAL_Driver/Inc/stm32g4xx_ll_gpio.h **** }
 689:Drivers/STM32G4xx_HAL_Driver/Inc/stm32g4xx_ll_gpio.h **** 
 690:Drivers/STM32G4xx_HAL_Driver/Inc/stm32g4xx_ll_gpio.h **** 
 691:Drivers/STM32G4xx_HAL_Driver/Inc/stm32g4xx_ll_gpio.h **** /**
 692:Drivers/STM32G4xx_HAL_Driver/Inc/stm32g4xx_ll_gpio.h ****   * @brief  Lock configuration of several pins for a dedicated port.
 693:Drivers/STM32G4xx_HAL_Driver/Inc/stm32g4xx_ll_gpio.h ****   * @note   When the lock sequence has been applied on a port bit, the
ARM GAS  D:\apps\VSCode\data\tmp\cc1Dl4Ov.s 			page 33


 694:Drivers/STM32G4xx_HAL_Driver/Inc/stm32g4xx_ll_gpio.h ****   *         value of this port bit can no longer be modified until the
 695:Drivers/STM32G4xx_HAL_Driver/Inc/stm32g4xx_ll_gpio.h ****   *         next reset.
 696:Drivers/STM32G4xx_HAL_Driver/Inc/stm32g4xx_ll_gpio.h ****   * @note   Each lock bit freezes a specific configuration register
 697:Drivers/STM32G4xx_HAL_Driver/Inc/stm32g4xx_ll_gpio.h ****   *         (control and alternate function registers).
 698:Drivers/STM32G4xx_HAL_Driver/Inc/stm32g4xx_ll_gpio.h ****   * @rmtoll LCKR         LCKK          LL_GPIO_LockPin
 699:Drivers/STM32G4xx_HAL_Driver/Inc/stm32g4xx_ll_gpio.h ****   * @param  GPIOx GPIO Port
 700:Drivers/STM32G4xx_HAL_Driver/Inc/stm32g4xx_ll_gpio.h ****   * @param  PinMask This parameter can be a combination of the following values:
 701:Drivers/STM32G4xx_HAL_Driver/Inc/stm32g4xx_ll_gpio.h ****   *         @arg @ref LL_GPIO_PIN_0
 702:Drivers/STM32G4xx_HAL_Driver/Inc/stm32g4xx_ll_gpio.h ****   *         @arg @ref LL_GPIO_PIN_1
 703:Drivers/STM32G4xx_HAL_Driver/Inc/stm32g4xx_ll_gpio.h ****   *         @arg @ref LL_GPIO_PIN_2
 704:Drivers/STM32G4xx_HAL_Driver/Inc/stm32g4xx_ll_gpio.h ****   *         @arg @ref LL_GPIO_PIN_3
 705:Drivers/STM32G4xx_HAL_Driver/Inc/stm32g4xx_ll_gpio.h ****   *         @arg @ref LL_GPIO_PIN_4
 706:Drivers/STM32G4xx_HAL_Driver/Inc/stm32g4xx_ll_gpio.h ****   *         @arg @ref LL_GPIO_PIN_5
 707:Drivers/STM32G4xx_HAL_Driver/Inc/stm32g4xx_ll_gpio.h ****   *         @arg @ref LL_GPIO_PIN_6
 708:Drivers/STM32G4xx_HAL_Driver/Inc/stm32g4xx_ll_gpio.h ****   *         @arg @ref LL_GPIO_PIN_7
 709:Drivers/STM32G4xx_HAL_Driver/Inc/stm32g4xx_ll_gpio.h ****   *         @arg @ref LL_GPIO_PIN_8
 710:Drivers/STM32G4xx_HAL_Driver/Inc/stm32g4xx_ll_gpio.h ****   *         @arg @ref LL_GPIO_PIN_9
 711:Drivers/STM32G4xx_HAL_Driver/Inc/stm32g4xx_ll_gpio.h ****   *         @arg @ref LL_GPIO_PIN_10
 712:Drivers/STM32G4xx_HAL_Driver/Inc/stm32g4xx_ll_gpio.h ****   *         @arg @ref LL_GPIO_PIN_11
 713:Drivers/STM32G4xx_HAL_Driver/Inc/stm32g4xx_ll_gpio.h ****   *         @arg @ref LL_GPIO_PIN_12
 714:Drivers/STM32G4xx_HAL_Driver/Inc/stm32g4xx_ll_gpio.h ****   *         @arg @ref LL_GPIO_PIN_13
 715:Drivers/STM32G4xx_HAL_Driver/Inc/stm32g4xx_ll_gpio.h ****   *         @arg @ref LL_GPIO_PIN_14
 716:Drivers/STM32G4xx_HAL_Driver/Inc/stm32g4xx_ll_gpio.h ****   *         @arg @ref LL_GPIO_PIN_15
 717:Drivers/STM32G4xx_HAL_Driver/Inc/stm32g4xx_ll_gpio.h ****   *         @arg @ref LL_GPIO_PIN_ALL
 718:Drivers/STM32G4xx_HAL_Driver/Inc/stm32g4xx_ll_gpio.h ****   * @retval None
 719:Drivers/STM32G4xx_HAL_Driver/Inc/stm32g4xx_ll_gpio.h ****   */
 720:Drivers/STM32G4xx_HAL_Driver/Inc/stm32g4xx_ll_gpio.h **** __STATIC_INLINE void LL_GPIO_LockPin(GPIO_TypeDef *GPIOx, uint32_t PinMask)
 721:Drivers/STM32G4xx_HAL_Driver/Inc/stm32g4xx_ll_gpio.h **** {
 722:Drivers/STM32G4xx_HAL_Driver/Inc/stm32g4xx_ll_gpio.h ****   __IO uint32_t temp;
 723:Drivers/STM32G4xx_HAL_Driver/Inc/stm32g4xx_ll_gpio.h ****   WRITE_REG(GPIOx->LCKR, GPIO_LCKR_LCKK | PinMask);
 724:Drivers/STM32G4xx_HAL_Driver/Inc/stm32g4xx_ll_gpio.h ****   WRITE_REG(GPIOx->LCKR, PinMask);
 725:Drivers/STM32G4xx_HAL_Driver/Inc/stm32g4xx_ll_gpio.h ****   WRITE_REG(GPIOx->LCKR, GPIO_LCKR_LCKK | PinMask);
 726:Drivers/STM32G4xx_HAL_Driver/Inc/stm32g4xx_ll_gpio.h ****   /* Read LCKR register. This read is mandatory to complete key lock sequence */
 727:Drivers/STM32G4xx_HAL_Driver/Inc/stm32g4xx_ll_gpio.h ****   temp = READ_REG(GPIOx->LCKR);
 728:Drivers/STM32G4xx_HAL_Driver/Inc/stm32g4xx_ll_gpio.h ****   (void) temp;
 729:Drivers/STM32G4xx_HAL_Driver/Inc/stm32g4xx_ll_gpio.h **** }
 730:Drivers/STM32G4xx_HAL_Driver/Inc/stm32g4xx_ll_gpio.h **** 
 731:Drivers/STM32G4xx_HAL_Driver/Inc/stm32g4xx_ll_gpio.h **** /**
 732:Drivers/STM32G4xx_HAL_Driver/Inc/stm32g4xx_ll_gpio.h ****   * @brief  Return 1 if all pins passed as parameter, of a dedicated port, are locked. else Return 
 733:Drivers/STM32G4xx_HAL_Driver/Inc/stm32g4xx_ll_gpio.h ****   * @rmtoll LCKR         LCKy          LL_GPIO_IsPinLocked
 734:Drivers/STM32G4xx_HAL_Driver/Inc/stm32g4xx_ll_gpio.h ****   * @param  GPIOx GPIO Port
 735:Drivers/STM32G4xx_HAL_Driver/Inc/stm32g4xx_ll_gpio.h ****   * @param  PinMask This parameter can be a combination of the following values:
 736:Drivers/STM32G4xx_HAL_Driver/Inc/stm32g4xx_ll_gpio.h ****   *         @arg @ref LL_GPIO_PIN_0
 737:Drivers/STM32G4xx_HAL_Driver/Inc/stm32g4xx_ll_gpio.h ****   *         @arg @ref LL_GPIO_PIN_1
 738:Drivers/STM32G4xx_HAL_Driver/Inc/stm32g4xx_ll_gpio.h ****   *         @arg @ref LL_GPIO_PIN_2
 739:Drivers/STM32G4xx_HAL_Driver/Inc/stm32g4xx_ll_gpio.h ****   *         @arg @ref LL_GPIO_PIN_3
 740:Drivers/STM32G4xx_HAL_Driver/Inc/stm32g4xx_ll_gpio.h ****   *         @arg @ref LL_GPIO_PIN_4
 741:Drivers/STM32G4xx_HAL_Driver/Inc/stm32g4xx_ll_gpio.h ****   *         @arg @ref LL_GPIO_PIN_5
 742:Drivers/STM32G4xx_HAL_Driver/Inc/stm32g4xx_ll_gpio.h ****   *         @arg @ref LL_GPIO_PIN_6
 743:Drivers/STM32G4xx_HAL_Driver/Inc/stm32g4xx_ll_gpio.h ****   *         @arg @ref LL_GPIO_PIN_7
 744:Drivers/STM32G4xx_HAL_Driver/Inc/stm32g4xx_ll_gpio.h ****   *         @arg @ref LL_GPIO_PIN_8
 745:Drivers/STM32G4xx_HAL_Driver/Inc/stm32g4xx_ll_gpio.h ****   *         @arg @ref LL_GPIO_PIN_9
 746:Drivers/STM32G4xx_HAL_Driver/Inc/stm32g4xx_ll_gpio.h ****   *         @arg @ref LL_GPIO_PIN_10
 747:Drivers/STM32G4xx_HAL_Driver/Inc/stm32g4xx_ll_gpio.h ****   *         @arg @ref LL_GPIO_PIN_11
 748:Drivers/STM32G4xx_HAL_Driver/Inc/stm32g4xx_ll_gpio.h ****   *         @arg @ref LL_GPIO_PIN_12
 749:Drivers/STM32G4xx_HAL_Driver/Inc/stm32g4xx_ll_gpio.h ****   *         @arg @ref LL_GPIO_PIN_13
 750:Drivers/STM32G4xx_HAL_Driver/Inc/stm32g4xx_ll_gpio.h ****   *         @arg @ref LL_GPIO_PIN_14
ARM GAS  D:\apps\VSCode\data\tmp\cc1Dl4Ov.s 			page 34


 751:Drivers/STM32G4xx_HAL_Driver/Inc/stm32g4xx_ll_gpio.h ****   *         @arg @ref LL_GPIO_PIN_15
 752:Drivers/STM32G4xx_HAL_Driver/Inc/stm32g4xx_ll_gpio.h ****   *         @arg @ref LL_GPIO_PIN_ALL
 753:Drivers/STM32G4xx_HAL_Driver/Inc/stm32g4xx_ll_gpio.h ****   * @retval State of bit (1 or 0).
 754:Drivers/STM32G4xx_HAL_Driver/Inc/stm32g4xx_ll_gpio.h ****   */
 755:Drivers/STM32G4xx_HAL_Driver/Inc/stm32g4xx_ll_gpio.h **** __STATIC_INLINE uint32_t LL_GPIO_IsPinLocked(GPIO_TypeDef *GPIOx, uint32_t PinMask)
 756:Drivers/STM32G4xx_HAL_Driver/Inc/stm32g4xx_ll_gpio.h **** {
 757:Drivers/STM32G4xx_HAL_Driver/Inc/stm32g4xx_ll_gpio.h ****   return ((READ_BIT(GPIOx->LCKR, PinMask) == (PinMask)) ? 1UL : 0UL);
 758:Drivers/STM32G4xx_HAL_Driver/Inc/stm32g4xx_ll_gpio.h **** }
 759:Drivers/STM32G4xx_HAL_Driver/Inc/stm32g4xx_ll_gpio.h **** 
 760:Drivers/STM32G4xx_HAL_Driver/Inc/stm32g4xx_ll_gpio.h **** /**
 761:Drivers/STM32G4xx_HAL_Driver/Inc/stm32g4xx_ll_gpio.h ****   * @brief  Return 1 if one of the pin of a dedicated port is locked. else return 0.
 762:Drivers/STM32G4xx_HAL_Driver/Inc/stm32g4xx_ll_gpio.h ****   * @rmtoll LCKR         LCKK          LL_GPIO_IsAnyPinLocked
 763:Drivers/STM32G4xx_HAL_Driver/Inc/stm32g4xx_ll_gpio.h ****   * @param  GPIOx GPIO Port
 764:Drivers/STM32G4xx_HAL_Driver/Inc/stm32g4xx_ll_gpio.h ****   * @retval State of bit (1 or 0).
 765:Drivers/STM32G4xx_HAL_Driver/Inc/stm32g4xx_ll_gpio.h ****   */
 766:Drivers/STM32G4xx_HAL_Driver/Inc/stm32g4xx_ll_gpio.h **** __STATIC_INLINE uint32_t LL_GPIO_IsAnyPinLocked(GPIO_TypeDef *GPIOx)
 767:Drivers/STM32G4xx_HAL_Driver/Inc/stm32g4xx_ll_gpio.h **** {
 768:Drivers/STM32G4xx_HAL_Driver/Inc/stm32g4xx_ll_gpio.h ****   return ((READ_BIT(GPIOx->LCKR, GPIO_LCKR_LCKK) == (GPIO_LCKR_LCKK)) ? 1UL : 0UL);
 769:Drivers/STM32G4xx_HAL_Driver/Inc/stm32g4xx_ll_gpio.h **** }
 770:Drivers/STM32G4xx_HAL_Driver/Inc/stm32g4xx_ll_gpio.h **** 
 771:Drivers/STM32G4xx_HAL_Driver/Inc/stm32g4xx_ll_gpio.h **** /**
 772:Drivers/STM32G4xx_HAL_Driver/Inc/stm32g4xx_ll_gpio.h ****   * @}
 773:Drivers/STM32G4xx_HAL_Driver/Inc/stm32g4xx_ll_gpio.h ****   */
 774:Drivers/STM32G4xx_HAL_Driver/Inc/stm32g4xx_ll_gpio.h **** 
 775:Drivers/STM32G4xx_HAL_Driver/Inc/stm32g4xx_ll_gpio.h **** /** @defgroup GPIO_LL_EF_Data_Access Data Access
 776:Drivers/STM32G4xx_HAL_Driver/Inc/stm32g4xx_ll_gpio.h ****   * @{
 777:Drivers/STM32G4xx_HAL_Driver/Inc/stm32g4xx_ll_gpio.h ****   */
 778:Drivers/STM32G4xx_HAL_Driver/Inc/stm32g4xx_ll_gpio.h **** 
 779:Drivers/STM32G4xx_HAL_Driver/Inc/stm32g4xx_ll_gpio.h **** /**
 780:Drivers/STM32G4xx_HAL_Driver/Inc/stm32g4xx_ll_gpio.h ****   * @brief  Return full input data register value for a dedicated port.
 781:Drivers/STM32G4xx_HAL_Driver/Inc/stm32g4xx_ll_gpio.h ****   * @rmtoll IDR          IDy           LL_GPIO_ReadInputPort
 782:Drivers/STM32G4xx_HAL_Driver/Inc/stm32g4xx_ll_gpio.h ****   * @param  GPIOx GPIO Port
 783:Drivers/STM32G4xx_HAL_Driver/Inc/stm32g4xx_ll_gpio.h ****   * @retval Input data register value of port
 784:Drivers/STM32G4xx_HAL_Driver/Inc/stm32g4xx_ll_gpio.h ****   */
 785:Drivers/STM32G4xx_HAL_Driver/Inc/stm32g4xx_ll_gpio.h **** __STATIC_INLINE uint32_t LL_GPIO_ReadInputPort(GPIO_TypeDef *GPIOx)
 786:Drivers/STM32G4xx_HAL_Driver/Inc/stm32g4xx_ll_gpio.h **** {
 787:Drivers/STM32G4xx_HAL_Driver/Inc/stm32g4xx_ll_gpio.h ****   return (uint32_t)(READ_REG(GPIOx->IDR));
 788:Drivers/STM32G4xx_HAL_Driver/Inc/stm32g4xx_ll_gpio.h **** }
 789:Drivers/STM32G4xx_HAL_Driver/Inc/stm32g4xx_ll_gpio.h **** 
 790:Drivers/STM32G4xx_HAL_Driver/Inc/stm32g4xx_ll_gpio.h **** /**
 791:Drivers/STM32G4xx_HAL_Driver/Inc/stm32g4xx_ll_gpio.h ****   * @brief  Return if input data level for several pins of dedicated port is high or low.
 792:Drivers/STM32G4xx_HAL_Driver/Inc/stm32g4xx_ll_gpio.h ****   * @rmtoll IDR          IDy           LL_GPIO_IsInputPinSet
 793:Drivers/STM32G4xx_HAL_Driver/Inc/stm32g4xx_ll_gpio.h ****   * @param  GPIOx GPIO Port
 794:Drivers/STM32G4xx_HAL_Driver/Inc/stm32g4xx_ll_gpio.h ****   * @param  PinMask This parameter can be a combination of the following values:
 795:Drivers/STM32G4xx_HAL_Driver/Inc/stm32g4xx_ll_gpio.h ****   *         @arg @ref LL_GPIO_PIN_0
 796:Drivers/STM32G4xx_HAL_Driver/Inc/stm32g4xx_ll_gpio.h ****   *         @arg @ref LL_GPIO_PIN_1
 797:Drivers/STM32G4xx_HAL_Driver/Inc/stm32g4xx_ll_gpio.h ****   *         @arg @ref LL_GPIO_PIN_2
 798:Drivers/STM32G4xx_HAL_Driver/Inc/stm32g4xx_ll_gpio.h ****   *         @arg @ref LL_GPIO_PIN_3
 799:Drivers/STM32G4xx_HAL_Driver/Inc/stm32g4xx_ll_gpio.h ****   *         @arg @ref LL_GPIO_PIN_4
 800:Drivers/STM32G4xx_HAL_Driver/Inc/stm32g4xx_ll_gpio.h ****   *         @arg @ref LL_GPIO_PIN_5
 801:Drivers/STM32G4xx_HAL_Driver/Inc/stm32g4xx_ll_gpio.h ****   *         @arg @ref LL_GPIO_PIN_6
 802:Drivers/STM32G4xx_HAL_Driver/Inc/stm32g4xx_ll_gpio.h ****   *         @arg @ref LL_GPIO_PIN_7
 803:Drivers/STM32G4xx_HAL_Driver/Inc/stm32g4xx_ll_gpio.h ****   *         @arg @ref LL_GPIO_PIN_8
 804:Drivers/STM32G4xx_HAL_Driver/Inc/stm32g4xx_ll_gpio.h ****   *         @arg @ref LL_GPIO_PIN_9
 805:Drivers/STM32G4xx_HAL_Driver/Inc/stm32g4xx_ll_gpio.h ****   *         @arg @ref LL_GPIO_PIN_10
 806:Drivers/STM32G4xx_HAL_Driver/Inc/stm32g4xx_ll_gpio.h ****   *         @arg @ref LL_GPIO_PIN_11
 807:Drivers/STM32G4xx_HAL_Driver/Inc/stm32g4xx_ll_gpio.h ****   *         @arg @ref LL_GPIO_PIN_12
ARM GAS  D:\apps\VSCode\data\tmp\cc1Dl4Ov.s 			page 35


 808:Drivers/STM32G4xx_HAL_Driver/Inc/stm32g4xx_ll_gpio.h ****   *         @arg @ref LL_GPIO_PIN_13
 809:Drivers/STM32G4xx_HAL_Driver/Inc/stm32g4xx_ll_gpio.h ****   *         @arg @ref LL_GPIO_PIN_14
 810:Drivers/STM32G4xx_HAL_Driver/Inc/stm32g4xx_ll_gpio.h ****   *         @arg @ref LL_GPIO_PIN_15
 811:Drivers/STM32G4xx_HAL_Driver/Inc/stm32g4xx_ll_gpio.h ****   *         @arg @ref LL_GPIO_PIN_ALL
 812:Drivers/STM32G4xx_HAL_Driver/Inc/stm32g4xx_ll_gpio.h ****   * @retval State of bit (1 or 0).
 813:Drivers/STM32G4xx_HAL_Driver/Inc/stm32g4xx_ll_gpio.h ****   */
 814:Drivers/STM32G4xx_HAL_Driver/Inc/stm32g4xx_ll_gpio.h **** __STATIC_INLINE uint32_t LL_GPIO_IsInputPinSet(GPIO_TypeDef *GPIOx, uint32_t PinMask)
 815:Drivers/STM32G4xx_HAL_Driver/Inc/stm32g4xx_ll_gpio.h **** {
 816:Drivers/STM32G4xx_HAL_Driver/Inc/stm32g4xx_ll_gpio.h ****   return ((READ_BIT(GPIOx->IDR, PinMask) == (PinMask)) ? 1UL : 0UL);
 817:Drivers/STM32G4xx_HAL_Driver/Inc/stm32g4xx_ll_gpio.h **** }
 818:Drivers/STM32G4xx_HAL_Driver/Inc/stm32g4xx_ll_gpio.h **** 
 819:Drivers/STM32G4xx_HAL_Driver/Inc/stm32g4xx_ll_gpio.h **** /**
 820:Drivers/STM32G4xx_HAL_Driver/Inc/stm32g4xx_ll_gpio.h ****   * @brief  Write output data register for the port.
 821:Drivers/STM32G4xx_HAL_Driver/Inc/stm32g4xx_ll_gpio.h ****   * @rmtoll ODR          ODy           LL_GPIO_WriteOutputPort
 822:Drivers/STM32G4xx_HAL_Driver/Inc/stm32g4xx_ll_gpio.h ****   * @param  GPIOx GPIO Port
 823:Drivers/STM32G4xx_HAL_Driver/Inc/stm32g4xx_ll_gpio.h ****   * @param  PortValue Level value for each pin of the port
 824:Drivers/STM32G4xx_HAL_Driver/Inc/stm32g4xx_ll_gpio.h ****   * @retval None
 825:Drivers/STM32G4xx_HAL_Driver/Inc/stm32g4xx_ll_gpio.h ****   */
 826:Drivers/STM32G4xx_HAL_Driver/Inc/stm32g4xx_ll_gpio.h **** __STATIC_INLINE void LL_GPIO_WriteOutputPort(GPIO_TypeDef *GPIOx, uint32_t PortValue)
 827:Drivers/STM32G4xx_HAL_Driver/Inc/stm32g4xx_ll_gpio.h **** {
 828:Drivers/STM32G4xx_HAL_Driver/Inc/stm32g4xx_ll_gpio.h ****   WRITE_REG(GPIOx->ODR, PortValue);
 829:Drivers/STM32G4xx_HAL_Driver/Inc/stm32g4xx_ll_gpio.h **** }
 830:Drivers/STM32G4xx_HAL_Driver/Inc/stm32g4xx_ll_gpio.h **** 
 831:Drivers/STM32G4xx_HAL_Driver/Inc/stm32g4xx_ll_gpio.h **** /**
 832:Drivers/STM32G4xx_HAL_Driver/Inc/stm32g4xx_ll_gpio.h ****   * @brief  Return full output data register value for a dedicated port.
 833:Drivers/STM32G4xx_HAL_Driver/Inc/stm32g4xx_ll_gpio.h ****   * @rmtoll ODR          ODy           LL_GPIO_ReadOutputPort
 834:Drivers/STM32G4xx_HAL_Driver/Inc/stm32g4xx_ll_gpio.h ****   * @param  GPIOx GPIO Port
 835:Drivers/STM32G4xx_HAL_Driver/Inc/stm32g4xx_ll_gpio.h ****   * @retval Output data register value of port
 836:Drivers/STM32G4xx_HAL_Driver/Inc/stm32g4xx_ll_gpio.h ****   */
 837:Drivers/STM32G4xx_HAL_Driver/Inc/stm32g4xx_ll_gpio.h **** __STATIC_INLINE uint32_t LL_GPIO_ReadOutputPort(GPIO_TypeDef *GPIOx)
 838:Drivers/STM32G4xx_HAL_Driver/Inc/stm32g4xx_ll_gpio.h **** {
 839:Drivers/STM32G4xx_HAL_Driver/Inc/stm32g4xx_ll_gpio.h ****   return (uint32_t)(READ_REG(GPIOx->ODR));
 840:Drivers/STM32G4xx_HAL_Driver/Inc/stm32g4xx_ll_gpio.h **** }
 841:Drivers/STM32G4xx_HAL_Driver/Inc/stm32g4xx_ll_gpio.h **** 
 842:Drivers/STM32G4xx_HAL_Driver/Inc/stm32g4xx_ll_gpio.h **** /**
 843:Drivers/STM32G4xx_HAL_Driver/Inc/stm32g4xx_ll_gpio.h ****   * @brief  Return if input data level for several pins of dedicated port is high or low.
 844:Drivers/STM32G4xx_HAL_Driver/Inc/stm32g4xx_ll_gpio.h ****   * @rmtoll ODR          ODy           LL_GPIO_IsOutputPinSet
 845:Drivers/STM32G4xx_HAL_Driver/Inc/stm32g4xx_ll_gpio.h ****   * @param  GPIOx GPIO Port
 846:Drivers/STM32G4xx_HAL_Driver/Inc/stm32g4xx_ll_gpio.h ****   * @param  PinMask This parameter can be a combination of the following values:
 847:Drivers/STM32G4xx_HAL_Driver/Inc/stm32g4xx_ll_gpio.h ****   *         @arg @ref LL_GPIO_PIN_0
 848:Drivers/STM32G4xx_HAL_Driver/Inc/stm32g4xx_ll_gpio.h ****   *         @arg @ref LL_GPIO_PIN_1
 849:Drivers/STM32G4xx_HAL_Driver/Inc/stm32g4xx_ll_gpio.h ****   *         @arg @ref LL_GPIO_PIN_2
 850:Drivers/STM32G4xx_HAL_Driver/Inc/stm32g4xx_ll_gpio.h ****   *         @arg @ref LL_GPIO_PIN_3
 851:Drivers/STM32G4xx_HAL_Driver/Inc/stm32g4xx_ll_gpio.h ****   *         @arg @ref LL_GPIO_PIN_4
 852:Drivers/STM32G4xx_HAL_Driver/Inc/stm32g4xx_ll_gpio.h ****   *         @arg @ref LL_GPIO_PIN_5
 853:Drivers/STM32G4xx_HAL_Driver/Inc/stm32g4xx_ll_gpio.h ****   *         @arg @ref LL_GPIO_PIN_6
 854:Drivers/STM32G4xx_HAL_Driver/Inc/stm32g4xx_ll_gpio.h ****   *         @arg @ref LL_GPIO_PIN_7
 855:Drivers/STM32G4xx_HAL_Driver/Inc/stm32g4xx_ll_gpio.h ****   *         @arg @ref LL_GPIO_PIN_8
 856:Drivers/STM32G4xx_HAL_Driver/Inc/stm32g4xx_ll_gpio.h ****   *         @arg @ref LL_GPIO_PIN_9
 857:Drivers/STM32G4xx_HAL_Driver/Inc/stm32g4xx_ll_gpio.h ****   *         @arg @ref LL_GPIO_PIN_10
 858:Drivers/STM32G4xx_HAL_Driver/Inc/stm32g4xx_ll_gpio.h ****   *         @arg @ref LL_GPIO_PIN_11
 859:Drivers/STM32G4xx_HAL_Driver/Inc/stm32g4xx_ll_gpio.h ****   *         @arg @ref LL_GPIO_PIN_12
 860:Drivers/STM32G4xx_HAL_Driver/Inc/stm32g4xx_ll_gpio.h ****   *         @arg @ref LL_GPIO_PIN_13
 861:Drivers/STM32G4xx_HAL_Driver/Inc/stm32g4xx_ll_gpio.h ****   *         @arg @ref LL_GPIO_PIN_14
 862:Drivers/STM32G4xx_HAL_Driver/Inc/stm32g4xx_ll_gpio.h ****   *         @arg @ref LL_GPIO_PIN_15
 863:Drivers/STM32G4xx_HAL_Driver/Inc/stm32g4xx_ll_gpio.h ****   *         @arg @ref LL_GPIO_PIN_ALL
 864:Drivers/STM32G4xx_HAL_Driver/Inc/stm32g4xx_ll_gpio.h ****   * @retval State of bit (1 or 0).
ARM GAS  D:\apps\VSCode\data\tmp\cc1Dl4Ov.s 			page 36


 865:Drivers/STM32G4xx_HAL_Driver/Inc/stm32g4xx_ll_gpio.h ****   */
 866:Drivers/STM32G4xx_HAL_Driver/Inc/stm32g4xx_ll_gpio.h **** __STATIC_INLINE uint32_t LL_GPIO_IsOutputPinSet(GPIO_TypeDef *GPIOx, uint32_t PinMask)
 867:Drivers/STM32G4xx_HAL_Driver/Inc/stm32g4xx_ll_gpio.h **** {
 868:Drivers/STM32G4xx_HAL_Driver/Inc/stm32g4xx_ll_gpio.h ****   return ((READ_BIT(GPIOx->ODR, PinMask) == (PinMask)) ? 1UL : 0UL);
 869:Drivers/STM32G4xx_HAL_Driver/Inc/stm32g4xx_ll_gpio.h **** }
 870:Drivers/STM32G4xx_HAL_Driver/Inc/stm32g4xx_ll_gpio.h **** 
 871:Drivers/STM32G4xx_HAL_Driver/Inc/stm32g4xx_ll_gpio.h **** /**
 872:Drivers/STM32G4xx_HAL_Driver/Inc/stm32g4xx_ll_gpio.h ****   * @brief  Set several pins to high level on dedicated gpio port.
 873:Drivers/STM32G4xx_HAL_Driver/Inc/stm32g4xx_ll_gpio.h ****   * @rmtoll BSRR         BSy           LL_GPIO_SetOutputPin
 874:Drivers/STM32G4xx_HAL_Driver/Inc/stm32g4xx_ll_gpio.h ****   * @param  GPIOx GPIO Port
 875:Drivers/STM32G4xx_HAL_Driver/Inc/stm32g4xx_ll_gpio.h ****   * @param  PinMask This parameter can be a combination of the following values:
 876:Drivers/STM32G4xx_HAL_Driver/Inc/stm32g4xx_ll_gpio.h ****   *         @arg @ref LL_GPIO_PIN_0
 877:Drivers/STM32G4xx_HAL_Driver/Inc/stm32g4xx_ll_gpio.h ****   *         @arg @ref LL_GPIO_PIN_1
 878:Drivers/STM32G4xx_HAL_Driver/Inc/stm32g4xx_ll_gpio.h ****   *         @arg @ref LL_GPIO_PIN_2
 879:Drivers/STM32G4xx_HAL_Driver/Inc/stm32g4xx_ll_gpio.h ****   *         @arg @ref LL_GPIO_PIN_3
 880:Drivers/STM32G4xx_HAL_Driver/Inc/stm32g4xx_ll_gpio.h ****   *         @arg @ref LL_GPIO_PIN_4
 881:Drivers/STM32G4xx_HAL_Driver/Inc/stm32g4xx_ll_gpio.h ****   *         @arg @ref LL_GPIO_PIN_5
 882:Drivers/STM32G4xx_HAL_Driver/Inc/stm32g4xx_ll_gpio.h ****   *         @arg @ref LL_GPIO_PIN_6
 883:Drivers/STM32G4xx_HAL_Driver/Inc/stm32g4xx_ll_gpio.h ****   *         @arg @ref LL_GPIO_PIN_7
 884:Drivers/STM32G4xx_HAL_Driver/Inc/stm32g4xx_ll_gpio.h ****   *         @arg @ref LL_GPIO_PIN_8
 885:Drivers/STM32G4xx_HAL_Driver/Inc/stm32g4xx_ll_gpio.h ****   *         @arg @ref LL_GPIO_PIN_9
 886:Drivers/STM32G4xx_HAL_Driver/Inc/stm32g4xx_ll_gpio.h ****   *         @arg @ref LL_GPIO_PIN_10
 887:Drivers/STM32G4xx_HAL_Driver/Inc/stm32g4xx_ll_gpio.h ****   *         @arg @ref LL_GPIO_PIN_11
 888:Drivers/STM32G4xx_HAL_Driver/Inc/stm32g4xx_ll_gpio.h ****   *         @arg @ref LL_GPIO_PIN_12
 889:Drivers/STM32G4xx_HAL_Driver/Inc/stm32g4xx_ll_gpio.h ****   *         @arg @ref LL_GPIO_PIN_13
 890:Drivers/STM32G4xx_HAL_Driver/Inc/stm32g4xx_ll_gpio.h ****   *         @arg @ref LL_GPIO_PIN_14
 891:Drivers/STM32G4xx_HAL_Driver/Inc/stm32g4xx_ll_gpio.h ****   *         @arg @ref LL_GPIO_PIN_15
 892:Drivers/STM32G4xx_HAL_Driver/Inc/stm32g4xx_ll_gpio.h ****   *         @arg @ref LL_GPIO_PIN_ALL
 893:Drivers/STM32G4xx_HAL_Driver/Inc/stm32g4xx_ll_gpio.h ****   * @retval None
 894:Drivers/STM32G4xx_HAL_Driver/Inc/stm32g4xx_ll_gpio.h ****   */
 895:Drivers/STM32G4xx_HAL_Driver/Inc/stm32g4xx_ll_gpio.h **** __STATIC_INLINE void LL_GPIO_SetOutputPin(GPIO_TypeDef *GPIOx, uint32_t PinMask)
 896:Drivers/STM32G4xx_HAL_Driver/Inc/stm32g4xx_ll_gpio.h **** {
 897:Drivers/STM32G4xx_HAL_Driver/Inc/stm32g4xx_ll_gpio.h ****   WRITE_REG(GPIOx->BSRR, PinMask);
 898:Drivers/STM32G4xx_HAL_Driver/Inc/stm32g4xx_ll_gpio.h **** }
 899:Drivers/STM32G4xx_HAL_Driver/Inc/stm32g4xx_ll_gpio.h **** 
 900:Drivers/STM32G4xx_HAL_Driver/Inc/stm32g4xx_ll_gpio.h **** /**
 901:Drivers/STM32G4xx_HAL_Driver/Inc/stm32g4xx_ll_gpio.h ****   * @brief  Set several pins to low level on dedicated gpio port.
 902:Drivers/STM32G4xx_HAL_Driver/Inc/stm32g4xx_ll_gpio.h ****   * @rmtoll BRR          BRy           LL_GPIO_ResetOutputPin
 903:Drivers/STM32G4xx_HAL_Driver/Inc/stm32g4xx_ll_gpio.h ****   * @param  GPIOx GPIO Port
 904:Drivers/STM32G4xx_HAL_Driver/Inc/stm32g4xx_ll_gpio.h ****   * @param  PinMask This parameter can be a combination of the following values:
 905:Drivers/STM32G4xx_HAL_Driver/Inc/stm32g4xx_ll_gpio.h ****   *         @arg @ref LL_GPIO_PIN_0
 906:Drivers/STM32G4xx_HAL_Driver/Inc/stm32g4xx_ll_gpio.h ****   *         @arg @ref LL_GPIO_PIN_1
 907:Drivers/STM32G4xx_HAL_Driver/Inc/stm32g4xx_ll_gpio.h ****   *         @arg @ref LL_GPIO_PIN_2
 908:Drivers/STM32G4xx_HAL_Driver/Inc/stm32g4xx_ll_gpio.h ****   *         @arg @ref LL_GPIO_PIN_3
 909:Drivers/STM32G4xx_HAL_Driver/Inc/stm32g4xx_ll_gpio.h ****   *         @arg @ref LL_GPIO_PIN_4
 910:Drivers/STM32G4xx_HAL_Driver/Inc/stm32g4xx_ll_gpio.h ****   *         @arg @ref LL_GPIO_PIN_5
 911:Drivers/STM32G4xx_HAL_Driver/Inc/stm32g4xx_ll_gpio.h ****   *         @arg @ref LL_GPIO_PIN_6
 912:Drivers/STM32G4xx_HAL_Driver/Inc/stm32g4xx_ll_gpio.h ****   *         @arg @ref LL_GPIO_PIN_7
 913:Drivers/STM32G4xx_HAL_Driver/Inc/stm32g4xx_ll_gpio.h ****   *         @arg @ref LL_GPIO_PIN_8
 914:Drivers/STM32G4xx_HAL_Driver/Inc/stm32g4xx_ll_gpio.h ****   *         @arg @ref LL_GPIO_PIN_9
 915:Drivers/STM32G4xx_HAL_Driver/Inc/stm32g4xx_ll_gpio.h ****   *         @arg @ref LL_GPIO_PIN_10
 916:Drivers/STM32G4xx_HAL_Driver/Inc/stm32g4xx_ll_gpio.h ****   *         @arg @ref LL_GPIO_PIN_11
 917:Drivers/STM32G4xx_HAL_Driver/Inc/stm32g4xx_ll_gpio.h ****   *         @arg @ref LL_GPIO_PIN_12
 918:Drivers/STM32G4xx_HAL_Driver/Inc/stm32g4xx_ll_gpio.h ****   *         @arg @ref LL_GPIO_PIN_13
 919:Drivers/STM32G4xx_HAL_Driver/Inc/stm32g4xx_ll_gpio.h ****   *         @arg @ref LL_GPIO_PIN_14
 920:Drivers/STM32G4xx_HAL_Driver/Inc/stm32g4xx_ll_gpio.h ****   *         @arg @ref LL_GPIO_PIN_15
 921:Drivers/STM32G4xx_HAL_Driver/Inc/stm32g4xx_ll_gpio.h ****   *         @arg @ref LL_GPIO_PIN_ALL
ARM GAS  D:\apps\VSCode\data\tmp\cc1Dl4Ov.s 			page 37


 922:Drivers/STM32G4xx_HAL_Driver/Inc/stm32g4xx_ll_gpio.h ****   * @retval None
 923:Drivers/STM32G4xx_HAL_Driver/Inc/stm32g4xx_ll_gpio.h ****   */
 924:Drivers/STM32G4xx_HAL_Driver/Inc/stm32g4xx_ll_gpio.h **** __STATIC_INLINE void LL_GPIO_ResetOutputPin(GPIO_TypeDef *GPIOx, uint32_t PinMask)
 925:Drivers/STM32G4xx_HAL_Driver/Inc/stm32g4xx_ll_gpio.h **** {
 926:Drivers/STM32G4xx_HAL_Driver/Inc/stm32g4xx_ll_gpio.h ****   WRITE_REG(GPIOx->BRR, PinMask);
 467              		.loc 3 926 3 is_stmt 0 view .LVU132
 468 0026 4FF09045 		mov	r5, #1207959552
 469              	.LBE38:
 470              	.LBE37:
 471              	.LBB41:
 472              	.LBB36:
 473              		.loc 2 456 3 view .LVU133
 474 002a DA6C     		ldr	r2, [r3, #76]
 475 002c 42F00102 		orr	r2, r2, #1
 476 0030 DA64     		str	r2, [r3, #76]
 457:Drivers/STM32G4xx_HAL_Driver/Inc/stm32g4xx_ll_bus.h ****   /* Delay after an RCC peripheral clock enabling */
 458:Drivers/STM32G4xx_HAL_Driver/Inc/stm32g4xx_ll_bus.h ****   tmpreg = READ_BIT(RCC->AHB2ENR, Periphs);
 477              		.loc 2 458 3 is_stmt 1 view .LVU134
 478              		.loc 2 458 12 is_stmt 0 view .LVU135
 479 0032 DA6C     		ldr	r2, [r3, #76]
 480 0034 02F00102 		and	r2, r2, #1
 481              		.loc 2 458 10 view .LVU136
 482 0038 0192     		str	r2, [sp, #4]
 459:Drivers/STM32G4xx_HAL_Driver/Inc/stm32g4xx_ll_bus.h ****   (void)tmpreg;
 483              		.loc 2 459 3 is_stmt 1 view .LVU137
 484 003a 019A     		ldr	r2, [sp, #4]
 485              	.LVL13:
 486              		.loc 2 459 3 is_stmt 0 view .LVU138
 487              	.LBE36:
 488              	.LBE41:
 113:Src/fdcan.c   ****     /**/
 489              		.loc 1 113 5 is_stmt 1 view .LVU139
 490              	.LBB42:
 491              	.LBI42:
 460:Drivers/STM32G4xx_HAL_Driver/Inc/stm32g4xx_ll_bus.h **** }
 461:Drivers/STM32G4xx_HAL_Driver/Inc/stm32g4xx_ll_bus.h **** 
 462:Drivers/STM32G4xx_HAL_Driver/Inc/stm32g4xx_ll_bus.h **** /**
 463:Drivers/STM32G4xx_HAL_Driver/Inc/stm32g4xx_ll_bus.h ****   * @brief  Check if AHB2 peripheral clock is enabled or not
 464:Drivers/STM32G4xx_HAL_Driver/Inc/stm32g4xx_ll_bus.h ****   * @rmtoll AHB2ENR      GPIOAEN       LL_AHB2_GRP1_IsEnabledClock\n
 465:Drivers/STM32G4xx_HAL_Driver/Inc/stm32g4xx_ll_bus.h ****   *         AHB2ENR      GPIOBEN       LL_AHB2_GRP1_IsEnabledClock\n
 466:Drivers/STM32G4xx_HAL_Driver/Inc/stm32g4xx_ll_bus.h ****   *         AHB2ENR      GPIOCEN       LL_AHB2_GRP1_IsEnabledClock\n
 467:Drivers/STM32G4xx_HAL_Driver/Inc/stm32g4xx_ll_bus.h ****   *         AHB2ENR      GPIODEN       LL_AHB2_GRP1_IsEnabledClock\n
 468:Drivers/STM32G4xx_HAL_Driver/Inc/stm32g4xx_ll_bus.h ****   *         AHB2ENR      GPIOEEN       LL_AHB2_GRP1_IsEnabledClock\n
 469:Drivers/STM32G4xx_HAL_Driver/Inc/stm32g4xx_ll_bus.h ****   *         AHB2ENR      GPIOFEN       LL_AHB2_GRP1_IsEnabledClock\n
 470:Drivers/STM32G4xx_HAL_Driver/Inc/stm32g4xx_ll_bus.h ****   *         AHB2ENR      GPIOGEN       LL_AHB2_GRP1_IsEnabledClock\n
 471:Drivers/STM32G4xx_HAL_Driver/Inc/stm32g4xx_ll_bus.h ****   *         AHB2ENR      ADC12EN       LL_AHB2_GRP1_IsEnabledClock\n
 472:Drivers/STM32G4xx_HAL_Driver/Inc/stm32g4xx_ll_bus.h ****   *         AHB2ENR      ADC345EN      LL_AHB2_GRP1_IsEnabledClock\n
 473:Drivers/STM32G4xx_HAL_Driver/Inc/stm32g4xx_ll_bus.h ****   *         AHB2ENR      DAC1EN        LL_AHB2_GRP1_IsEnabledClock\n
 474:Drivers/STM32G4xx_HAL_Driver/Inc/stm32g4xx_ll_bus.h ****   *         AHB2ENR      DAC2EN        LL_AHB2_GRP1_IsEnabledClock\n
 475:Drivers/STM32G4xx_HAL_Driver/Inc/stm32g4xx_ll_bus.h ****   *         AHB2ENR      DAC3EN        LL_AHB2_GRP1_IsEnabledClock\n
 476:Drivers/STM32G4xx_HAL_Driver/Inc/stm32g4xx_ll_bus.h ****   *         AHB2ENR      DAC4EN        LL_AHB2_GRP1_IsEnabledClock\n
 477:Drivers/STM32G4xx_HAL_Driver/Inc/stm32g4xx_ll_bus.h ****   *         AHB2ENR      AESEN         LL_AHB2_GRP1_IsEnabledClock\n
 478:Drivers/STM32G4xx_HAL_Driver/Inc/stm32g4xx_ll_bus.h ****   *         AHB2ENR      RNGEN         LL_AHB2_GRP1_IsEnabledClock
 479:Drivers/STM32G4xx_HAL_Driver/Inc/stm32g4xx_ll_bus.h ****   * @param  Periphs This parameter can be a combination of the following values:
 480:Drivers/STM32G4xx_HAL_Driver/Inc/stm32g4xx_ll_bus.h ****   *         @arg @ref LL_AHB2_GRP1_PERIPH_GPIOA
 481:Drivers/STM32G4xx_HAL_Driver/Inc/stm32g4xx_ll_bus.h ****   *         @arg @ref LL_AHB2_GRP1_PERIPH_GPIOB
 482:Drivers/STM32G4xx_HAL_Driver/Inc/stm32g4xx_ll_bus.h ****   *         @arg @ref LL_AHB2_GRP1_PERIPH_GPIOC
ARM GAS  D:\apps\VSCode\data\tmp\cc1Dl4Ov.s 			page 38


 483:Drivers/STM32G4xx_HAL_Driver/Inc/stm32g4xx_ll_bus.h ****   *         @arg @ref LL_AHB2_GRP1_PERIPH_GPIOD
 484:Drivers/STM32G4xx_HAL_Driver/Inc/stm32g4xx_ll_bus.h ****   *         @arg @ref LL_AHB2_GRP1_PERIPH_GPIOE
 485:Drivers/STM32G4xx_HAL_Driver/Inc/stm32g4xx_ll_bus.h ****   *         @arg @ref LL_AHB2_GRP1_PERIPH_GPIOF
 486:Drivers/STM32G4xx_HAL_Driver/Inc/stm32g4xx_ll_bus.h ****   *         @arg @ref LL_AHB2_GRP1_PERIPH_GPIOG
 487:Drivers/STM32G4xx_HAL_Driver/Inc/stm32g4xx_ll_bus.h ****   *         @arg @ref LL_AHB2_GRP1_PERIPH_ADC12
 488:Drivers/STM32G4xx_HAL_Driver/Inc/stm32g4xx_ll_bus.h ****   *         @arg @ref LL_AHB2_GRP1_PERIPH_ADC345 (*)
 489:Drivers/STM32G4xx_HAL_Driver/Inc/stm32g4xx_ll_bus.h ****   *         @arg @ref LL_AHB2_GRP1_PERIPH_DAC1
 490:Drivers/STM32G4xx_HAL_Driver/Inc/stm32g4xx_ll_bus.h ****   *         @arg @ref LL_AHB2_GRP1_PERIPH_DAC2 (*)
 491:Drivers/STM32G4xx_HAL_Driver/Inc/stm32g4xx_ll_bus.h ****   *         @arg @ref LL_AHB2_GRP1_PERIPH_DAC3
 492:Drivers/STM32G4xx_HAL_Driver/Inc/stm32g4xx_ll_bus.h ****   *         @arg @ref LL_AHB2_GRP1_PERIPH_DAC4 (*)
 493:Drivers/STM32G4xx_HAL_Driver/Inc/stm32g4xx_ll_bus.h ****   *         @arg @ref LL_AHB2_GRP1_PERIPH_AES (*)
 494:Drivers/STM32G4xx_HAL_Driver/Inc/stm32g4xx_ll_bus.h ****   *         @arg @ref LL_AHB2_GRP1_PERIPH_RNG
 495:Drivers/STM32G4xx_HAL_Driver/Inc/stm32g4xx_ll_bus.h ****   *
 496:Drivers/STM32G4xx_HAL_Driver/Inc/stm32g4xx_ll_bus.h ****   *         (*) value not defined in all devices.
 497:Drivers/STM32G4xx_HAL_Driver/Inc/stm32g4xx_ll_bus.h ****   * @retval State of Periphs (1 or 0).
 498:Drivers/STM32G4xx_HAL_Driver/Inc/stm32g4xx_ll_bus.h ****   */
 499:Drivers/STM32G4xx_HAL_Driver/Inc/stm32g4xx_ll_bus.h **** __STATIC_INLINE uint32_t LL_AHB2_GRP1_IsEnabledClock(uint32_t Periphs)
 500:Drivers/STM32G4xx_HAL_Driver/Inc/stm32g4xx_ll_bus.h **** {
 501:Drivers/STM32G4xx_HAL_Driver/Inc/stm32g4xx_ll_bus.h ****   return ((READ_BIT(RCC->AHB2ENR, Periphs) == Periphs) ? 1UL : 0UL);
 502:Drivers/STM32G4xx_HAL_Driver/Inc/stm32g4xx_ll_bus.h **** }
 503:Drivers/STM32G4xx_HAL_Driver/Inc/stm32g4xx_ll_bus.h **** 
 504:Drivers/STM32G4xx_HAL_Driver/Inc/stm32g4xx_ll_bus.h **** /**
 505:Drivers/STM32G4xx_HAL_Driver/Inc/stm32g4xx_ll_bus.h ****   * @brief  Disable AHB2 peripherals clock.
 506:Drivers/STM32G4xx_HAL_Driver/Inc/stm32g4xx_ll_bus.h ****   * @rmtoll AHB2ENR      GPIOAEN       LL_AHB2_GRP1_DisableClock\n
 507:Drivers/STM32G4xx_HAL_Driver/Inc/stm32g4xx_ll_bus.h ****   *         AHB2ENR      GPIOBEN       LL_AHB2_GRP1_DisableClock\n
 508:Drivers/STM32G4xx_HAL_Driver/Inc/stm32g4xx_ll_bus.h ****   *         AHB2ENR      GPIOCEN       LL_AHB2_GRP1_DisableClock\n
 509:Drivers/STM32G4xx_HAL_Driver/Inc/stm32g4xx_ll_bus.h ****   *         AHB2ENR      GPIODEN       LL_AHB2_GRP1_DisableClock\n
 510:Drivers/STM32G4xx_HAL_Driver/Inc/stm32g4xx_ll_bus.h ****   *         AHB2ENR      GPIOEEN       LL_AHB2_GRP1_DisableClock\n
 511:Drivers/STM32G4xx_HAL_Driver/Inc/stm32g4xx_ll_bus.h ****   *         AHB2ENR      GPIOFEN       LL_AHB2_GRP1_DisableClock\n
 512:Drivers/STM32G4xx_HAL_Driver/Inc/stm32g4xx_ll_bus.h ****   *         AHB2ENR      GPIOGEN       LL_AHB2_GRP1_DisableClock\n
 513:Drivers/STM32G4xx_HAL_Driver/Inc/stm32g4xx_ll_bus.h ****   *         AHB2ENR      ADC12EN       LL_AHB2_GRP1_DisableClock\n
 514:Drivers/STM32G4xx_HAL_Driver/Inc/stm32g4xx_ll_bus.h ****   *         AHB2ENR      ADC345EN      LL_AHB2_GRP1_DisableClock\n
 515:Drivers/STM32G4xx_HAL_Driver/Inc/stm32g4xx_ll_bus.h ****   *         AHB2ENR      DAC1EN        LL_AHB2_GRP1_DisableClock\n
 516:Drivers/STM32G4xx_HAL_Driver/Inc/stm32g4xx_ll_bus.h ****   *         AHB2ENR      DAC2EN        LL_AHB2_GRP1_DisableClock\n
 517:Drivers/STM32G4xx_HAL_Driver/Inc/stm32g4xx_ll_bus.h ****   *         AHB2ENR      DAC3EN        LL_AHB2_GRP1_DisableClock\n
 518:Drivers/STM32G4xx_HAL_Driver/Inc/stm32g4xx_ll_bus.h ****   *         AHB2ENR      DAC4EN        LL_AHB2_GRP1_DisableClock\n
 519:Drivers/STM32G4xx_HAL_Driver/Inc/stm32g4xx_ll_bus.h ****   *         AHB2ENR      AESEN         LL_AHB2_GRP1_DisableClock\n
 520:Drivers/STM32G4xx_HAL_Driver/Inc/stm32g4xx_ll_bus.h ****   *         AHB2ENR      RNGEN         LL_AHB2_GRP1_DisableClock
 521:Drivers/STM32G4xx_HAL_Driver/Inc/stm32g4xx_ll_bus.h ****   * @param  Periphs This parameter can be a combination of the following values:
 522:Drivers/STM32G4xx_HAL_Driver/Inc/stm32g4xx_ll_bus.h ****   *         @arg @ref LL_AHB2_GRP1_PERIPH_GPIOA
 523:Drivers/STM32G4xx_HAL_Driver/Inc/stm32g4xx_ll_bus.h ****   *         @arg @ref LL_AHB2_GRP1_PERIPH_GPIOB
 524:Drivers/STM32G4xx_HAL_Driver/Inc/stm32g4xx_ll_bus.h ****   *         @arg @ref LL_AHB2_GRP1_PERIPH_GPIOC
 525:Drivers/STM32G4xx_HAL_Driver/Inc/stm32g4xx_ll_bus.h ****   *         @arg @ref LL_AHB2_GRP1_PERIPH_GPIOD
 526:Drivers/STM32G4xx_HAL_Driver/Inc/stm32g4xx_ll_bus.h ****   *         @arg @ref LL_AHB2_GRP1_PERIPH_GPIOE
 527:Drivers/STM32G4xx_HAL_Driver/Inc/stm32g4xx_ll_bus.h ****   *         @arg @ref LL_AHB2_GRP1_PERIPH_GPIOF
 528:Drivers/STM32G4xx_HAL_Driver/Inc/stm32g4xx_ll_bus.h ****   *         @arg @ref LL_AHB2_GRP1_PERIPH_GPIOG
 529:Drivers/STM32G4xx_HAL_Driver/Inc/stm32g4xx_ll_bus.h ****   *         @arg @ref LL_AHB2_GRP1_PERIPH_ADC12
 530:Drivers/STM32G4xx_HAL_Driver/Inc/stm32g4xx_ll_bus.h ****   *         @arg @ref LL_AHB2_GRP1_PERIPH_ADC345 (*)
 531:Drivers/STM32G4xx_HAL_Driver/Inc/stm32g4xx_ll_bus.h ****   *         @arg @ref LL_AHB2_GRP1_PERIPH_DAC1
 532:Drivers/STM32G4xx_HAL_Driver/Inc/stm32g4xx_ll_bus.h ****   *         @arg @ref LL_AHB2_GRP1_PERIPH_DAC2 (*)
 533:Drivers/STM32G4xx_HAL_Driver/Inc/stm32g4xx_ll_bus.h ****   *         @arg @ref LL_AHB2_GRP1_PERIPH_DAC3
 534:Drivers/STM32G4xx_HAL_Driver/Inc/stm32g4xx_ll_bus.h ****   *         @arg @ref LL_AHB2_GRP1_PERIPH_DAC4 (*)
 535:Drivers/STM32G4xx_HAL_Driver/Inc/stm32g4xx_ll_bus.h ****   *         @arg @ref LL_AHB2_GRP1_PERIPH_AES (*)
 536:Drivers/STM32G4xx_HAL_Driver/Inc/stm32g4xx_ll_bus.h ****   *         @arg @ref LL_AHB2_GRP1_PERIPH_RNG
 537:Drivers/STM32G4xx_HAL_Driver/Inc/stm32g4xx_ll_bus.h ****   *
 538:Drivers/STM32G4xx_HAL_Driver/Inc/stm32g4xx_ll_bus.h ****   *         (*) value not defined in all devices.
 539:Drivers/STM32G4xx_HAL_Driver/Inc/stm32g4xx_ll_bus.h ****   * @retval None
ARM GAS  D:\apps\VSCode\data\tmp\cc1Dl4Ov.s 			page 39


 540:Drivers/STM32G4xx_HAL_Driver/Inc/stm32g4xx_ll_bus.h ****   */
 541:Drivers/STM32G4xx_HAL_Driver/Inc/stm32g4xx_ll_bus.h **** __STATIC_INLINE void LL_AHB2_GRP1_DisableClock(uint32_t Periphs)
 542:Drivers/STM32G4xx_HAL_Driver/Inc/stm32g4xx_ll_bus.h **** {
 543:Drivers/STM32G4xx_HAL_Driver/Inc/stm32g4xx_ll_bus.h ****   CLEAR_BIT(RCC->AHB2ENR, Periphs);
 544:Drivers/STM32G4xx_HAL_Driver/Inc/stm32g4xx_ll_bus.h **** }
 545:Drivers/STM32G4xx_HAL_Driver/Inc/stm32g4xx_ll_bus.h **** 
 546:Drivers/STM32G4xx_HAL_Driver/Inc/stm32g4xx_ll_bus.h **** /**
 547:Drivers/STM32G4xx_HAL_Driver/Inc/stm32g4xx_ll_bus.h ****   * @brief  Force AHB2 peripherals reset.
 548:Drivers/STM32G4xx_HAL_Driver/Inc/stm32g4xx_ll_bus.h ****   * @rmtoll AHB2RSTR      GPIOARST       LL_AHB2_GRP1_ForceReset\n
 549:Drivers/STM32G4xx_HAL_Driver/Inc/stm32g4xx_ll_bus.h ****   *         AHB2RSTR      GPIOBRST       LL_AHB2_GRP1_ForceReset\n
 550:Drivers/STM32G4xx_HAL_Driver/Inc/stm32g4xx_ll_bus.h ****   *         AHB2RSTR      GPIOCRST       LL_AHB2_GRP1_ForceReset\n
 551:Drivers/STM32G4xx_HAL_Driver/Inc/stm32g4xx_ll_bus.h ****   *         AHB2RSTR      GPIODRST       LL_AHB2_GRP1_ForceReset\n
 552:Drivers/STM32G4xx_HAL_Driver/Inc/stm32g4xx_ll_bus.h ****   *         AHB2RSTR      GPIOERST       LL_AHB2_GRP1_ForceReset\n
 553:Drivers/STM32G4xx_HAL_Driver/Inc/stm32g4xx_ll_bus.h ****   *         AHB2RSTR      GPIOFRST       LL_AHB2_GRP1_ForceReset\n
 554:Drivers/STM32G4xx_HAL_Driver/Inc/stm32g4xx_ll_bus.h ****   *         AHB2RSTR      GPIOGRST       LL_AHB2_GRP1_ForceReset\n
 555:Drivers/STM32G4xx_HAL_Driver/Inc/stm32g4xx_ll_bus.h ****   *         AHB2RSTR      ADC12RST       LL_AHB2_GRP1_ForceReset\n
 556:Drivers/STM32G4xx_HAL_Driver/Inc/stm32g4xx_ll_bus.h ****   *         AHB2RSTR      ADC345RST      LL_AHB2_GRP1_ForceReset\n
 557:Drivers/STM32G4xx_HAL_Driver/Inc/stm32g4xx_ll_bus.h ****   *         AHB2RSTR      DAC1RST        LL_AHB2_GRP1_ForceReset\n
 558:Drivers/STM32G4xx_HAL_Driver/Inc/stm32g4xx_ll_bus.h ****   *         AHB2RSTR      DAC2RST        LL_AHB2_GRP1_ForceReset\n
 559:Drivers/STM32G4xx_HAL_Driver/Inc/stm32g4xx_ll_bus.h ****   *         AHB2RSTR      DAC3RST        LL_AHB2_GRP1_ForceReset\n
 560:Drivers/STM32G4xx_HAL_Driver/Inc/stm32g4xx_ll_bus.h ****   *         AHB2RSTR      DAC4RST        LL_AHB2_GRP1_ForceReset\n
 561:Drivers/STM32G4xx_HAL_Driver/Inc/stm32g4xx_ll_bus.h ****   *         AHB2RSTR      AESRST         LL_AHB2_GRP1_ForceReset\n
 562:Drivers/STM32G4xx_HAL_Driver/Inc/stm32g4xx_ll_bus.h ****   *         AHB2RSTR      RNGRST         LL_AHB2_GRP1_ForceReset
 563:Drivers/STM32G4xx_HAL_Driver/Inc/stm32g4xx_ll_bus.h ****   * @param  Periphs This parameter can be a combination of the following values:
 564:Drivers/STM32G4xx_HAL_Driver/Inc/stm32g4xx_ll_bus.h ****   *         @arg @ref LL_AHB2_GRP1_PERIPH_GPIOA
 565:Drivers/STM32G4xx_HAL_Driver/Inc/stm32g4xx_ll_bus.h ****   *         @arg @ref LL_AHB2_GRP1_PERIPH_GPIOB
 566:Drivers/STM32G4xx_HAL_Driver/Inc/stm32g4xx_ll_bus.h ****   *         @arg @ref LL_AHB2_GRP1_PERIPH_GPIOC
 567:Drivers/STM32G4xx_HAL_Driver/Inc/stm32g4xx_ll_bus.h ****   *         @arg @ref LL_AHB2_GRP1_PERIPH_GPIOD
 568:Drivers/STM32G4xx_HAL_Driver/Inc/stm32g4xx_ll_bus.h ****   *         @arg @ref LL_AHB2_GRP1_PERIPH_GPIOE
 569:Drivers/STM32G4xx_HAL_Driver/Inc/stm32g4xx_ll_bus.h ****   *         @arg @ref LL_AHB2_GRP1_PERIPH_GPIOF
 570:Drivers/STM32G4xx_HAL_Driver/Inc/stm32g4xx_ll_bus.h ****   *         @arg @ref LL_AHB2_GRP1_PERIPH_GPIOG
 571:Drivers/STM32G4xx_HAL_Driver/Inc/stm32g4xx_ll_bus.h ****   *         @arg @ref LL_AHB2_GRP1_PERIPH_ADC12
 572:Drivers/STM32G4xx_HAL_Driver/Inc/stm32g4xx_ll_bus.h ****   *         @arg @ref LL_AHB2_GRP1_PERIPH_ADC345 (*)
 573:Drivers/STM32G4xx_HAL_Driver/Inc/stm32g4xx_ll_bus.h ****   *         @arg @ref LL_AHB2_GRP1_PERIPH_DAC1
 574:Drivers/STM32G4xx_HAL_Driver/Inc/stm32g4xx_ll_bus.h ****   *         @arg @ref LL_AHB2_GRP1_PERIPH_DAC2 (*)
 575:Drivers/STM32G4xx_HAL_Driver/Inc/stm32g4xx_ll_bus.h ****   *         @arg @ref LL_AHB2_GRP1_PERIPH_DAC3
 576:Drivers/STM32G4xx_HAL_Driver/Inc/stm32g4xx_ll_bus.h ****   *         @arg @ref LL_AHB2_GRP1_PERIPH_DAC4 (*)
 577:Drivers/STM32G4xx_HAL_Driver/Inc/stm32g4xx_ll_bus.h ****   *         @arg @ref LL_AHB2_GRP1_PERIPH_AES (*)
 578:Drivers/STM32G4xx_HAL_Driver/Inc/stm32g4xx_ll_bus.h ****   *         @arg @ref LL_AHB2_GRP1_PERIPH_RNG
 579:Drivers/STM32G4xx_HAL_Driver/Inc/stm32g4xx_ll_bus.h ****   *
 580:Drivers/STM32G4xx_HAL_Driver/Inc/stm32g4xx_ll_bus.h ****   *         (*) value not defined in all devices.
 581:Drivers/STM32G4xx_HAL_Driver/Inc/stm32g4xx_ll_bus.h ****   * @retval None
 582:Drivers/STM32G4xx_HAL_Driver/Inc/stm32g4xx_ll_bus.h ****   */
 583:Drivers/STM32G4xx_HAL_Driver/Inc/stm32g4xx_ll_bus.h **** __STATIC_INLINE void LL_AHB2_GRP1_ForceReset(uint32_t Periphs)
 584:Drivers/STM32G4xx_HAL_Driver/Inc/stm32g4xx_ll_bus.h **** {
 585:Drivers/STM32G4xx_HAL_Driver/Inc/stm32g4xx_ll_bus.h ****   SET_BIT(RCC->AHB2RSTR, Periphs);
 586:Drivers/STM32G4xx_HAL_Driver/Inc/stm32g4xx_ll_bus.h **** }
 587:Drivers/STM32G4xx_HAL_Driver/Inc/stm32g4xx_ll_bus.h **** 
 588:Drivers/STM32G4xx_HAL_Driver/Inc/stm32g4xx_ll_bus.h **** /**
 589:Drivers/STM32G4xx_HAL_Driver/Inc/stm32g4xx_ll_bus.h ****   * @brief  Release AHB2 peripherals reset.
 590:Drivers/STM32G4xx_HAL_Driver/Inc/stm32g4xx_ll_bus.h ****   * @rmtoll AHB2RSTR      GPIOARST       LL_AHB2_GRP1_ReleaseReset\n
 591:Drivers/STM32G4xx_HAL_Driver/Inc/stm32g4xx_ll_bus.h ****   *         AHB2RSTR      GPIOBRST       LL_AHB2_GRP1_ReleaseReset\n
 592:Drivers/STM32G4xx_HAL_Driver/Inc/stm32g4xx_ll_bus.h ****   *         AHB2RSTR      GPIOCRST       LL_AHB2_GRP1_ReleaseReset\n
 593:Drivers/STM32G4xx_HAL_Driver/Inc/stm32g4xx_ll_bus.h ****   *         AHB2RSTR      GPIODRST       LL_AHB2_GRP1_ReleaseReset\n
 594:Drivers/STM32G4xx_HAL_Driver/Inc/stm32g4xx_ll_bus.h ****   *         AHB2RSTR      GPIOERST       LL_AHB2_GRP1_ReleaseReset\n
 595:Drivers/STM32G4xx_HAL_Driver/Inc/stm32g4xx_ll_bus.h ****   *         AHB2RSTR      GPIOFRST       LL_AHB2_GRP1_ReleaseReset\n
 596:Drivers/STM32G4xx_HAL_Driver/Inc/stm32g4xx_ll_bus.h ****   *         AHB2RSTR      GPIOGRST       LL_AHB2_GRP1_ReleaseReset\n
ARM GAS  D:\apps\VSCode\data\tmp\cc1Dl4Ov.s 			page 40


 597:Drivers/STM32G4xx_HAL_Driver/Inc/stm32g4xx_ll_bus.h ****   *         AHB2RSTR      ADC12RST       LL_AHB2_GRP1_ReleaseReset\n
 598:Drivers/STM32G4xx_HAL_Driver/Inc/stm32g4xx_ll_bus.h ****   *         AHB2RSTR      ADC345RST      LL_AHB2_GRP1_ReleaseReset\n
 599:Drivers/STM32G4xx_HAL_Driver/Inc/stm32g4xx_ll_bus.h ****   *         AHB2RSTR      DAC1RST        LL_AHB2_GRP1_ReleaseReset\n
 600:Drivers/STM32G4xx_HAL_Driver/Inc/stm32g4xx_ll_bus.h ****   *         AHB2RSTR      DAC2RST        LL_AHB2_GRP1_ReleaseReset\n
 601:Drivers/STM32G4xx_HAL_Driver/Inc/stm32g4xx_ll_bus.h ****   *         AHB2RSTR      DAC3RST        LL_AHB2_GRP1_ReleaseReset\n
 602:Drivers/STM32G4xx_HAL_Driver/Inc/stm32g4xx_ll_bus.h ****   *         AHB2RSTR      DAC4RST        LL_AHB2_GRP1_ReleaseReset\n
 603:Drivers/STM32G4xx_HAL_Driver/Inc/stm32g4xx_ll_bus.h ****   *         AHB2RSTR      AESRST         LL_AHB2_GRP1_ReleaseReset\n
 604:Drivers/STM32G4xx_HAL_Driver/Inc/stm32g4xx_ll_bus.h ****   *         AHB2RSTR      RNGRST         LL_AHB2_GRP1_ReleaseReset
 605:Drivers/STM32G4xx_HAL_Driver/Inc/stm32g4xx_ll_bus.h ****   * @param  Periphs This parameter can be a combination of the following values:
 606:Drivers/STM32G4xx_HAL_Driver/Inc/stm32g4xx_ll_bus.h ****   *         @arg @ref LL_AHB2_GRP1_PERIPH_GPIOA
 607:Drivers/STM32G4xx_HAL_Driver/Inc/stm32g4xx_ll_bus.h ****   *         @arg @ref LL_AHB2_GRP1_PERIPH_GPIOB
 608:Drivers/STM32G4xx_HAL_Driver/Inc/stm32g4xx_ll_bus.h ****   *         @arg @ref LL_AHB2_GRP1_PERIPH_GPIOC
 609:Drivers/STM32G4xx_HAL_Driver/Inc/stm32g4xx_ll_bus.h ****   *         @arg @ref LL_AHB2_GRP1_PERIPH_GPIOD
 610:Drivers/STM32G4xx_HAL_Driver/Inc/stm32g4xx_ll_bus.h ****   *         @arg @ref LL_AHB2_GRP1_PERIPH_GPIOE
 611:Drivers/STM32G4xx_HAL_Driver/Inc/stm32g4xx_ll_bus.h ****   *         @arg @ref LL_AHB2_GRP1_PERIPH_GPIOF
 612:Drivers/STM32G4xx_HAL_Driver/Inc/stm32g4xx_ll_bus.h ****   *         @arg @ref LL_AHB2_GRP1_PERIPH_GPIOG
 613:Drivers/STM32G4xx_HAL_Driver/Inc/stm32g4xx_ll_bus.h ****   *         @arg @ref LL_AHB2_GRP1_PERIPH_ADC12
 614:Drivers/STM32G4xx_HAL_Driver/Inc/stm32g4xx_ll_bus.h ****   *         @arg @ref LL_AHB2_GRP1_PERIPH_ADC345 (*)
 615:Drivers/STM32G4xx_HAL_Driver/Inc/stm32g4xx_ll_bus.h ****   *         @arg @ref LL_AHB2_GRP1_PERIPH_DAC1
 616:Drivers/STM32G4xx_HAL_Driver/Inc/stm32g4xx_ll_bus.h ****   *         @arg @ref LL_AHB2_GRP1_PERIPH_DAC2 (*)
 617:Drivers/STM32G4xx_HAL_Driver/Inc/stm32g4xx_ll_bus.h ****   *         @arg @ref LL_AHB2_GRP1_PERIPH_DAC3
 618:Drivers/STM32G4xx_HAL_Driver/Inc/stm32g4xx_ll_bus.h ****   *         @arg @ref LL_AHB2_GRP1_PERIPH_DAC4 (*)
 619:Drivers/STM32G4xx_HAL_Driver/Inc/stm32g4xx_ll_bus.h ****   *         @arg @ref LL_AHB2_GRP1_PERIPH_AES (*)
 620:Drivers/STM32G4xx_HAL_Driver/Inc/stm32g4xx_ll_bus.h ****   *         @arg @ref LL_AHB2_GRP1_PERIPH_RNG
 621:Drivers/STM32G4xx_HAL_Driver/Inc/stm32g4xx_ll_bus.h ****   *
 622:Drivers/STM32G4xx_HAL_Driver/Inc/stm32g4xx_ll_bus.h ****   *         (*) value not defined in all devices.
 623:Drivers/STM32G4xx_HAL_Driver/Inc/stm32g4xx_ll_bus.h ****   * @retval None
 624:Drivers/STM32G4xx_HAL_Driver/Inc/stm32g4xx_ll_bus.h ****   */
 625:Drivers/STM32G4xx_HAL_Driver/Inc/stm32g4xx_ll_bus.h **** __STATIC_INLINE void LL_AHB2_GRP1_ReleaseReset(uint32_t Periphs)
 626:Drivers/STM32G4xx_HAL_Driver/Inc/stm32g4xx_ll_bus.h **** {
 627:Drivers/STM32G4xx_HAL_Driver/Inc/stm32g4xx_ll_bus.h ****   CLEAR_BIT(RCC->AHB2RSTR, Periphs);
 628:Drivers/STM32G4xx_HAL_Driver/Inc/stm32g4xx_ll_bus.h **** }
 629:Drivers/STM32G4xx_HAL_Driver/Inc/stm32g4xx_ll_bus.h **** 
 630:Drivers/STM32G4xx_HAL_Driver/Inc/stm32g4xx_ll_bus.h **** /**
 631:Drivers/STM32G4xx_HAL_Driver/Inc/stm32g4xx_ll_bus.h ****   * @brief  Enable AHB2 peripheral clocks in Sleep and Stop modes
 632:Drivers/STM32G4xx_HAL_Driver/Inc/stm32g4xx_ll_bus.h ****   * @rmtoll AHB2SMENR    GPIOASMEN     LL_AHB2_GRP1_EnableClockStopSleep\n
 633:Drivers/STM32G4xx_HAL_Driver/Inc/stm32g4xx_ll_bus.h ****   *         AHB2SMENR    GPIOBSMEN     LL_AHB2_GRP1_EnableClockStopSleep\n
 634:Drivers/STM32G4xx_HAL_Driver/Inc/stm32g4xx_ll_bus.h ****   *         AHB2SMENR    GPIOCSMEN     LL_AHB2_GRP1_EnableClockStopSleep\n
 635:Drivers/STM32G4xx_HAL_Driver/Inc/stm32g4xx_ll_bus.h ****   *         AHB2SMENR    GPIODSMEN     LL_AHB2_GRP1_EnableClockStopSleep\n
 636:Drivers/STM32G4xx_HAL_Driver/Inc/stm32g4xx_ll_bus.h ****   *         AHB2SMENR    GPIOESMEN     LL_AHB2_GRP1_EnableClockStopSleep\n
 637:Drivers/STM32G4xx_HAL_Driver/Inc/stm32g4xx_ll_bus.h ****   *         AHB2SMENR    GPIOFSMEN     LL_AHB2_GRP1_EnableClockStopSleep\n
 638:Drivers/STM32G4xx_HAL_Driver/Inc/stm32g4xx_ll_bus.h ****   *         AHB2SMENR    GPIOGSMEN     LL_AHB2_GRP1_EnableClockStopSleep\n
 639:Drivers/STM32G4xx_HAL_Driver/Inc/stm32g4xx_ll_bus.h ****   *         AHB2SMENR    SRAM2SMEN     LL_AHB2_GRP1_EnableClockStopSleep\n
 640:Drivers/STM32G4xx_HAL_Driver/Inc/stm32g4xx_ll_bus.h ****   *         AHB2SMENR    CCMSMEN       LL_AHB2_GRP1_EnableClockStopSleep\n
 641:Drivers/STM32G4xx_HAL_Driver/Inc/stm32g4xx_ll_bus.h ****   *         AHB2SMENR    ADC12SMEN     LL_AHB2_GRP1_EnableClockStopSleep\n
 642:Drivers/STM32G4xx_HAL_Driver/Inc/stm32g4xx_ll_bus.h ****   *         AHB2SMENR    ADC345SMEN    LL_AHB2_GRP1_EnableClockStopSleep\n
 643:Drivers/STM32G4xx_HAL_Driver/Inc/stm32g4xx_ll_bus.h ****   *         AHB2SMENR    DAC1SMEN      LL_AHB2_GRP1_EnableClockStopSleep\n
 644:Drivers/STM32G4xx_HAL_Driver/Inc/stm32g4xx_ll_bus.h ****   *         AHB2SMENR    DAC2SMEN      LL_AHB2_GRP1_EnableClockStopSleep\n
 645:Drivers/STM32G4xx_HAL_Driver/Inc/stm32g4xx_ll_bus.h ****   *         AHB2SMENR    DAC3SMEN      LL_AHB2_GRP1_EnableClockStopSleep\n
 646:Drivers/STM32G4xx_HAL_Driver/Inc/stm32g4xx_ll_bus.h ****   *         AHB2SMENR    DAC4SMEN      LL_AHB2_GRP1_EnableClockStopSleep\n
 647:Drivers/STM32G4xx_HAL_Driver/Inc/stm32g4xx_ll_bus.h ****   *         AHB2SMENR    AESSMEN       LL_AHB2_GRP1_EnableClockStopSleep\n
 648:Drivers/STM32G4xx_HAL_Driver/Inc/stm32g4xx_ll_bus.h ****   *         AHB2SMENR    RNGSMEN       LL_AHB2_GRP1_EnableClockStopSleep
 649:Drivers/STM32G4xx_HAL_Driver/Inc/stm32g4xx_ll_bus.h ****   * @param  Periphs This parameter can be a combination of the following values:
 650:Drivers/STM32G4xx_HAL_Driver/Inc/stm32g4xx_ll_bus.h ****   *         @arg @ref LL_AHB2_GRP1_PERIPH_GPIOA
 651:Drivers/STM32G4xx_HAL_Driver/Inc/stm32g4xx_ll_bus.h ****   *         @arg @ref LL_AHB2_GRP1_PERIPH_GPIOB
 652:Drivers/STM32G4xx_HAL_Driver/Inc/stm32g4xx_ll_bus.h ****   *         @arg @ref LL_AHB2_GRP1_PERIPH_GPIOC
 653:Drivers/STM32G4xx_HAL_Driver/Inc/stm32g4xx_ll_bus.h ****   *         @arg @ref LL_AHB2_GRP1_PERIPH_GPIOD
ARM GAS  D:\apps\VSCode\data\tmp\cc1Dl4Ov.s 			page 41


 654:Drivers/STM32G4xx_HAL_Driver/Inc/stm32g4xx_ll_bus.h ****   *         @arg @ref LL_AHB2_GRP1_PERIPH_GPIOE
 655:Drivers/STM32G4xx_HAL_Driver/Inc/stm32g4xx_ll_bus.h ****   *         @arg @ref LL_AHB2_GRP1_PERIPH_GPIOF
 656:Drivers/STM32G4xx_HAL_Driver/Inc/stm32g4xx_ll_bus.h ****   *         @arg @ref LL_AHB2_GRP1_PERIPH_GPIOG
 657:Drivers/STM32G4xx_HAL_Driver/Inc/stm32g4xx_ll_bus.h ****   *         @arg @ref LL_AHB2_GRP1_PERIPH_SRAM2
 658:Drivers/STM32G4xx_HAL_Driver/Inc/stm32g4xx_ll_bus.h ****   *         @arg @ref LL_AHB2_GRP1_PERIPH_CCM
 659:Drivers/STM32G4xx_HAL_Driver/Inc/stm32g4xx_ll_bus.h ****   *         @arg @ref LL_AHB2_GRP1_PERIPH_ADC12
 660:Drivers/STM32G4xx_HAL_Driver/Inc/stm32g4xx_ll_bus.h ****   *         @arg @ref LL_AHB2_GRP1_PERIPH_ADC345 (*)
 661:Drivers/STM32G4xx_HAL_Driver/Inc/stm32g4xx_ll_bus.h ****   *         @arg @ref LL_AHB2_GRP1_PERIPH_DAC1
 662:Drivers/STM32G4xx_HAL_Driver/Inc/stm32g4xx_ll_bus.h ****   *         @arg @ref LL_AHB2_GRP1_PERIPH_DAC2 (*)
 663:Drivers/STM32G4xx_HAL_Driver/Inc/stm32g4xx_ll_bus.h ****   *         @arg @ref LL_AHB2_GRP1_PERIPH_DAC3
 664:Drivers/STM32G4xx_HAL_Driver/Inc/stm32g4xx_ll_bus.h ****   *         @arg @ref LL_AHB2_GRP1_PERIPH_DAC4 (*)
 665:Drivers/STM32G4xx_HAL_Driver/Inc/stm32g4xx_ll_bus.h ****   *         @arg @ref LL_AHB2_GRP1_PERIPH_AES (*)
 666:Drivers/STM32G4xx_HAL_Driver/Inc/stm32g4xx_ll_bus.h ****   *         @arg @ref LL_AHB2_GRP1_PERIPH_RNG
 667:Drivers/STM32G4xx_HAL_Driver/Inc/stm32g4xx_ll_bus.h ****   *
 668:Drivers/STM32G4xx_HAL_Driver/Inc/stm32g4xx_ll_bus.h ****   *         (*) value not defined in all devices.
 669:Drivers/STM32G4xx_HAL_Driver/Inc/stm32g4xx_ll_bus.h ****   * @retval None
 670:Drivers/STM32G4xx_HAL_Driver/Inc/stm32g4xx_ll_bus.h ****   */
 671:Drivers/STM32G4xx_HAL_Driver/Inc/stm32g4xx_ll_bus.h **** __STATIC_INLINE void LL_AHB2_GRP1_EnableClockStopSleep(uint32_t Periphs)
 672:Drivers/STM32G4xx_HAL_Driver/Inc/stm32g4xx_ll_bus.h **** {
 673:Drivers/STM32G4xx_HAL_Driver/Inc/stm32g4xx_ll_bus.h ****   __IO uint32_t tmpreg;
 674:Drivers/STM32G4xx_HAL_Driver/Inc/stm32g4xx_ll_bus.h ****   SET_BIT(RCC->AHB2SMENR, Periphs);
 675:Drivers/STM32G4xx_HAL_Driver/Inc/stm32g4xx_ll_bus.h ****   /* Delay after an RCC peripheral clock enabling */
 676:Drivers/STM32G4xx_HAL_Driver/Inc/stm32g4xx_ll_bus.h ****   tmpreg = READ_BIT(RCC->AHB2SMENR, Periphs);
 677:Drivers/STM32G4xx_HAL_Driver/Inc/stm32g4xx_ll_bus.h ****   (void)tmpreg;
 678:Drivers/STM32G4xx_HAL_Driver/Inc/stm32g4xx_ll_bus.h **** }
 679:Drivers/STM32G4xx_HAL_Driver/Inc/stm32g4xx_ll_bus.h **** 
 680:Drivers/STM32G4xx_HAL_Driver/Inc/stm32g4xx_ll_bus.h **** /**
 681:Drivers/STM32G4xx_HAL_Driver/Inc/stm32g4xx_ll_bus.h ****   * @brief  Disable AHB2 peripheral clocks in Sleep and Stop modes
 682:Drivers/STM32G4xx_HAL_Driver/Inc/stm32g4xx_ll_bus.h ****   * @rmtoll AHB2SMENR    GPIOASMEN     LL_AHB2_GRP1_DisableClockStopSleep\n
 683:Drivers/STM32G4xx_HAL_Driver/Inc/stm32g4xx_ll_bus.h ****   *         AHB2SMENR    GPIOBSMEN     LL_AHB2_GRP1_DisableClockStopSleep\n
 684:Drivers/STM32G4xx_HAL_Driver/Inc/stm32g4xx_ll_bus.h ****   *         AHB2SMENR    GPIOCSMEN     LL_AHB2_GRP1_DisableClockStopSleep\n
 685:Drivers/STM32G4xx_HAL_Driver/Inc/stm32g4xx_ll_bus.h ****   *         AHB2SMENR    GPIODSMEN     LL_AHB2_GRP1_DisableClockStopSleep\n
 686:Drivers/STM32G4xx_HAL_Driver/Inc/stm32g4xx_ll_bus.h ****   *         AHB2SMENR    GPIOESMEN     LL_AHB2_GRP1_DisableClockStopSleep\n
 687:Drivers/STM32G4xx_HAL_Driver/Inc/stm32g4xx_ll_bus.h ****   *         AHB2SMENR    GPIOFSMEN     LL_AHB2_GRP1_DisableClockStopSleep\n
 688:Drivers/STM32G4xx_HAL_Driver/Inc/stm32g4xx_ll_bus.h ****   *         AHB2SMENR    GPIOGSMEN     LL_AHB2_GRP1_DisableClockStopSleep\n
 689:Drivers/STM32G4xx_HAL_Driver/Inc/stm32g4xx_ll_bus.h ****   *         AHB2SMENR    SRAM2SMEN     LL_AHB2_GRP1_DisableClockStopSleep\n
 690:Drivers/STM32G4xx_HAL_Driver/Inc/stm32g4xx_ll_bus.h ****   *         AHB2SMENR    CCMSMEN       LL_AHB2_GRP1_DisableClockStopSleep\n
 691:Drivers/STM32G4xx_HAL_Driver/Inc/stm32g4xx_ll_bus.h ****   *         AHB2SMENR    ADC12SMEN     LL_AHB2_GRP1_DisableClockStopSleep\n
 692:Drivers/STM32G4xx_HAL_Driver/Inc/stm32g4xx_ll_bus.h ****   *         AHB2SMENR    ADC345SMEN    LL_AHB2_GRP1_DisableClockStopSleep\n
 693:Drivers/STM32G4xx_HAL_Driver/Inc/stm32g4xx_ll_bus.h ****   *         AHB2SMENR    DAC1SMEN      LL_AHB2_GRP1_DisableClockStopSleep\n
 694:Drivers/STM32G4xx_HAL_Driver/Inc/stm32g4xx_ll_bus.h ****   *         AHB2SMENR    DAC2SMEN      LL_AHB2_GRP1_DisableClockStopSleep\n
 695:Drivers/STM32G4xx_HAL_Driver/Inc/stm32g4xx_ll_bus.h ****   *         AHB2SMENR    DAC3SMEN      LL_AHB2_GRP1_DisableClockStopSleep\n
 696:Drivers/STM32G4xx_HAL_Driver/Inc/stm32g4xx_ll_bus.h ****   *         AHB2SMENR    DAC4SMEN      LL_AHB2_GRP1_DisableClockStopSleep\n
 697:Drivers/STM32G4xx_HAL_Driver/Inc/stm32g4xx_ll_bus.h ****   *         AHB2SMENR    AESSMEN       LL_AHB2_GRP1_DisableClockStopSleep\n
 698:Drivers/STM32G4xx_HAL_Driver/Inc/stm32g4xx_ll_bus.h ****   *         AHB2SMENR    RNGSMEN       LL_AHB2_GRP1_DisableClockStopSleep
 699:Drivers/STM32G4xx_HAL_Driver/Inc/stm32g4xx_ll_bus.h ****   * @param  Periphs This parameter can be a combination of the following values:
 700:Drivers/STM32G4xx_HAL_Driver/Inc/stm32g4xx_ll_bus.h ****   *         @arg @ref LL_AHB2_GRP1_PERIPH_GPIOA
 701:Drivers/STM32G4xx_HAL_Driver/Inc/stm32g4xx_ll_bus.h ****   *         @arg @ref LL_AHB2_GRP1_PERIPH_GPIOB
 702:Drivers/STM32G4xx_HAL_Driver/Inc/stm32g4xx_ll_bus.h ****   *         @arg @ref LL_AHB2_GRP1_PERIPH_GPIOC
 703:Drivers/STM32G4xx_HAL_Driver/Inc/stm32g4xx_ll_bus.h ****   *         @arg @ref LL_AHB2_GRP1_PERIPH_GPIOD
 704:Drivers/STM32G4xx_HAL_Driver/Inc/stm32g4xx_ll_bus.h ****   *         @arg @ref LL_AHB2_GRP1_PERIPH_GPIOE
 705:Drivers/STM32G4xx_HAL_Driver/Inc/stm32g4xx_ll_bus.h ****   *         @arg @ref LL_AHB2_GRP1_PERIPH_GPIOF
 706:Drivers/STM32G4xx_HAL_Driver/Inc/stm32g4xx_ll_bus.h ****   *         @arg @ref LL_AHB2_GRP1_PERIPH_GPIOG
 707:Drivers/STM32G4xx_HAL_Driver/Inc/stm32g4xx_ll_bus.h ****   *         @arg @ref LL_AHB2_GRP1_PERIPH_SRAM2
 708:Drivers/STM32G4xx_HAL_Driver/Inc/stm32g4xx_ll_bus.h ****   *         @arg @ref LL_AHB2_GRP1_PERIPH_CCM
 709:Drivers/STM32G4xx_HAL_Driver/Inc/stm32g4xx_ll_bus.h ****   *         @arg @ref LL_AHB2_GRP1_PERIPH_ADC12
 710:Drivers/STM32G4xx_HAL_Driver/Inc/stm32g4xx_ll_bus.h ****   *         @arg @ref LL_AHB2_GRP1_PERIPH_ADC345 (*)
ARM GAS  D:\apps\VSCode\data\tmp\cc1Dl4Ov.s 			page 42


 711:Drivers/STM32G4xx_HAL_Driver/Inc/stm32g4xx_ll_bus.h ****   *         @arg @ref LL_AHB2_GRP1_PERIPH_DAC1
 712:Drivers/STM32G4xx_HAL_Driver/Inc/stm32g4xx_ll_bus.h ****   *         @arg @ref LL_AHB2_GRP1_PERIPH_DAC2 (*)
 713:Drivers/STM32G4xx_HAL_Driver/Inc/stm32g4xx_ll_bus.h ****   *         @arg @ref LL_AHB2_GRP1_PERIPH_DAC3
 714:Drivers/STM32G4xx_HAL_Driver/Inc/stm32g4xx_ll_bus.h ****   *         @arg @ref LL_AHB2_GRP1_PERIPH_DAC4 (*)
 715:Drivers/STM32G4xx_HAL_Driver/Inc/stm32g4xx_ll_bus.h ****   *         @arg @ref LL_AHB2_GRP1_PERIPH_AES (*)
 716:Drivers/STM32G4xx_HAL_Driver/Inc/stm32g4xx_ll_bus.h ****   *         @arg @ref LL_AHB2_GRP1_PERIPH_RNG
 717:Drivers/STM32G4xx_HAL_Driver/Inc/stm32g4xx_ll_bus.h ****   *
 718:Drivers/STM32G4xx_HAL_Driver/Inc/stm32g4xx_ll_bus.h ****   *         (*) value not defined in all devices.
 719:Drivers/STM32G4xx_HAL_Driver/Inc/stm32g4xx_ll_bus.h ****   * @retval None
 720:Drivers/STM32G4xx_HAL_Driver/Inc/stm32g4xx_ll_bus.h ****   */
 721:Drivers/STM32G4xx_HAL_Driver/Inc/stm32g4xx_ll_bus.h **** __STATIC_INLINE void LL_AHB2_GRP1_DisableClockStopSleep(uint32_t Periphs)
 722:Drivers/STM32G4xx_HAL_Driver/Inc/stm32g4xx_ll_bus.h **** {
 723:Drivers/STM32G4xx_HAL_Driver/Inc/stm32g4xx_ll_bus.h ****   CLEAR_BIT(RCC->AHB2SMENR, Periphs);
 724:Drivers/STM32G4xx_HAL_Driver/Inc/stm32g4xx_ll_bus.h **** }
 725:Drivers/STM32G4xx_HAL_Driver/Inc/stm32g4xx_ll_bus.h **** 
 726:Drivers/STM32G4xx_HAL_Driver/Inc/stm32g4xx_ll_bus.h **** /**
 727:Drivers/STM32G4xx_HAL_Driver/Inc/stm32g4xx_ll_bus.h ****   * @}
 728:Drivers/STM32G4xx_HAL_Driver/Inc/stm32g4xx_ll_bus.h ****   */
 729:Drivers/STM32G4xx_HAL_Driver/Inc/stm32g4xx_ll_bus.h **** 
 730:Drivers/STM32G4xx_HAL_Driver/Inc/stm32g4xx_ll_bus.h **** /** @defgroup BUS_LL_EF_AHB3 AHB3
 731:Drivers/STM32G4xx_HAL_Driver/Inc/stm32g4xx_ll_bus.h ****   * @{
 732:Drivers/STM32G4xx_HAL_Driver/Inc/stm32g4xx_ll_bus.h ****   */
 733:Drivers/STM32G4xx_HAL_Driver/Inc/stm32g4xx_ll_bus.h **** 
 734:Drivers/STM32G4xx_HAL_Driver/Inc/stm32g4xx_ll_bus.h **** /**
 735:Drivers/STM32G4xx_HAL_Driver/Inc/stm32g4xx_ll_bus.h ****   * @brief  Enable AHB3 peripherals clock.
 736:Drivers/STM32G4xx_HAL_Driver/Inc/stm32g4xx_ll_bus.h ****   * @rmtoll AHB3ENR      FMCEN         LL_AHB3_GRP1_EnableClock\n
 737:Drivers/STM32G4xx_HAL_Driver/Inc/stm32g4xx_ll_bus.h ****   *         AHB3ENR      QSPIEN        LL_AHB3_GRP1_EnableClock
 738:Drivers/STM32G4xx_HAL_Driver/Inc/stm32g4xx_ll_bus.h ****   * @param  Periphs This parameter can be a combination of the following values:
 739:Drivers/STM32G4xx_HAL_Driver/Inc/stm32g4xx_ll_bus.h ****   *         @arg @ref LL_AHB3_GRP1_PERIPH_FMC (*)
 740:Drivers/STM32G4xx_HAL_Driver/Inc/stm32g4xx_ll_bus.h ****   *         @arg @ref LL_AHB3_GRP1_PERIPH_QSPI (*)
 741:Drivers/STM32G4xx_HAL_Driver/Inc/stm32g4xx_ll_bus.h ****   *
 742:Drivers/STM32G4xx_HAL_Driver/Inc/stm32g4xx_ll_bus.h ****   *         (*) value not defined in all devices.
 743:Drivers/STM32G4xx_HAL_Driver/Inc/stm32g4xx_ll_bus.h ****   * @retval None
 744:Drivers/STM32G4xx_HAL_Driver/Inc/stm32g4xx_ll_bus.h ****   */
 745:Drivers/STM32G4xx_HAL_Driver/Inc/stm32g4xx_ll_bus.h **** __STATIC_INLINE void LL_AHB3_GRP1_EnableClock(uint32_t Periphs)
 746:Drivers/STM32G4xx_HAL_Driver/Inc/stm32g4xx_ll_bus.h **** {
 747:Drivers/STM32G4xx_HAL_Driver/Inc/stm32g4xx_ll_bus.h ****   __IO uint32_t tmpreg;
 748:Drivers/STM32G4xx_HAL_Driver/Inc/stm32g4xx_ll_bus.h ****   SET_BIT(RCC->AHB3ENR, Periphs);
 749:Drivers/STM32G4xx_HAL_Driver/Inc/stm32g4xx_ll_bus.h ****   /* Delay after an RCC peripheral clock enabling */
 750:Drivers/STM32G4xx_HAL_Driver/Inc/stm32g4xx_ll_bus.h ****   tmpreg = READ_BIT(RCC->AHB3ENR, Periphs);
 751:Drivers/STM32G4xx_HAL_Driver/Inc/stm32g4xx_ll_bus.h ****   (void)tmpreg;
 752:Drivers/STM32G4xx_HAL_Driver/Inc/stm32g4xx_ll_bus.h **** }
 753:Drivers/STM32G4xx_HAL_Driver/Inc/stm32g4xx_ll_bus.h **** 
 754:Drivers/STM32G4xx_HAL_Driver/Inc/stm32g4xx_ll_bus.h **** /**
 755:Drivers/STM32G4xx_HAL_Driver/Inc/stm32g4xx_ll_bus.h ****   * @brief  Check if AHB3 peripheral clock is enabled or not
 756:Drivers/STM32G4xx_HAL_Driver/Inc/stm32g4xx_ll_bus.h ****   * @rmtoll AHB3ENR      FMCEN         LL_AHB3_GRP1_IsEnabledClock\n
 757:Drivers/STM32G4xx_HAL_Driver/Inc/stm32g4xx_ll_bus.h ****   *         AHB3ENR      QSPIEN        LL_AHB3_GRP1_IsEnabledClock
 758:Drivers/STM32G4xx_HAL_Driver/Inc/stm32g4xx_ll_bus.h ****   * @param  Periphs This parameter can be a combination of the following values:
 759:Drivers/STM32G4xx_HAL_Driver/Inc/stm32g4xx_ll_bus.h ****   *         @arg @ref LL_AHB3_GRP1_PERIPH_FMC (*)
 760:Drivers/STM32G4xx_HAL_Driver/Inc/stm32g4xx_ll_bus.h ****   *         @arg @ref LL_AHB3_GRP1_PERIPH_QSPI (*)
 761:Drivers/STM32G4xx_HAL_Driver/Inc/stm32g4xx_ll_bus.h ****   *
 762:Drivers/STM32G4xx_HAL_Driver/Inc/stm32g4xx_ll_bus.h ****   *         (*) value not defined in all devices.
 763:Drivers/STM32G4xx_HAL_Driver/Inc/stm32g4xx_ll_bus.h ****   * @retval State of Periphs (1 or 0).
 764:Drivers/STM32G4xx_HAL_Driver/Inc/stm32g4xx_ll_bus.h ****   */
 765:Drivers/STM32G4xx_HAL_Driver/Inc/stm32g4xx_ll_bus.h **** __STATIC_INLINE uint32_t LL_AHB3_GRP1_IsEnabledClock(uint32_t Periphs)
 766:Drivers/STM32G4xx_HAL_Driver/Inc/stm32g4xx_ll_bus.h **** {
 767:Drivers/STM32G4xx_HAL_Driver/Inc/stm32g4xx_ll_bus.h ****   return ((READ_BIT(RCC->AHB3ENR, Periphs) == Periphs) ? 1UL : 0UL);
ARM GAS  D:\apps\VSCode\data\tmp\cc1Dl4Ov.s 			page 43


 768:Drivers/STM32G4xx_HAL_Driver/Inc/stm32g4xx_ll_bus.h **** }
 769:Drivers/STM32G4xx_HAL_Driver/Inc/stm32g4xx_ll_bus.h **** 
 770:Drivers/STM32G4xx_HAL_Driver/Inc/stm32g4xx_ll_bus.h **** /**
 771:Drivers/STM32G4xx_HAL_Driver/Inc/stm32g4xx_ll_bus.h ****   * @brief  Disable AHB3 peripherals clock.
 772:Drivers/STM32G4xx_HAL_Driver/Inc/stm32g4xx_ll_bus.h ****   * @rmtoll AHB3ENR      FMCEN         LL_AHB3_GRP1_DisableClock\n
 773:Drivers/STM32G4xx_HAL_Driver/Inc/stm32g4xx_ll_bus.h ****   *         AHB3ENR      QSPIEN        LL_AHB3_GRP1_DisableClock
 774:Drivers/STM32G4xx_HAL_Driver/Inc/stm32g4xx_ll_bus.h ****   * @param  Periphs This parameter can be a combination of the following values:
 775:Drivers/STM32G4xx_HAL_Driver/Inc/stm32g4xx_ll_bus.h ****   *         @arg @ref LL_AHB3_GRP1_PERIPH_FMC (*)
 776:Drivers/STM32G4xx_HAL_Driver/Inc/stm32g4xx_ll_bus.h ****   *         @arg @ref LL_AHB3_GRP1_PERIPH_QSPI (*)
 777:Drivers/STM32G4xx_HAL_Driver/Inc/stm32g4xx_ll_bus.h ****   *
 778:Drivers/STM32G4xx_HAL_Driver/Inc/stm32g4xx_ll_bus.h ****   *         (*) value not defined in all devices.
 779:Drivers/STM32G4xx_HAL_Driver/Inc/stm32g4xx_ll_bus.h ****   * @retval None
 780:Drivers/STM32G4xx_HAL_Driver/Inc/stm32g4xx_ll_bus.h ****   */
 781:Drivers/STM32G4xx_HAL_Driver/Inc/stm32g4xx_ll_bus.h **** __STATIC_INLINE void LL_AHB3_GRP1_DisableClock(uint32_t Periphs)
 782:Drivers/STM32G4xx_HAL_Driver/Inc/stm32g4xx_ll_bus.h **** {
 783:Drivers/STM32G4xx_HAL_Driver/Inc/stm32g4xx_ll_bus.h ****   CLEAR_BIT(RCC->AHB3ENR, Periphs);
 784:Drivers/STM32G4xx_HAL_Driver/Inc/stm32g4xx_ll_bus.h **** }
 785:Drivers/STM32G4xx_HAL_Driver/Inc/stm32g4xx_ll_bus.h **** 
 786:Drivers/STM32G4xx_HAL_Driver/Inc/stm32g4xx_ll_bus.h **** /**
 787:Drivers/STM32G4xx_HAL_Driver/Inc/stm32g4xx_ll_bus.h ****   * @brief  Force AHB3 peripherals reset.
 788:Drivers/STM32G4xx_HAL_Driver/Inc/stm32g4xx_ll_bus.h ****   * @rmtoll AHB3RSTR     FMCRST        LL_AHB3_GRP1_ForceReset\n
 789:Drivers/STM32G4xx_HAL_Driver/Inc/stm32g4xx_ll_bus.h ****   *         AHB3RSTR     QSPIRST       LL_AHB3_GRP1_ForceReset
 790:Drivers/STM32G4xx_HAL_Driver/Inc/stm32g4xx_ll_bus.h ****   * @param  Periphs This parameter can be a combination of the following values:
 791:Drivers/STM32G4xx_HAL_Driver/Inc/stm32g4xx_ll_bus.h ****   *         @arg @ref LL_AHB3_GRP1_PERIPH_ALL
 792:Drivers/STM32G4xx_HAL_Driver/Inc/stm32g4xx_ll_bus.h ****   *         @arg @ref LL_AHB3_GRP1_PERIPH_FMC (*)
 793:Drivers/STM32G4xx_HAL_Driver/Inc/stm32g4xx_ll_bus.h ****   *         @arg @ref LL_AHB3_GRP1_PERIPH_QSPI (*)
 794:Drivers/STM32G4xx_HAL_Driver/Inc/stm32g4xx_ll_bus.h ****   *
 795:Drivers/STM32G4xx_HAL_Driver/Inc/stm32g4xx_ll_bus.h ****   *         (*) value not defined in all devices.
 796:Drivers/STM32G4xx_HAL_Driver/Inc/stm32g4xx_ll_bus.h ****   * @retval None
 797:Drivers/STM32G4xx_HAL_Driver/Inc/stm32g4xx_ll_bus.h ****   */
 798:Drivers/STM32G4xx_HAL_Driver/Inc/stm32g4xx_ll_bus.h **** __STATIC_INLINE void LL_AHB3_GRP1_ForceReset(uint32_t Periphs)
 799:Drivers/STM32G4xx_HAL_Driver/Inc/stm32g4xx_ll_bus.h **** {
 800:Drivers/STM32G4xx_HAL_Driver/Inc/stm32g4xx_ll_bus.h ****   SET_BIT(RCC->AHB3RSTR, Periphs);
 801:Drivers/STM32G4xx_HAL_Driver/Inc/stm32g4xx_ll_bus.h **** }
 802:Drivers/STM32G4xx_HAL_Driver/Inc/stm32g4xx_ll_bus.h **** 
 803:Drivers/STM32G4xx_HAL_Driver/Inc/stm32g4xx_ll_bus.h **** /**
 804:Drivers/STM32G4xx_HAL_Driver/Inc/stm32g4xx_ll_bus.h ****   * @brief  Release AHB3 peripherals reset.
 805:Drivers/STM32G4xx_HAL_Driver/Inc/stm32g4xx_ll_bus.h ****   * @rmtoll AHB3RSTR     FMCRST        LL_AHB3_GRP1_ReleaseReset\n
 806:Drivers/STM32G4xx_HAL_Driver/Inc/stm32g4xx_ll_bus.h ****   *         AHB3RSTR     QSPIRST       LL_AHB3_GRP1_ReleaseReset
 807:Drivers/STM32G4xx_HAL_Driver/Inc/stm32g4xx_ll_bus.h ****   * @param  Periphs This parameter can be a combination of the following values:
 808:Drivers/STM32G4xx_HAL_Driver/Inc/stm32g4xx_ll_bus.h ****   *         @arg @ref LL_AHB3_GRP1_PERIPH_ALL
 809:Drivers/STM32G4xx_HAL_Driver/Inc/stm32g4xx_ll_bus.h ****   *         @arg @ref LL_AHB3_GRP1_PERIPH_FMC (*)
 810:Drivers/STM32G4xx_HAL_Driver/Inc/stm32g4xx_ll_bus.h ****   *         @arg @ref LL_AHB3_GRP1_PERIPH_QSPI (*)
 811:Drivers/STM32G4xx_HAL_Driver/Inc/stm32g4xx_ll_bus.h ****   *
 812:Drivers/STM32G4xx_HAL_Driver/Inc/stm32g4xx_ll_bus.h ****   *         (*) value not defined in all devices.
 813:Drivers/STM32G4xx_HAL_Driver/Inc/stm32g4xx_ll_bus.h ****   * @retval None
 814:Drivers/STM32G4xx_HAL_Driver/Inc/stm32g4xx_ll_bus.h ****   */
 815:Drivers/STM32G4xx_HAL_Driver/Inc/stm32g4xx_ll_bus.h **** __STATIC_INLINE void LL_AHB3_GRP1_ReleaseReset(uint32_t Periphs)
 816:Drivers/STM32G4xx_HAL_Driver/Inc/stm32g4xx_ll_bus.h **** {
 817:Drivers/STM32G4xx_HAL_Driver/Inc/stm32g4xx_ll_bus.h ****   CLEAR_BIT(RCC->AHB3RSTR, Periphs);
 818:Drivers/STM32G4xx_HAL_Driver/Inc/stm32g4xx_ll_bus.h **** }
 819:Drivers/STM32G4xx_HAL_Driver/Inc/stm32g4xx_ll_bus.h **** 
 820:Drivers/STM32G4xx_HAL_Driver/Inc/stm32g4xx_ll_bus.h **** /**
 821:Drivers/STM32G4xx_HAL_Driver/Inc/stm32g4xx_ll_bus.h ****   * @brief  Enable AHB3 peripheral clocks in Sleep and Stop modes
 822:Drivers/STM32G4xx_HAL_Driver/Inc/stm32g4xx_ll_bus.h ****   * @rmtoll AHB3SMENR    FMCSMEN       LL_AHB3_GRP1_EnableClockStopSleep\n
 823:Drivers/STM32G4xx_HAL_Driver/Inc/stm32g4xx_ll_bus.h ****   *         AHB3SMENR    QSPISMEN      LL_AHB3_GRP1_EnableClockStopSleep
 824:Drivers/STM32G4xx_HAL_Driver/Inc/stm32g4xx_ll_bus.h ****   * @param  Periphs This parameter can be a combination of the following values:
ARM GAS  D:\apps\VSCode\data\tmp\cc1Dl4Ov.s 			page 44


 825:Drivers/STM32G4xx_HAL_Driver/Inc/stm32g4xx_ll_bus.h ****   *         @arg @ref LL_AHB3_GRP1_PERIPH_FMC  (*)
 826:Drivers/STM32G4xx_HAL_Driver/Inc/stm32g4xx_ll_bus.h ****   *         @arg @ref LL_AHB3_GRP1_PERIPH_QSPI (*)
 827:Drivers/STM32G4xx_HAL_Driver/Inc/stm32g4xx_ll_bus.h ****   *
 828:Drivers/STM32G4xx_HAL_Driver/Inc/stm32g4xx_ll_bus.h ****   *         (*) value not defined in all devices.
 829:Drivers/STM32G4xx_HAL_Driver/Inc/stm32g4xx_ll_bus.h ****   * @retval None
 830:Drivers/STM32G4xx_HAL_Driver/Inc/stm32g4xx_ll_bus.h ****   */
 831:Drivers/STM32G4xx_HAL_Driver/Inc/stm32g4xx_ll_bus.h **** __STATIC_INLINE void LL_AHB3_GRP1_EnableClockStopSleep(uint32_t Periphs)
 832:Drivers/STM32G4xx_HAL_Driver/Inc/stm32g4xx_ll_bus.h **** {
 833:Drivers/STM32G4xx_HAL_Driver/Inc/stm32g4xx_ll_bus.h ****   __IO uint32_t tmpreg;
 834:Drivers/STM32G4xx_HAL_Driver/Inc/stm32g4xx_ll_bus.h ****   SET_BIT(RCC->AHB3SMENR, Periphs);
 835:Drivers/STM32G4xx_HAL_Driver/Inc/stm32g4xx_ll_bus.h ****   /* Delay after an RCC peripheral clock enabling */
 836:Drivers/STM32G4xx_HAL_Driver/Inc/stm32g4xx_ll_bus.h ****   tmpreg = READ_BIT(RCC->AHB3SMENR, Periphs);
 837:Drivers/STM32G4xx_HAL_Driver/Inc/stm32g4xx_ll_bus.h ****   (void)tmpreg;
 838:Drivers/STM32G4xx_HAL_Driver/Inc/stm32g4xx_ll_bus.h **** }
 839:Drivers/STM32G4xx_HAL_Driver/Inc/stm32g4xx_ll_bus.h **** 
 840:Drivers/STM32G4xx_HAL_Driver/Inc/stm32g4xx_ll_bus.h **** /**
 841:Drivers/STM32G4xx_HAL_Driver/Inc/stm32g4xx_ll_bus.h ****   * @brief  Disable AHB3 peripheral clocks in Sleep and Stop modes
 842:Drivers/STM32G4xx_HAL_Driver/Inc/stm32g4xx_ll_bus.h ****   * @rmtoll AHB3SMENR    FMCSMEN       LL_AHB3_GRP1_DisableClockStopSleep\n
 843:Drivers/STM32G4xx_HAL_Driver/Inc/stm32g4xx_ll_bus.h ****   *         AHB3SMENR    QSPISMEN      LL_AHB3_GRP1_DisableClockStopSleep
 844:Drivers/STM32G4xx_HAL_Driver/Inc/stm32g4xx_ll_bus.h ****   * @param  Periphs This parameter can be a combination of the following values:
 845:Drivers/STM32G4xx_HAL_Driver/Inc/stm32g4xx_ll_bus.h ****   *         @arg @ref LL_AHB3_GRP1_PERIPH_FMC (*)
 846:Drivers/STM32G4xx_HAL_Driver/Inc/stm32g4xx_ll_bus.h ****   *         @arg @ref LL_AHB3_GRP1_PERIPH_QSPI (*)
 847:Drivers/STM32G4xx_HAL_Driver/Inc/stm32g4xx_ll_bus.h ****   *
 848:Drivers/STM32G4xx_HAL_Driver/Inc/stm32g4xx_ll_bus.h ****   *         (*) value not defined in all devices.
 849:Drivers/STM32G4xx_HAL_Driver/Inc/stm32g4xx_ll_bus.h ****   * @retval None
 850:Drivers/STM32G4xx_HAL_Driver/Inc/stm32g4xx_ll_bus.h ****   */
 851:Drivers/STM32G4xx_HAL_Driver/Inc/stm32g4xx_ll_bus.h **** __STATIC_INLINE void LL_AHB3_GRP1_DisableClockStopSleep(uint32_t Periphs)
 852:Drivers/STM32G4xx_HAL_Driver/Inc/stm32g4xx_ll_bus.h **** {
 853:Drivers/STM32G4xx_HAL_Driver/Inc/stm32g4xx_ll_bus.h ****   CLEAR_BIT(RCC->AHB3SMENR, Periphs);
 854:Drivers/STM32G4xx_HAL_Driver/Inc/stm32g4xx_ll_bus.h **** }
 855:Drivers/STM32G4xx_HAL_Driver/Inc/stm32g4xx_ll_bus.h **** 
 856:Drivers/STM32G4xx_HAL_Driver/Inc/stm32g4xx_ll_bus.h **** /**
 857:Drivers/STM32G4xx_HAL_Driver/Inc/stm32g4xx_ll_bus.h ****   * @}
 858:Drivers/STM32G4xx_HAL_Driver/Inc/stm32g4xx_ll_bus.h ****   */
 859:Drivers/STM32G4xx_HAL_Driver/Inc/stm32g4xx_ll_bus.h **** 
 860:Drivers/STM32G4xx_HAL_Driver/Inc/stm32g4xx_ll_bus.h **** /** @defgroup BUS_LL_EF_APB1 APB1
 861:Drivers/STM32G4xx_HAL_Driver/Inc/stm32g4xx_ll_bus.h ****   * @{
 862:Drivers/STM32G4xx_HAL_Driver/Inc/stm32g4xx_ll_bus.h ****   */
 863:Drivers/STM32G4xx_HAL_Driver/Inc/stm32g4xx_ll_bus.h **** 
 864:Drivers/STM32G4xx_HAL_Driver/Inc/stm32g4xx_ll_bus.h **** /**
 865:Drivers/STM32G4xx_HAL_Driver/Inc/stm32g4xx_ll_bus.h ****   * @brief  Enable APB1 peripherals clock.
 866:Drivers/STM32G4xx_HAL_Driver/Inc/stm32g4xx_ll_bus.h ****   * @rmtoll APB1ENR1     TIM2EN        LL_APB1_GRP1_EnableClock\n
 867:Drivers/STM32G4xx_HAL_Driver/Inc/stm32g4xx_ll_bus.h ****   *         APB1ENR1     TIM3EN        LL_APB1_GRP1_EnableClock\n
 868:Drivers/STM32G4xx_HAL_Driver/Inc/stm32g4xx_ll_bus.h ****   *         APB1ENR1     TIM4EN        LL_APB1_GRP1_EnableClock\n
 869:Drivers/STM32G4xx_HAL_Driver/Inc/stm32g4xx_ll_bus.h ****   *         APB1ENR1     TIM5EN        LL_APB1_GRP1_EnableClock\n
 870:Drivers/STM32G4xx_HAL_Driver/Inc/stm32g4xx_ll_bus.h ****   *         APB1ENR1     TIM6EN        LL_APB1_GRP1_EnableClock\n
 871:Drivers/STM32G4xx_HAL_Driver/Inc/stm32g4xx_ll_bus.h ****   *         APB1ENR1     TIM7EN        LL_APB1_GRP1_EnableClock\n
 872:Drivers/STM32G4xx_HAL_Driver/Inc/stm32g4xx_ll_bus.h ****   *         APB1ENR1     CRSEN         LL_APB1_GRP1_EnableClock\n
 873:Drivers/STM32G4xx_HAL_Driver/Inc/stm32g4xx_ll_bus.h ****   *         APB1ENR1     RTCAPBEN      LL_APB1_GRP1_EnableClock\n
 874:Drivers/STM32G4xx_HAL_Driver/Inc/stm32g4xx_ll_bus.h ****   *         APB1ENR1     WWDGEN        LL_APB1_GRP1_EnableClock\n
 875:Drivers/STM32G4xx_HAL_Driver/Inc/stm32g4xx_ll_bus.h ****   *         APB1ENR1     SPI2EN        LL_APB1_GRP1_EnableClock\n
 876:Drivers/STM32G4xx_HAL_Driver/Inc/stm32g4xx_ll_bus.h ****   *         APB1ENR1     SPI3EN        LL_APB1_GRP1_EnableClock\n
 877:Drivers/STM32G4xx_HAL_Driver/Inc/stm32g4xx_ll_bus.h ****   *         APB1ENR1     USART2EN      LL_APB1_GRP1_EnableClock\n
 878:Drivers/STM32G4xx_HAL_Driver/Inc/stm32g4xx_ll_bus.h ****   *         APB1ENR1     USART3EN      LL_APB1_GRP1_EnableClock\n
 879:Drivers/STM32G4xx_HAL_Driver/Inc/stm32g4xx_ll_bus.h ****   *         APB1ENR1     UART4EN       LL_APB1_GRP1_EnableClock\n
 880:Drivers/STM32G4xx_HAL_Driver/Inc/stm32g4xx_ll_bus.h ****   *         APB1ENR1     UART5EN       LL_APB1_GRP1_EnableClock\n
 881:Drivers/STM32G4xx_HAL_Driver/Inc/stm32g4xx_ll_bus.h ****   *         APB1ENR1     I2C1EN        LL_APB1_GRP1_EnableClock\n
ARM GAS  D:\apps\VSCode\data\tmp\cc1Dl4Ov.s 			page 45


 882:Drivers/STM32G4xx_HAL_Driver/Inc/stm32g4xx_ll_bus.h ****   *         APB1ENR1     I2C2EN        LL_APB1_GRP1_EnableClock\n
 883:Drivers/STM32G4xx_HAL_Driver/Inc/stm32g4xx_ll_bus.h ****   *         APB1ENR1     USBEN         LL_APB1_GRP1_EnableClock\n
 884:Drivers/STM32G4xx_HAL_Driver/Inc/stm32g4xx_ll_bus.h ****   *         APB1ENR1     FDCANEN       LL_APB1_GRP1_EnableClock\n
 885:Drivers/STM32G4xx_HAL_Driver/Inc/stm32g4xx_ll_bus.h ****   *         APB1ENR1     PWREN         LL_APB1_GRP1_EnableClock\n
 886:Drivers/STM32G4xx_HAL_Driver/Inc/stm32g4xx_ll_bus.h ****   *         APB1ENR1     I2C3EN        LL_APB1_GRP1_EnableClock\n
 887:Drivers/STM32G4xx_HAL_Driver/Inc/stm32g4xx_ll_bus.h ****   *         APB1ENR1     LPTIM1EN      LL_APB1_GRP1_EnableClock
 888:Drivers/STM32G4xx_HAL_Driver/Inc/stm32g4xx_ll_bus.h ****   * @param  Periphs This parameter can be a combination of the following values:
 889:Drivers/STM32G4xx_HAL_Driver/Inc/stm32g4xx_ll_bus.h ****   *         @arg @ref LL_APB1_GRP1_PERIPH_TIM2
 890:Drivers/STM32G4xx_HAL_Driver/Inc/stm32g4xx_ll_bus.h ****   *         @arg @ref LL_APB1_GRP1_PERIPH_TIM3
 891:Drivers/STM32G4xx_HAL_Driver/Inc/stm32g4xx_ll_bus.h ****   *         @arg @ref LL_APB1_GRP1_PERIPH_TIM4
 892:Drivers/STM32G4xx_HAL_Driver/Inc/stm32g4xx_ll_bus.h ****   *         @arg @ref LL_APB1_GRP1_PERIPH_TIM5 (*)
 893:Drivers/STM32G4xx_HAL_Driver/Inc/stm32g4xx_ll_bus.h ****   *         @arg @ref LL_APB1_GRP1_PERIPH_TIM6
 894:Drivers/STM32G4xx_HAL_Driver/Inc/stm32g4xx_ll_bus.h ****   *         @arg @ref LL_APB1_GRP1_PERIPH_TIM7
 895:Drivers/STM32G4xx_HAL_Driver/Inc/stm32g4xx_ll_bus.h ****   *         @arg @ref LL_APB1_GRP1_PERIPH_CRS
 896:Drivers/STM32G4xx_HAL_Driver/Inc/stm32g4xx_ll_bus.h ****   *         @arg @ref LL_APB1_GRP1_PERIPH_RTCAPB
 897:Drivers/STM32G4xx_HAL_Driver/Inc/stm32g4xx_ll_bus.h ****   *         @arg @ref LL_APB1_GRP1_PERIPH_WWDG
 898:Drivers/STM32G4xx_HAL_Driver/Inc/stm32g4xx_ll_bus.h ****   *         @arg @ref LL_APB1_GRP1_PERIPH_SPI2
 899:Drivers/STM32G4xx_HAL_Driver/Inc/stm32g4xx_ll_bus.h ****   *         @arg @ref LL_APB1_GRP1_PERIPH_SPI3
 900:Drivers/STM32G4xx_HAL_Driver/Inc/stm32g4xx_ll_bus.h ****   *         @arg @ref LL_APB1_GRP1_PERIPH_USART2
 901:Drivers/STM32G4xx_HAL_Driver/Inc/stm32g4xx_ll_bus.h ****   *         @arg @ref LL_APB1_GRP1_PERIPH_USART3
 902:Drivers/STM32G4xx_HAL_Driver/Inc/stm32g4xx_ll_bus.h ****   *         @arg @ref LL_APB1_GRP1_PERIPH_UART4 (*)
 903:Drivers/STM32G4xx_HAL_Driver/Inc/stm32g4xx_ll_bus.h ****   *         @arg @ref LL_APB1_GRP1_PERIPH_UART5 (*)
 904:Drivers/STM32G4xx_HAL_Driver/Inc/stm32g4xx_ll_bus.h ****   *         @arg @ref LL_APB1_GRP1_PERIPH_I2C1
 905:Drivers/STM32G4xx_HAL_Driver/Inc/stm32g4xx_ll_bus.h ****   *         @arg @ref LL_APB1_GRP1_PERIPH_I2C2
 906:Drivers/STM32G4xx_HAL_Driver/Inc/stm32g4xx_ll_bus.h ****   *         @arg @ref LL_APB1_GRP1_PERIPH_USB
 907:Drivers/STM32G4xx_HAL_Driver/Inc/stm32g4xx_ll_bus.h ****   *         @arg @ref LL_APB1_GRP1_PERIPH_FDCAN (*)
 908:Drivers/STM32G4xx_HAL_Driver/Inc/stm32g4xx_ll_bus.h ****   *         @arg @ref LL_APB1_GRP1_PERIPH_PWR
 909:Drivers/STM32G4xx_HAL_Driver/Inc/stm32g4xx_ll_bus.h ****   *         @arg @ref LL_APB1_GRP1_PERIPH_I2C3
 910:Drivers/STM32G4xx_HAL_Driver/Inc/stm32g4xx_ll_bus.h ****   *         @arg @ref LL_APB1_GRP1_PERIPH_LPTIM1
 911:Drivers/STM32G4xx_HAL_Driver/Inc/stm32g4xx_ll_bus.h ****   *
 912:Drivers/STM32G4xx_HAL_Driver/Inc/stm32g4xx_ll_bus.h ****   *         (*) value not defined in all devices.
 913:Drivers/STM32G4xx_HAL_Driver/Inc/stm32g4xx_ll_bus.h ****   * @retval None
 914:Drivers/STM32G4xx_HAL_Driver/Inc/stm32g4xx_ll_bus.h ****   */
 915:Drivers/STM32G4xx_HAL_Driver/Inc/stm32g4xx_ll_bus.h **** __STATIC_INLINE void LL_APB1_GRP1_EnableClock(uint32_t Periphs)
 492              		.loc 2 915 22 view .LVU140
 493              	.LBB43:
 916:Drivers/STM32G4xx_HAL_Driver/Inc/stm32g4xx_ll_bus.h **** {
 917:Drivers/STM32G4xx_HAL_Driver/Inc/stm32g4xx_ll_bus.h ****   __IO uint32_t tmpreg;
 494              		.loc 2 917 3 view .LVU141
 918:Drivers/STM32G4xx_HAL_Driver/Inc/stm32g4xx_ll_bus.h ****   SET_BIT(RCC->APB1ENR1, Periphs);
 495              		.loc 2 918 3 view .LVU142
 496 003c 9A6D     		ldr	r2, [r3, #88]
 497 003e 42F00072 		orr	r2, r2, #33554432
 498 0042 9A65     		str	r2, [r3, #88]
 919:Drivers/STM32G4xx_HAL_Driver/Inc/stm32g4xx_ll_bus.h ****   /* Delay after an RCC peripheral clock enabling */
 920:Drivers/STM32G4xx_HAL_Driver/Inc/stm32g4xx_ll_bus.h ****   tmpreg = READ_BIT(RCC->APB1ENR1, Periphs);
 499              		.loc 2 920 3 view .LVU143
 500              		.loc 2 920 12 is_stmt 0 view .LVU144
 501 0044 9B6D     		ldr	r3, [r3, #88]
 502 0046 03F00073 		and	r3, r3, #33554432
 503              		.loc 2 920 10 view .LVU145
 504 004a 0093     		str	r3, [sp]
 921:Drivers/STM32G4xx_HAL_Driver/Inc/stm32g4xx_ll_bus.h ****   (void)tmpreg;
 505              		.loc 2 921 3 is_stmt 1 view .LVU146
 506              	.LBE43:
 507              	.LBE42:
 508              	.LBB45:
ARM GAS  D:\apps\VSCode\data\tmp\cc1Dl4Ov.s 			page 46


 509              	.LBB46:
 510              		.loc 3 926 3 is_stmt 0 view .LVU147
 511 004c 4FF48059 		mov	r9, #4096
 512              	.LBE46:
 513              	.LBE45:
 514              	.LBB49:
 515              	.LBB39:
 516 0050 4FF40063 		mov	r3, #2048
 517              	.LBE39:
 518              	.LBE49:
 519              	.LBB50:
 520              	.LBB44:
 521              		.loc 2 921 3 view .LVU148
 522 0054 009A     		ldr	r2, [sp]
 523              	.LVL14:
 524              		.loc 2 921 3 view .LVU149
 525              	.LBE44:
 526              	.LBE50:
 115:Src/fdcan.c   ****     LL_GPIO_ResetOutputPin(FDCAN_TX_GPIO_Port, FDCAN_TX_Pin);
 527              		.loc 1 115 5 is_stmt 1 view .LVU150
 528              	.LBB51:
 529              	.LBI37:
 924:Drivers/STM32G4xx_HAL_Driver/Inc/stm32g4xx_ll_gpio.h **** {
 530              		.loc 3 924 22 view .LVU151
 531              	.LBB40:
 532              		.loc 3 926 3 view .LVU152
 533 0056 AB62     		str	r3, [r5, #40]
 534              	.LVL15:
 535              		.loc 3 926 3 is_stmt 0 view .LVU153
 536              	.LBE40:
 537              	.LBE51:
 116:Src/fdcan.c   ****     /**/
 538              		.loc 1 116 5 is_stmt 1 view .LVU154
 539              	.LBB52:
 540              	.LBI45:
 924:Drivers/STM32G4xx_HAL_Driver/Inc/stm32g4xx_ll_gpio.h **** {
 541              		.loc 3 924 22 view .LVU155
 542              	.LBB47:
 543              		.loc 3 926 3 view .LVU156
 544              	.LBE47:
 545              	.LBE52:
 119:Src/fdcan.c   ****     GPIO_InitStruct.Speed = LL_GPIO_SPEED_FREQ_VERY_HIGH;
 546              		.loc 1 119 26 is_stmt 0 view .LVU157
 547 0058 4FF00208 		mov	r8, #2
 548              	.LBB53:
 549              	.LBB48:
 550              		.loc 3 926 3 view .LVU158
 551 005c C5F82890 		str	r9, [r5, #40]
 552              	.LVL16:
 553              		.loc 3 926 3 view .LVU159
 554              	.LBE48:
 555              	.LBE53:
 118:Src/fdcan.c   ****     GPIO_InitStruct.Mode = LL_GPIO_MODE_ALTERNATE;
 556              		.loc 1 118 5 is_stmt 1 view .LVU160
 120:Src/fdcan.c   ****     GPIO_InitStruct.Pull = LL_GPIO_PULL_NO;
 557              		.loc 1 120 27 is_stmt 0 view .LVU161
 558 0060 0327     		movs	r7, #3
ARM GAS  D:\apps\VSCode\data\tmp\cc1Dl4Ov.s 			page 47


 122:Src/fdcan.c   ****     LL_GPIO_Init(GPIOA, &GPIO_InitStruct);
 559              		.loc 1 122 31 view .LVU162
 560 0062 0926     		movs	r6, #9
 123:Src/fdcan.c   ****     /**/
 561              		.loc 1 123 5 view .LVU163
 562 0064 02A9     		add	r1, sp, #8
 563 0066 2846     		mov	r0, r5
 564              	.LVL17:
 119:Src/fdcan.c   ****     GPIO_InitStruct.Speed = LL_GPIO_SPEED_FREQ_VERY_HIGH;
 565              		.loc 1 119 26 view .LVU164
 566 0068 CDE90238 		strd	r3, r8, [sp, #8]
 120:Src/fdcan.c   ****     GPIO_InitStruct.Pull = LL_GPIO_PULL_NO;
 567              		.loc 1 120 5 is_stmt 1 view .LVU165
 120:Src/fdcan.c   ****     GPIO_InitStruct.Pull = LL_GPIO_PULL_NO;
 568              		.loc 1 120 27 is_stmt 0 view .LVU166
 569 006c 0497     		str	r7, [sp, #16]
 121:Src/fdcan.c   ****     GPIO_InitStruct.Alternate = LL_GPIO_AF_9;
 570              		.loc 1 121 5 is_stmt 1 view .LVU167
 122:Src/fdcan.c   ****     LL_GPIO_Init(GPIOA, &GPIO_InitStruct);
 571              		.loc 1 122 5 view .LVU168
 122:Src/fdcan.c   ****     LL_GPIO_Init(GPIOA, &GPIO_InitStruct);
 572              		.loc 1 122 31 is_stmt 0 view .LVU169
 573 006e 0796     		str	r6, [sp, #28]
 123:Src/fdcan.c   ****     /**/
 574              		.loc 1 123 5 is_stmt 1 view .LVU170
 575 0070 FFF7FEFF 		bl	LL_GPIO_Init
 576              	.LVL18:
 125:Src/fdcan.c   ****     GPIO_InitStruct.Mode = LL_GPIO_MODE_ALTERNATE;
 577              		.loc 1 125 5 view .LVU171
 130:Src/fdcan.c   **** 
 578              		.loc 1 130 5 is_stmt 0 view .LVU172
 579 0074 02A9     		add	r1, sp, #8
 580 0076 2846     		mov	r0, r5
 128:Src/fdcan.c   ****     GPIO_InitStruct.Alternate = LL_GPIO_AF_9;
 581              		.loc 1 128 26 view .LVU173
 582 0078 CDE90646 		strd	r4, r6, [sp, #24]
 126:Src/fdcan.c   ****     GPIO_InitStruct.Speed = LL_GPIO_SPEED_FREQ_VERY_HIGH;
 583              		.loc 1 126 26 view .LVU174
 584 007c CDE90298 		strd	r9, r8, [sp, #8]
 127:Src/fdcan.c   ****     GPIO_InitStruct.Pull = LL_GPIO_PULL_NO;
 585              		.loc 1 127 5 is_stmt 1 view .LVU175
 127:Src/fdcan.c   ****     GPIO_InitStruct.Pull = LL_GPIO_PULL_NO;
 586              		.loc 1 127 27 is_stmt 0 view .LVU176
 587 0080 0497     		str	r7, [sp, #16]
 128:Src/fdcan.c   ****     GPIO_InitStruct.Alternate = LL_GPIO_AF_9;
 588              		.loc 1 128 5 is_stmt 1 view .LVU177
 129:Src/fdcan.c   ****     LL_GPIO_Init(GPIOA, &GPIO_InitStruct);
 589              		.loc 1 129 5 view .LVU178
 130:Src/fdcan.c   **** 
 590              		.loc 1 130 5 view .LVU179
 591 0082 FFF7FEFF 		bl	LL_GPIO_Init
 592              	.LVL19:
 133:Src/fdcan.c   ****     NVIC_EnableIRQ(FDCAN1_IT0_IRQn);
 593              		.loc 1 133 5 view .LVU180
 594              	.LBB54:
 595              	.LBI54:
 596              		.file 4 "Drivers/CMSIS/Include/core_cm4.h"
ARM GAS  D:\apps\VSCode\data\tmp\cc1Dl4Ov.s 			page 48


   1:Drivers/CMSIS/Include/core_cm4.h **** /**************************************************************************//**
   2:Drivers/CMSIS/Include/core_cm4.h ****  * @file     core_cm4.h
   3:Drivers/CMSIS/Include/core_cm4.h ****  * @brief    CMSIS Cortex-M4 Core Peripheral Access Layer Header File
   4:Drivers/CMSIS/Include/core_cm4.h ****  * @version  V5.0.8
   5:Drivers/CMSIS/Include/core_cm4.h ****  * @date     04. June 2018
   6:Drivers/CMSIS/Include/core_cm4.h ****  ******************************************************************************/
   7:Drivers/CMSIS/Include/core_cm4.h **** /*
   8:Drivers/CMSIS/Include/core_cm4.h ****  * Copyright (c) 2009-2018 Arm Limited. All rights reserved.
   9:Drivers/CMSIS/Include/core_cm4.h ****  *
  10:Drivers/CMSIS/Include/core_cm4.h ****  * SPDX-License-Identifier: Apache-2.0
  11:Drivers/CMSIS/Include/core_cm4.h ****  *
  12:Drivers/CMSIS/Include/core_cm4.h ****  * Licensed under the Apache License, Version 2.0 (the License); you may
  13:Drivers/CMSIS/Include/core_cm4.h ****  * not use this file except in compliance with the License.
  14:Drivers/CMSIS/Include/core_cm4.h ****  * You may obtain a copy of the License at
  15:Drivers/CMSIS/Include/core_cm4.h ****  *
  16:Drivers/CMSIS/Include/core_cm4.h ****  * www.apache.org/licenses/LICENSE-2.0
  17:Drivers/CMSIS/Include/core_cm4.h ****  *
  18:Drivers/CMSIS/Include/core_cm4.h ****  * Unless required by applicable law or agreed to in writing, software
  19:Drivers/CMSIS/Include/core_cm4.h ****  * distributed under the License is distributed on an AS IS BASIS, WITHOUT
  20:Drivers/CMSIS/Include/core_cm4.h ****  * WARRANTIES OR CONDITIONS OF ANY KIND, either express or implied.
  21:Drivers/CMSIS/Include/core_cm4.h ****  * See the License for the specific language governing permissions and
  22:Drivers/CMSIS/Include/core_cm4.h ****  * limitations under the License.
  23:Drivers/CMSIS/Include/core_cm4.h ****  */
  24:Drivers/CMSIS/Include/core_cm4.h **** 
  25:Drivers/CMSIS/Include/core_cm4.h **** #if   defined ( __ICCARM__ )
  26:Drivers/CMSIS/Include/core_cm4.h ****   #pragma system_include         /* treat file as system include file for MISRA check */
  27:Drivers/CMSIS/Include/core_cm4.h **** #elif defined (__clang__)
  28:Drivers/CMSIS/Include/core_cm4.h ****   #pragma clang system_header   /* treat file as system include file */
  29:Drivers/CMSIS/Include/core_cm4.h **** #endif
  30:Drivers/CMSIS/Include/core_cm4.h **** 
  31:Drivers/CMSIS/Include/core_cm4.h **** #ifndef __CORE_CM4_H_GENERIC
  32:Drivers/CMSIS/Include/core_cm4.h **** #define __CORE_CM4_H_GENERIC
  33:Drivers/CMSIS/Include/core_cm4.h **** 
  34:Drivers/CMSIS/Include/core_cm4.h **** #include <stdint.h>
  35:Drivers/CMSIS/Include/core_cm4.h **** 
  36:Drivers/CMSIS/Include/core_cm4.h **** #ifdef __cplusplus
  37:Drivers/CMSIS/Include/core_cm4.h ****  extern "C" {
  38:Drivers/CMSIS/Include/core_cm4.h **** #endif
  39:Drivers/CMSIS/Include/core_cm4.h **** 
  40:Drivers/CMSIS/Include/core_cm4.h **** /**
  41:Drivers/CMSIS/Include/core_cm4.h ****   \page CMSIS_MISRA_Exceptions  MISRA-C:2004 Compliance Exceptions
  42:Drivers/CMSIS/Include/core_cm4.h ****   CMSIS violates the following MISRA-C:2004 rules:
  43:Drivers/CMSIS/Include/core_cm4.h **** 
  44:Drivers/CMSIS/Include/core_cm4.h ****    \li Required Rule 8.5, object/function definition in header file.<br>
  45:Drivers/CMSIS/Include/core_cm4.h ****      Function definitions in header files are used to allow 'inlining'.
  46:Drivers/CMSIS/Include/core_cm4.h **** 
  47:Drivers/CMSIS/Include/core_cm4.h ****    \li Required Rule 18.4, declaration of union type or object of union type: '{...}'.<br>
  48:Drivers/CMSIS/Include/core_cm4.h ****      Unions are used for effective representation of core registers.
  49:Drivers/CMSIS/Include/core_cm4.h **** 
  50:Drivers/CMSIS/Include/core_cm4.h ****    \li Advisory Rule 19.7, Function-like macro defined.<br>
  51:Drivers/CMSIS/Include/core_cm4.h ****      Function-like macros are used to allow more efficient code.
  52:Drivers/CMSIS/Include/core_cm4.h ****  */
  53:Drivers/CMSIS/Include/core_cm4.h **** 
  54:Drivers/CMSIS/Include/core_cm4.h **** 
  55:Drivers/CMSIS/Include/core_cm4.h **** /*******************************************************************************
  56:Drivers/CMSIS/Include/core_cm4.h ****  *                 CMSIS definitions
  57:Drivers/CMSIS/Include/core_cm4.h ****  ******************************************************************************/
ARM GAS  D:\apps\VSCode\data\tmp\cc1Dl4Ov.s 			page 49


  58:Drivers/CMSIS/Include/core_cm4.h **** /**
  59:Drivers/CMSIS/Include/core_cm4.h ****   \ingroup Cortex_M4
  60:Drivers/CMSIS/Include/core_cm4.h ****   @{
  61:Drivers/CMSIS/Include/core_cm4.h ****  */
  62:Drivers/CMSIS/Include/core_cm4.h **** 
  63:Drivers/CMSIS/Include/core_cm4.h **** #include "cmsis_version.h"
  64:Drivers/CMSIS/Include/core_cm4.h **** 
  65:Drivers/CMSIS/Include/core_cm4.h **** /* CMSIS CM4 definitions */
  66:Drivers/CMSIS/Include/core_cm4.h **** #define __CM4_CMSIS_VERSION_MAIN  (__CM_CMSIS_VERSION_MAIN)              /*!< \deprecated [31:16] C
  67:Drivers/CMSIS/Include/core_cm4.h **** #define __CM4_CMSIS_VERSION_SUB   (__CM_CMSIS_VERSION_SUB)               /*!< \deprecated [15:0]  C
  68:Drivers/CMSIS/Include/core_cm4.h **** #define __CM4_CMSIS_VERSION       ((__CM4_CMSIS_VERSION_MAIN << 16U) | \
  69:Drivers/CMSIS/Include/core_cm4.h ****                                     __CM4_CMSIS_VERSION_SUB           )  /*!< \deprecated CMSIS HAL
  70:Drivers/CMSIS/Include/core_cm4.h **** 
  71:Drivers/CMSIS/Include/core_cm4.h **** #define __CORTEX_M                (4U)                                   /*!< Cortex-M Core */
  72:Drivers/CMSIS/Include/core_cm4.h **** 
  73:Drivers/CMSIS/Include/core_cm4.h **** /** __FPU_USED indicates whether an FPU is used or not.
  74:Drivers/CMSIS/Include/core_cm4.h ****     For this, __FPU_PRESENT has to be checked prior to making use of FPU specific registers and fun
  75:Drivers/CMSIS/Include/core_cm4.h **** */
  76:Drivers/CMSIS/Include/core_cm4.h **** #if defined ( __CC_ARM )
  77:Drivers/CMSIS/Include/core_cm4.h ****   #if defined __TARGET_FPU_VFP
  78:Drivers/CMSIS/Include/core_cm4.h ****     #if defined (__FPU_PRESENT) && (__FPU_PRESENT == 1U)
  79:Drivers/CMSIS/Include/core_cm4.h ****       #define __FPU_USED       1U
  80:Drivers/CMSIS/Include/core_cm4.h ****     #else
  81:Drivers/CMSIS/Include/core_cm4.h ****       #error "Compiler generates FPU instructions for a device without an FPU (check __FPU_PRESENT)
  82:Drivers/CMSIS/Include/core_cm4.h ****       #define __FPU_USED       0U
  83:Drivers/CMSIS/Include/core_cm4.h ****     #endif
  84:Drivers/CMSIS/Include/core_cm4.h ****   #else
  85:Drivers/CMSIS/Include/core_cm4.h ****     #define __FPU_USED         0U
  86:Drivers/CMSIS/Include/core_cm4.h ****   #endif
  87:Drivers/CMSIS/Include/core_cm4.h **** 
  88:Drivers/CMSIS/Include/core_cm4.h **** #elif defined (__ARMCC_VERSION) && (__ARMCC_VERSION >= 6010050)
  89:Drivers/CMSIS/Include/core_cm4.h ****   #if defined __ARM_PCS_VFP
  90:Drivers/CMSIS/Include/core_cm4.h ****     #if defined (__FPU_PRESENT) && (__FPU_PRESENT == 1U)
  91:Drivers/CMSIS/Include/core_cm4.h ****       #define __FPU_USED       1U
  92:Drivers/CMSIS/Include/core_cm4.h ****     #else
  93:Drivers/CMSIS/Include/core_cm4.h ****       #warning "Compiler generates FPU instructions for a device without an FPU (check __FPU_PRESEN
  94:Drivers/CMSIS/Include/core_cm4.h ****       #define __FPU_USED       0U
  95:Drivers/CMSIS/Include/core_cm4.h ****     #endif
  96:Drivers/CMSIS/Include/core_cm4.h ****   #else
  97:Drivers/CMSIS/Include/core_cm4.h ****     #define __FPU_USED         0U
  98:Drivers/CMSIS/Include/core_cm4.h ****   #endif
  99:Drivers/CMSIS/Include/core_cm4.h **** 
 100:Drivers/CMSIS/Include/core_cm4.h **** #elif defined ( __GNUC__ )
 101:Drivers/CMSIS/Include/core_cm4.h ****   #if defined (__VFP_FP__) && !defined(__SOFTFP__)
 102:Drivers/CMSIS/Include/core_cm4.h ****     #if defined (__FPU_PRESENT) && (__FPU_PRESENT == 1U)
 103:Drivers/CMSIS/Include/core_cm4.h ****       #define __FPU_USED       1U
 104:Drivers/CMSIS/Include/core_cm4.h ****     #else
 105:Drivers/CMSIS/Include/core_cm4.h ****       #error "Compiler generates FPU instructions for a device without an FPU (check __FPU_PRESENT)
 106:Drivers/CMSIS/Include/core_cm4.h ****       #define __FPU_USED       0U
 107:Drivers/CMSIS/Include/core_cm4.h ****     #endif
 108:Drivers/CMSIS/Include/core_cm4.h ****   #else
 109:Drivers/CMSIS/Include/core_cm4.h ****     #define __FPU_USED         0U
 110:Drivers/CMSIS/Include/core_cm4.h ****   #endif
 111:Drivers/CMSIS/Include/core_cm4.h **** 
 112:Drivers/CMSIS/Include/core_cm4.h **** #elif defined ( __ICCARM__ )
 113:Drivers/CMSIS/Include/core_cm4.h ****   #if defined __ARMVFP__
 114:Drivers/CMSIS/Include/core_cm4.h ****     #if defined (__FPU_PRESENT) && (__FPU_PRESENT == 1U)
ARM GAS  D:\apps\VSCode\data\tmp\cc1Dl4Ov.s 			page 50


 115:Drivers/CMSIS/Include/core_cm4.h ****       #define __FPU_USED       1U
 116:Drivers/CMSIS/Include/core_cm4.h ****     #else
 117:Drivers/CMSIS/Include/core_cm4.h ****       #error "Compiler generates FPU instructions for a device without an FPU (check __FPU_PRESENT)
 118:Drivers/CMSIS/Include/core_cm4.h ****       #define __FPU_USED       0U
 119:Drivers/CMSIS/Include/core_cm4.h ****     #endif
 120:Drivers/CMSIS/Include/core_cm4.h ****   #else
 121:Drivers/CMSIS/Include/core_cm4.h ****     #define __FPU_USED         0U
 122:Drivers/CMSIS/Include/core_cm4.h ****   #endif
 123:Drivers/CMSIS/Include/core_cm4.h **** 
 124:Drivers/CMSIS/Include/core_cm4.h **** #elif defined ( __TI_ARM__ )
 125:Drivers/CMSIS/Include/core_cm4.h ****   #if defined __TI_VFP_SUPPORT__
 126:Drivers/CMSIS/Include/core_cm4.h ****     #if defined (__FPU_PRESENT) && (__FPU_PRESENT == 1U)
 127:Drivers/CMSIS/Include/core_cm4.h ****       #define __FPU_USED       1U
 128:Drivers/CMSIS/Include/core_cm4.h ****     #else
 129:Drivers/CMSIS/Include/core_cm4.h ****       #error "Compiler generates FPU instructions for a device without an FPU (check __FPU_PRESENT)
 130:Drivers/CMSIS/Include/core_cm4.h ****       #define __FPU_USED       0U
 131:Drivers/CMSIS/Include/core_cm4.h ****     #endif
 132:Drivers/CMSIS/Include/core_cm4.h ****   #else
 133:Drivers/CMSIS/Include/core_cm4.h ****     #define __FPU_USED         0U
 134:Drivers/CMSIS/Include/core_cm4.h ****   #endif
 135:Drivers/CMSIS/Include/core_cm4.h **** 
 136:Drivers/CMSIS/Include/core_cm4.h **** #elif defined ( __TASKING__ )
 137:Drivers/CMSIS/Include/core_cm4.h ****   #if defined __FPU_VFP__
 138:Drivers/CMSIS/Include/core_cm4.h ****     #if defined (__FPU_PRESENT) && (__FPU_PRESENT == 1U)
 139:Drivers/CMSIS/Include/core_cm4.h ****       #define __FPU_USED       1U
 140:Drivers/CMSIS/Include/core_cm4.h ****     #else
 141:Drivers/CMSIS/Include/core_cm4.h ****       #error "Compiler generates FPU instructions for a device without an FPU (check __FPU_PRESENT)
 142:Drivers/CMSIS/Include/core_cm4.h ****       #define __FPU_USED       0U
 143:Drivers/CMSIS/Include/core_cm4.h ****     #endif
 144:Drivers/CMSIS/Include/core_cm4.h ****   #else
 145:Drivers/CMSIS/Include/core_cm4.h ****     #define __FPU_USED         0U
 146:Drivers/CMSIS/Include/core_cm4.h ****   #endif
 147:Drivers/CMSIS/Include/core_cm4.h **** 
 148:Drivers/CMSIS/Include/core_cm4.h **** #elif defined ( __CSMC__ )
 149:Drivers/CMSIS/Include/core_cm4.h ****   #if ( __CSMC__ & 0x400U)
 150:Drivers/CMSIS/Include/core_cm4.h ****     #if defined (__FPU_PRESENT) && (__FPU_PRESENT == 1U)
 151:Drivers/CMSIS/Include/core_cm4.h ****       #define __FPU_USED       1U
 152:Drivers/CMSIS/Include/core_cm4.h ****     #else
 153:Drivers/CMSIS/Include/core_cm4.h ****       #error "Compiler generates FPU instructions for a device without an FPU (check __FPU_PRESENT)
 154:Drivers/CMSIS/Include/core_cm4.h ****       #define __FPU_USED       0U
 155:Drivers/CMSIS/Include/core_cm4.h ****     #endif
 156:Drivers/CMSIS/Include/core_cm4.h ****   #else
 157:Drivers/CMSIS/Include/core_cm4.h ****     #define __FPU_USED         0U
 158:Drivers/CMSIS/Include/core_cm4.h ****   #endif
 159:Drivers/CMSIS/Include/core_cm4.h **** 
 160:Drivers/CMSIS/Include/core_cm4.h **** #endif
 161:Drivers/CMSIS/Include/core_cm4.h **** 
 162:Drivers/CMSIS/Include/core_cm4.h **** #include "cmsis_compiler.h"               /* CMSIS compiler specific defines */
 163:Drivers/CMSIS/Include/core_cm4.h **** 
 164:Drivers/CMSIS/Include/core_cm4.h **** 
 165:Drivers/CMSIS/Include/core_cm4.h **** #ifdef __cplusplus
 166:Drivers/CMSIS/Include/core_cm4.h **** }
 167:Drivers/CMSIS/Include/core_cm4.h **** #endif
 168:Drivers/CMSIS/Include/core_cm4.h **** 
 169:Drivers/CMSIS/Include/core_cm4.h **** #endif /* __CORE_CM4_H_GENERIC */
 170:Drivers/CMSIS/Include/core_cm4.h **** 
 171:Drivers/CMSIS/Include/core_cm4.h **** #ifndef __CMSIS_GENERIC
ARM GAS  D:\apps\VSCode\data\tmp\cc1Dl4Ov.s 			page 51


 172:Drivers/CMSIS/Include/core_cm4.h **** 
 173:Drivers/CMSIS/Include/core_cm4.h **** #ifndef __CORE_CM4_H_DEPENDANT
 174:Drivers/CMSIS/Include/core_cm4.h **** #define __CORE_CM4_H_DEPENDANT
 175:Drivers/CMSIS/Include/core_cm4.h **** 
 176:Drivers/CMSIS/Include/core_cm4.h **** #ifdef __cplusplus
 177:Drivers/CMSIS/Include/core_cm4.h ****  extern "C" {
 178:Drivers/CMSIS/Include/core_cm4.h **** #endif
 179:Drivers/CMSIS/Include/core_cm4.h **** 
 180:Drivers/CMSIS/Include/core_cm4.h **** /* check device defines and use defaults */
 181:Drivers/CMSIS/Include/core_cm4.h **** #if defined __CHECK_DEVICE_DEFINES
 182:Drivers/CMSIS/Include/core_cm4.h ****   #ifndef __CM4_REV
 183:Drivers/CMSIS/Include/core_cm4.h ****     #define __CM4_REV               0x0000U
 184:Drivers/CMSIS/Include/core_cm4.h ****     #warning "__CM4_REV not defined in device header file; using default!"
 185:Drivers/CMSIS/Include/core_cm4.h ****   #endif
 186:Drivers/CMSIS/Include/core_cm4.h **** 
 187:Drivers/CMSIS/Include/core_cm4.h ****   #ifndef __FPU_PRESENT
 188:Drivers/CMSIS/Include/core_cm4.h ****     #define __FPU_PRESENT             0U
 189:Drivers/CMSIS/Include/core_cm4.h ****     #warning "__FPU_PRESENT not defined in device header file; using default!"
 190:Drivers/CMSIS/Include/core_cm4.h ****   #endif
 191:Drivers/CMSIS/Include/core_cm4.h **** 
 192:Drivers/CMSIS/Include/core_cm4.h ****   #ifndef __MPU_PRESENT
 193:Drivers/CMSIS/Include/core_cm4.h ****     #define __MPU_PRESENT             0U
 194:Drivers/CMSIS/Include/core_cm4.h ****     #warning "__MPU_PRESENT not defined in device header file; using default!"
 195:Drivers/CMSIS/Include/core_cm4.h ****   #endif
 196:Drivers/CMSIS/Include/core_cm4.h **** 
 197:Drivers/CMSIS/Include/core_cm4.h ****   #ifndef __NVIC_PRIO_BITS
 198:Drivers/CMSIS/Include/core_cm4.h ****     #define __NVIC_PRIO_BITS          3U
 199:Drivers/CMSIS/Include/core_cm4.h ****     #warning "__NVIC_PRIO_BITS not defined in device header file; using default!"
 200:Drivers/CMSIS/Include/core_cm4.h ****   #endif
 201:Drivers/CMSIS/Include/core_cm4.h **** 
 202:Drivers/CMSIS/Include/core_cm4.h ****   #ifndef __Vendor_SysTickConfig
 203:Drivers/CMSIS/Include/core_cm4.h ****     #define __Vendor_SysTickConfig    0U
 204:Drivers/CMSIS/Include/core_cm4.h ****     #warning "__Vendor_SysTickConfig not defined in device header file; using default!"
 205:Drivers/CMSIS/Include/core_cm4.h ****   #endif
 206:Drivers/CMSIS/Include/core_cm4.h **** #endif
 207:Drivers/CMSIS/Include/core_cm4.h **** 
 208:Drivers/CMSIS/Include/core_cm4.h **** /* IO definitions (access restrictions to peripheral registers) */
 209:Drivers/CMSIS/Include/core_cm4.h **** /**
 210:Drivers/CMSIS/Include/core_cm4.h ****     \defgroup CMSIS_glob_defs CMSIS Global Defines
 211:Drivers/CMSIS/Include/core_cm4.h **** 
 212:Drivers/CMSIS/Include/core_cm4.h ****     <strong>IO Type Qualifiers</strong> are used
 213:Drivers/CMSIS/Include/core_cm4.h ****     \li to specify the access to peripheral variables.
 214:Drivers/CMSIS/Include/core_cm4.h ****     \li for automatic generation of peripheral register debug information.
 215:Drivers/CMSIS/Include/core_cm4.h **** */
 216:Drivers/CMSIS/Include/core_cm4.h **** #ifdef __cplusplus
 217:Drivers/CMSIS/Include/core_cm4.h ****   #define   __I     volatile             /*!< Defines 'read only' permissions */
 218:Drivers/CMSIS/Include/core_cm4.h **** #else
 219:Drivers/CMSIS/Include/core_cm4.h ****   #define   __I     volatile const       /*!< Defines 'read only' permissions */
 220:Drivers/CMSIS/Include/core_cm4.h **** #endif
 221:Drivers/CMSIS/Include/core_cm4.h **** #define     __O     volatile             /*!< Defines 'write only' permissions */
 222:Drivers/CMSIS/Include/core_cm4.h **** #define     __IO    volatile             /*!< Defines 'read / write' permissions */
 223:Drivers/CMSIS/Include/core_cm4.h **** 
 224:Drivers/CMSIS/Include/core_cm4.h **** /* following defines should be used for structure members */
 225:Drivers/CMSIS/Include/core_cm4.h **** #define     __IM     volatile const      /*! Defines 'read only' structure member permissions */
 226:Drivers/CMSIS/Include/core_cm4.h **** #define     __OM     volatile            /*! Defines 'write only' structure member permissions */
 227:Drivers/CMSIS/Include/core_cm4.h **** #define     __IOM    volatile            /*! Defines 'read / write' structure member permissions */
 228:Drivers/CMSIS/Include/core_cm4.h **** 
ARM GAS  D:\apps\VSCode\data\tmp\cc1Dl4Ov.s 			page 52


 229:Drivers/CMSIS/Include/core_cm4.h **** /*@} end of group Cortex_M4 */
 230:Drivers/CMSIS/Include/core_cm4.h **** 
 231:Drivers/CMSIS/Include/core_cm4.h **** 
 232:Drivers/CMSIS/Include/core_cm4.h **** 
 233:Drivers/CMSIS/Include/core_cm4.h **** /*******************************************************************************
