ARM GAS  D:\apps\VSCode\data\tmp\cczoc3tE.s 			page 1


   1              		.cpu cortex-m4
   2              		.eabi_attribute 27, 1
   3              		.eabi_attribute 28, 1
   4              		.eabi_attribute 20, 1
   5              		.eabi_attribute 21, 1
   6              		.eabi_attribute 23, 3
   7              		.eabi_attribute 24, 1
   8              		.eabi_attribute 25, 1
   9              		.eabi_attribute 26, 1
  10              		.eabi_attribute 30, 6
  11              		.eabi_attribute 34, 1
  12              		.eabi_attribute 18, 4
  13              		.file	"gpio.c"
  14              		.text
  15              	.Ltext0:
  16              		.cfi_sections	.debug_frame
  17              		.section	.rodata.REG_OFFSET_TAB_TIMER,"a"
  18              		.align	2
  21              	REG_OFFSET_TAB_TIMER:
  22 0000 0000     		.short	0
  23 0002 8000     		.short	128
  24 0004 0001     		.short	256
  25 0006 8001     		.short	384
  26 0008 0002     		.short	512
  27 000a 8002     		.short	640
  28 000c 0003     		.short	768
  29              		.section	.rodata.REG_OFFSET_TAB_ADCER,"a"
  30              		.align	2
  33              	REG_OFFSET_TAB_ADCER:
  34 0000 00       		.byte	0
  35 0001 04       		.byte	4
  36 0002 08       		.byte	8
  37 0003 0C       		.byte	12
  38 0004 3C       		.byte	60
  39 0005 3C       		.byte	60
  40 0006 3C       		.byte	60
  41 0007 3C       		.byte	60
  42 0008 3C       		.byte	60
  43 0009 3C       		.byte	60
  44              		.section	.rodata.REG_OFFSET_TAB_ADCUR,"a"
  45              		.align	2
  48              	REG_OFFSET_TAB_ADCUR:
  49 0000 00       		.byte	0
  50 0001 00       		.byte	0
  51 0002 00       		.byte	0
  52 0003 00       		.byte	0
  53 0004 7C       		.byte	124
  54 0005 7C       		.byte	124
  55 0006 7C       		.byte	124
  56 0007 7C       		.byte	124
  57 0008 7C       		.byte	124
  58 0009 7C       		.byte	124
  59              		.section	.rodata.REG_SHIFT_TAB_ADCER,"a"
  60              		.align	2
  63              	REG_SHIFT_TAB_ADCER:
  64 0000 00       		.byte	0
  65 0001 00       		.byte	0
ARM GAS  D:\apps\VSCode\data\tmp\cczoc3tE.s 			page 2


  66 0002 00       		.byte	0
  67 0003 00       		.byte	0
  68 0004 00       		.byte	0
  69 0005 05       		.byte	5
  70 0006 0A       		.byte	10
  71 0007 10       		.byte	16
  72 0008 15       		.byte	21
  73 0009 1A       		.byte	26
  74              		.section	.rodata.REG_SHIFT_TAB_ADCUR,"a"
  75              		.align	2
  78              	REG_SHIFT_TAB_ADCUR:
  79 0000 10       		.byte	16
  80 0001 13       		.byte	19
  81 0002 16       		.byte	22
  82 0003 19       		.byte	25
  83 0004 00       		.byte	0
  84 0005 04       		.byte	4
  85 0006 08       		.byte	8
  86 0007 0C       		.byte	12
  87 0008 10       		.byte	16
  88 0009 14       		.byte	20
  89              		.section	.rodata.REG_MASK_TAB_ADCER,"a"
  90              		.align	2
  93              	REG_MASK_TAB_ADCER:
  94 0000 FFFFFFFF 		.word	-1
  95 0004 FFFFFFFF 		.word	-1
  96 0008 FFFFFFFF 		.word	-1
  97 000c FFFFFFFF 		.word	-1
  98 0010 1F000000 		.word	31
  99 0014 E0030000 		.word	992
 100 0018 007C0000 		.word	31744
 101 001c 00001F00 		.word	2031616
 102 0020 0000E003 		.word	65011712
 103 0024 0000007C 		.word	2080374784
 104              		.section	.rodata.REG_MASK_TAB_ADCUR,"a"
 105              		.align	2
 108              	REG_MASK_TAB_ADCUR:
 109 0000 00000700 		.word	458752
 110 0004 00003800 		.word	3670016
 111 0008 0000C001 		.word	29360128
 112 000c 0000000E 		.word	234881024
 113 0010 07000000 		.word	7
 114 0014 70000000 		.word	112
 115 0018 00070000 		.word	1792
 116 001c 00700000 		.word	28672
 117 0020 00000700 		.word	458752
 118 0024 00007000 		.word	7340032
 119              		.section	.rodata.REG_OFFSET_TAB_ADCPSx,"a"
 120              		.align	2
 123              	REG_OFFSET_TAB_ADCPSx:
 124 0000 00       		.byte	0
 125 0001 06       		.byte	6
 126 0002 0C       		.byte	12
 127 0003 12       		.byte	18
 128 0004 18       		.byte	24
 129 0005 20       		.byte	32
 130 0006 26       		.byte	38
ARM GAS  D:\apps\VSCode\data\tmp\cczoc3tE.s 			page 3


 131 0007 2C       		.byte	44
 132 0008 32       		.byte	50
 133 0009 38       		.byte	56
 134              		.section	.rodata.REG_OFFSET_TAB_SETxR,"a"
 135              		.align	2
 138              	REG_OFFSET_TAB_SETxR:
 139 0000 0000     		.short	0
 140 0002 0800     		.short	8
 141 0004 8000     		.short	128
 142 0006 8800     		.short	136
 143 0008 0001     		.short	256
 144 000a 0801     		.short	264
 145 000c 8001     		.short	384
 146 000e 8801     		.short	392
 147 0010 0002     		.short	512
 148 0012 0802     		.short	520
 149 0014 8002     		.short	640
 150 0016 8802     		.short	648
 151              		.section	.rodata.REG_OFFSET_TAB_OUTxR,"a"
 152              		.align	2
 155              	REG_OFFSET_TAB_OUTxR:
 156 0000 0000     		.short	0
 157 0002 0000     		.short	0
 158 0004 8000     		.short	128
 159 0006 8000     		.short	128
 160 0008 0001     		.short	256
 161 000a 0001     		.short	256
 162 000c 8001     		.short	384
 163 000e 8001     		.short	384
 164 0010 0002     		.short	512
 165 0012 0002     		.short	512
 166 0014 8002     		.short	640
 167 0016 8002     		.short	640
 168              		.section	.rodata.REG_OFFSET_TAB_EECR,"a"
 169              		.align	2
 172              	REG_OFFSET_TAB_EECR:
 173 0000 00       		.byte	0
 174 0001 00       		.byte	0
 175 0002 00       		.byte	0
 176 0003 00       		.byte	0
 177 0004 00       		.byte	0
 178 0005 04       		.byte	4
 179 0006 04       		.byte	4
 180 0007 04       		.byte	4
 181 0008 04       		.byte	4
 182 0009 04       		.byte	4
 183              		.section	.rodata.REG_OFFSET_TAB_FLTINR,"a"
 184              		.align	2
 187              	REG_OFFSET_TAB_FLTINR:
 188 0000 00       		.byte	0
 189 0001 00       		.byte	0
 190 0002 00       		.byte	0
 191 0003 00       		.byte	0
 192 0004 04       		.byte	4
 193 0005 04       		.byte	4
 194              		.section	.rodata.REG_MASK_TAB_UPDATETRIG,"a"
 195              		.align	2
ARM GAS  D:\apps\VSCode\data\tmp\cczoc3tE.s 			page 4


 198              	REG_MASK_TAB_UPDATETRIG:
 199 0000 00000020 		.word	536870912
 200 0004 0000FF01 		.word	33488896
 201 0008 0000FF01 		.word	33488896
 202 000c 0000FF01 		.word	33488896
 203 0010 0000FF01 		.word	33488896
 204 0014 0000FF01 		.word	33488896
 205 0018 0000FF01 		.word	33488896
 206 001c 0000FF01 		.word	33488896
 207              		.section	.rodata.REG_SHIFT_TAB_UPDATETRIG,"a"
 208              		.align	2
 211              	REG_SHIFT_TAB_UPDATETRIG:
 212 0000 0C       		.byte	12
 213 0001 00       		.byte	0
 214 0002 00       		.byte	0
 215 0003 00       		.byte	0
 216 0004 00       		.byte	0
 217 0005 00       		.byte	0
 218 0006 00       		.byte	0
 219              		.section	.rodata.REG_SHIFT_TAB_EExSRC,"a"
 220              		.align	2
 223              	REG_SHIFT_TAB_EExSRC:
 224 0000 00       		.byte	0
 225 0001 06       		.byte	6
 226 0002 0C       		.byte	12
 227 0003 12       		.byte	18
 228 0004 18       		.byte	24
 229 0005 00       		.byte	0
 230 0006 06       		.byte	6
 231 0007 0C       		.byte	12
 232 0008 12       		.byte	18
 233 0009 18       		.byte	24
 234              		.section	.rodata.REG_MASK_TAB_UPDATEGATING,"a"
 235              		.align	2
 238              	REG_MASK_TAB_UPDATEGATING:
 239 0000 000000C0 		.word	-1073741824
 240 0004 000000F0 		.word	-268435456
 241 0008 000000F0 		.word	-268435456
 242 000c 000000F0 		.word	-268435456
 243 0010 000000F0 		.word	-268435456
 244 0014 000000F0 		.word	-268435456
 245 0018 000000F0 		.word	-268435456
 246              		.section	.rodata.REG_SHIFT_TAB_UPDATEGATING,"a"
 247              		.align	2
 250              	REG_SHIFT_TAB_UPDATEGATING:
 251 0000 02       		.byte	2
 252 0001 00       		.byte	0
 253 0002 00       		.byte	0
 254 0003 00       		.byte	0
 255 0004 00       		.byte	0
 256 0005 00       		.byte	0
 257 0006 00       		.byte	0
 258              		.section	.rodata.REG_SHIFT_TAB_OUTxR,"a"
 259              		.align	2
 262              	REG_SHIFT_TAB_OUTxR:
 263 0000 00       		.byte	0
 264 0001 10       		.byte	16
ARM GAS  D:\apps\VSCode\data\tmp\cczoc3tE.s 			page 5


 265 0002 00       		.byte	0
 266 0003 10       		.byte	16
 267 0004 00       		.byte	0
 268 0005 10       		.byte	16
 269 0006 00       		.byte	0
 270 0007 10       		.byte	16
 271 0008 00       		.byte	0
 272 0009 10       		.byte	16
 273 000a 00       		.byte	0
 274 000b 10       		.byte	16
 275              		.section	.rodata.REG_SHIFT_TAB_OxSTAT,"a"
 276              		.align	2
 279              	REG_SHIFT_TAB_OxSTAT:
 280 0000 00       		.byte	0
 281 0001 01       		.byte	1
 282 0002 00       		.byte	0
 283 0003 01       		.byte	1
 284 0004 00       		.byte	0
 285 0005 01       		.byte	1
 286 0006 00       		.byte	0
 287 0007 01       		.byte	1
 288 0008 00       		.byte	0
 289 0009 01       		.byte	1
 290 000a 00       		.byte	0
 291 000b 01       		.byte	1
 292              		.section	.rodata.REG_SHIFT_TAB_FLTxE,"a"
 293              		.align	2
 296              	REG_SHIFT_TAB_FLTxE:
 297 0000 00       		.byte	0
 298 0001 08       		.byte	8
 299 0002 10       		.byte	16
 300 0003 18       		.byte	24
 301 0004 00       		.byte	0
 302 0005 08       		.byte	8
 303              		.section	.rodata.REG_SHIFT_TAB_FLTxF,"a"
 304              		.align	2
 307              	REG_SHIFT_TAB_FLTxF:
 308 0000 00       		.byte	0
 309 0001 08       		.byte	8
 310 0002 10       		.byte	16
 311 0003 18       		.byte	24
 312 0004 20       		.byte	32
 313 0005 28       		.byte	40
 314              		.section	.rodata.REG_SHIFT_TAB_FLTx,"a"
 315              		.align	2
 318              	REG_SHIFT_TAB_FLTx:
 319 0000 00       		.byte	0
 320 0001 01       		.byte	1
 321 0002 02       		.byte	2
 322 0003 03       		.byte	3
 323 0004 04       		.byte	4
 324 0005 05       		.byte	5
 325              		.section	.rodata.REG_SHIFT_TAB_INTLVD,"a"
 326              		.align	2
 329              	REG_SHIFT_TAB_INTLVD:
 330 0000 00       		.byte	0
 331 0001 01       		.byte	1
ARM GAS  D:\apps\VSCode\data\tmp\cczoc3tE.s 			page 6


 332 0002 01       		.byte	1
 333 0003 01       		.byte	1
 334 0004 01       		.byte	1
 335 0005 01       		.byte	1
 336 0006 01       		.byte	1
 337              		.section	.rodata.REG_MASK_TAB_INTLVD,"a"
 338              		.align	2
 341              	REG_MASK_TAB_INTLVD:
 342 0000 E0000000 		.word	224
 343 0004 A0010000 		.word	416
 344 0008 A0010000 		.word	416
 345 000c A0010000 		.word	416
 346 0010 A0010000 		.word	416
 347 0014 A0010000 		.word	416
 348 0018 A0010000 		.word	416
 349              		.section	.rodata.REG_SHIFT_TAB_CPT,"a"
 350              		.align	2
 353              	REG_SHIFT_TAB_CPT:
 354 0000 0C       		.byte	12
 355 0001 10       		.byte	16
 356 0002 14       		.byte	20
 357 0003 18       		.byte	24
 358 0004 1C       		.byte	28
 359 0005 20       		.byte	32
 360              		.section	.rodata.REG_MASK_TAB_CPT,"a"
 361              		.align	2
 364              	REG_MASK_TAB_CPT:
 365 0000 0000FFFF 		.word	-65536
 366 0004 00F0F0FF 		.word	-987136
 367 0008 00F00FFF 		.word	-15732736
 368 000c 00F0FFF0 		.word	-251662336
 369 0010 00F0FF0F 		.word	268431360
 370 0014 00F0FFFF 		.word	-4096
 371              		.section	.text.LL_AHB2_GRP1_EnableClock,"ax",%progbits
 372              		.align	1
 373              		.arch armv7e-m
 374              		.syntax unified
 375              		.thumb
 376              		.thumb_func
 377              		.fpu fpv4-sp-d16
 379              	LL_AHB2_GRP1_EnableClock:
 380              	.LFB957:
 381              		.file 1 "Drivers/STM32G4xx_HAL_Driver/Inc/stm32g4xx_ll_bus.h"
   1:Drivers/STM32G4xx_HAL_Driver/Inc/stm32g4xx_ll_bus.h **** /**
   2:Drivers/STM32G4xx_HAL_Driver/Inc/stm32g4xx_ll_bus.h ****   ******************************************************************************
   3:Drivers/STM32G4xx_HAL_Driver/Inc/stm32g4xx_ll_bus.h ****   * @file    stm32g4xx_ll_bus.h
   4:Drivers/STM32G4xx_HAL_Driver/Inc/stm32g4xx_ll_bus.h ****   * @author  MCD Application Team
   5:Drivers/STM32G4xx_HAL_Driver/Inc/stm32g4xx_ll_bus.h ****   * @brief   Header file of BUS LL module.
   6:Drivers/STM32G4xx_HAL_Driver/Inc/stm32g4xx_ll_bus.h **** 
   7:Drivers/STM32G4xx_HAL_Driver/Inc/stm32g4xx_ll_bus.h ****   @verbatim
   8:Drivers/STM32G4xx_HAL_Driver/Inc/stm32g4xx_ll_bus.h ****                       ##### RCC Limitations #####
   9:Drivers/STM32G4xx_HAL_Driver/Inc/stm32g4xx_ll_bus.h ****   ==============================================================================
  10:Drivers/STM32G4xx_HAL_Driver/Inc/stm32g4xx_ll_bus.h ****     [..]
  11:Drivers/STM32G4xx_HAL_Driver/Inc/stm32g4xx_ll_bus.h ****       A delay between an RCC peripheral clock enable and the effective peripheral
  12:Drivers/STM32G4xx_HAL_Driver/Inc/stm32g4xx_ll_bus.h ****       enabling should be taken into account in order to manage the peripheral read/write
  13:Drivers/STM32G4xx_HAL_Driver/Inc/stm32g4xx_ll_bus.h ****       from/to registers.
  14:Drivers/STM32G4xx_HAL_Driver/Inc/stm32g4xx_ll_bus.h ****       (+) This delay depends on the peripheral mapping.
ARM GAS  D:\apps\VSCode\data\tmp\cczoc3tE.s 			page 7


  15:Drivers/STM32G4xx_HAL_Driver/Inc/stm32g4xx_ll_bus.h ****         (++) AHB & APB peripherals, 1 dummy read is necessary
  16:Drivers/STM32G4xx_HAL_Driver/Inc/stm32g4xx_ll_bus.h **** 
  17:Drivers/STM32G4xx_HAL_Driver/Inc/stm32g4xx_ll_bus.h ****     [..]
  18:Drivers/STM32G4xx_HAL_Driver/Inc/stm32g4xx_ll_bus.h ****       Workarounds:
  19:Drivers/STM32G4xx_HAL_Driver/Inc/stm32g4xx_ll_bus.h ****       (#) For AHB & APB peripherals, a dummy read to the peripheral register has been
  20:Drivers/STM32G4xx_HAL_Driver/Inc/stm32g4xx_ll_bus.h ****           inserted in each LL_{BUS}_GRP{x}_EnableClock() function.
  21:Drivers/STM32G4xx_HAL_Driver/Inc/stm32g4xx_ll_bus.h **** 
  22:Drivers/STM32G4xx_HAL_Driver/Inc/stm32g4xx_ll_bus.h ****   @endverbatim
  23:Drivers/STM32G4xx_HAL_Driver/Inc/stm32g4xx_ll_bus.h ****   ******************************************************************************
  24:Drivers/STM32G4xx_HAL_Driver/Inc/stm32g4xx_ll_bus.h ****   * @attention
  25:Drivers/STM32G4xx_HAL_Driver/Inc/stm32g4xx_ll_bus.h ****   *
  26:Drivers/STM32G4xx_HAL_Driver/Inc/stm32g4xx_ll_bus.h ****   * <h2><center>&copy; Copyright (c) 2019 STMicroelectronics.
  27:Drivers/STM32G4xx_HAL_Driver/Inc/stm32g4xx_ll_bus.h ****   * All rights reserved.</center></h2>
  28:Drivers/STM32G4xx_HAL_Driver/Inc/stm32g4xx_ll_bus.h ****   *
  29:Drivers/STM32G4xx_HAL_Driver/Inc/stm32g4xx_ll_bus.h ****   * This software component is licensed by ST under BSD 3-Clause license,
  30:Drivers/STM32G4xx_HAL_Driver/Inc/stm32g4xx_ll_bus.h ****   * the "License"; You may not use this file except in compliance with the
  31:Drivers/STM32G4xx_HAL_Driver/Inc/stm32g4xx_ll_bus.h ****   * License. You may obtain a copy of the License at:
  32:Drivers/STM32G4xx_HAL_Driver/Inc/stm32g4xx_ll_bus.h ****   *                        opensource.org/licenses/BSD-3-Clause
  33:Drivers/STM32G4xx_HAL_Driver/Inc/stm32g4xx_ll_bus.h ****   *
  34:Drivers/STM32G4xx_HAL_Driver/Inc/stm32g4xx_ll_bus.h ****   ******************************************************************************
  35:Drivers/STM32G4xx_HAL_Driver/Inc/stm32g4xx_ll_bus.h ****   */
  36:Drivers/STM32G4xx_HAL_Driver/Inc/stm32g4xx_ll_bus.h **** 
  37:Drivers/STM32G4xx_HAL_Driver/Inc/stm32g4xx_ll_bus.h **** /* Define to prevent recursive inclusion -------------------------------------*/
  38:Drivers/STM32G4xx_HAL_Driver/Inc/stm32g4xx_ll_bus.h **** #ifndef STM32G4xx_LL_BUS_H
  39:Drivers/STM32G4xx_HAL_Driver/Inc/stm32g4xx_ll_bus.h **** #define STM32G4xx_LL_BUS_H
  40:Drivers/STM32G4xx_HAL_Driver/Inc/stm32g4xx_ll_bus.h **** 
  41:Drivers/STM32G4xx_HAL_Driver/Inc/stm32g4xx_ll_bus.h **** #ifdef __cplusplus
  42:Drivers/STM32G4xx_HAL_Driver/Inc/stm32g4xx_ll_bus.h **** extern "C" {
  43:Drivers/STM32G4xx_HAL_Driver/Inc/stm32g4xx_ll_bus.h **** #endif
  44:Drivers/STM32G4xx_HAL_Driver/Inc/stm32g4xx_ll_bus.h **** 
  45:Drivers/STM32G4xx_HAL_Driver/Inc/stm32g4xx_ll_bus.h **** /* Includes ------------------------------------------------------------------*/
  46:Drivers/STM32G4xx_HAL_Driver/Inc/stm32g4xx_ll_bus.h **** #include "stm32g4xx.h"
  47:Drivers/STM32G4xx_HAL_Driver/Inc/stm32g4xx_ll_bus.h **** 
  48:Drivers/STM32G4xx_HAL_Driver/Inc/stm32g4xx_ll_bus.h **** /** @addtogroup STM32G4xx_LL_Driver
  49:Drivers/STM32G4xx_HAL_Driver/Inc/stm32g4xx_ll_bus.h ****   * @{
  50:Drivers/STM32G4xx_HAL_Driver/Inc/stm32g4xx_ll_bus.h ****   */
  51:Drivers/STM32G4xx_HAL_Driver/Inc/stm32g4xx_ll_bus.h **** 
  52:Drivers/STM32G4xx_HAL_Driver/Inc/stm32g4xx_ll_bus.h **** #if defined(RCC)
  53:Drivers/STM32G4xx_HAL_Driver/Inc/stm32g4xx_ll_bus.h **** 
  54:Drivers/STM32G4xx_HAL_Driver/Inc/stm32g4xx_ll_bus.h **** /** @defgroup BUS_LL BUS
  55:Drivers/STM32G4xx_HAL_Driver/Inc/stm32g4xx_ll_bus.h ****   * @{
  56:Drivers/STM32G4xx_HAL_Driver/Inc/stm32g4xx_ll_bus.h ****   */
  57:Drivers/STM32G4xx_HAL_Driver/Inc/stm32g4xx_ll_bus.h **** 
  58:Drivers/STM32G4xx_HAL_Driver/Inc/stm32g4xx_ll_bus.h **** /* Private types -------------------------------------------------------------*/
  59:Drivers/STM32G4xx_HAL_Driver/Inc/stm32g4xx_ll_bus.h **** /* Private variables ---------------------------------------------------------*/
  60:Drivers/STM32G4xx_HAL_Driver/Inc/stm32g4xx_ll_bus.h **** 
  61:Drivers/STM32G4xx_HAL_Driver/Inc/stm32g4xx_ll_bus.h **** /* Private constants ---------------------------------------------------------*/
  62:Drivers/STM32G4xx_HAL_Driver/Inc/stm32g4xx_ll_bus.h **** 
  63:Drivers/STM32G4xx_HAL_Driver/Inc/stm32g4xx_ll_bus.h **** /* Private macros ------------------------------------------------------------*/
  64:Drivers/STM32G4xx_HAL_Driver/Inc/stm32g4xx_ll_bus.h **** 
  65:Drivers/STM32G4xx_HAL_Driver/Inc/stm32g4xx_ll_bus.h **** /* Exported types ------------------------------------------------------------*/
  66:Drivers/STM32G4xx_HAL_Driver/Inc/stm32g4xx_ll_bus.h **** /* Exported constants --------------------------------------------------------*/
  67:Drivers/STM32G4xx_HAL_Driver/Inc/stm32g4xx_ll_bus.h **** /** @defgroup BUS_LL_Exported_Constants BUS Exported Constants
  68:Drivers/STM32G4xx_HAL_Driver/Inc/stm32g4xx_ll_bus.h ****   * @{
  69:Drivers/STM32G4xx_HAL_Driver/Inc/stm32g4xx_ll_bus.h ****   */
  70:Drivers/STM32G4xx_HAL_Driver/Inc/stm32g4xx_ll_bus.h **** 
  71:Drivers/STM32G4xx_HAL_Driver/Inc/stm32g4xx_ll_bus.h **** /** @defgroup BUS_LL_EC_AHB1_GRP1_PERIPH  AHB1 GRP1 PERIPH
ARM GAS  D:\apps\VSCode\data\tmp\cczoc3tE.s 			page 8


  72:Drivers/STM32G4xx_HAL_Driver/Inc/stm32g4xx_ll_bus.h ****   * @{
  73:Drivers/STM32G4xx_HAL_Driver/Inc/stm32g4xx_ll_bus.h ****   */
  74:Drivers/STM32G4xx_HAL_Driver/Inc/stm32g4xx_ll_bus.h **** #define LL_AHB1_GRP1_PERIPH_ALL            0xFFFFFFFFU
  75:Drivers/STM32G4xx_HAL_Driver/Inc/stm32g4xx_ll_bus.h **** #define LL_AHB1_GRP1_PERIPH_DMA1           RCC_AHB1ENR_DMA1EN
  76:Drivers/STM32G4xx_HAL_Driver/Inc/stm32g4xx_ll_bus.h **** #define LL_AHB1_GRP1_PERIPH_DMA2           RCC_AHB1ENR_DMA2EN
  77:Drivers/STM32G4xx_HAL_Driver/Inc/stm32g4xx_ll_bus.h **** #define LL_AHB1_GRP1_PERIPH_DMAMUX1        RCC_AHB1ENR_DMAMUX1EN
  78:Drivers/STM32G4xx_HAL_Driver/Inc/stm32g4xx_ll_bus.h **** #define LL_AHB1_GRP1_PERIPH_CORDIC         RCC_AHB1ENR_CORDICEN
  79:Drivers/STM32G4xx_HAL_Driver/Inc/stm32g4xx_ll_bus.h **** #define LL_AHB1_GRP1_PERIPH_FMAC           RCC_AHB1ENR_FMACEN
  80:Drivers/STM32G4xx_HAL_Driver/Inc/stm32g4xx_ll_bus.h **** #define LL_AHB1_GRP1_PERIPH_FLASH          RCC_AHB1ENR_FLASHEN
  81:Drivers/STM32G4xx_HAL_Driver/Inc/stm32g4xx_ll_bus.h **** #define LL_AHB1_GRP1_PERIPH_SRAM1          RCC_AHB1SMENR_SRAM1SMEN
  82:Drivers/STM32G4xx_HAL_Driver/Inc/stm32g4xx_ll_bus.h **** #define LL_AHB1_GRP1_PERIPH_CRC            RCC_AHB1ENR_CRCEN
  83:Drivers/STM32G4xx_HAL_Driver/Inc/stm32g4xx_ll_bus.h **** /**
  84:Drivers/STM32G4xx_HAL_Driver/Inc/stm32g4xx_ll_bus.h ****   * @}
  85:Drivers/STM32G4xx_HAL_Driver/Inc/stm32g4xx_ll_bus.h ****   */
  86:Drivers/STM32G4xx_HAL_Driver/Inc/stm32g4xx_ll_bus.h **** 
  87:Drivers/STM32G4xx_HAL_Driver/Inc/stm32g4xx_ll_bus.h **** /** @defgroup BUS_LL_EC_AHB2_GRP1_PERIPH  AHB2 GRP1 PERIPH
  88:Drivers/STM32G4xx_HAL_Driver/Inc/stm32g4xx_ll_bus.h ****   * @{
  89:Drivers/STM32G4xx_HAL_Driver/Inc/stm32g4xx_ll_bus.h ****   */
  90:Drivers/STM32G4xx_HAL_Driver/Inc/stm32g4xx_ll_bus.h **** #define LL_AHB2_GRP1_PERIPH_ALL            0xFFFFFFFFU
  91:Drivers/STM32G4xx_HAL_Driver/Inc/stm32g4xx_ll_bus.h **** #define LL_AHB2_GRP1_PERIPH_GPIOA          RCC_AHB2ENR_GPIOAEN
  92:Drivers/STM32G4xx_HAL_Driver/Inc/stm32g4xx_ll_bus.h **** #define LL_AHB2_GRP1_PERIPH_GPIOB          RCC_AHB2ENR_GPIOBEN
  93:Drivers/STM32G4xx_HAL_Driver/Inc/stm32g4xx_ll_bus.h **** #define LL_AHB2_GRP1_PERIPH_GPIOC          RCC_AHB2ENR_GPIOCEN
  94:Drivers/STM32G4xx_HAL_Driver/Inc/stm32g4xx_ll_bus.h **** #define LL_AHB2_GRP1_PERIPH_GPIOD          RCC_AHB2ENR_GPIODEN
  95:Drivers/STM32G4xx_HAL_Driver/Inc/stm32g4xx_ll_bus.h **** #define LL_AHB2_GRP1_PERIPH_GPIOE          RCC_AHB2ENR_GPIOEEN
  96:Drivers/STM32G4xx_HAL_Driver/Inc/stm32g4xx_ll_bus.h **** #define LL_AHB2_GRP1_PERIPH_GPIOF          RCC_AHB2ENR_GPIOFEN
  97:Drivers/STM32G4xx_HAL_Driver/Inc/stm32g4xx_ll_bus.h **** #define LL_AHB2_GRP1_PERIPH_GPIOG          RCC_AHB2ENR_GPIOGEN
  98:Drivers/STM32G4xx_HAL_Driver/Inc/stm32g4xx_ll_bus.h **** #define LL_AHB2_GRP1_PERIPH_CCM            RCC_AHB2SMENR_CCMSMEN
  99:Drivers/STM32G4xx_HAL_Driver/Inc/stm32g4xx_ll_bus.h **** #define LL_AHB2_GRP1_PERIPH_SRAM2          RCC_AHB2SMENR_SRAM2SMEN
 100:Drivers/STM32G4xx_HAL_Driver/Inc/stm32g4xx_ll_bus.h **** #define LL_AHB2_GRP1_PERIPH_ADC12          RCC_AHB2ENR_ADC12EN
 101:Drivers/STM32G4xx_HAL_Driver/Inc/stm32g4xx_ll_bus.h **** #if defined(ADC345_COMMON)
 102:Drivers/STM32G4xx_HAL_Driver/Inc/stm32g4xx_ll_bus.h **** #define LL_AHB2_GRP1_PERIPH_ADC345         RCC_AHB2ENR_ADC345EN
 103:Drivers/STM32G4xx_HAL_Driver/Inc/stm32g4xx_ll_bus.h **** #endif /* ADC345_COMMON */
 104:Drivers/STM32G4xx_HAL_Driver/Inc/stm32g4xx_ll_bus.h **** #define LL_AHB2_GRP1_PERIPH_DAC1           RCC_AHB2ENR_DAC1EN
 105:Drivers/STM32G4xx_HAL_Driver/Inc/stm32g4xx_ll_bus.h **** #if defined(DAC2)
 106:Drivers/STM32G4xx_HAL_Driver/Inc/stm32g4xx_ll_bus.h **** #define LL_AHB2_GRP1_PERIPH_DAC2           RCC_AHB2ENR_DAC2EN
 107:Drivers/STM32G4xx_HAL_Driver/Inc/stm32g4xx_ll_bus.h **** #endif /* DAC2 */
 108:Drivers/STM32G4xx_HAL_Driver/Inc/stm32g4xx_ll_bus.h **** #define LL_AHB2_GRP1_PERIPH_DAC3           RCC_AHB2ENR_DAC3EN
 109:Drivers/STM32G4xx_HAL_Driver/Inc/stm32g4xx_ll_bus.h **** #if defined(DAC4)
 110:Drivers/STM32G4xx_HAL_Driver/Inc/stm32g4xx_ll_bus.h **** #define LL_AHB2_GRP1_PERIPH_DAC4           RCC_AHB2ENR_DAC4EN
 111:Drivers/STM32G4xx_HAL_Driver/Inc/stm32g4xx_ll_bus.h **** #endif /* DAC4 */
 112:Drivers/STM32G4xx_HAL_Driver/Inc/stm32g4xx_ll_bus.h **** #if defined(AES)
 113:Drivers/STM32G4xx_HAL_Driver/Inc/stm32g4xx_ll_bus.h **** #define LL_AHB2_GRP1_PERIPH_AES            RCC_AHB2ENR_AESEN
 114:Drivers/STM32G4xx_HAL_Driver/Inc/stm32g4xx_ll_bus.h **** #endif /* AES */
 115:Drivers/STM32G4xx_HAL_Driver/Inc/stm32g4xx_ll_bus.h **** #define LL_AHB2_GRP1_PERIPH_RNG            RCC_AHB2ENR_RNGEN
 116:Drivers/STM32G4xx_HAL_Driver/Inc/stm32g4xx_ll_bus.h **** /**
 117:Drivers/STM32G4xx_HAL_Driver/Inc/stm32g4xx_ll_bus.h ****   * @}
 118:Drivers/STM32G4xx_HAL_Driver/Inc/stm32g4xx_ll_bus.h ****   */
 119:Drivers/STM32G4xx_HAL_Driver/Inc/stm32g4xx_ll_bus.h **** 
 120:Drivers/STM32G4xx_HAL_Driver/Inc/stm32g4xx_ll_bus.h **** /** @defgroup BUS_LL_EC_AHB3_GRP1_PERIPH  AHB3 GRP1 PERIPH
 121:Drivers/STM32G4xx_HAL_Driver/Inc/stm32g4xx_ll_bus.h ****   * @{
 122:Drivers/STM32G4xx_HAL_Driver/Inc/stm32g4xx_ll_bus.h ****   */
 123:Drivers/STM32G4xx_HAL_Driver/Inc/stm32g4xx_ll_bus.h **** #define LL_AHB3_GRP1_PERIPH_ALL            0xFFFFFFFFU
 124:Drivers/STM32G4xx_HAL_Driver/Inc/stm32g4xx_ll_bus.h **** #if defined(FMC_Bank1_R)
 125:Drivers/STM32G4xx_HAL_Driver/Inc/stm32g4xx_ll_bus.h **** #define LL_AHB3_GRP1_PERIPH_FMC            RCC_AHB3ENR_FMCEN
 126:Drivers/STM32G4xx_HAL_Driver/Inc/stm32g4xx_ll_bus.h **** #endif /* FMC_Bank1_R */
 127:Drivers/STM32G4xx_HAL_Driver/Inc/stm32g4xx_ll_bus.h **** #if defined(QUADSPI)
 128:Drivers/STM32G4xx_HAL_Driver/Inc/stm32g4xx_ll_bus.h **** #define LL_AHB3_GRP1_PERIPH_QSPI           RCC_AHB3ENR_QSPIEN
ARM GAS  D:\apps\VSCode\data\tmp\cczoc3tE.s 			page 9


 129:Drivers/STM32G4xx_HAL_Driver/Inc/stm32g4xx_ll_bus.h **** #endif /* QUADSPI */
 130:Drivers/STM32G4xx_HAL_Driver/Inc/stm32g4xx_ll_bus.h **** /**
 131:Drivers/STM32G4xx_HAL_Driver/Inc/stm32g4xx_ll_bus.h ****   * @}
 132:Drivers/STM32G4xx_HAL_Driver/Inc/stm32g4xx_ll_bus.h ****   */
 133:Drivers/STM32G4xx_HAL_Driver/Inc/stm32g4xx_ll_bus.h **** 
 134:Drivers/STM32G4xx_HAL_Driver/Inc/stm32g4xx_ll_bus.h **** /** @defgroup BUS_LL_EC_APB1_GRP1_PERIPH  APB1 GRP1 PERIPH
 135:Drivers/STM32G4xx_HAL_Driver/Inc/stm32g4xx_ll_bus.h ****   * @{
 136:Drivers/STM32G4xx_HAL_Driver/Inc/stm32g4xx_ll_bus.h ****   */
 137:Drivers/STM32G4xx_HAL_Driver/Inc/stm32g4xx_ll_bus.h **** #define LL_APB1_GRP1_PERIPH_ALL            0xFFFFFFFFU
 138:Drivers/STM32G4xx_HAL_Driver/Inc/stm32g4xx_ll_bus.h **** #define LL_APB1_GRP1_PERIPH_TIM2           RCC_APB1ENR1_TIM2EN
 139:Drivers/STM32G4xx_HAL_Driver/Inc/stm32g4xx_ll_bus.h **** #define LL_APB1_GRP1_PERIPH_TIM3           RCC_APB1ENR1_TIM3EN
 140:Drivers/STM32G4xx_HAL_Driver/Inc/stm32g4xx_ll_bus.h **** #define LL_APB1_GRP1_PERIPH_TIM4           RCC_APB1ENR1_TIM4EN
 141:Drivers/STM32G4xx_HAL_Driver/Inc/stm32g4xx_ll_bus.h **** #if defined(TIM5)
 142:Drivers/STM32G4xx_HAL_Driver/Inc/stm32g4xx_ll_bus.h **** #define LL_APB1_GRP1_PERIPH_TIM5           RCC_APB1ENR1_TIM5EN
 143:Drivers/STM32G4xx_HAL_Driver/Inc/stm32g4xx_ll_bus.h **** #endif /* TIM5 */
 144:Drivers/STM32G4xx_HAL_Driver/Inc/stm32g4xx_ll_bus.h **** #define LL_APB1_GRP1_PERIPH_TIM6           RCC_APB1ENR1_TIM6EN
 145:Drivers/STM32G4xx_HAL_Driver/Inc/stm32g4xx_ll_bus.h **** #define LL_APB1_GRP1_PERIPH_TIM7           RCC_APB1ENR1_TIM7EN
 146:Drivers/STM32G4xx_HAL_Driver/Inc/stm32g4xx_ll_bus.h **** #define LL_APB1_GRP1_PERIPH_CRS            RCC_APB1ENR1_CRSEN
 147:Drivers/STM32G4xx_HAL_Driver/Inc/stm32g4xx_ll_bus.h **** #define LL_APB1_GRP1_PERIPH_RTCAPB         RCC_APB1ENR1_RTCAPBEN
 148:Drivers/STM32G4xx_HAL_Driver/Inc/stm32g4xx_ll_bus.h **** #define LL_APB1_GRP1_PERIPH_WWDG           RCC_APB1ENR1_WWDGEN
 149:Drivers/STM32G4xx_HAL_Driver/Inc/stm32g4xx_ll_bus.h **** #define LL_APB1_GRP1_PERIPH_SPI2           RCC_APB1ENR1_SPI2EN
 150:Drivers/STM32G4xx_HAL_Driver/Inc/stm32g4xx_ll_bus.h **** #define LL_APB1_GRP1_PERIPH_SPI3           RCC_APB1ENR1_SPI3EN
 151:Drivers/STM32G4xx_HAL_Driver/Inc/stm32g4xx_ll_bus.h **** #define LL_APB1_GRP1_PERIPH_USART2         RCC_APB1ENR1_USART2EN
 152:Drivers/STM32G4xx_HAL_Driver/Inc/stm32g4xx_ll_bus.h **** #define LL_APB1_GRP1_PERIPH_USART3         RCC_APB1ENR1_USART3EN
 153:Drivers/STM32G4xx_HAL_Driver/Inc/stm32g4xx_ll_bus.h **** #if defined(UART4)
 154:Drivers/STM32G4xx_HAL_Driver/Inc/stm32g4xx_ll_bus.h **** #define LL_APB1_GRP1_PERIPH_UART4          RCC_APB1ENR1_UART4EN
 155:Drivers/STM32G4xx_HAL_Driver/Inc/stm32g4xx_ll_bus.h **** #endif /* UART4 */
 156:Drivers/STM32G4xx_HAL_Driver/Inc/stm32g4xx_ll_bus.h **** #if defined(UART5)
 157:Drivers/STM32G4xx_HAL_Driver/Inc/stm32g4xx_ll_bus.h **** #define LL_APB1_GRP1_PERIPH_UART5          RCC_APB1ENR1_UART5EN
 158:Drivers/STM32G4xx_HAL_Driver/Inc/stm32g4xx_ll_bus.h **** #endif /* UART5 */
 159:Drivers/STM32G4xx_HAL_Driver/Inc/stm32g4xx_ll_bus.h **** #define LL_APB1_GRP1_PERIPH_I2C1           RCC_APB1ENR1_I2C1EN
 160:Drivers/STM32G4xx_HAL_Driver/Inc/stm32g4xx_ll_bus.h **** #define LL_APB1_GRP1_PERIPH_I2C2           RCC_APB1ENR1_I2C2EN
 161:Drivers/STM32G4xx_HAL_Driver/Inc/stm32g4xx_ll_bus.h **** #define LL_APB1_GRP1_PERIPH_USB            RCC_APB1ENR1_USBEN
 162:Drivers/STM32G4xx_HAL_Driver/Inc/stm32g4xx_ll_bus.h **** #if defined(FDCAN1)
 163:Drivers/STM32G4xx_HAL_Driver/Inc/stm32g4xx_ll_bus.h **** #define LL_APB1_GRP1_PERIPH_FDCAN          RCC_APB1ENR1_FDCANEN
 164:Drivers/STM32G4xx_HAL_Driver/Inc/stm32g4xx_ll_bus.h **** #endif /* FDCAN1 */
 165:Drivers/STM32G4xx_HAL_Driver/Inc/stm32g4xx_ll_bus.h **** #define LL_APB1_GRP1_PERIPH_PWR            RCC_APB1ENR1_PWREN
 166:Drivers/STM32G4xx_HAL_Driver/Inc/stm32g4xx_ll_bus.h **** #define LL_APB1_GRP1_PERIPH_I2C3           RCC_APB1ENR1_I2C3EN
 167:Drivers/STM32G4xx_HAL_Driver/Inc/stm32g4xx_ll_bus.h **** #define LL_APB1_GRP1_PERIPH_LPTIM1         RCC_APB1ENR1_LPTIM1EN
 168:Drivers/STM32G4xx_HAL_Driver/Inc/stm32g4xx_ll_bus.h **** /**
 169:Drivers/STM32G4xx_HAL_Driver/Inc/stm32g4xx_ll_bus.h ****   * @}
 170:Drivers/STM32G4xx_HAL_Driver/Inc/stm32g4xx_ll_bus.h ****   */
 171:Drivers/STM32G4xx_HAL_Driver/Inc/stm32g4xx_ll_bus.h **** 
 172:Drivers/STM32G4xx_HAL_Driver/Inc/stm32g4xx_ll_bus.h **** 
 173:Drivers/STM32G4xx_HAL_Driver/Inc/stm32g4xx_ll_bus.h **** /** @defgroup BUS_LL_EC_APB1_GRP2_PERIPH  APB1 GRP2 PERIPH
 174:Drivers/STM32G4xx_HAL_Driver/Inc/stm32g4xx_ll_bus.h ****   * @{
 175:Drivers/STM32G4xx_HAL_Driver/Inc/stm32g4xx_ll_bus.h ****   */
 176:Drivers/STM32G4xx_HAL_Driver/Inc/stm32g4xx_ll_bus.h **** #define LL_APB1_GRP2_PERIPH_ALL            0xFFFFFFFFU
 177:Drivers/STM32G4xx_HAL_Driver/Inc/stm32g4xx_ll_bus.h **** #define LL_APB1_GRP2_PERIPH_LPUART1        RCC_APB1ENR2_LPUART1EN
 178:Drivers/STM32G4xx_HAL_Driver/Inc/stm32g4xx_ll_bus.h **** #if defined(I2C4)
 179:Drivers/STM32G4xx_HAL_Driver/Inc/stm32g4xx_ll_bus.h **** #define LL_APB1_GRP2_PERIPH_I2C4           RCC_APB1ENR2_I2C4EN
 180:Drivers/STM32G4xx_HAL_Driver/Inc/stm32g4xx_ll_bus.h **** #endif /* I2C4 */
 181:Drivers/STM32G4xx_HAL_Driver/Inc/stm32g4xx_ll_bus.h **** #define LL_APB1_GRP2_PERIPH_UCPD1         RCC_APB1ENR2_UCPD1EN
 182:Drivers/STM32G4xx_HAL_Driver/Inc/stm32g4xx_ll_bus.h **** /**
 183:Drivers/STM32G4xx_HAL_Driver/Inc/stm32g4xx_ll_bus.h ****   * @}
 184:Drivers/STM32G4xx_HAL_Driver/Inc/stm32g4xx_ll_bus.h ****   */
 185:Drivers/STM32G4xx_HAL_Driver/Inc/stm32g4xx_ll_bus.h **** 
ARM GAS  D:\apps\VSCode\data\tmp\cczoc3tE.s 			page 10


 186:Drivers/STM32G4xx_HAL_Driver/Inc/stm32g4xx_ll_bus.h **** /** @defgroup BUS_LL_EC_APB2_GRP1_PERIPH  APB2 GRP1 PERIPH
 187:Drivers/STM32G4xx_HAL_Driver/Inc/stm32g4xx_ll_bus.h ****   * @{
 188:Drivers/STM32G4xx_HAL_Driver/Inc/stm32g4xx_ll_bus.h ****   */
 189:Drivers/STM32G4xx_HAL_Driver/Inc/stm32g4xx_ll_bus.h **** #define LL_APB2_GRP1_PERIPH_ALL            0xFFFFFFFFU
 190:Drivers/STM32G4xx_HAL_Driver/Inc/stm32g4xx_ll_bus.h **** #define LL_APB2_GRP1_PERIPH_SYSCFG         RCC_APB2ENR_SYSCFGEN
 191:Drivers/STM32G4xx_HAL_Driver/Inc/stm32g4xx_ll_bus.h **** #define LL_APB2_GRP1_PERIPH_TIM1           RCC_APB2ENR_TIM1EN
 192:Drivers/STM32G4xx_HAL_Driver/Inc/stm32g4xx_ll_bus.h **** #define LL_APB2_GRP1_PERIPH_SPI1           RCC_APB2ENR_SPI1EN
 193:Drivers/STM32G4xx_HAL_Driver/Inc/stm32g4xx_ll_bus.h **** #define LL_APB2_GRP1_PERIPH_TIM8           RCC_APB2ENR_TIM8EN
 194:Drivers/STM32G4xx_HAL_Driver/Inc/stm32g4xx_ll_bus.h **** #define LL_APB2_GRP1_PERIPH_USART1         RCC_APB2ENR_USART1EN
 195:Drivers/STM32G4xx_HAL_Driver/Inc/stm32g4xx_ll_bus.h **** #if defined(SPI4)
 196:Drivers/STM32G4xx_HAL_Driver/Inc/stm32g4xx_ll_bus.h **** #define LL_APB2_GRP1_PERIPH_SPI4           RCC_APB2ENR_SPI4EN
 197:Drivers/STM32G4xx_HAL_Driver/Inc/stm32g4xx_ll_bus.h **** #endif /* SPI4 */
 198:Drivers/STM32G4xx_HAL_Driver/Inc/stm32g4xx_ll_bus.h **** #define LL_APB2_GRP1_PERIPH_TIM15          RCC_APB2ENR_TIM15EN
 199:Drivers/STM32G4xx_HAL_Driver/Inc/stm32g4xx_ll_bus.h **** #define LL_APB2_GRP1_PERIPH_TIM16          RCC_APB2ENR_TIM16EN
 200:Drivers/STM32G4xx_HAL_Driver/Inc/stm32g4xx_ll_bus.h **** #define LL_APB2_GRP1_PERIPH_TIM17          RCC_APB2ENR_TIM17EN
 201:Drivers/STM32G4xx_HAL_Driver/Inc/stm32g4xx_ll_bus.h **** #if defined(TIM20)
 202:Drivers/STM32G4xx_HAL_Driver/Inc/stm32g4xx_ll_bus.h **** #define LL_APB2_GRP1_PERIPH_TIM20          RCC_APB2ENR_TIM20EN
 203:Drivers/STM32G4xx_HAL_Driver/Inc/stm32g4xx_ll_bus.h **** #endif /* TIM20 */
 204:Drivers/STM32G4xx_HAL_Driver/Inc/stm32g4xx_ll_bus.h **** #define LL_APB2_GRP1_PERIPH_SAI1           RCC_APB2ENR_SAI1EN
 205:Drivers/STM32G4xx_HAL_Driver/Inc/stm32g4xx_ll_bus.h **** #if defined(HRTIM1)
 206:Drivers/STM32G4xx_HAL_Driver/Inc/stm32g4xx_ll_bus.h **** #define LL_APB2_GRP1_PERIPH_HRTIM1         RCC_APB2ENR_HRTIM1EN
 207:Drivers/STM32G4xx_HAL_Driver/Inc/stm32g4xx_ll_bus.h **** #endif /* HRTIM1 */
 208:Drivers/STM32G4xx_HAL_Driver/Inc/stm32g4xx_ll_bus.h **** /**
 209:Drivers/STM32G4xx_HAL_Driver/Inc/stm32g4xx_ll_bus.h ****   * @}
 210:Drivers/STM32G4xx_HAL_Driver/Inc/stm32g4xx_ll_bus.h ****   */
 211:Drivers/STM32G4xx_HAL_Driver/Inc/stm32g4xx_ll_bus.h **** 
 212:Drivers/STM32G4xx_HAL_Driver/Inc/stm32g4xx_ll_bus.h **** /**
 213:Drivers/STM32G4xx_HAL_Driver/Inc/stm32g4xx_ll_bus.h ****   * @}
 214:Drivers/STM32G4xx_HAL_Driver/Inc/stm32g4xx_ll_bus.h ****   */
 215:Drivers/STM32G4xx_HAL_Driver/Inc/stm32g4xx_ll_bus.h **** 
 216:Drivers/STM32G4xx_HAL_Driver/Inc/stm32g4xx_ll_bus.h **** /* Exported macro ------------------------------------------------------------*/
 217:Drivers/STM32G4xx_HAL_Driver/Inc/stm32g4xx_ll_bus.h **** /* Exported functions --------------------------------------------------------*/
 218:Drivers/STM32G4xx_HAL_Driver/Inc/stm32g4xx_ll_bus.h **** /** @defgroup BUS_LL_Exported_Functions BUS Exported Functions
 219:Drivers/STM32G4xx_HAL_Driver/Inc/stm32g4xx_ll_bus.h ****   * @{
 220:Drivers/STM32G4xx_HAL_Driver/Inc/stm32g4xx_ll_bus.h ****   */
 221:Drivers/STM32G4xx_HAL_Driver/Inc/stm32g4xx_ll_bus.h **** 
 222:Drivers/STM32G4xx_HAL_Driver/Inc/stm32g4xx_ll_bus.h **** /** @defgroup BUS_LL_EF_AHB1 AHB1
 223:Drivers/STM32G4xx_HAL_Driver/Inc/stm32g4xx_ll_bus.h ****   * @{
 224:Drivers/STM32G4xx_HAL_Driver/Inc/stm32g4xx_ll_bus.h ****   */
 225:Drivers/STM32G4xx_HAL_Driver/Inc/stm32g4xx_ll_bus.h **** 
 226:Drivers/STM32G4xx_HAL_Driver/Inc/stm32g4xx_ll_bus.h **** /**
 227:Drivers/STM32G4xx_HAL_Driver/Inc/stm32g4xx_ll_bus.h ****   * @brief  Enable AHB1 peripherals clock.
 228:Drivers/STM32G4xx_HAL_Driver/Inc/stm32g4xx_ll_bus.h ****   * @rmtoll AHB1ENR      DMA1EN        LL_AHB1_GRP1_EnableClock\n
 229:Drivers/STM32G4xx_HAL_Driver/Inc/stm32g4xx_ll_bus.h ****   *         AHB1ENR      DMA2EN        LL_AHB1_GRP1_EnableClock\n
 230:Drivers/STM32G4xx_HAL_Driver/Inc/stm32g4xx_ll_bus.h ****   *         AHB1ENR      DMAMMUXEN     LL_AHB1_GRP1_EnableClock\n
 231:Drivers/STM32G4xx_HAL_Driver/Inc/stm32g4xx_ll_bus.h ****   *         AHB1ENR      CORDICEN      LL_AHB1_GRP1_EnableClock\n
 232:Drivers/STM32G4xx_HAL_Driver/Inc/stm32g4xx_ll_bus.h ****   *         AHB1ENR      FMACEN        LL_AHB1_GRP1_EnableClock\n
 233:Drivers/STM32G4xx_HAL_Driver/Inc/stm32g4xx_ll_bus.h ****   *         AHB1ENR      FLASHEN       LL_AHB1_GRP1_EnableClock\n
 234:Drivers/STM32G4xx_HAL_Driver/Inc/stm32g4xx_ll_bus.h ****   *         AHB1ENR      CRCEN         LL_AHB1_GRP1_EnableClock
 235:Drivers/STM32G4xx_HAL_Driver/Inc/stm32g4xx_ll_bus.h ****   * @param  Periphs This parameter can be a combination of the following values:
 236:Drivers/STM32G4xx_HAL_Driver/Inc/stm32g4xx_ll_bus.h ****   *         @arg @ref LL_AHB1_GRP1_PERIPH_DMA1
 237:Drivers/STM32G4xx_HAL_Driver/Inc/stm32g4xx_ll_bus.h ****   *         @arg @ref LL_AHB1_GRP1_PERIPH_DMA2
 238:Drivers/STM32G4xx_HAL_Driver/Inc/stm32g4xx_ll_bus.h ****   *         @arg @ref LL_AHB1_GRP1_PERIPH_DMAMUX1
 239:Drivers/STM32G4xx_HAL_Driver/Inc/stm32g4xx_ll_bus.h ****   *         @arg @ref LL_AHB1_GRP1_PERIPH_CORDIC
 240:Drivers/STM32G4xx_HAL_Driver/Inc/stm32g4xx_ll_bus.h ****   *         @arg @ref LL_AHB1_GRP1_PERIPH_FMAC
 241:Drivers/STM32G4xx_HAL_Driver/Inc/stm32g4xx_ll_bus.h ****   *         @arg @ref LL_AHB1_GRP1_PERIPH_FLASH
 242:Drivers/STM32G4xx_HAL_Driver/Inc/stm32g4xx_ll_bus.h ****   *         @arg @ref LL_AHB1_GRP1_PERIPH_CRC
ARM GAS  D:\apps\VSCode\data\tmp\cczoc3tE.s 			page 11


 243:Drivers/STM32G4xx_HAL_Driver/Inc/stm32g4xx_ll_bus.h ****   * @retval None
 244:Drivers/STM32G4xx_HAL_Driver/Inc/stm32g4xx_ll_bus.h ****   */
 245:Drivers/STM32G4xx_HAL_Driver/Inc/stm32g4xx_ll_bus.h **** __STATIC_INLINE void LL_AHB1_GRP1_EnableClock(uint32_t Periphs)
 246:Drivers/STM32G4xx_HAL_Driver/Inc/stm32g4xx_ll_bus.h **** {
 247:Drivers/STM32G4xx_HAL_Driver/Inc/stm32g4xx_ll_bus.h ****   __IO uint32_t tmpreg;
 248:Drivers/STM32G4xx_HAL_Driver/Inc/stm32g4xx_ll_bus.h ****   SET_BIT(RCC->AHB1ENR, Periphs);
 249:Drivers/STM32G4xx_HAL_Driver/Inc/stm32g4xx_ll_bus.h ****   /* Delay after an RCC peripheral clock enabling */
 250:Drivers/STM32G4xx_HAL_Driver/Inc/stm32g4xx_ll_bus.h ****   tmpreg = READ_BIT(RCC->AHB1ENR, Periphs);
 251:Drivers/STM32G4xx_HAL_Driver/Inc/stm32g4xx_ll_bus.h ****   (void)tmpreg;
 252:Drivers/STM32G4xx_HAL_Driver/Inc/stm32g4xx_ll_bus.h **** }
 253:Drivers/STM32G4xx_HAL_Driver/Inc/stm32g4xx_ll_bus.h **** 
 254:Drivers/STM32G4xx_HAL_Driver/Inc/stm32g4xx_ll_bus.h **** /**
 255:Drivers/STM32G4xx_HAL_Driver/Inc/stm32g4xx_ll_bus.h ****   * @brief  Check if AHB1 peripheral clock is enabled or not
 256:Drivers/STM32G4xx_HAL_Driver/Inc/stm32g4xx_ll_bus.h ****   * @rmtoll AHB1ENR      DMA1EN        LL_AHB1_GRP1_IsEnabledClock\n
 257:Drivers/STM32G4xx_HAL_Driver/Inc/stm32g4xx_ll_bus.h ****   *         AHB1ENR      DMA2EN        LL_AHB1_GRP1_IsEnabledClock\n
 258:Drivers/STM32G4xx_HAL_Driver/Inc/stm32g4xx_ll_bus.h ****   *         AHB1ENR      DMAMUXEN      LL_AHB1_GRP1_IsEnabledClock\n
 259:Drivers/STM32G4xx_HAL_Driver/Inc/stm32g4xx_ll_bus.h ****   *         AHB1ENR      CORDICEN      LL_AHB1_GRP1_IsEnabledClock\n
 260:Drivers/STM32G4xx_HAL_Driver/Inc/stm32g4xx_ll_bus.h ****   *         AHB1ENR      FMACEN        LL_AHB1_GRP1_IsEnabledClock\n
 261:Drivers/STM32G4xx_HAL_Driver/Inc/stm32g4xx_ll_bus.h ****   *         AHB1ENR      FLASHEN       LL_AHB1_GRP1_IsEnabledClock\n
 262:Drivers/STM32G4xx_HAL_Driver/Inc/stm32g4xx_ll_bus.h ****   *         AHB1ENR      CRCEN         LL_AHB1_GRP1_IsEnabledClock
 263:Drivers/STM32G4xx_HAL_Driver/Inc/stm32g4xx_ll_bus.h ****   * @param  Periphs This parameter can be a combination of the following values:
 264:Drivers/STM32G4xx_HAL_Driver/Inc/stm32g4xx_ll_bus.h ****   *         @arg @ref LL_AHB1_GRP1_PERIPH_DMA1
 265:Drivers/STM32G4xx_HAL_Driver/Inc/stm32g4xx_ll_bus.h ****   *         @arg @ref LL_AHB1_GRP1_PERIPH_DMA2
 266:Drivers/STM32G4xx_HAL_Driver/Inc/stm32g4xx_ll_bus.h ****   *         @arg @ref LL_AHB1_GRP1_PERIPH_DMAMUX1
 267:Drivers/STM32G4xx_HAL_Driver/Inc/stm32g4xx_ll_bus.h ****   *         @arg @ref LL_AHB1_GRP1_PERIPH_CORDIC
 268:Drivers/STM32G4xx_HAL_Driver/Inc/stm32g4xx_ll_bus.h ****   *         @arg @ref LL_AHB1_GRP1_PERIPH_FMAC
 269:Drivers/STM32G4xx_HAL_Driver/Inc/stm32g4xx_ll_bus.h ****   *         @arg @ref LL_AHB1_GRP1_PERIPH_FLASH
 270:Drivers/STM32G4xx_HAL_Driver/Inc/stm32g4xx_ll_bus.h ****   *         @arg @ref LL_AHB1_GRP1_PERIPH_CRC
 271:Drivers/STM32G4xx_HAL_Driver/Inc/stm32g4xx_ll_bus.h ****   * @retval State of Periphs (1 or 0).
 272:Drivers/STM32G4xx_HAL_Driver/Inc/stm32g4xx_ll_bus.h ****   */
 273:Drivers/STM32G4xx_HAL_Driver/Inc/stm32g4xx_ll_bus.h **** __STATIC_INLINE uint32_t LL_AHB1_GRP1_IsEnabledClock(uint32_t Periphs)
 274:Drivers/STM32G4xx_HAL_Driver/Inc/stm32g4xx_ll_bus.h **** {
 275:Drivers/STM32G4xx_HAL_Driver/Inc/stm32g4xx_ll_bus.h ****   return ((READ_BIT(RCC->AHB1ENR, Periphs) == Periphs) ? 1UL : 0UL);
 276:Drivers/STM32G4xx_HAL_Driver/Inc/stm32g4xx_ll_bus.h **** }
 277:Drivers/STM32G4xx_HAL_Driver/Inc/stm32g4xx_ll_bus.h **** 
 278:Drivers/STM32G4xx_HAL_Driver/Inc/stm32g4xx_ll_bus.h **** /**
 279:Drivers/STM32G4xx_HAL_Driver/Inc/stm32g4xx_ll_bus.h ****   * @brief  Disable AHB1 peripherals clock.
 280:Drivers/STM32G4xx_HAL_Driver/Inc/stm32g4xx_ll_bus.h ****   * @rmtoll AHB1ENR      DMA1EN        LL_AHB1_GRP1_DisableClock\n
 281:Drivers/STM32G4xx_HAL_Driver/Inc/stm32g4xx_ll_bus.h ****   *         AHB1ENR      DMA2EN        LL_AHB1_GRP1_DisableClock\n
 282:Drivers/STM32G4xx_HAL_Driver/Inc/stm32g4xx_ll_bus.h ****   *         AHB1ENR      DMAMUXEN      LL_AHB1_GRP1_DisableClock\n
 283:Drivers/STM32G4xx_HAL_Driver/Inc/stm32g4xx_ll_bus.h ****   *         AHB1ENR      CORDICEN      LL_AHB1_GRP1_DisableClock\n
 284:Drivers/STM32G4xx_HAL_Driver/Inc/stm32g4xx_ll_bus.h ****   *         AHB1ENR      FMACEN        LL_AHB1_GRP1_DisableClock\n
 285:Drivers/STM32G4xx_HAL_Driver/Inc/stm32g4xx_ll_bus.h ****   *         AHB1ENR      FLASHEN       LL_AHB1_GRP1_DisableClock\n
 286:Drivers/STM32G4xx_HAL_Driver/Inc/stm32g4xx_ll_bus.h ****   *         AHB1ENR      CRCEN         LL_AHB1_GRP1_DisableClock
 287:Drivers/STM32G4xx_HAL_Driver/Inc/stm32g4xx_ll_bus.h ****   * @param  Periphs This parameter can be a combination of the following values:
 288:Drivers/STM32G4xx_HAL_Driver/Inc/stm32g4xx_ll_bus.h ****   *         @arg @ref LL_AHB1_GRP1_PERIPH_DMA1
 289:Drivers/STM32G4xx_HAL_Driver/Inc/stm32g4xx_ll_bus.h ****   *         @arg @ref LL_AHB1_GRP1_PERIPH_DMA2
 290:Drivers/STM32G4xx_HAL_Driver/Inc/stm32g4xx_ll_bus.h ****   *         @arg @ref LL_AHB1_GRP1_PERIPH_DMAMUX1
 291:Drivers/STM32G4xx_HAL_Driver/Inc/stm32g4xx_ll_bus.h ****   *         @arg @ref LL_AHB1_GRP1_PERIPH_CORDIC
 292:Drivers/STM32G4xx_HAL_Driver/Inc/stm32g4xx_ll_bus.h ****   *         @arg @ref LL_AHB1_GRP1_PERIPH_FMAC
 293:Drivers/STM32G4xx_HAL_Driver/Inc/stm32g4xx_ll_bus.h ****   *         @arg @ref LL_AHB1_GRP1_PERIPH_FLASH
 294:Drivers/STM32G4xx_HAL_Driver/Inc/stm32g4xx_ll_bus.h ****   *         @arg @ref LL_AHB1_GRP1_PERIPH_CRC
 295:Drivers/STM32G4xx_HAL_Driver/Inc/stm32g4xx_ll_bus.h ****   * @retval None
 296:Drivers/STM32G4xx_HAL_Driver/Inc/stm32g4xx_ll_bus.h ****   */
 297:Drivers/STM32G4xx_HAL_Driver/Inc/stm32g4xx_ll_bus.h **** __STATIC_INLINE void LL_AHB1_GRP1_DisableClock(uint32_t Periphs)
 298:Drivers/STM32G4xx_HAL_Driver/Inc/stm32g4xx_ll_bus.h **** {
 299:Drivers/STM32G4xx_HAL_Driver/Inc/stm32g4xx_ll_bus.h ****   CLEAR_BIT(RCC->AHB1ENR, Periphs);
ARM GAS  D:\apps\VSCode\data\tmp\cczoc3tE.s 			page 12


 300:Drivers/STM32G4xx_HAL_Driver/Inc/stm32g4xx_ll_bus.h **** }
 301:Drivers/STM32G4xx_HAL_Driver/Inc/stm32g4xx_ll_bus.h **** 
 302:Drivers/STM32G4xx_HAL_Driver/Inc/stm32g4xx_ll_bus.h **** /**
 303:Drivers/STM32G4xx_HAL_Driver/Inc/stm32g4xx_ll_bus.h ****   * @brief  Force AHB1 peripherals reset.
 304:Drivers/STM32G4xx_HAL_Driver/Inc/stm32g4xx_ll_bus.h ****   * @rmtoll AHB1RSTR     DMA1RST       LL_AHB1_GRP1_ForceReset\n
 305:Drivers/STM32G4xx_HAL_Driver/Inc/stm32g4xx_ll_bus.h ****   *         AHB1RSTR     DMA2RST       LL_AHB1_GRP1_ForceReset\n
 306:Drivers/STM32G4xx_HAL_Driver/Inc/stm32g4xx_ll_bus.h ****   *         AHB1RSTR     DMAMUXRST     LL_AHB1_GRP1_ForceReset\n
 307:Drivers/STM32G4xx_HAL_Driver/Inc/stm32g4xx_ll_bus.h ****   *         AHB1RSTR     CORDICRST     LL_AHB1_GRP1_ForceReset\n
 308:Drivers/STM32G4xx_HAL_Driver/Inc/stm32g4xx_ll_bus.h ****   *         AHB1RSTR     FMACRST       LL_AHB1_GRP1_ForceReset\n
 309:Drivers/STM32G4xx_HAL_Driver/Inc/stm32g4xx_ll_bus.h ****   *         AHB1RSTR     FLASHRST      LL_AHB1_GRP1_ForceReset\n
 310:Drivers/STM32G4xx_HAL_Driver/Inc/stm32g4xx_ll_bus.h ****   *         AHB1RSTR     CRCRST        LL_AHB1_GRP1_ForceReset
 311:Drivers/STM32G4xx_HAL_Driver/Inc/stm32g4xx_ll_bus.h ****   * @param  Periphs This parameter can be a combination of the following values:
 312:Drivers/STM32G4xx_HAL_Driver/Inc/stm32g4xx_ll_bus.h ****   *         @arg @ref LL_AHB1_GRP1_PERIPH_ALL
 313:Drivers/STM32G4xx_HAL_Driver/Inc/stm32g4xx_ll_bus.h ****   *         @arg @ref LL_AHB1_GRP1_PERIPH_DMA1
 314:Drivers/STM32G4xx_HAL_Driver/Inc/stm32g4xx_ll_bus.h ****   *         @arg @ref LL_AHB1_GRP1_PERIPH_DMA2
 315:Drivers/STM32G4xx_HAL_Driver/Inc/stm32g4xx_ll_bus.h ****   *         @arg @ref LL_AHB1_GRP1_PERIPH_DMAMUX1
 316:Drivers/STM32G4xx_HAL_Driver/Inc/stm32g4xx_ll_bus.h ****   *         @arg @ref LL_AHB1_GRP1_PERIPH_CORDIC
 317:Drivers/STM32G4xx_HAL_Driver/Inc/stm32g4xx_ll_bus.h ****   *         @arg @ref LL_AHB1_GRP1_PERIPH_FMAC
 318:Drivers/STM32G4xx_HAL_Driver/Inc/stm32g4xx_ll_bus.h ****   *         @arg @ref LL_AHB1_GRP1_PERIPH_FLASH
 319:Drivers/STM32G4xx_HAL_Driver/Inc/stm32g4xx_ll_bus.h ****   *         @arg @ref LL_AHB1_GRP1_PERIPH_CRC
 320:Drivers/STM32G4xx_HAL_Driver/Inc/stm32g4xx_ll_bus.h ****   * @retval None
 321:Drivers/STM32G4xx_HAL_Driver/Inc/stm32g4xx_ll_bus.h ****   */
 322:Drivers/STM32G4xx_HAL_Driver/Inc/stm32g4xx_ll_bus.h **** __STATIC_INLINE void LL_AHB1_GRP1_ForceReset(uint32_t Periphs)
 323:Drivers/STM32G4xx_HAL_Driver/Inc/stm32g4xx_ll_bus.h **** {
 324:Drivers/STM32G4xx_HAL_Driver/Inc/stm32g4xx_ll_bus.h ****   SET_BIT(RCC->AHB1RSTR, Periphs);
 325:Drivers/STM32G4xx_HAL_Driver/Inc/stm32g4xx_ll_bus.h **** }
 326:Drivers/STM32G4xx_HAL_Driver/Inc/stm32g4xx_ll_bus.h **** 
 327:Drivers/STM32G4xx_HAL_Driver/Inc/stm32g4xx_ll_bus.h **** /**
 328:Drivers/STM32G4xx_HAL_Driver/Inc/stm32g4xx_ll_bus.h ****   * @brief  Release AHB1 peripherals reset.
 329:Drivers/STM32G4xx_HAL_Driver/Inc/stm32g4xx_ll_bus.h ****   * @rmtoll AHB1RSTR     DMA1RST       LL_AHB1_GRP1_ReleaseReset\n
 330:Drivers/STM32G4xx_HAL_Driver/Inc/stm32g4xx_ll_bus.h ****   *         AHB1RSTR     DMA2RST       LL_AHB1_GRP1_ReleaseReset\n
 331:Drivers/STM32G4xx_HAL_Driver/Inc/stm32g4xx_ll_bus.h ****   *         AHB1RSTR     DMAMUXRST     LL_AHB1_GRP1_ReleaseReset\n
 332:Drivers/STM32G4xx_HAL_Driver/Inc/stm32g4xx_ll_bus.h ****   *         AHB1RSTR     CORDICRST     LL_AHB1_GRP1_ReleaseReset\n
 333:Drivers/STM32G4xx_HAL_Driver/Inc/stm32g4xx_ll_bus.h ****   *         AHB1RSTR     FMACRST       LL_AHB1_GRP1_ReleaseReset\n
 334:Drivers/STM32G4xx_HAL_Driver/Inc/stm32g4xx_ll_bus.h ****   *         AHB1RSTR     FLASHRST      LL_AHB1_GRP1_ReleaseReset\n
 335:Drivers/STM32G4xx_HAL_Driver/Inc/stm32g4xx_ll_bus.h ****   *         AHB1RSTR     CRCRST        LL_AHB1_GRP1_ReleaseReset
 336:Drivers/STM32G4xx_HAL_Driver/Inc/stm32g4xx_ll_bus.h ****   * @param  Periphs This parameter can be a combination of the following values:
 337:Drivers/STM32G4xx_HAL_Driver/Inc/stm32g4xx_ll_bus.h ****   *         @arg @ref LL_AHB1_GRP1_PERIPH_ALL
 338:Drivers/STM32G4xx_HAL_Driver/Inc/stm32g4xx_ll_bus.h ****   *         @arg @ref LL_AHB1_GRP1_PERIPH_DMA1
 339:Drivers/STM32G4xx_HAL_Driver/Inc/stm32g4xx_ll_bus.h ****   *         @arg @ref LL_AHB1_GRP1_PERIPH_DMA2
 340:Drivers/STM32G4xx_HAL_Driver/Inc/stm32g4xx_ll_bus.h ****   *         @arg @ref LL_AHB1_GRP1_PERIPH_DMAMUX1
 341:Drivers/STM32G4xx_HAL_Driver/Inc/stm32g4xx_ll_bus.h ****   *         @arg @ref LL_AHB1_GRP1_PERIPH_CORDIC
 342:Drivers/STM32G4xx_HAL_Driver/Inc/stm32g4xx_ll_bus.h ****   *         @arg @ref LL_AHB1_GRP1_PERIPH_FMAC
 343:Drivers/STM32G4xx_HAL_Driver/Inc/stm32g4xx_ll_bus.h ****   *         @arg @ref LL_AHB1_GRP1_PERIPH_FLASH
 344:Drivers/STM32G4xx_HAL_Driver/Inc/stm32g4xx_ll_bus.h ****   *         @arg @ref LL_AHB1_GRP1_PERIPH_CRC
 345:Drivers/STM32G4xx_HAL_Driver/Inc/stm32g4xx_ll_bus.h ****   * @retval None
 346:Drivers/STM32G4xx_HAL_Driver/Inc/stm32g4xx_ll_bus.h ****   */
 347:Drivers/STM32G4xx_HAL_Driver/Inc/stm32g4xx_ll_bus.h **** __STATIC_INLINE void LL_AHB1_GRP1_ReleaseReset(uint32_t Periphs)
 348:Drivers/STM32G4xx_HAL_Driver/Inc/stm32g4xx_ll_bus.h **** {
 349:Drivers/STM32G4xx_HAL_Driver/Inc/stm32g4xx_ll_bus.h ****   CLEAR_BIT(RCC->AHB1RSTR, Periphs);
 350:Drivers/STM32G4xx_HAL_Driver/Inc/stm32g4xx_ll_bus.h **** }
 351:Drivers/STM32G4xx_HAL_Driver/Inc/stm32g4xx_ll_bus.h **** 
 352:Drivers/STM32G4xx_HAL_Driver/Inc/stm32g4xx_ll_bus.h **** /**
 353:Drivers/STM32G4xx_HAL_Driver/Inc/stm32g4xx_ll_bus.h ****   * @brief  Enable AHB1 peripheral clocks in Sleep and Stop modes
 354:Drivers/STM32G4xx_HAL_Driver/Inc/stm32g4xx_ll_bus.h ****   * @rmtoll AHB1SMENR    DMA1SMEN      LL_AHB1_GRP1_EnableClockStopSleep\n
 355:Drivers/STM32G4xx_HAL_Driver/Inc/stm32g4xx_ll_bus.h ****   *         AHB1SMENR    DMA2SMEN      LL_AHB1_GRP1_EnableClockStopSleep\n
 356:Drivers/STM32G4xx_HAL_Driver/Inc/stm32g4xx_ll_bus.h ****   *         AHB1SMENR    DMAMUXSMEN    LL_AHB1_GRP1_EnableClockStopSleep\n
ARM GAS  D:\apps\VSCode\data\tmp\cczoc3tE.s 			page 13


 357:Drivers/STM32G4xx_HAL_Driver/Inc/stm32g4xx_ll_bus.h ****   *         AHB1SMENR    CORDICSMEN    LL_AHB1_GRP1_EnableClockStopSleep\n
 358:Drivers/STM32G4xx_HAL_Driver/Inc/stm32g4xx_ll_bus.h ****   *         AHB1SMENR    FMACSMEN      LL_AHB1_GRP1_EnableClockStopSleep\n
 359:Drivers/STM32G4xx_HAL_Driver/Inc/stm32g4xx_ll_bus.h ****   *         AHB1SMENR    FLASHSMEN     LL_AHB1_GRP1_EnableClockStopSleep\n
 360:Drivers/STM32G4xx_HAL_Driver/Inc/stm32g4xx_ll_bus.h ****   *         AHB1SMENR    SRAM1SMEN     LL_AHB1_GRP1_DisableClockStopSleep\n
 361:Drivers/STM32G4xx_HAL_Driver/Inc/stm32g4xx_ll_bus.h ****   *         AHB1SMENR    CRCSMEN       LL_AHB1_GRP1_EnableClockStopSleep
 362:Drivers/STM32G4xx_HAL_Driver/Inc/stm32g4xx_ll_bus.h ****   * @param  Periphs This parameter can be a combination of the following values:
 363:Drivers/STM32G4xx_HAL_Driver/Inc/stm32g4xx_ll_bus.h ****   *         @arg @ref LL_AHB1_GRP1_PERIPH_DMA1
 364:Drivers/STM32G4xx_HAL_Driver/Inc/stm32g4xx_ll_bus.h ****   *         @arg @ref LL_AHB1_GRP1_PERIPH_DMA2
 365:Drivers/STM32G4xx_HAL_Driver/Inc/stm32g4xx_ll_bus.h ****   *         @arg @ref LL_AHB1_GRP1_PERIPH_DMAMUX1
 366:Drivers/STM32G4xx_HAL_Driver/Inc/stm32g4xx_ll_bus.h ****   *         @arg @ref LL_AHB1_GRP1_PERIPH_CORDIC
 367:Drivers/STM32G4xx_HAL_Driver/Inc/stm32g4xx_ll_bus.h ****   *         @arg @ref LL_AHB1_GRP1_PERIPH_FMAC
 368:Drivers/STM32G4xx_HAL_Driver/Inc/stm32g4xx_ll_bus.h ****   *         @arg @ref LL_AHB1_GRP1_PERIPH_FLASH
 369:Drivers/STM32G4xx_HAL_Driver/Inc/stm32g4xx_ll_bus.h ****   *         @arg @ref LL_AHB1_GRP1_PERIPH_SRAM1
 370:Drivers/STM32G4xx_HAL_Driver/Inc/stm32g4xx_ll_bus.h ****   *         @arg @ref LL_AHB1_GRP1_PERIPH_CRC
 371:Drivers/STM32G4xx_HAL_Driver/Inc/stm32g4xx_ll_bus.h ****   * @retval None
 372:Drivers/STM32G4xx_HAL_Driver/Inc/stm32g4xx_ll_bus.h ****   */
 373:Drivers/STM32G4xx_HAL_Driver/Inc/stm32g4xx_ll_bus.h **** __STATIC_INLINE void LL_AHB1_GRP1_EnableClockStopSleep(uint32_t Periphs)
 374:Drivers/STM32G4xx_HAL_Driver/Inc/stm32g4xx_ll_bus.h **** {
 375:Drivers/STM32G4xx_HAL_Driver/Inc/stm32g4xx_ll_bus.h ****   __IO uint32_t tmpreg;
 376:Drivers/STM32G4xx_HAL_Driver/Inc/stm32g4xx_ll_bus.h ****   SET_BIT(RCC->AHB1SMENR, Periphs);
 377:Drivers/STM32G4xx_HAL_Driver/Inc/stm32g4xx_ll_bus.h ****   /* Delay after an RCC peripheral clock enabling */
 378:Drivers/STM32G4xx_HAL_Driver/Inc/stm32g4xx_ll_bus.h ****   tmpreg = READ_BIT(RCC->AHB1SMENR, Periphs);
 379:Drivers/STM32G4xx_HAL_Driver/Inc/stm32g4xx_ll_bus.h ****   (void)tmpreg;
 380:Drivers/STM32G4xx_HAL_Driver/Inc/stm32g4xx_ll_bus.h **** }
 381:Drivers/STM32G4xx_HAL_Driver/Inc/stm32g4xx_ll_bus.h **** 
 382:Drivers/STM32G4xx_HAL_Driver/Inc/stm32g4xx_ll_bus.h **** /**
 383:Drivers/STM32G4xx_HAL_Driver/Inc/stm32g4xx_ll_bus.h ****   * @brief  Disable AHB1 peripheral clocks in Sleep and Stop modes
 384:Drivers/STM32G4xx_HAL_Driver/Inc/stm32g4xx_ll_bus.h ****   * @rmtoll AHB1SMENR    DMA1SMEN      LL_AHB1_GRP1_DisableClockStopSleep\n
 385:Drivers/STM32G4xx_HAL_Driver/Inc/stm32g4xx_ll_bus.h ****   *         AHB1SMENR    DMA2SMEN      LL_AHB1_GRP1_DisableClockStopSleep\n
 386:Drivers/STM32G4xx_HAL_Driver/Inc/stm32g4xx_ll_bus.h ****   *         AHB1SMENR    DMAMUXSMEN    LL_AHB1_GRP1_DisableClockStopSleep\n
 387:Drivers/STM32G4xx_HAL_Driver/Inc/stm32g4xx_ll_bus.h ****   *         AHB1SMENR    CORDICSMEN    LL_AHB1_GRP1_DisableClockStopSleep\n
 388:Drivers/STM32G4xx_HAL_Driver/Inc/stm32g4xx_ll_bus.h ****   *         AHB1SMENR    FMACSMEN      LL_AHB1_GRP1_DisableClockStopSleep\n
 389:Drivers/STM32G4xx_HAL_Driver/Inc/stm32g4xx_ll_bus.h ****   *         AHB1SMENR    FLASHSMEN     LL_AHB1_GRP1_DisableClockStopSleep\n
 390:Drivers/STM32G4xx_HAL_Driver/Inc/stm32g4xx_ll_bus.h ****   *         AHB1SMENR    SRAM1SMEN     LL_AHB1_GRP1_DisableClockStopSleep\n
 391:Drivers/STM32G4xx_HAL_Driver/Inc/stm32g4xx_ll_bus.h ****   *         AHB1SMENR    CRCSMEN       LL_AHB1_GRP1_DisableClockStopSleep
 392:Drivers/STM32G4xx_HAL_Driver/Inc/stm32g4xx_ll_bus.h ****   * @param  Periphs This parameter can be a combination of the following values:
 393:Drivers/STM32G4xx_HAL_Driver/Inc/stm32g4xx_ll_bus.h ****   *         @arg @ref LL_AHB1_GRP1_PERIPH_DMA1
 394:Drivers/STM32G4xx_HAL_Driver/Inc/stm32g4xx_ll_bus.h ****   *         @arg @ref LL_AHB1_GRP1_PERIPH_DMA2
 395:Drivers/STM32G4xx_HAL_Driver/Inc/stm32g4xx_ll_bus.h ****   *         @arg @ref LL_AHB1_GRP1_PERIPH_DMAMUX1
 396:Drivers/STM32G4xx_HAL_Driver/Inc/stm32g4xx_ll_bus.h ****   *         @arg @ref LL_AHB1_GRP1_PERIPH_CORDIC
 397:Drivers/STM32G4xx_HAL_Driver/Inc/stm32g4xx_ll_bus.h ****   *         @arg @ref LL_AHB1_GRP1_PERIPH_FMAC
 398:Drivers/STM32G4xx_HAL_Driver/Inc/stm32g4xx_ll_bus.h ****   *         @arg @ref LL_AHB1_GRP1_PERIPH_FLASH
 399:Drivers/STM32G4xx_HAL_Driver/Inc/stm32g4xx_ll_bus.h ****   *         @arg @ref LL_AHB1_GRP1_PERIPH_SRAM1
 400:Drivers/STM32G4xx_HAL_Driver/Inc/stm32g4xx_ll_bus.h ****   *         @arg @ref LL_AHB1_GRP1_PERIPH_CRC
 401:Drivers/STM32G4xx_HAL_Driver/Inc/stm32g4xx_ll_bus.h ****   * @retval None
 402:Drivers/STM32G4xx_HAL_Driver/Inc/stm32g4xx_ll_bus.h ****   */
 403:Drivers/STM32G4xx_HAL_Driver/Inc/stm32g4xx_ll_bus.h **** __STATIC_INLINE void LL_AHB1_GRP1_DisableClockStopSleep(uint32_t Periphs)
 404:Drivers/STM32G4xx_HAL_Driver/Inc/stm32g4xx_ll_bus.h **** {
 405:Drivers/STM32G4xx_HAL_Driver/Inc/stm32g4xx_ll_bus.h ****   CLEAR_BIT(RCC->AHB1SMENR, Periphs);
 406:Drivers/STM32G4xx_HAL_Driver/Inc/stm32g4xx_ll_bus.h **** }
 407:Drivers/STM32G4xx_HAL_Driver/Inc/stm32g4xx_ll_bus.h **** 
 408:Drivers/STM32G4xx_HAL_Driver/Inc/stm32g4xx_ll_bus.h **** /**
 409:Drivers/STM32G4xx_HAL_Driver/Inc/stm32g4xx_ll_bus.h ****   * @}
 410:Drivers/STM32G4xx_HAL_Driver/Inc/stm32g4xx_ll_bus.h ****   */
 411:Drivers/STM32G4xx_HAL_Driver/Inc/stm32g4xx_ll_bus.h **** 
 412:Drivers/STM32G4xx_HAL_Driver/Inc/stm32g4xx_ll_bus.h **** /** @defgroup BUS_LL_EF_AHB2 AHB2
 413:Drivers/STM32G4xx_HAL_Driver/Inc/stm32g4xx_ll_bus.h ****   * @{
ARM GAS  D:\apps\VSCode\data\tmp\cczoc3tE.s 			page 14


 414:Drivers/STM32G4xx_HAL_Driver/Inc/stm32g4xx_ll_bus.h ****   */
 415:Drivers/STM32G4xx_HAL_Driver/Inc/stm32g4xx_ll_bus.h **** 
 416:Drivers/STM32G4xx_HAL_Driver/Inc/stm32g4xx_ll_bus.h **** /**
 417:Drivers/STM32G4xx_HAL_Driver/Inc/stm32g4xx_ll_bus.h ****   * @brief  Enable AHB2 peripherals clock.
 418:Drivers/STM32G4xx_HAL_Driver/Inc/stm32g4xx_ll_bus.h ****   * @rmtoll AHB2ENR      GPIOAEN       LL_AHB2_GRP1_EnableClock\n
 419:Drivers/STM32G4xx_HAL_Driver/Inc/stm32g4xx_ll_bus.h ****   *         AHB2ENR      GPIOBEN       LL_AHB2_GRP1_EnableClock\n
 420:Drivers/STM32G4xx_HAL_Driver/Inc/stm32g4xx_ll_bus.h ****   *         AHB2ENR      GPIOCEN       LL_AHB2_GRP1_EnableClock\n
 421:Drivers/STM32G4xx_HAL_Driver/Inc/stm32g4xx_ll_bus.h ****   *         AHB2ENR      GPIODEN       LL_AHB2_GRP1_EnableClock\n
 422:Drivers/STM32G4xx_HAL_Driver/Inc/stm32g4xx_ll_bus.h ****   *         AHB2ENR      GPIOEEN       LL_AHB2_GRP1_EnableClock\n
 423:Drivers/STM32G4xx_HAL_Driver/Inc/stm32g4xx_ll_bus.h ****   *         AHB2ENR      GPIOFEN       LL_AHB2_GRP1_EnableClock\n
 424:Drivers/STM32G4xx_HAL_Driver/Inc/stm32g4xx_ll_bus.h ****   *         AHB2ENR      GPIOGEN       LL_AHB2_GRP1_EnableClock\n
 425:Drivers/STM32G4xx_HAL_Driver/Inc/stm32g4xx_ll_bus.h ****   *         AHB2ENR      ADC12EN       LL_AHB2_GRP1_EnableClock\n
 426:Drivers/STM32G4xx_HAL_Driver/Inc/stm32g4xx_ll_bus.h ****   *         AHB2ENR      ADC345EN      LL_AHB2_GRP1_EnableClock\n
 427:Drivers/STM32G4xx_HAL_Driver/Inc/stm32g4xx_ll_bus.h ****   *         AHB2ENR      DAC1EN        LL_AHB2_GRP1_EnableClock\n
 428:Drivers/STM32G4xx_HAL_Driver/Inc/stm32g4xx_ll_bus.h ****   *         AHB2ENR      DAC2EN        LL_AHB2_GRP1_EnableClock\n
 429:Drivers/STM32G4xx_HAL_Driver/Inc/stm32g4xx_ll_bus.h ****   *         AHB2ENR      DAC3EN        LL_AHB2_GRP1_EnableClock\n
 430:Drivers/STM32G4xx_HAL_Driver/Inc/stm32g4xx_ll_bus.h ****   *         AHB2ENR      DAC4EN        LL_AHB2_GRP1_EnableClock\n
 431:Drivers/STM32G4xx_HAL_Driver/Inc/stm32g4xx_ll_bus.h ****   *         AHB2ENR      AESEN         LL_AHB2_GRP1_EnableClock\n
 432:Drivers/STM32G4xx_HAL_Driver/Inc/stm32g4xx_ll_bus.h ****   *         AHB2ENR      RNGEN         LL_AHB2_GRP1_EnableClock
 433:Drivers/STM32G4xx_HAL_Driver/Inc/stm32g4xx_ll_bus.h ****   * @param  Periphs This parameter can be a combination of the following values:
 434:Drivers/STM32G4xx_HAL_Driver/Inc/stm32g4xx_ll_bus.h ****   *         @arg @ref LL_AHB2_GRP1_PERIPH_GPIOA
 435:Drivers/STM32G4xx_HAL_Driver/Inc/stm32g4xx_ll_bus.h ****   *         @arg @ref LL_AHB2_GRP1_PERIPH_GPIOB
 436:Drivers/STM32G4xx_HAL_Driver/Inc/stm32g4xx_ll_bus.h ****   *         @arg @ref LL_AHB2_GRP1_PERIPH_GPIOC
 437:Drivers/STM32G4xx_HAL_Driver/Inc/stm32g4xx_ll_bus.h ****   *         @arg @ref LL_AHB2_GRP1_PERIPH_GPIOD
 438:Drivers/STM32G4xx_HAL_Driver/Inc/stm32g4xx_ll_bus.h ****   *         @arg @ref LL_AHB2_GRP1_PERIPH_GPIOE
 439:Drivers/STM32G4xx_HAL_Driver/Inc/stm32g4xx_ll_bus.h ****   *         @arg @ref LL_AHB2_GRP1_PERIPH_GPIOF
 440:Drivers/STM32G4xx_HAL_Driver/Inc/stm32g4xx_ll_bus.h ****   *         @arg @ref LL_AHB2_GRP1_PERIPH_GPIOG
 441:Drivers/STM32G4xx_HAL_Driver/Inc/stm32g4xx_ll_bus.h ****   *         @arg @ref LL_AHB2_GRP1_PERIPH_ADC12
 442:Drivers/STM32G4xx_HAL_Driver/Inc/stm32g4xx_ll_bus.h ****   *         @arg @ref LL_AHB2_GRP1_PERIPH_ADC345 (*)
 443:Drivers/STM32G4xx_HAL_Driver/Inc/stm32g4xx_ll_bus.h ****   *         @arg @ref LL_AHB2_GRP1_PERIPH_DAC1
 444:Drivers/STM32G4xx_HAL_Driver/Inc/stm32g4xx_ll_bus.h ****   *         @arg @ref LL_AHB2_GRP1_PERIPH_DAC2 (*)
 445:Drivers/STM32G4xx_HAL_Driver/Inc/stm32g4xx_ll_bus.h ****   *         @arg @ref LL_AHB2_GRP1_PERIPH_DAC3
 446:Drivers/STM32G4xx_HAL_Driver/Inc/stm32g4xx_ll_bus.h ****   *         @arg @ref LL_AHB2_GRP1_PERIPH_DAC4 (*)
 447:Drivers/STM32G4xx_HAL_Driver/Inc/stm32g4xx_ll_bus.h ****   *         @arg @ref LL_AHB2_GRP1_PERIPH_AES (*)
 448:Drivers/STM32G4xx_HAL_Driver/Inc/stm32g4xx_ll_bus.h ****   *         @arg @ref LL_AHB2_GRP1_PERIPH_RNG
 449:Drivers/STM32G4xx_HAL_Driver/Inc/stm32g4xx_ll_bus.h ****   *
 450:Drivers/STM32G4xx_HAL_Driver/Inc/stm32g4xx_ll_bus.h ****   *         (*) value not defined in all devices.
 451:Drivers/STM32G4xx_HAL_Driver/Inc/stm32g4xx_ll_bus.h ****   * @retval None
 452:Drivers/STM32G4xx_HAL_Driver/Inc/stm32g4xx_ll_bus.h ****   */
 453:Drivers/STM32G4xx_HAL_Driver/Inc/stm32g4xx_ll_bus.h **** __STATIC_INLINE void LL_AHB2_GRP1_EnableClock(uint32_t Periphs)
 454:Drivers/STM32G4xx_HAL_Driver/Inc/stm32g4xx_ll_bus.h **** {
 382              		.loc 1 454 1
 383              		.cfi_startproc
 384              		@ args = 0, pretend = 0, frame = 16
 385              		@ frame_needed = 1, uses_anonymous_args = 0
 386              		@ link register save eliminated.
 387 0000 80B4     		push	{r7}
 388              	.LCFI0:
 389              		.cfi_def_cfa_offset 4
 390              		.cfi_offset 7, -4
 391 0002 85B0     		sub	sp, sp, #20
 392              	.LCFI1:
 393              		.cfi_def_cfa_offset 24
 394 0004 00AF     		add	r7, sp, #0
 395              	.LCFI2:
 396              		.cfi_def_cfa_register 7
 397 0006 7860     		str	r0, [r7, #4]
ARM GAS  D:\apps\VSCode\data\tmp\cczoc3tE.s 			page 15


 455:Drivers/STM32G4xx_HAL_Driver/Inc/stm32g4xx_ll_bus.h ****   __IO uint32_t tmpreg;
 456:Drivers/STM32G4xx_HAL_Driver/Inc/stm32g4xx_ll_bus.h ****   SET_BIT(RCC->AHB2ENR, Periphs);
 398              		.loc 1 456 3
 399 0008 084B     		ldr	r3, .L2
 400 000a DA6C     		ldr	r2, [r3, #76]
 401 000c 0749     		ldr	r1, .L2
 402 000e 7B68     		ldr	r3, [r7, #4]
 403 0010 1343     		orrs	r3, r3, r2
 404 0012 CB64     		str	r3, [r1, #76]
 457:Drivers/STM32G4xx_HAL_Driver/Inc/stm32g4xx_ll_bus.h ****   /* Delay after an RCC peripheral clock enabling */
 458:Drivers/STM32G4xx_HAL_Driver/Inc/stm32g4xx_ll_bus.h ****   tmpreg = READ_BIT(RCC->AHB2ENR, Periphs);
 405              		.loc 1 458 12
 406 0014 054B     		ldr	r3, .L2
 407 0016 DA6C     		ldr	r2, [r3, #76]
 408 0018 7B68     		ldr	r3, [r7, #4]
 409 001a 1340     		ands	r3, r3, r2
 410              		.loc 1 458 10
 411 001c FB60     		str	r3, [r7, #12]
 459:Drivers/STM32G4xx_HAL_Driver/Inc/stm32g4xx_ll_bus.h ****   (void)tmpreg;
 412              		.loc 1 459 3
 413 001e FB68     		ldr	r3, [r7, #12]
 460:Drivers/STM32G4xx_HAL_Driver/Inc/stm32g4xx_ll_bus.h **** }
 414              		.loc 1 460 1
 415 0020 00BF     		nop
 416 0022 1437     		adds	r7, r7, #20
 417              	.LCFI3:
 418              		.cfi_def_cfa_offset 4
 419 0024 BD46     		mov	sp, r7
 420              	.LCFI4:
 421              		.cfi_def_cfa_register 13
 422              		@ sp needed
 423 0026 5DF8047B 		ldr	r7, [sp], #4
 424              	.LCFI5:
 425              		.cfi_restore 7
 426              		.cfi_def_cfa_offset 0
 427 002a 7047     		bx	lr
 428              	.L3:
 429              		.align	2
 430              	.L2:
 431 002c 00100240 		.word	1073876992
 432              		.cfi_endproc
 433              	.LFE957:
 435              		.section	.rodata.CHANNEL_OFFSET_TAB,"a"
 436              		.align	2
 439              	CHANNEL_OFFSET_TAB:
 440 0000 08       		.byte	8
 441 0001 1C       		.byte	28
 442 0002 30       		.byte	48
 443 0003 44       		.byte	68
 444 0004 58       		.byte	88
 445 0005 6C       		.byte	108
 446 0006 80       		.byte	-128
 447 0007 94       		.byte	-108
 448              		.section	.rodata.OFFSET_TAB_CCMRx,"a"
 449              		.align	2
 452              	OFFSET_TAB_CCMRx:
 453 0000 00       		.byte	0
ARM GAS  D:\apps\VSCode\data\tmp\cczoc3tE.s 			page 16


 454 0001 00       		.byte	0
 455 0002 00       		.byte	0
 456 0003 00       		.byte	0
 457 0004 04       		.byte	4
 458 0005 04       		.byte	4
 459 0006 04       		.byte	4
 460 0007 04       		.byte	4
 461 0008 38       		.byte	56
 462 0009 38       		.byte	56
 463              		.section	.rodata.SHIFT_TAB_OCxx,"a"
 464              		.align	2
 467              	SHIFT_TAB_OCxx:
 468 0000 00       		.byte	0
 469 0001 00       		.byte	0
 470 0002 08       		.byte	8
 471 0003 00       		.byte	0
 472 0004 00       		.byte	0
 473 0005 00       		.byte	0
 474 0006 08       		.byte	8
 475 0007 00       		.byte	0
 476 0008 00       		.byte	0
 477 0009 08       		.byte	8
 478              		.section	.rodata.SHIFT_TAB_ICxx,"a"
 479              		.align	2
 482              	SHIFT_TAB_ICxx:
 483 0000 00       		.byte	0
 484 0001 00       		.byte	0
 485 0002 08       		.byte	8
 486 0003 00       		.byte	0
 487 0004 00       		.byte	0
 488 0005 00       		.byte	0
 489 0006 08       		.byte	8
 490 0007 00       		.byte	0
 491 0008 00       		.byte	0
 492 0009 00       		.byte	0
 493              		.section	.rodata.SHIFT_TAB_CCxP,"a"
 494              		.align	2
 497              	SHIFT_TAB_CCxP:
 498 0000 00       		.byte	0
 499 0001 02       		.byte	2
 500 0002 04       		.byte	4
 501 0003 06       		.byte	6
 502 0004 08       		.byte	8
 503 0005 0A       		.byte	10
 504 0006 0C       		.byte	12
 505 0007 0E       		.byte	14
 506 0008 10       		.byte	16
 507 0009 14       		.byte	20
 508              		.section	.rodata.SHIFT_TAB_OISx,"a"
 509              		.align	2
 512              	SHIFT_TAB_OISx:
 513 0000 00       		.byte	0
 514 0001 01       		.byte	1
 515 0002 02       		.byte	2
 516 0003 03       		.byte	3
 517 0004 04       		.byte	4
 518 0005 05       		.byte	5
ARM GAS  D:\apps\VSCode\data\tmp\cczoc3tE.s 			page 17


 519 0006 06       		.byte	6
 520 0007 07       		.byte	7
 521 0008 08       		.byte	8
 522 0009 0A       		.byte	10
 523              		.section	.rodata.USART_PRESCALER_TAB,"a"
 524              		.align	2
 527              	USART_PRESCALER_TAB:
 528 0000 01000000 		.word	1
 529 0004 02000000 		.word	2
 530 0008 04000000 		.word	4
 531 000c 06000000 		.word	6
 532 0010 08000000 		.word	8
 533 0014 0A000000 		.word	10
 534 0018 0C000000 		.word	12
 535 001c 10000000 		.word	16
 536 0020 20000000 		.word	32
 537 0024 40000000 		.word	64
 538 0028 80000000 		.word	128
 539 002c 00010000 		.word	256
 540              		.section	.text.LL_GPIO_ResetOutputPin,"ax",%progbits
 541              		.align	1
 542              		.syntax unified
 543              		.thumb
 544              		.thumb_func
 545              		.fpu fpv4-sp-d16
 547              	LL_GPIO_ResetOutputPin:
 548              	.LFB1963:
 549              		.file 2 "Drivers/STM32G4xx_HAL_Driver/Inc/stm32g4xx_ll_gpio.h"
   1:Drivers/STM32G4xx_HAL_Driver/Inc/stm32g4xx_ll_gpio.h **** /**
   2:Drivers/STM32G4xx_HAL_Driver/Inc/stm32g4xx_ll_gpio.h ****   ******************************************************************************
   3:Drivers/STM32G4xx_HAL_Driver/Inc/stm32g4xx_ll_gpio.h ****   * @file    stm32g4xx_ll_gpio.h
   4:Drivers/STM32G4xx_HAL_Driver/Inc/stm32g4xx_ll_gpio.h ****   * @author  MCD Application Team
   5:Drivers/STM32G4xx_HAL_Driver/Inc/stm32g4xx_ll_gpio.h ****   * @brief   Header file of GPIO LL module.
   6:Drivers/STM32G4xx_HAL_Driver/Inc/stm32g4xx_ll_gpio.h ****   ******************************************************************************
   7:Drivers/STM32G4xx_HAL_Driver/Inc/stm32g4xx_ll_gpio.h ****   * @attention
   8:Drivers/STM32G4xx_HAL_Driver/Inc/stm32g4xx_ll_gpio.h ****   *
   9:Drivers/STM32G4xx_HAL_Driver/Inc/stm32g4xx_ll_gpio.h ****   * <h2><center>&copy; Copyright (c) 2019 STMicroelectronics.
  10:Drivers/STM32G4xx_HAL_Driver/Inc/stm32g4xx_ll_gpio.h ****   * All rights reserved.</center></h2>
  11:Drivers/STM32G4xx_HAL_Driver/Inc/stm32g4xx_ll_gpio.h ****   *
  12:Drivers/STM32G4xx_HAL_Driver/Inc/stm32g4xx_ll_gpio.h ****   * This software component is licensed by ST under BSD 3-Clause license,
  13:Drivers/STM32G4xx_HAL_Driver/Inc/stm32g4xx_ll_gpio.h ****   * the "License"; You may not use this file except in compliance with the
  14:Drivers/STM32G4xx_HAL_Driver/Inc/stm32g4xx_ll_gpio.h ****   * License. You may obtain a copy of the License at:
  15:Drivers/STM32G4xx_HAL_Driver/Inc/stm32g4xx_ll_gpio.h ****   *                        opensource.org/licenses/BSD-3-Clause
  16:Drivers/STM32G4xx_HAL_Driver/Inc/stm32g4xx_ll_gpio.h ****   *
  17:Drivers/STM32G4xx_HAL_Driver/Inc/stm32g4xx_ll_gpio.h ****   ******************************************************************************
  18:Drivers/STM32G4xx_HAL_Driver/Inc/stm32g4xx_ll_gpio.h ****   */
  19:Drivers/STM32G4xx_HAL_Driver/Inc/stm32g4xx_ll_gpio.h **** 
  20:Drivers/STM32G4xx_HAL_Driver/Inc/stm32g4xx_ll_gpio.h **** /* Define to prevent recursive inclusion -------------------------------------*/
  21:Drivers/STM32G4xx_HAL_Driver/Inc/stm32g4xx_ll_gpio.h **** #ifndef STM32G4xx_LL_GPIO_H
  22:Drivers/STM32G4xx_HAL_Driver/Inc/stm32g4xx_ll_gpio.h **** #define STM32G4xx_LL_GPIO_H
  23:Drivers/STM32G4xx_HAL_Driver/Inc/stm32g4xx_ll_gpio.h **** 
  24:Drivers/STM32G4xx_HAL_Driver/Inc/stm32g4xx_ll_gpio.h **** #ifdef __cplusplus
  25:Drivers/STM32G4xx_HAL_Driver/Inc/stm32g4xx_ll_gpio.h **** extern "C" {
  26:Drivers/STM32G4xx_HAL_Driver/Inc/stm32g4xx_ll_gpio.h **** #endif
  27:Drivers/STM32G4xx_HAL_Driver/Inc/stm32g4xx_ll_gpio.h **** 
  28:Drivers/STM32G4xx_HAL_Driver/Inc/stm32g4xx_ll_gpio.h **** /* Includes ------------------------------------------------------------------*/
  29:Drivers/STM32G4xx_HAL_Driver/Inc/stm32g4xx_ll_gpio.h **** #include "stm32g4xx.h"
ARM GAS  D:\apps\VSCode\data\tmp\cczoc3tE.s 			page 18


  30:Drivers/STM32G4xx_HAL_Driver/Inc/stm32g4xx_ll_gpio.h **** 
  31:Drivers/STM32G4xx_HAL_Driver/Inc/stm32g4xx_ll_gpio.h **** /** @addtogroup STM32G4xx_LL_Driver
  32:Drivers/STM32G4xx_HAL_Driver/Inc/stm32g4xx_ll_gpio.h ****   * @{
  33:Drivers/STM32G4xx_HAL_Driver/Inc/stm32g4xx_ll_gpio.h ****   */
  34:Drivers/STM32G4xx_HAL_Driver/Inc/stm32g4xx_ll_gpio.h **** 
  35:Drivers/STM32G4xx_HAL_Driver/Inc/stm32g4xx_ll_gpio.h **** #if defined (GPIOA) || defined (GPIOB) || defined (GPIOC) || defined (GPIOD) || defined (GPIOE) || 
  36:Drivers/STM32G4xx_HAL_Driver/Inc/stm32g4xx_ll_gpio.h **** 
  37:Drivers/STM32G4xx_HAL_Driver/Inc/stm32g4xx_ll_gpio.h **** /** @defgroup GPIO_LL GPIO
  38:Drivers/STM32G4xx_HAL_Driver/Inc/stm32g4xx_ll_gpio.h ****   * @{
  39:Drivers/STM32G4xx_HAL_Driver/Inc/stm32g4xx_ll_gpio.h ****   */
  40:Drivers/STM32G4xx_HAL_Driver/Inc/stm32g4xx_ll_gpio.h **** /** MISRA C:2012 deviation rule has been granted for following rules:
  41:Drivers/STM32G4xx_HAL_Driver/Inc/stm32g4xx_ll_gpio.h ****   * Rule-18.1_d - Medium: Array pointer `GPIOx' is accessed with index [..,..]
  42:Drivers/STM32G4xx_HAL_Driver/Inc/stm32g4xx_ll_gpio.h ****   * which may be out of array bounds [..,UNKNOWN] in following APIs:
  43:Drivers/STM32G4xx_HAL_Driver/Inc/stm32g4xx_ll_gpio.h ****   * LL_GPIO_GetAFPin_0_7
  44:Drivers/STM32G4xx_HAL_Driver/Inc/stm32g4xx_ll_gpio.h ****   * LL_GPIO_SetAFPin_0_7
  45:Drivers/STM32G4xx_HAL_Driver/Inc/stm32g4xx_ll_gpio.h ****   * LL_GPIO_SetAFPin_8_15
  46:Drivers/STM32G4xx_HAL_Driver/Inc/stm32g4xx_ll_gpio.h ****   * LL_GPIO_GetAFPin_8_15
  47:Drivers/STM32G4xx_HAL_Driver/Inc/stm32g4xx_ll_gpio.h ****   */
  48:Drivers/STM32G4xx_HAL_Driver/Inc/stm32g4xx_ll_gpio.h **** 
  49:Drivers/STM32G4xx_HAL_Driver/Inc/stm32g4xx_ll_gpio.h **** /* Private types -------------------------------------------------------------*/
  50:Drivers/STM32G4xx_HAL_Driver/Inc/stm32g4xx_ll_gpio.h **** /* Private variables ---------------------------------------------------------*/
  51:Drivers/STM32G4xx_HAL_Driver/Inc/stm32g4xx_ll_gpio.h **** /* Private constants ---------------------------------------------------------*/
  52:Drivers/STM32G4xx_HAL_Driver/Inc/stm32g4xx_ll_gpio.h **** /* Private macros ------------------------------------------------------------*/
  53:Drivers/STM32G4xx_HAL_Driver/Inc/stm32g4xx_ll_gpio.h **** #if defined(USE_FULL_LL_DRIVER)
  54:Drivers/STM32G4xx_HAL_Driver/Inc/stm32g4xx_ll_gpio.h **** /** @defgroup GPIO_LL_Private_Macros GPIO Private Macros
  55:Drivers/STM32G4xx_HAL_Driver/Inc/stm32g4xx_ll_gpio.h ****   * @{
  56:Drivers/STM32G4xx_HAL_Driver/Inc/stm32g4xx_ll_gpio.h ****   */
  57:Drivers/STM32G4xx_HAL_Driver/Inc/stm32g4xx_ll_gpio.h **** 
  58:Drivers/STM32G4xx_HAL_Driver/Inc/stm32g4xx_ll_gpio.h **** /**
  59:Drivers/STM32G4xx_HAL_Driver/Inc/stm32g4xx_ll_gpio.h ****   * @}
  60:Drivers/STM32G4xx_HAL_Driver/Inc/stm32g4xx_ll_gpio.h ****   */
  61:Drivers/STM32G4xx_HAL_Driver/Inc/stm32g4xx_ll_gpio.h **** #endif /*USE_FULL_LL_DRIVER*/
  62:Drivers/STM32G4xx_HAL_Driver/Inc/stm32g4xx_ll_gpio.h **** 
  63:Drivers/STM32G4xx_HAL_Driver/Inc/stm32g4xx_ll_gpio.h **** /* Exported types ------------------------------------------------------------*/
  64:Drivers/STM32G4xx_HAL_Driver/Inc/stm32g4xx_ll_gpio.h **** #if defined(USE_FULL_LL_DRIVER)
  65:Drivers/STM32G4xx_HAL_Driver/Inc/stm32g4xx_ll_gpio.h **** /** @defgroup GPIO_LL_ES_INIT GPIO Exported Init structures
  66:Drivers/STM32G4xx_HAL_Driver/Inc/stm32g4xx_ll_gpio.h ****   * @{
  67:Drivers/STM32G4xx_HAL_Driver/Inc/stm32g4xx_ll_gpio.h ****   */
  68:Drivers/STM32G4xx_HAL_Driver/Inc/stm32g4xx_ll_gpio.h **** 
  69:Drivers/STM32G4xx_HAL_Driver/Inc/stm32g4xx_ll_gpio.h **** /**
  70:Drivers/STM32G4xx_HAL_Driver/Inc/stm32g4xx_ll_gpio.h ****   * @brief LL GPIO Init Structure definition
  71:Drivers/STM32G4xx_HAL_Driver/Inc/stm32g4xx_ll_gpio.h ****   */
  72:Drivers/STM32G4xx_HAL_Driver/Inc/stm32g4xx_ll_gpio.h **** typedef struct
  73:Drivers/STM32G4xx_HAL_Driver/Inc/stm32g4xx_ll_gpio.h **** {
  74:Drivers/STM32G4xx_HAL_Driver/Inc/stm32g4xx_ll_gpio.h ****   uint32_t Pin;          /*!< Specifies the GPIO pins to be configured.
  75:Drivers/STM32G4xx_HAL_Driver/Inc/stm32g4xx_ll_gpio.h ****                               This parameter can be any value of @ref GPIO_LL_EC_PIN */
  76:Drivers/STM32G4xx_HAL_Driver/Inc/stm32g4xx_ll_gpio.h **** 
  77:Drivers/STM32G4xx_HAL_Driver/Inc/stm32g4xx_ll_gpio.h ****   uint32_t Mode;         /*!< Specifies the operating mode for the selected pins.
  78:Drivers/STM32G4xx_HAL_Driver/Inc/stm32g4xx_ll_gpio.h ****                               This parameter can be a value of @ref GPIO_LL_EC_MODE.
  79:Drivers/STM32G4xx_HAL_Driver/Inc/stm32g4xx_ll_gpio.h **** 
  80:Drivers/STM32G4xx_HAL_Driver/Inc/stm32g4xx_ll_gpio.h ****                               GPIO HW configuration can be modified afterwards using unitary functi
  81:Drivers/STM32G4xx_HAL_Driver/Inc/stm32g4xx_ll_gpio.h **** 
  82:Drivers/STM32G4xx_HAL_Driver/Inc/stm32g4xx_ll_gpio.h ****   uint32_t Speed;        /*!< Specifies the speed for the selected pins.
  83:Drivers/STM32G4xx_HAL_Driver/Inc/stm32g4xx_ll_gpio.h ****                               This parameter can be a value of @ref GPIO_LL_EC_SPEED.
  84:Drivers/STM32G4xx_HAL_Driver/Inc/stm32g4xx_ll_gpio.h **** 
  85:Drivers/STM32G4xx_HAL_Driver/Inc/stm32g4xx_ll_gpio.h ****                               GPIO HW configuration can be modified afterwards using unitary functi
  86:Drivers/STM32G4xx_HAL_Driver/Inc/stm32g4xx_ll_gpio.h **** 
ARM GAS  D:\apps\VSCode\data\tmp\cczoc3tE.s 			page 19


  87:Drivers/STM32G4xx_HAL_Driver/Inc/stm32g4xx_ll_gpio.h ****   uint32_t OutputType;   /*!< Specifies the operating output type for the selected pins.
  88:Drivers/STM32G4xx_HAL_Driver/Inc/stm32g4xx_ll_gpio.h ****                               This parameter can be a value of @ref GPIO_LL_EC_OUTPUT.
  89:Drivers/STM32G4xx_HAL_Driver/Inc/stm32g4xx_ll_gpio.h **** 
  90:Drivers/STM32G4xx_HAL_Driver/Inc/stm32g4xx_ll_gpio.h ****                               GPIO HW configuration can be modified afterwards using unitary functi
  91:Drivers/STM32G4xx_HAL_Driver/Inc/stm32g4xx_ll_gpio.h **** 
  92:Drivers/STM32G4xx_HAL_Driver/Inc/stm32g4xx_ll_gpio.h ****   uint32_t Pull;         /*!< Specifies the operating Pull-up/Pull down for the selected pins.
  93:Drivers/STM32G4xx_HAL_Driver/Inc/stm32g4xx_ll_gpio.h ****                               This parameter can be a value of @ref GPIO_LL_EC_PULL.
  94:Drivers/STM32G4xx_HAL_Driver/Inc/stm32g4xx_ll_gpio.h **** 
  95:Drivers/STM32G4xx_HAL_Driver/Inc/stm32g4xx_ll_gpio.h ****                               GPIO HW configuration can be modified afterwards using unitary functi
  96:Drivers/STM32G4xx_HAL_Driver/Inc/stm32g4xx_ll_gpio.h **** 
  97:Drivers/STM32G4xx_HAL_Driver/Inc/stm32g4xx_ll_gpio.h ****   uint32_t Alternate;    /*!< Specifies the Peripheral to be connected to the selected pins.
  98:Drivers/STM32G4xx_HAL_Driver/Inc/stm32g4xx_ll_gpio.h ****                               This parameter can be a value of @ref GPIO_LL_EC_AF.
  99:Drivers/STM32G4xx_HAL_Driver/Inc/stm32g4xx_ll_gpio.h **** 
 100:Drivers/STM32G4xx_HAL_Driver/Inc/stm32g4xx_ll_gpio.h ****                               GPIO HW configuration can be modified afterwards using unitary functi
 101:Drivers/STM32G4xx_HAL_Driver/Inc/stm32g4xx_ll_gpio.h **** } LL_GPIO_InitTypeDef;
 102:Drivers/STM32G4xx_HAL_Driver/Inc/stm32g4xx_ll_gpio.h **** 
 103:Drivers/STM32G4xx_HAL_Driver/Inc/stm32g4xx_ll_gpio.h **** /**
 104:Drivers/STM32G4xx_HAL_Driver/Inc/stm32g4xx_ll_gpio.h ****   * @}
 105:Drivers/STM32G4xx_HAL_Driver/Inc/stm32g4xx_ll_gpio.h ****   */
 106:Drivers/STM32G4xx_HAL_Driver/Inc/stm32g4xx_ll_gpio.h **** #endif /* USE_FULL_LL_DRIVER */
 107:Drivers/STM32G4xx_HAL_Driver/Inc/stm32g4xx_ll_gpio.h **** 
 108:Drivers/STM32G4xx_HAL_Driver/Inc/stm32g4xx_ll_gpio.h **** /* Exported constants --------------------------------------------------------*/
 109:Drivers/STM32G4xx_HAL_Driver/Inc/stm32g4xx_ll_gpio.h **** /** @defgroup GPIO_LL_Exported_Constants GPIO Exported Constants
 110:Drivers/STM32G4xx_HAL_Driver/Inc/stm32g4xx_ll_gpio.h ****   * @{
 111:Drivers/STM32G4xx_HAL_Driver/Inc/stm32g4xx_ll_gpio.h ****   */
 112:Drivers/STM32G4xx_HAL_Driver/Inc/stm32g4xx_ll_gpio.h **** 
 113:Drivers/STM32G4xx_HAL_Driver/Inc/stm32g4xx_ll_gpio.h **** /** @defgroup GPIO_LL_EC_PIN PIN
 114:Drivers/STM32G4xx_HAL_Driver/Inc/stm32g4xx_ll_gpio.h ****   * @{
 115:Drivers/STM32G4xx_HAL_Driver/Inc/stm32g4xx_ll_gpio.h ****   */
 116:Drivers/STM32G4xx_HAL_Driver/Inc/stm32g4xx_ll_gpio.h **** #define LL_GPIO_PIN_0                      GPIO_BSRR_BS0 /*!< Select pin 0 */
 117:Drivers/STM32G4xx_HAL_Driver/Inc/stm32g4xx_ll_gpio.h **** #define LL_GPIO_PIN_1                      GPIO_BSRR_BS1 /*!< Select pin 1 */
 118:Drivers/STM32G4xx_HAL_Driver/Inc/stm32g4xx_ll_gpio.h **** #define LL_GPIO_PIN_2                      GPIO_BSRR_BS2 /*!< Select pin 2 */
 119:Drivers/STM32G4xx_HAL_Driver/Inc/stm32g4xx_ll_gpio.h **** #define LL_GPIO_PIN_3                      GPIO_BSRR_BS3 /*!< Select pin 3 */
 120:Drivers/STM32G4xx_HAL_Driver/Inc/stm32g4xx_ll_gpio.h **** #define LL_GPIO_PIN_4                      GPIO_BSRR_BS4 /*!< Select pin 4 */
 121:Drivers/STM32G4xx_HAL_Driver/Inc/stm32g4xx_ll_gpio.h **** #define LL_GPIO_PIN_5                      GPIO_BSRR_BS5 /*!< Select pin 5 */
 122:Drivers/STM32G4xx_HAL_Driver/Inc/stm32g4xx_ll_gpio.h **** #define LL_GPIO_PIN_6                      GPIO_BSRR_BS6 /*!< Select pin 6 */
 123:Drivers/STM32G4xx_HAL_Driver/Inc/stm32g4xx_ll_gpio.h **** #define LL_GPIO_PIN_7                      GPIO_BSRR_BS7 /*!< Select pin 7 */
 124:Drivers/STM32G4xx_HAL_Driver/Inc/stm32g4xx_ll_gpio.h **** #define LL_GPIO_PIN_8                      GPIO_BSRR_BS8 /*!< Select pin 8 */
 125:Drivers/STM32G4xx_HAL_Driver/Inc/stm32g4xx_ll_gpio.h **** #define LL_GPIO_PIN_9                      GPIO_BSRR_BS9 /*!< Select pin 9 */
 126:Drivers/STM32G4xx_HAL_Driver/Inc/stm32g4xx_ll_gpio.h **** #define LL_GPIO_PIN_10                     GPIO_BSRR_BS10 /*!< Select pin 10 */
 127:Drivers/STM32G4xx_HAL_Driver/Inc/stm32g4xx_ll_gpio.h **** #define LL_GPIO_PIN_11                     GPIO_BSRR_BS11 /*!< Select pin 11 */
 128:Drivers/STM32G4xx_HAL_Driver/Inc/stm32g4xx_ll_gpio.h **** #define LL_GPIO_PIN_12                     GPIO_BSRR_BS12 /*!< Select pin 12 */
 129:Drivers/STM32G4xx_HAL_Driver/Inc/stm32g4xx_ll_gpio.h **** #define LL_GPIO_PIN_13                     GPIO_BSRR_BS13 /*!< Select pin 13 */
 130:Drivers/STM32G4xx_HAL_Driver/Inc/stm32g4xx_ll_gpio.h **** #define LL_GPIO_PIN_14                     GPIO_BSRR_BS14 /*!< Select pin 14 */
 131:Drivers/STM32G4xx_HAL_Driver/Inc/stm32g4xx_ll_gpio.h **** #define LL_GPIO_PIN_15                     GPIO_BSRR_BS15 /*!< Select pin 15 */
 132:Drivers/STM32G4xx_HAL_Driver/Inc/stm32g4xx_ll_gpio.h **** #define LL_GPIO_PIN_ALL                    (GPIO_BSRR_BS0 | GPIO_BSRR_BS1  | GPIO_BSRR_BS2  | \
 133:Drivers/STM32G4xx_HAL_Driver/Inc/stm32g4xx_ll_gpio.h ****                                            GPIO_BSRR_BS3  | GPIO_BSRR_BS4  | GPIO_BSRR_BS5  | \
 134:Drivers/STM32G4xx_HAL_Driver/Inc/stm32g4xx_ll_gpio.h ****                                            GPIO_BSRR_BS6  | GPIO_BSRR_BS7  | GPIO_BSRR_BS8  | \
 135:Drivers/STM32G4xx_HAL_Driver/Inc/stm32g4xx_ll_gpio.h ****                                            GPIO_BSRR_BS9  | GPIO_BSRR_BS10 | GPIO_BSRR_BS11 | \
 136:Drivers/STM32G4xx_HAL_Driver/Inc/stm32g4xx_ll_gpio.h ****                                            GPIO_BSRR_BS12 | GPIO_BSRR_BS13 | GPIO_BSRR_BS14 | \
 137:Drivers/STM32G4xx_HAL_Driver/Inc/stm32g4xx_ll_gpio.h ****                                            GPIO_BSRR_BS15) /*!< Select all pins */
 138:Drivers/STM32G4xx_HAL_Driver/Inc/stm32g4xx_ll_gpio.h **** /**
 139:Drivers/STM32G4xx_HAL_Driver/Inc/stm32g4xx_ll_gpio.h ****   * @}
 140:Drivers/STM32G4xx_HAL_Driver/Inc/stm32g4xx_ll_gpio.h ****   */
 141:Drivers/STM32G4xx_HAL_Driver/Inc/stm32g4xx_ll_gpio.h **** 
 142:Drivers/STM32G4xx_HAL_Driver/Inc/stm32g4xx_ll_gpio.h **** /** @defgroup GPIO_LL_EC_MODE Mode
 143:Drivers/STM32G4xx_HAL_Driver/Inc/stm32g4xx_ll_gpio.h ****   * @{
ARM GAS  D:\apps\VSCode\data\tmp\cczoc3tE.s 			page 20


 144:Drivers/STM32G4xx_HAL_Driver/Inc/stm32g4xx_ll_gpio.h ****   */
 145:Drivers/STM32G4xx_HAL_Driver/Inc/stm32g4xx_ll_gpio.h **** #define LL_GPIO_MODE_INPUT                 (0x00000000U) /*!< Select input mode */
 146:Drivers/STM32G4xx_HAL_Driver/Inc/stm32g4xx_ll_gpio.h **** #define LL_GPIO_MODE_OUTPUT                GPIO_MODER_MODE0_0  /*!< Select output mode */
 147:Drivers/STM32G4xx_HAL_Driver/Inc/stm32g4xx_ll_gpio.h **** #define LL_GPIO_MODE_ALTERNATE             GPIO_MODER_MODE0_1  /*!< Select alternate function mode 
 148:Drivers/STM32G4xx_HAL_Driver/Inc/stm32g4xx_ll_gpio.h **** #define LL_GPIO_MODE_ANALOG                GPIO_MODER_MODE0    /*!< Select analog mode */
 149:Drivers/STM32G4xx_HAL_Driver/Inc/stm32g4xx_ll_gpio.h **** /**
 150:Drivers/STM32G4xx_HAL_Driver/Inc/stm32g4xx_ll_gpio.h ****   * @}
 151:Drivers/STM32G4xx_HAL_Driver/Inc/stm32g4xx_ll_gpio.h ****   */
 152:Drivers/STM32G4xx_HAL_Driver/Inc/stm32g4xx_ll_gpio.h **** 
 153:Drivers/STM32G4xx_HAL_Driver/Inc/stm32g4xx_ll_gpio.h **** /** @defgroup GPIO_LL_EC_OUTPUT Output Type
 154:Drivers/STM32G4xx_HAL_Driver/Inc/stm32g4xx_ll_gpio.h ****   * @{
 155:Drivers/STM32G4xx_HAL_Driver/Inc/stm32g4xx_ll_gpio.h ****   */
 156:Drivers/STM32G4xx_HAL_Driver/Inc/stm32g4xx_ll_gpio.h **** #define LL_GPIO_OUTPUT_PUSHPULL            (0x00000000U) /*!< Select push-pull as output type */
 157:Drivers/STM32G4xx_HAL_Driver/Inc/stm32g4xx_ll_gpio.h **** #define LL_GPIO_OUTPUT_OPENDRAIN           GPIO_OTYPER_OT0 /*!< Select open-drain as output type */
 158:Drivers/STM32G4xx_HAL_Driver/Inc/stm32g4xx_ll_gpio.h **** /**
 159:Drivers/STM32G4xx_HAL_Driver/Inc/stm32g4xx_ll_gpio.h ****   * @}
 160:Drivers/STM32G4xx_HAL_Driver/Inc/stm32g4xx_ll_gpio.h ****   */
 161:Drivers/STM32G4xx_HAL_Driver/Inc/stm32g4xx_ll_gpio.h **** 
 162:Drivers/STM32G4xx_HAL_Driver/Inc/stm32g4xx_ll_gpio.h **** /** @defgroup GPIO_LL_EC_SPEED Output Speed
 163:Drivers/STM32G4xx_HAL_Driver/Inc/stm32g4xx_ll_gpio.h ****   * @{
 164:Drivers/STM32G4xx_HAL_Driver/Inc/stm32g4xx_ll_gpio.h ****   */
 165:Drivers/STM32G4xx_HAL_Driver/Inc/stm32g4xx_ll_gpio.h **** #define LL_GPIO_SPEED_FREQ_LOW             (0x00000000U) /*!< Select I/O low output speed    */
 166:Drivers/STM32G4xx_HAL_Driver/Inc/stm32g4xx_ll_gpio.h **** #define LL_GPIO_SPEED_FREQ_MEDIUM          GPIO_OSPEEDR_OSPEED0_0 /*!< Select I/O medium output spe
 167:Drivers/STM32G4xx_HAL_Driver/Inc/stm32g4xx_ll_gpio.h **** #define LL_GPIO_SPEED_FREQ_HIGH            GPIO_OSPEEDR_OSPEED0_1 /*!< Select I/O fast output speed
 168:Drivers/STM32G4xx_HAL_Driver/Inc/stm32g4xx_ll_gpio.h **** #define LL_GPIO_SPEED_FREQ_VERY_HIGH       GPIO_OSPEEDR_OSPEED0   /*!< Select I/O high output speed
 169:Drivers/STM32G4xx_HAL_Driver/Inc/stm32g4xx_ll_gpio.h **** /**
 170:Drivers/STM32G4xx_HAL_Driver/Inc/stm32g4xx_ll_gpio.h ****   * @}
 171:Drivers/STM32G4xx_HAL_Driver/Inc/stm32g4xx_ll_gpio.h ****   */
 172:Drivers/STM32G4xx_HAL_Driver/Inc/stm32g4xx_ll_gpio.h **** #define LL_GPIO_SPEED_LOW                  LL_GPIO_SPEED_FREQ_LOW
 173:Drivers/STM32G4xx_HAL_Driver/Inc/stm32g4xx_ll_gpio.h **** #define LL_GPIO_SPEED_MEDIUM               LL_GPIO_SPEED_FREQ_MEDIUM
 174:Drivers/STM32G4xx_HAL_Driver/Inc/stm32g4xx_ll_gpio.h **** #define LL_GPIO_SPEED_FAST                 LL_GPIO_SPEED_FREQ_HIGH
 175:Drivers/STM32G4xx_HAL_Driver/Inc/stm32g4xx_ll_gpio.h **** #define LL_GPIO_SPEED_HIGH                 LL_GPIO_SPEED_FREQ_VERY_HIGH
 176:Drivers/STM32G4xx_HAL_Driver/Inc/stm32g4xx_ll_gpio.h **** 
 177:Drivers/STM32G4xx_HAL_Driver/Inc/stm32g4xx_ll_gpio.h **** /** @defgroup GPIO_LL_EC_PULL Pull Up Pull Down
 178:Drivers/STM32G4xx_HAL_Driver/Inc/stm32g4xx_ll_gpio.h ****   * @{
 179:Drivers/STM32G4xx_HAL_Driver/Inc/stm32g4xx_ll_gpio.h ****   */
 180:Drivers/STM32G4xx_HAL_Driver/Inc/stm32g4xx_ll_gpio.h **** #define LL_GPIO_PULL_NO                    (0x00000000U) /*!< Select I/O no pull */
 181:Drivers/STM32G4xx_HAL_Driver/Inc/stm32g4xx_ll_gpio.h **** #define LL_GPIO_PULL_UP                    GPIO_PUPDR_PUPD0_0 /*!< Select I/O pull up */
 182:Drivers/STM32G4xx_HAL_Driver/Inc/stm32g4xx_ll_gpio.h **** #define LL_GPIO_PULL_DOWN                  GPIO_PUPDR_PUPD0_1 /*!< Select I/O pull down */
 183:Drivers/STM32G4xx_HAL_Driver/Inc/stm32g4xx_ll_gpio.h **** /**
 184:Drivers/STM32G4xx_HAL_Driver/Inc/stm32g4xx_ll_gpio.h ****   * @}
 185:Drivers/STM32G4xx_HAL_Driver/Inc/stm32g4xx_ll_gpio.h ****   */
 186:Drivers/STM32G4xx_HAL_Driver/Inc/stm32g4xx_ll_gpio.h **** 
 187:Drivers/STM32G4xx_HAL_Driver/Inc/stm32g4xx_ll_gpio.h **** /** @defgroup GPIO_LL_EC_AF Alternate Function
 188:Drivers/STM32G4xx_HAL_Driver/Inc/stm32g4xx_ll_gpio.h ****   * @{
 189:Drivers/STM32G4xx_HAL_Driver/Inc/stm32g4xx_ll_gpio.h ****   */
 190:Drivers/STM32G4xx_HAL_Driver/Inc/stm32g4xx_ll_gpio.h **** #define LL_GPIO_AF_0                       (0x0000000U) /*!< Select alternate function 0 */
 191:Drivers/STM32G4xx_HAL_Driver/Inc/stm32g4xx_ll_gpio.h **** #define LL_GPIO_AF_1                       (0x0000001U) /*!< Select alternate function 1 */
 192:Drivers/STM32G4xx_HAL_Driver/Inc/stm32g4xx_ll_gpio.h **** #define LL_GPIO_AF_2                       (0x0000002U) /*!< Select alternate function 2 */
 193:Drivers/STM32G4xx_HAL_Driver/Inc/stm32g4xx_ll_gpio.h **** #define LL_GPIO_AF_3                       (0x0000003U) /*!< Select alternate function 3 */
 194:Drivers/STM32G4xx_HAL_Driver/Inc/stm32g4xx_ll_gpio.h **** #define LL_GPIO_AF_4                       (0x0000004U) /*!< Select alternate function 4 */
 195:Drivers/STM32G4xx_HAL_Driver/Inc/stm32g4xx_ll_gpio.h **** #define LL_GPIO_AF_5                       (0x0000005U) /*!< Select alternate function 5 */
 196:Drivers/STM32G4xx_HAL_Driver/Inc/stm32g4xx_ll_gpio.h **** #define LL_GPIO_AF_6                       (0x0000006U) /*!< Select alternate function 6 */
 197:Drivers/STM32G4xx_HAL_Driver/Inc/stm32g4xx_ll_gpio.h **** #define LL_GPIO_AF_7                       (0x0000007U) /*!< Select alternate function 7 */
 198:Drivers/STM32G4xx_HAL_Driver/Inc/stm32g4xx_ll_gpio.h **** #define LL_GPIO_AF_8                       (0x0000008U) /*!< Select alternate function 8 */
 199:Drivers/STM32G4xx_HAL_Driver/Inc/stm32g4xx_ll_gpio.h **** #define LL_GPIO_AF_9                       (0x0000009U) /*!< Select alternate function 9 */
 200:Drivers/STM32G4xx_HAL_Driver/Inc/stm32g4xx_ll_gpio.h **** #define LL_GPIO_AF_10                      (0x000000AU) /*!< Select alternate function 10 */
ARM GAS  D:\apps\VSCode\data\tmp\cczoc3tE.s 			page 21


 201:Drivers/STM32G4xx_HAL_Driver/Inc/stm32g4xx_ll_gpio.h **** #define LL_GPIO_AF_11                      (0x000000BU) /*!< Select alternate function 11 */
 202:Drivers/STM32G4xx_HAL_Driver/Inc/stm32g4xx_ll_gpio.h **** #define LL_GPIO_AF_12                      (0x000000CU) /*!< Select alternate function 12 */
 203:Drivers/STM32G4xx_HAL_Driver/Inc/stm32g4xx_ll_gpio.h **** #define LL_GPIO_AF_13                      (0x000000DU) /*!< Select alternate function 13 */
 204:Drivers/STM32G4xx_HAL_Driver/Inc/stm32g4xx_ll_gpio.h **** #define LL_GPIO_AF_14                      (0x000000EU) /*!< Select alternate function 14 */
 205:Drivers/STM32G4xx_HAL_Driver/Inc/stm32g4xx_ll_gpio.h **** #define LL_GPIO_AF_15                      (0x000000FU) /*!< Select alternate function 15 */
 206:Drivers/STM32G4xx_HAL_Driver/Inc/stm32g4xx_ll_gpio.h **** /**
 207:Drivers/STM32G4xx_HAL_Driver/Inc/stm32g4xx_ll_gpio.h ****   * @}
 208:Drivers/STM32G4xx_HAL_Driver/Inc/stm32g4xx_ll_gpio.h ****   */
 209:Drivers/STM32G4xx_HAL_Driver/Inc/stm32g4xx_ll_gpio.h **** 
 210:Drivers/STM32G4xx_HAL_Driver/Inc/stm32g4xx_ll_gpio.h **** /**
 211:Drivers/STM32G4xx_HAL_Driver/Inc/stm32g4xx_ll_gpio.h ****   * @}
 212:Drivers/STM32G4xx_HAL_Driver/Inc/stm32g4xx_ll_gpio.h ****   */
 213:Drivers/STM32G4xx_HAL_Driver/Inc/stm32g4xx_ll_gpio.h **** 
 214:Drivers/STM32G4xx_HAL_Driver/Inc/stm32g4xx_ll_gpio.h **** /* Exported macro ------------------------------------------------------------*/
 215:Drivers/STM32G4xx_HAL_Driver/Inc/stm32g4xx_ll_gpio.h **** /** @defgroup GPIO_LL_Exported_Macros GPIO Exported Macros
 216:Drivers/STM32G4xx_HAL_Driver/Inc/stm32g4xx_ll_gpio.h ****   * @{
 217:Drivers/STM32G4xx_HAL_Driver/Inc/stm32g4xx_ll_gpio.h ****   */
 218:Drivers/STM32G4xx_HAL_Driver/Inc/stm32g4xx_ll_gpio.h **** 
 219:Drivers/STM32G4xx_HAL_Driver/Inc/stm32g4xx_ll_gpio.h **** /** @defgroup GPIO_LL_EM_WRITE_READ Common Write and read registers Macros
 220:Drivers/STM32G4xx_HAL_Driver/Inc/stm32g4xx_ll_gpio.h ****   * @{
 221:Drivers/STM32G4xx_HAL_Driver/Inc/stm32g4xx_ll_gpio.h ****   */
 222:Drivers/STM32G4xx_HAL_Driver/Inc/stm32g4xx_ll_gpio.h **** 
 223:Drivers/STM32G4xx_HAL_Driver/Inc/stm32g4xx_ll_gpio.h **** /**
 224:Drivers/STM32G4xx_HAL_Driver/Inc/stm32g4xx_ll_gpio.h ****   * @brief  Write a value in GPIO register
 225:Drivers/STM32G4xx_HAL_Driver/Inc/stm32g4xx_ll_gpio.h ****   * @param  __INSTANCE__ GPIO Instance
 226:Drivers/STM32G4xx_HAL_Driver/Inc/stm32g4xx_ll_gpio.h ****   * @param  __REG__ Register to be written
 227:Drivers/STM32G4xx_HAL_Driver/Inc/stm32g4xx_ll_gpio.h ****   * @param  __VALUE__ Value to be written in the register
 228:Drivers/STM32G4xx_HAL_Driver/Inc/stm32g4xx_ll_gpio.h ****   * @retval None
 229:Drivers/STM32G4xx_HAL_Driver/Inc/stm32g4xx_ll_gpio.h ****   */
 230:Drivers/STM32G4xx_HAL_Driver/Inc/stm32g4xx_ll_gpio.h **** #define LL_GPIO_WriteReg(__INSTANCE__, __REG__, __VALUE__) WRITE_REG(__INSTANCE__->__REG__, (__VALU
 231:Drivers/STM32G4xx_HAL_Driver/Inc/stm32g4xx_ll_gpio.h **** 
 232:Drivers/STM32G4xx_HAL_Driver/Inc/stm32g4xx_ll_gpio.h **** /**
 233:Drivers/STM32G4xx_HAL_Driver/Inc/stm32g4xx_ll_gpio.h ****   * @brief  Read a value in GPIO register
 234:Drivers/STM32G4xx_HAL_Driver/Inc/stm32g4xx_ll_gpio.h ****   * @param  __INSTANCE__ GPIO Instance
 235:Drivers/STM32G4xx_HAL_Driver/Inc/stm32g4xx_ll_gpio.h ****   * @param  __REG__ Register to be read
 236:Drivers/STM32G4xx_HAL_Driver/Inc/stm32g4xx_ll_gpio.h ****   * @retval Register value
 237:Drivers/STM32G4xx_HAL_Driver/Inc/stm32g4xx_ll_gpio.h ****   */
 238:Drivers/STM32G4xx_HAL_Driver/Inc/stm32g4xx_ll_gpio.h **** #define LL_GPIO_ReadReg(__INSTANCE__, __REG__) READ_REG(__INSTANCE__->__REG__)
 239:Drivers/STM32G4xx_HAL_Driver/Inc/stm32g4xx_ll_gpio.h **** /**
 240:Drivers/STM32G4xx_HAL_Driver/Inc/stm32g4xx_ll_gpio.h ****   * @}
 241:Drivers/STM32G4xx_HAL_Driver/Inc/stm32g4xx_ll_gpio.h ****   */
 242:Drivers/STM32G4xx_HAL_Driver/Inc/stm32g4xx_ll_gpio.h **** 
 243:Drivers/STM32G4xx_HAL_Driver/Inc/stm32g4xx_ll_gpio.h **** /**
 244:Drivers/STM32G4xx_HAL_Driver/Inc/stm32g4xx_ll_gpio.h ****   * @}
 245:Drivers/STM32G4xx_HAL_Driver/Inc/stm32g4xx_ll_gpio.h ****   */
 246:Drivers/STM32G4xx_HAL_Driver/Inc/stm32g4xx_ll_gpio.h **** 
 247:Drivers/STM32G4xx_HAL_Driver/Inc/stm32g4xx_ll_gpio.h **** /* Exported functions --------------------------------------------------------*/
 248:Drivers/STM32G4xx_HAL_Driver/Inc/stm32g4xx_ll_gpio.h **** /** @defgroup GPIO_LL_Exported_Functions GPIO Exported Functions
 249:Drivers/STM32G4xx_HAL_Driver/Inc/stm32g4xx_ll_gpio.h ****   * @{
 250:Drivers/STM32G4xx_HAL_Driver/Inc/stm32g4xx_ll_gpio.h ****   */
 251:Drivers/STM32G4xx_HAL_Driver/Inc/stm32g4xx_ll_gpio.h **** 
 252:Drivers/STM32G4xx_HAL_Driver/Inc/stm32g4xx_ll_gpio.h **** /** @defgroup GPIO_LL_EF_Port_Configuration Port Configuration
 253:Drivers/STM32G4xx_HAL_Driver/Inc/stm32g4xx_ll_gpio.h ****   * @{
 254:Drivers/STM32G4xx_HAL_Driver/Inc/stm32g4xx_ll_gpio.h ****   */
 255:Drivers/STM32G4xx_HAL_Driver/Inc/stm32g4xx_ll_gpio.h **** 
 256:Drivers/STM32G4xx_HAL_Driver/Inc/stm32g4xx_ll_gpio.h **** /**
 257:Drivers/STM32G4xx_HAL_Driver/Inc/stm32g4xx_ll_gpio.h ****   * @brief  Configure gpio mode for a dedicated pin on dedicated port.
ARM GAS  D:\apps\VSCode\data\tmp\cczoc3tE.s 			page 22


 258:Drivers/STM32G4xx_HAL_Driver/Inc/stm32g4xx_ll_gpio.h ****   * @note   I/O mode can be Input mode, General purpose output, Alternate function mode or Analog.
 259:Drivers/STM32G4xx_HAL_Driver/Inc/stm32g4xx_ll_gpio.h ****   * @note   Warning: only one pin can be passed as parameter.
 260:Drivers/STM32G4xx_HAL_Driver/Inc/stm32g4xx_ll_gpio.h ****   * @rmtoll MODER        MODEy         LL_GPIO_SetPinMode
 261:Drivers/STM32G4xx_HAL_Driver/Inc/stm32g4xx_ll_gpio.h ****   * @param  GPIOx GPIO Port
 262:Drivers/STM32G4xx_HAL_Driver/Inc/stm32g4xx_ll_gpio.h ****   * @param  Pin This parameter can be one of the following values:
 263:Drivers/STM32G4xx_HAL_Driver/Inc/stm32g4xx_ll_gpio.h ****   *         @arg @ref LL_GPIO_PIN_0
 264:Drivers/STM32G4xx_HAL_Driver/Inc/stm32g4xx_ll_gpio.h ****   *         @arg @ref LL_GPIO_PIN_1
 265:Drivers/STM32G4xx_HAL_Driver/Inc/stm32g4xx_ll_gpio.h ****   *         @arg @ref LL_GPIO_PIN_2
 266:Drivers/STM32G4xx_HAL_Driver/Inc/stm32g4xx_ll_gpio.h ****   *         @arg @ref LL_GPIO_PIN_3
 267:Drivers/STM32G4xx_HAL_Driver/Inc/stm32g4xx_ll_gpio.h ****   *         @arg @ref LL_GPIO_PIN_4
 268:Drivers/STM32G4xx_HAL_Driver/Inc/stm32g4xx_ll_gpio.h ****   *         @arg @ref LL_GPIO_PIN_5
 269:Drivers/STM32G4xx_HAL_Driver/Inc/stm32g4xx_ll_gpio.h ****   *         @arg @ref LL_GPIO_PIN_6
 270:Drivers/STM32G4xx_HAL_Driver/Inc/stm32g4xx_ll_gpio.h ****   *         @arg @ref LL_GPIO_PIN_7
 271:Drivers/STM32G4xx_HAL_Driver/Inc/stm32g4xx_ll_gpio.h ****   *         @arg @ref LL_GPIO_PIN_8
 272:Drivers/STM32G4xx_HAL_Driver/Inc/stm32g4xx_ll_gpio.h ****   *         @arg @ref LL_GPIO_PIN_9
 273:Drivers/STM32G4xx_HAL_Driver/Inc/stm32g4xx_ll_gpio.h ****   *         @arg @ref LL_GPIO_PIN_10
 274:Drivers/STM32G4xx_HAL_Driver/Inc/stm32g4xx_ll_gpio.h ****   *         @arg @ref LL_GPIO_PIN_11
 275:Drivers/STM32G4xx_HAL_Driver/Inc/stm32g4xx_ll_gpio.h ****   *         @arg @ref LL_GPIO_PIN_12
 276:Drivers/STM32G4xx_HAL_Driver/Inc/stm32g4xx_ll_gpio.h ****   *         @arg @ref LL_GPIO_PIN_13
 277:Drivers/STM32G4xx_HAL_Driver/Inc/stm32g4xx_ll_gpio.h ****   *         @arg @ref LL_GPIO_PIN_14
 278:Drivers/STM32G4xx_HAL_Driver/Inc/stm32g4xx_ll_gpio.h ****   *         @arg @ref LL_GPIO_PIN_15
 279:Drivers/STM32G4xx_HAL_Driver/Inc/stm32g4xx_ll_gpio.h ****   * @param  Mode This parameter can be one of the following values:
 280:Drivers/STM32G4xx_HAL_Driver/Inc/stm32g4xx_ll_gpio.h ****   *         @arg @ref LL_GPIO_MODE_INPUT
 281:Drivers/STM32G4xx_HAL_Driver/Inc/stm32g4xx_ll_gpio.h ****   *         @arg @ref LL_GPIO_MODE_OUTPUT
 282:Drivers/STM32G4xx_HAL_Driver/Inc/stm32g4xx_ll_gpio.h ****   *         @arg @ref LL_GPIO_MODE_ALTERNATE
 283:Drivers/STM32G4xx_HAL_Driver/Inc/stm32g4xx_ll_gpio.h ****   *         @arg @ref LL_GPIO_MODE_ANALOG
 284:Drivers/STM32G4xx_HAL_Driver/Inc/stm32g4xx_ll_gpio.h ****   * @retval None
 285:Drivers/STM32G4xx_HAL_Driver/Inc/stm32g4xx_ll_gpio.h ****   */
 286:Drivers/STM32G4xx_HAL_Driver/Inc/stm32g4xx_ll_gpio.h **** __STATIC_INLINE void LL_GPIO_SetPinMode(GPIO_TypeDef *GPIOx, uint32_t Pin, uint32_t Mode)
 287:Drivers/STM32G4xx_HAL_Driver/Inc/stm32g4xx_ll_gpio.h **** {
 288:Drivers/STM32G4xx_HAL_Driver/Inc/stm32g4xx_ll_gpio.h ****   MODIFY_REG(GPIOx->MODER, (GPIO_MODER_MODE0 << (POSITION_VAL(Pin) * 2U)), (Mode << (POSITION_VAL(P
 289:Drivers/STM32G4xx_HAL_Driver/Inc/stm32g4xx_ll_gpio.h **** }
 290:Drivers/STM32G4xx_HAL_Driver/Inc/stm32g4xx_ll_gpio.h **** 
 291:Drivers/STM32G4xx_HAL_Driver/Inc/stm32g4xx_ll_gpio.h **** /**
 292:Drivers/STM32G4xx_HAL_Driver/Inc/stm32g4xx_ll_gpio.h ****   * @brief  Return gpio mode for a dedicated pin on dedicated port.
 293:Drivers/STM32G4xx_HAL_Driver/Inc/stm32g4xx_ll_gpio.h ****   * @note   I/O mode can be Input mode, General purpose output, Alternate function mode or Analog.
 294:Drivers/STM32G4xx_HAL_Driver/Inc/stm32g4xx_ll_gpio.h ****   * @note   Warning: only one pin can be passed as parameter.
 295:Drivers/STM32G4xx_HAL_Driver/Inc/stm32g4xx_ll_gpio.h ****   * @rmtoll MODER        MODEy         LL_GPIO_GetPinMode
 296:Drivers/STM32G4xx_HAL_Driver/Inc/stm32g4xx_ll_gpio.h ****   * @param  GPIOx GPIO Port
 297:Drivers/STM32G4xx_HAL_Driver/Inc/stm32g4xx_ll_gpio.h ****   * @param  Pin This parameter can be one of the following values:
 298:Drivers/STM32G4xx_HAL_Driver/Inc/stm32g4xx_ll_gpio.h ****   *         @arg @ref LL_GPIO_PIN_0
 299:Drivers/STM32G4xx_HAL_Driver/Inc/stm32g4xx_ll_gpio.h ****   *         @arg @ref LL_GPIO_PIN_1
 300:Drivers/STM32G4xx_HAL_Driver/Inc/stm32g4xx_ll_gpio.h ****   *         @arg @ref LL_GPIO_PIN_2
 301:Drivers/STM32G4xx_HAL_Driver/Inc/stm32g4xx_ll_gpio.h ****   *         @arg @ref LL_GPIO_PIN_3
 302:Drivers/STM32G4xx_HAL_Driver/Inc/stm32g4xx_ll_gpio.h ****   *         @arg @ref LL_GPIO_PIN_4
 303:Drivers/STM32G4xx_HAL_Driver/Inc/stm32g4xx_ll_gpio.h ****   *         @arg @ref LL_GPIO_PIN_5
 304:Drivers/STM32G4xx_HAL_Driver/Inc/stm32g4xx_ll_gpio.h ****   *         @arg @ref LL_GPIO_PIN_6
 305:Drivers/STM32G4xx_HAL_Driver/Inc/stm32g4xx_ll_gpio.h ****   *         @arg @ref LL_GPIO_PIN_7
 306:Drivers/STM32G4xx_HAL_Driver/Inc/stm32g4xx_ll_gpio.h ****   *         @arg @ref LL_GPIO_PIN_8
 307:Drivers/STM32G4xx_HAL_Driver/Inc/stm32g4xx_ll_gpio.h ****   *         @arg @ref LL_GPIO_PIN_9
 308:Drivers/STM32G4xx_HAL_Driver/Inc/stm32g4xx_ll_gpio.h ****   *         @arg @ref LL_GPIO_PIN_10
 309:Drivers/STM32G4xx_HAL_Driver/Inc/stm32g4xx_ll_gpio.h ****   *         @arg @ref LL_GPIO_PIN_11
 310:Drivers/STM32G4xx_HAL_Driver/Inc/stm32g4xx_ll_gpio.h ****   *         @arg @ref LL_GPIO_PIN_12
 311:Drivers/STM32G4xx_HAL_Driver/Inc/stm32g4xx_ll_gpio.h ****   *         @arg @ref LL_GPIO_PIN_13
 312:Drivers/STM32G4xx_HAL_Driver/Inc/stm32g4xx_ll_gpio.h ****   *         @arg @ref LL_GPIO_PIN_14
 313:Drivers/STM32G4xx_HAL_Driver/Inc/stm32g4xx_ll_gpio.h ****   *         @arg @ref LL_GPIO_PIN_15
 314:Drivers/STM32G4xx_HAL_Driver/Inc/stm32g4xx_ll_gpio.h ****   * @retval Returned value can be one of the following values:
ARM GAS  D:\apps\VSCode\data\tmp\cczoc3tE.s 			page 23


 315:Drivers/STM32G4xx_HAL_Driver/Inc/stm32g4xx_ll_gpio.h ****   *         @arg @ref LL_GPIO_MODE_INPUT
 316:Drivers/STM32G4xx_HAL_Driver/Inc/stm32g4xx_ll_gpio.h ****   *         @arg @ref LL_GPIO_MODE_OUTPUT
 317:Drivers/STM32G4xx_HAL_Driver/Inc/stm32g4xx_ll_gpio.h ****   *         @arg @ref LL_GPIO_MODE_ALTERNATE
 318:Drivers/STM32G4xx_HAL_Driver/Inc/stm32g4xx_ll_gpio.h ****   *         @arg @ref LL_GPIO_MODE_ANALOG
 319:Drivers/STM32G4xx_HAL_Driver/Inc/stm32g4xx_ll_gpio.h ****   */
 320:Drivers/STM32G4xx_HAL_Driver/Inc/stm32g4xx_ll_gpio.h **** __STATIC_INLINE uint32_t LL_GPIO_GetPinMode(GPIO_TypeDef *GPIOx, uint32_t Pin)
 321:Drivers/STM32G4xx_HAL_Driver/Inc/stm32g4xx_ll_gpio.h **** {
 322:Drivers/STM32G4xx_HAL_Driver/Inc/stm32g4xx_ll_gpio.h ****   return (uint32_t)(READ_BIT(GPIOx->MODER,
 323:Drivers/STM32G4xx_HAL_Driver/Inc/stm32g4xx_ll_gpio.h ****                              (GPIO_MODER_MODE0 << (POSITION_VAL(Pin) * 2U))) >> (POSITION_VAL(Pin) 
 324:Drivers/STM32G4xx_HAL_Driver/Inc/stm32g4xx_ll_gpio.h **** }
 325:Drivers/STM32G4xx_HAL_Driver/Inc/stm32g4xx_ll_gpio.h **** 
 326:Drivers/STM32G4xx_HAL_Driver/Inc/stm32g4xx_ll_gpio.h **** /**
 327:Drivers/STM32G4xx_HAL_Driver/Inc/stm32g4xx_ll_gpio.h ****   * @brief  Configure gpio output type for several pins on dedicated port.
 328:Drivers/STM32G4xx_HAL_Driver/Inc/stm32g4xx_ll_gpio.h ****   * @note   Output type as to be set when gpio pin is in output or
 329:Drivers/STM32G4xx_HAL_Driver/Inc/stm32g4xx_ll_gpio.h ****   *         alternate modes. Possible type are Push-pull or Open-drain.
 330:Drivers/STM32G4xx_HAL_Driver/Inc/stm32g4xx_ll_gpio.h ****   * @rmtoll OTYPER       OTy           LL_GPIO_SetPinOutputType
 331:Drivers/STM32G4xx_HAL_Driver/Inc/stm32g4xx_ll_gpio.h ****   * @param  GPIOx GPIO Port
 332:Drivers/STM32G4xx_HAL_Driver/Inc/stm32g4xx_ll_gpio.h ****   * @param  PinMask This parameter can be a combination of the following values:
 333:Drivers/STM32G4xx_HAL_Driver/Inc/stm32g4xx_ll_gpio.h ****   *         @arg @ref LL_GPIO_PIN_0
 334:Drivers/STM32G4xx_HAL_Driver/Inc/stm32g4xx_ll_gpio.h ****   *         @arg @ref LL_GPIO_PIN_1
 335:Drivers/STM32G4xx_HAL_Driver/Inc/stm32g4xx_ll_gpio.h ****   *         @arg @ref LL_GPIO_PIN_2
 336:Drivers/STM32G4xx_HAL_Driver/Inc/stm32g4xx_ll_gpio.h ****   *         @arg @ref LL_GPIO_PIN_3
 337:Drivers/STM32G4xx_HAL_Driver/Inc/stm32g4xx_ll_gpio.h ****   *         @arg @ref LL_GPIO_PIN_4
 338:Drivers/STM32G4xx_HAL_Driver/Inc/stm32g4xx_ll_gpio.h ****   *         @arg @ref LL_GPIO_PIN_5
 339:Drivers/STM32G4xx_HAL_Driver/Inc/stm32g4xx_ll_gpio.h ****   *         @arg @ref LL_GPIO_PIN_6
 340:Drivers/STM32G4xx_HAL_Driver/Inc/stm32g4xx_ll_gpio.h ****   *         @arg @ref LL_GPIO_PIN_7
 341:Drivers/STM32G4xx_HAL_Driver/Inc/stm32g4xx_ll_gpio.h ****   *         @arg @ref LL_GPIO_PIN_8
 342:Drivers/STM32G4xx_HAL_Driver/Inc/stm32g4xx_ll_gpio.h ****   *         @arg @ref LL_GPIO_PIN_9
 343:Drivers/STM32G4xx_HAL_Driver/Inc/stm32g4xx_ll_gpio.h ****   *         @arg @ref LL_GPIO_PIN_10
 344:Drivers/STM32G4xx_HAL_Driver/Inc/stm32g4xx_ll_gpio.h ****   *         @arg @ref LL_GPIO_PIN_11
 345:Drivers/STM32G4xx_HAL_Driver/Inc/stm32g4xx_ll_gpio.h ****   *         @arg @ref LL_GPIO_PIN_12
 346:Drivers/STM32G4xx_HAL_Driver/Inc/stm32g4xx_ll_gpio.h ****   *         @arg @ref LL_GPIO_PIN_13
 347:Drivers/STM32G4xx_HAL_Driver/Inc/stm32g4xx_ll_gpio.h ****   *         @arg @ref LL_GPIO_PIN_14
 348:Drivers/STM32G4xx_HAL_Driver/Inc/stm32g4xx_ll_gpio.h ****   *         @arg @ref LL_GPIO_PIN_15
 349:Drivers/STM32G4xx_HAL_Driver/Inc/stm32g4xx_ll_gpio.h ****   *         @arg @ref LL_GPIO_PIN_ALL
 350:Drivers/STM32G4xx_HAL_Driver/Inc/stm32g4xx_ll_gpio.h ****   * @param  OutputType This parameter can be one of the following values:
 351:Drivers/STM32G4xx_HAL_Driver/Inc/stm32g4xx_ll_gpio.h ****   *         @arg @ref LL_GPIO_OUTPUT_PUSHPULL
 352:Drivers/STM32G4xx_HAL_Driver/Inc/stm32g4xx_ll_gpio.h ****   *         @arg @ref LL_GPIO_OUTPUT_OPENDRAIN
 353:Drivers/STM32G4xx_HAL_Driver/Inc/stm32g4xx_ll_gpio.h ****   * @retval None
 354:Drivers/STM32G4xx_HAL_Driver/Inc/stm32g4xx_ll_gpio.h ****   */
 355:Drivers/STM32G4xx_HAL_Driver/Inc/stm32g4xx_ll_gpio.h **** __STATIC_INLINE void LL_GPIO_SetPinOutputType(GPIO_TypeDef *GPIOx, uint32_t PinMask, uint32_t Outpu
 356:Drivers/STM32G4xx_HAL_Driver/Inc/stm32g4xx_ll_gpio.h **** {
 357:Drivers/STM32G4xx_HAL_Driver/Inc/stm32g4xx_ll_gpio.h ****   MODIFY_REG(GPIOx->OTYPER, PinMask, (PinMask * OutputType));
 358:Drivers/STM32G4xx_HAL_Driver/Inc/stm32g4xx_ll_gpio.h **** }
 359:Drivers/STM32G4xx_HAL_Driver/Inc/stm32g4xx_ll_gpio.h **** 
 360:Drivers/STM32G4xx_HAL_Driver/Inc/stm32g4xx_ll_gpio.h **** /**
 361:Drivers/STM32G4xx_HAL_Driver/Inc/stm32g4xx_ll_gpio.h ****   * @brief  Return gpio output type for several pins on dedicated port.
 362:Drivers/STM32G4xx_HAL_Driver/Inc/stm32g4xx_ll_gpio.h ****   * @note   Output type as to be set when gpio pin is in output or
 363:Drivers/STM32G4xx_HAL_Driver/Inc/stm32g4xx_ll_gpio.h ****   *         alternate modes. Possible type are Push-pull or Open-drain.
 364:Drivers/STM32G4xx_HAL_Driver/Inc/stm32g4xx_ll_gpio.h ****   * @note   Warning: only one pin can be passed as parameter.
 365:Drivers/STM32G4xx_HAL_Driver/Inc/stm32g4xx_ll_gpio.h ****   * @rmtoll OTYPER       OTy           LL_GPIO_GetPinOutputType
 366:Drivers/STM32G4xx_HAL_Driver/Inc/stm32g4xx_ll_gpio.h ****   * @param  GPIOx GPIO Port
 367:Drivers/STM32G4xx_HAL_Driver/Inc/stm32g4xx_ll_gpio.h ****   * @param  Pin This parameter can be one of the following values:
 368:Drivers/STM32G4xx_HAL_Driver/Inc/stm32g4xx_ll_gpio.h ****   *         @arg @ref LL_GPIO_PIN_0
 369:Drivers/STM32G4xx_HAL_Driver/Inc/stm32g4xx_ll_gpio.h ****   *         @arg @ref LL_GPIO_PIN_1
 370:Drivers/STM32G4xx_HAL_Driver/Inc/stm32g4xx_ll_gpio.h ****   *         @arg @ref LL_GPIO_PIN_2
 371:Drivers/STM32G4xx_HAL_Driver/Inc/stm32g4xx_ll_gpio.h ****   *         @arg @ref LL_GPIO_PIN_3
ARM GAS  D:\apps\VSCode\data\tmp\cczoc3tE.s 			page 24


 372:Drivers/STM32G4xx_HAL_Driver/Inc/stm32g4xx_ll_gpio.h ****   *         @arg @ref LL_GPIO_PIN_4
 373:Drivers/STM32G4xx_HAL_Driver/Inc/stm32g4xx_ll_gpio.h ****   *         @arg @ref LL_GPIO_PIN_5
 374:Drivers/STM32G4xx_HAL_Driver/Inc/stm32g4xx_ll_gpio.h ****   *         @arg @ref LL_GPIO_PIN_6
 375:Drivers/STM32G4xx_HAL_Driver/Inc/stm32g4xx_ll_gpio.h ****   *         @arg @ref LL_GPIO_PIN_7
 376:Drivers/STM32G4xx_HAL_Driver/Inc/stm32g4xx_ll_gpio.h ****   *         @arg @ref LL_GPIO_PIN_8
 377:Drivers/STM32G4xx_HAL_Driver/Inc/stm32g4xx_ll_gpio.h ****   *         @arg @ref LL_GPIO_PIN_9
 378:Drivers/STM32G4xx_HAL_Driver/Inc/stm32g4xx_ll_gpio.h ****   *         @arg @ref LL_GPIO_PIN_10
 379:Drivers/STM32G4xx_HAL_Driver/Inc/stm32g4xx_ll_gpio.h ****   *         @arg @ref LL_GPIO_PIN_11
 380:Drivers/STM32G4xx_HAL_Driver/Inc/stm32g4xx_ll_gpio.h ****   *         @arg @ref LL_GPIO_PIN_12
 381:Drivers/STM32G4xx_HAL_Driver/Inc/stm32g4xx_ll_gpio.h ****   *         @arg @ref LL_GPIO_PIN_13
 382:Drivers/STM32G4xx_HAL_Driver/Inc/stm32g4xx_ll_gpio.h ****   *         @arg @ref LL_GPIO_PIN_14
 383:Drivers/STM32G4xx_HAL_Driver/Inc/stm32g4xx_ll_gpio.h ****   *         @arg @ref LL_GPIO_PIN_15
 384:Drivers/STM32G4xx_HAL_Driver/Inc/stm32g4xx_ll_gpio.h ****   *         @arg @ref LL_GPIO_PIN_ALL
 385:Drivers/STM32G4xx_HAL_Driver/Inc/stm32g4xx_ll_gpio.h ****   * @retval Returned value can be one of the following values:
 386:Drivers/STM32G4xx_HAL_Driver/Inc/stm32g4xx_ll_gpio.h ****   *         @arg @ref LL_GPIO_OUTPUT_PUSHPULL
 387:Drivers/STM32G4xx_HAL_Driver/Inc/stm32g4xx_ll_gpio.h ****   *         @arg @ref LL_GPIO_OUTPUT_OPENDRAIN
 388:Drivers/STM32G4xx_HAL_Driver/Inc/stm32g4xx_ll_gpio.h ****   */
 389:Drivers/STM32G4xx_HAL_Driver/Inc/stm32g4xx_ll_gpio.h **** __STATIC_INLINE uint32_t LL_GPIO_GetPinOutputType(GPIO_TypeDef *GPIOx, uint32_t Pin)
 390:Drivers/STM32G4xx_HAL_Driver/Inc/stm32g4xx_ll_gpio.h **** {
 391:Drivers/STM32G4xx_HAL_Driver/Inc/stm32g4xx_ll_gpio.h ****   return (uint32_t)(READ_BIT(GPIOx->OTYPER, Pin) >> POSITION_VAL(Pin));
 392:Drivers/STM32G4xx_HAL_Driver/Inc/stm32g4xx_ll_gpio.h **** }
 393:Drivers/STM32G4xx_HAL_Driver/Inc/stm32g4xx_ll_gpio.h **** 
 394:Drivers/STM32G4xx_HAL_Driver/Inc/stm32g4xx_ll_gpio.h **** /**
 395:Drivers/STM32G4xx_HAL_Driver/Inc/stm32g4xx_ll_gpio.h ****   * @brief  Configure gpio speed for a dedicated pin on dedicated port.
 396:Drivers/STM32G4xx_HAL_Driver/Inc/stm32g4xx_ll_gpio.h ****   * @note   I/O speed can be Low, Medium, Fast or High speed.
 397:Drivers/STM32G4xx_HAL_Driver/Inc/stm32g4xx_ll_gpio.h ****   * @note   Warning: only one pin can be passed as parameter.
 398:Drivers/STM32G4xx_HAL_Driver/Inc/stm32g4xx_ll_gpio.h ****   * @note   Refer to datasheet for frequency specifications and the power
 399:Drivers/STM32G4xx_HAL_Driver/Inc/stm32g4xx_ll_gpio.h ****   *         supply and load conditions for each speed.
 400:Drivers/STM32G4xx_HAL_Driver/Inc/stm32g4xx_ll_gpio.h ****   * @rmtoll OSPEEDR      OSPEEDy       LL_GPIO_SetPinSpeed
 401:Drivers/STM32G4xx_HAL_Driver/Inc/stm32g4xx_ll_gpio.h ****   * @param  GPIOx GPIO Port
 402:Drivers/STM32G4xx_HAL_Driver/Inc/stm32g4xx_ll_gpio.h ****   * @param  Pin This parameter can be one of the following values:
 403:Drivers/STM32G4xx_HAL_Driver/Inc/stm32g4xx_ll_gpio.h ****   *         @arg @ref LL_GPIO_PIN_0
 404:Drivers/STM32G4xx_HAL_Driver/Inc/stm32g4xx_ll_gpio.h ****   *         @arg @ref LL_GPIO_PIN_1
 405:Drivers/STM32G4xx_HAL_Driver/Inc/stm32g4xx_ll_gpio.h ****   *         @arg @ref LL_GPIO_PIN_2
 406:Drivers/STM32G4xx_HAL_Driver/Inc/stm32g4xx_ll_gpio.h ****   *         @arg @ref LL_GPIO_PIN_3
 407:Drivers/STM32G4xx_HAL_Driver/Inc/stm32g4xx_ll_gpio.h ****   *         @arg @ref LL_GPIO_PIN_4
 408:Drivers/STM32G4xx_HAL_Driver/Inc/stm32g4xx_ll_gpio.h ****   *         @arg @ref LL_GPIO_PIN_5
 409:Drivers/STM32G4xx_HAL_Driver/Inc/stm32g4xx_ll_gpio.h ****   *         @arg @ref LL_GPIO_PIN_6
 410:Drivers/STM32G4xx_HAL_Driver/Inc/stm32g4xx_ll_gpio.h ****   *         @arg @ref LL_GPIO_PIN_7
 411:Drivers/STM32G4xx_HAL_Driver/Inc/stm32g4xx_ll_gpio.h ****   *         @arg @ref LL_GPIO_PIN_8
 412:Drivers/STM32G4xx_HAL_Driver/Inc/stm32g4xx_ll_gpio.h ****   *         @arg @ref LL_GPIO_PIN_9
 413:Drivers/STM32G4xx_HAL_Driver/Inc/stm32g4xx_ll_gpio.h ****   *         @arg @ref LL_GPIO_PIN_10
 414:Drivers/STM32G4xx_HAL_Driver/Inc/stm32g4xx_ll_gpio.h ****   *         @arg @ref LL_GPIO_PIN_11
 415:Drivers/STM32G4xx_HAL_Driver/Inc/stm32g4xx_ll_gpio.h ****   *         @arg @ref LL_GPIO_PIN_12
 416:Drivers/STM32G4xx_HAL_Driver/Inc/stm32g4xx_ll_gpio.h ****   *         @arg @ref LL_GPIO_PIN_13
 417:Drivers/STM32G4xx_HAL_Driver/Inc/stm32g4xx_ll_gpio.h ****   *         @arg @ref LL_GPIO_PIN_14
 418:Drivers/STM32G4xx_HAL_Driver/Inc/stm32g4xx_ll_gpio.h ****   *         @arg @ref LL_GPIO_PIN_15
 419:Drivers/STM32G4xx_HAL_Driver/Inc/stm32g4xx_ll_gpio.h ****   * @param  Speed This parameter can be one of the following values:
 420:Drivers/STM32G4xx_HAL_Driver/Inc/stm32g4xx_ll_gpio.h ****   *         @arg @ref LL_GPIO_SPEED_FREQ_LOW
 421:Drivers/STM32G4xx_HAL_Driver/Inc/stm32g4xx_ll_gpio.h ****   *         @arg @ref LL_GPIO_SPEED_FREQ_MEDIUM
 422:Drivers/STM32G4xx_HAL_Driver/Inc/stm32g4xx_ll_gpio.h ****   *         @arg @ref LL_GPIO_SPEED_FREQ_HIGH
 423:Drivers/STM32G4xx_HAL_Driver/Inc/stm32g4xx_ll_gpio.h ****   *         @arg @ref LL_GPIO_SPEED_FREQ_VERY_HIGH
 424:Drivers/STM32G4xx_HAL_Driver/Inc/stm32g4xx_ll_gpio.h ****   * @retval None
 425:Drivers/STM32G4xx_HAL_Driver/Inc/stm32g4xx_ll_gpio.h ****   */
 426:Drivers/STM32G4xx_HAL_Driver/Inc/stm32g4xx_ll_gpio.h **** __STATIC_INLINE void LL_GPIO_SetPinSpeed(GPIO_TypeDef *GPIOx, uint32_t Pin, uint32_t  Speed)
 427:Drivers/STM32G4xx_HAL_Driver/Inc/stm32g4xx_ll_gpio.h **** {
 428:Drivers/STM32G4xx_HAL_Driver/Inc/stm32g4xx_ll_gpio.h ****   MODIFY_REG(GPIOx->OSPEEDR, (GPIO_OSPEEDR_OSPEED0 << (POSITION_VAL(Pin) * 2U)),
ARM GAS  D:\apps\VSCode\data\tmp\cczoc3tE.s 			page 25


 429:Drivers/STM32G4xx_HAL_Driver/Inc/stm32g4xx_ll_gpio.h ****              (Speed << (POSITION_VAL(Pin) * 2U)));
 430:Drivers/STM32G4xx_HAL_Driver/Inc/stm32g4xx_ll_gpio.h **** }
 431:Drivers/STM32G4xx_HAL_Driver/Inc/stm32g4xx_ll_gpio.h **** 
 432:Drivers/STM32G4xx_HAL_Driver/Inc/stm32g4xx_ll_gpio.h **** /**
 433:Drivers/STM32G4xx_HAL_Driver/Inc/stm32g4xx_ll_gpio.h ****   * @brief  Return gpio speed for a dedicated pin on dedicated port.
 434:Drivers/STM32G4xx_HAL_Driver/Inc/stm32g4xx_ll_gpio.h ****   * @note   I/O speed can be Low, Medium, Fast or High speed.
 435:Drivers/STM32G4xx_HAL_Driver/Inc/stm32g4xx_ll_gpio.h ****   * @note   Warning: only one pin can be passed as parameter.
 436:Drivers/STM32G4xx_HAL_Driver/Inc/stm32g4xx_ll_gpio.h ****   * @note   Refer to datasheet for frequency specifications and the power
 437:Drivers/STM32G4xx_HAL_Driver/Inc/stm32g4xx_ll_gpio.h ****   *         supply and load conditions for each speed.
 438:Drivers/STM32G4xx_HAL_Driver/Inc/stm32g4xx_ll_gpio.h ****   * @rmtoll OSPEEDR      OSPEEDy       LL_GPIO_GetPinSpeed
 439:Drivers/STM32G4xx_HAL_Driver/Inc/stm32g4xx_ll_gpio.h ****   * @param  GPIOx GPIO Port
 440:Drivers/STM32G4xx_HAL_Driver/Inc/stm32g4xx_ll_gpio.h ****   * @param  Pin This parameter can be one of the following values:
 441:Drivers/STM32G4xx_HAL_Driver/Inc/stm32g4xx_ll_gpio.h ****   *         @arg @ref LL_GPIO_PIN_0
 442:Drivers/STM32G4xx_HAL_Driver/Inc/stm32g4xx_ll_gpio.h ****   *         @arg @ref LL_GPIO_PIN_1
 443:Drivers/STM32G4xx_HAL_Driver/Inc/stm32g4xx_ll_gpio.h ****   *         @arg @ref LL_GPIO_PIN_2
 444:Drivers/STM32G4xx_HAL_Driver/Inc/stm32g4xx_ll_gpio.h ****   *         @arg @ref LL_GPIO_PIN_3
 445:Drivers/STM32G4xx_HAL_Driver/Inc/stm32g4xx_ll_gpio.h ****   *         @arg @ref LL_GPIO_PIN_4
 446:Drivers/STM32G4xx_HAL_Driver/Inc/stm32g4xx_ll_gpio.h ****   *         @arg @ref LL_GPIO_PIN_5
 447:Drivers/STM32G4xx_HAL_Driver/Inc/stm32g4xx_ll_gpio.h ****   *         @arg @ref LL_GPIO_PIN_6
 448:Drivers/STM32G4xx_HAL_Driver/Inc/stm32g4xx_ll_gpio.h ****   *         @arg @ref LL_GPIO_PIN_7
 449:Drivers/STM32G4xx_HAL_Driver/Inc/stm32g4xx_ll_gpio.h ****   *         @arg @ref LL_GPIO_PIN_8
 450:Drivers/STM32G4xx_HAL_Driver/Inc/stm32g4xx_ll_gpio.h ****   *         @arg @ref LL_GPIO_PIN_9
 451:Drivers/STM32G4xx_HAL_Driver/Inc/stm32g4xx_ll_gpio.h ****   *         @arg @ref LL_GPIO_PIN_10
 452:Drivers/STM32G4xx_HAL_Driver/Inc/stm32g4xx_ll_gpio.h ****   *         @arg @ref LL_GPIO_PIN_11
 453:Drivers/STM32G4xx_HAL_Driver/Inc/stm32g4xx_ll_gpio.h ****   *         @arg @ref LL_GPIO_PIN_12
 454:Drivers/STM32G4xx_HAL_Driver/Inc/stm32g4xx_ll_gpio.h ****   *         @arg @ref LL_GPIO_PIN_13
 455:Drivers/STM32G4xx_HAL_Driver/Inc/stm32g4xx_ll_gpio.h ****   *         @arg @ref LL_GPIO_PIN_14
 456:Drivers/STM32G4xx_HAL_Driver/Inc/stm32g4xx_ll_gpio.h ****   *         @arg @ref LL_GPIO_PIN_15
 457:Drivers/STM32G4xx_HAL_Driver/Inc/stm32g4xx_ll_gpio.h ****   * @retval Returned value can be one of the following values:
 458:Drivers/STM32G4xx_HAL_Driver/Inc/stm32g4xx_ll_gpio.h ****   *         @arg @ref LL_GPIO_SPEED_FREQ_LOW
 459:Drivers/STM32G4xx_HAL_Driver/Inc/stm32g4xx_ll_gpio.h ****   *         @arg @ref LL_GPIO_SPEED_FREQ_MEDIUM
 460:Drivers/STM32G4xx_HAL_Driver/Inc/stm32g4xx_ll_gpio.h ****   *         @arg @ref LL_GPIO_SPEED_FREQ_HIGH
 461:Drivers/STM32G4xx_HAL_Driver/Inc/stm32g4xx_ll_gpio.h ****   *         @arg @ref LL_GPIO_SPEED_FREQ_VERY_HIGH
 462:Drivers/STM32G4xx_HAL_Driver/Inc/stm32g4xx_ll_gpio.h ****   */
 463:Drivers/STM32G4xx_HAL_Driver/Inc/stm32g4xx_ll_gpio.h **** __STATIC_INLINE uint32_t LL_GPIO_GetPinSpeed(GPIO_TypeDef *GPIOx, uint32_t Pin)
 464:Drivers/STM32G4xx_HAL_Driver/Inc/stm32g4xx_ll_gpio.h **** {
 465:Drivers/STM32G4xx_HAL_Driver/Inc/stm32g4xx_ll_gpio.h ****   return (uint32_t)(READ_BIT(GPIOx->OSPEEDR,
 466:Drivers/STM32G4xx_HAL_Driver/Inc/stm32g4xx_ll_gpio.h ****                              (GPIO_OSPEEDR_OSPEED0 << (POSITION_VAL(Pin) * 2U))) >> (POSITION_VAL(P
 467:Drivers/STM32G4xx_HAL_Driver/Inc/stm32g4xx_ll_gpio.h **** }
 468:Drivers/STM32G4xx_HAL_Driver/Inc/stm32g4xx_ll_gpio.h **** 
 469:Drivers/STM32G4xx_HAL_Driver/Inc/stm32g4xx_ll_gpio.h **** /**
 470:Drivers/STM32G4xx_HAL_Driver/Inc/stm32g4xx_ll_gpio.h ****   * @brief  Configure gpio pull-up or pull-down for a dedicated pin on a dedicated port.
 471:Drivers/STM32G4xx_HAL_Driver/Inc/stm32g4xx_ll_gpio.h ****   * @note   Warning: only one pin can be passed as parameter.
 472:Drivers/STM32G4xx_HAL_Driver/Inc/stm32g4xx_ll_gpio.h ****   * @rmtoll PUPDR        PUPDy         LL_GPIO_SetPinPull
 473:Drivers/STM32G4xx_HAL_Driver/Inc/stm32g4xx_ll_gpio.h ****   * @param  GPIOx GPIO Port
 474:Drivers/STM32G4xx_HAL_Driver/Inc/stm32g4xx_ll_gpio.h ****   * @param  Pin This parameter can be one of the following values:
 475:Drivers/STM32G4xx_HAL_Driver/Inc/stm32g4xx_ll_gpio.h ****   *         @arg @ref LL_GPIO_PIN_0
 476:Drivers/STM32G4xx_HAL_Driver/Inc/stm32g4xx_ll_gpio.h ****   *         @arg @ref LL_GPIO_PIN_1
 477:Drivers/STM32G4xx_HAL_Driver/Inc/stm32g4xx_ll_gpio.h ****   *         @arg @ref LL_GPIO_PIN_2
 478:Drivers/STM32G4xx_HAL_Driver/Inc/stm32g4xx_ll_gpio.h ****   *         @arg @ref LL_GPIO_PIN_3
 479:Drivers/STM32G4xx_HAL_Driver/Inc/stm32g4xx_ll_gpio.h ****   *         @arg @ref LL_GPIO_PIN_4
 480:Drivers/STM32G4xx_HAL_Driver/Inc/stm32g4xx_ll_gpio.h ****   *         @arg @ref LL_GPIO_PIN_5
 481:Drivers/STM32G4xx_HAL_Driver/Inc/stm32g4xx_ll_gpio.h ****   *         @arg @ref LL_GPIO_PIN_6
 482:Drivers/STM32G4xx_HAL_Driver/Inc/stm32g4xx_ll_gpio.h ****   *         @arg @ref LL_GPIO_PIN_7
 483:Drivers/STM32G4xx_HAL_Driver/Inc/stm32g4xx_ll_gpio.h ****   *         @arg @ref LL_GPIO_PIN_8
 484:Drivers/STM32G4xx_HAL_Driver/Inc/stm32g4xx_ll_gpio.h ****   *         @arg @ref LL_GPIO_PIN_9
 485:Drivers/STM32G4xx_HAL_Driver/Inc/stm32g4xx_ll_gpio.h ****   *         @arg @ref LL_GPIO_PIN_10
ARM GAS  D:\apps\VSCode\data\tmp\cczoc3tE.s 			page 26


 486:Drivers/STM32G4xx_HAL_Driver/Inc/stm32g4xx_ll_gpio.h ****   *         @arg @ref LL_GPIO_PIN_11
 487:Drivers/STM32G4xx_HAL_Driver/Inc/stm32g4xx_ll_gpio.h ****   *         @arg @ref LL_GPIO_PIN_12
 488:Drivers/STM32G4xx_HAL_Driver/Inc/stm32g4xx_ll_gpio.h ****   *         @arg @ref LL_GPIO_PIN_13
 489:Drivers/STM32G4xx_HAL_Driver/Inc/stm32g4xx_ll_gpio.h ****   *         @arg @ref LL_GPIO_PIN_14
 490:Drivers/STM32G4xx_HAL_Driver/Inc/stm32g4xx_ll_gpio.h ****   *         @arg @ref LL_GPIO_PIN_15
 491:Drivers/STM32G4xx_HAL_Driver/Inc/stm32g4xx_ll_gpio.h ****   * @param  Pull This parameter can be one of the following values:
 492:Drivers/STM32G4xx_HAL_Driver/Inc/stm32g4xx_ll_gpio.h ****   *         @arg @ref LL_GPIO_PULL_NO
 493:Drivers/STM32G4xx_HAL_Driver/Inc/stm32g4xx_ll_gpio.h ****   *         @arg @ref LL_GPIO_PULL_UP
 494:Drivers/STM32G4xx_HAL_Driver/Inc/stm32g4xx_ll_gpio.h ****   *         @arg @ref LL_GPIO_PULL_DOWN
 495:Drivers/STM32G4xx_HAL_Driver/Inc/stm32g4xx_ll_gpio.h ****   * @retval None
 496:Drivers/STM32G4xx_HAL_Driver/Inc/stm32g4xx_ll_gpio.h ****   */
 497:Drivers/STM32G4xx_HAL_Driver/Inc/stm32g4xx_ll_gpio.h **** __STATIC_INLINE void LL_GPIO_SetPinPull(GPIO_TypeDef *GPIOx, uint32_t Pin, uint32_t Pull)
 498:Drivers/STM32G4xx_HAL_Driver/Inc/stm32g4xx_ll_gpio.h **** {
 499:Drivers/STM32G4xx_HAL_Driver/Inc/stm32g4xx_ll_gpio.h ****   MODIFY_REG(GPIOx->PUPDR, (GPIO_PUPDR_PUPD0 << (POSITION_VAL(Pin) * 2U)), (Pull << (POSITION_VAL(P
 500:Drivers/STM32G4xx_HAL_Driver/Inc/stm32g4xx_ll_gpio.h **** }
 501:Drivers/STM32G4xx_HAL_Driver/Inc/stm32g4xx_ll_gpio.h **** 
 502:Drivers/STM32G4xx_HAL_Driver/Inc/stm32g4xx_ll_gpio.h **** /**
 503:Drivers/STM32G4xx_HAL_Driver/Inc/stm32g4xx_ll_gpio.h ****   * @brief  Return gpio pull-up or pull-down for a dedicated pin on a dedicated port
 504:Drivers/STM32G4xx_HAL_Driver/Inc/stm32g4xx_ll_gpio.h ****   * @note   Warning: only one pin can be passed as parameter.
 505:Drivers/STM32G4xx_HAL_Driver/Inc/stm32g4xx_ll_gpio.h ****   * @rmtoll PUPDR        PUPDy         LL_GPIO_GetPinPull
 506:Drivers/STM32G4xx_HAL_Driver/Inc/stm32g4xx_ll_gpio.h ****   * @param  GPIOx GPIO Port
 507:Drivers/STM32G4xx_HAL_Driver/Inc/stm32g4xx_ll_gpio.h ****   * @param  Pin This parameter can be one of the following values:
 508:Drivers/STM32G4xx_HAL_Driver/Inc/stm32g4xx_ll_gpio.h ****   *         @arg @ref LL_GPIO_PIN_0
 509:Drivers/STM32G4xx_HAL_Driver/Inc/stm32g4xx_ll_gpio.h ****   *         @arg @ref LL_GPIO_PIN_1
 510:Drivers/STM32G4xx_HAL_Driver/Inc/stm32g4xx_ll_gpio.h ****   *         @arg @ref LL_GPIO_PIN_2
 511:Drivers/STM32G4xx_HAL_Driver/Inc/stm32g4xx_ll_gpio.h ****   *         @arg @ref LL_GPIO_PIN_3
 512:Drivers/STM32G4xx_HAL_Driver/Inc/stm32g4xx_ll_gpio.h ****   *         @arg @ref LL_GPIO_PIN_4
 513:Drivers/STM32G4xx_HAL_Driver/Inc/stm32g4xx_ll_gpio.h ****   *         @arg @ref LL_GPIO_PIN_5
 514:Drivers/STM32G4xx_HAL_Driver/Inc/stm32g4xx_ll_gpio.h ****   *         @arg @ref LL_GPIO_PIN_6
 515:Drivers/STM32G4xx_HAL_Driver/Inc/stm32g4xx_ll_gpio.h ****   *         @arg @ref LL_GPIO_PIN_7
 516:Drivers/STM32G4xx_HAL_Driver/Inc/stm32g4xx_ll_gpio.h ****   *         @arg @ref LL_GPIO_PIN_8
 517:Drivers/STM32G4xx_HAL_Driver/Inc/stm32g4xx_ll_gpio.h ****   *         @arg @ref LL_GPIO_PIN_9
 518:Drivers/STM32G4xx_HAL_Driver/Inc/stm32g4xx_ll_gpio.h ****   *         @arg @ref LL_GPIO_PIN_10
 519:Drivers/STM32G4xx_HAL_Driver/Inc/stm32g4xx_ll_gpio.h ****   *         @arg @ref LL_GPIO_PIN_11
 520:Drivers/STM32G4xx_HAL_Driver/Inc/stm32g4xx_ll_gpio.h ****   *         @arg @ref LL_GPIO_PIN_12
 521:Drivers/STM32G4xx_HAL_Driver/Inc/stm32g4xx_ll_gpio.h ****   *         @arg @ref LL_GPIO_PIN_13
 522:Drivers/STM32G4xx_HAL_Driver/Inc/stm32g4xx_ll_gpio.h ****   *         @arg @ref LL_GPIO_PIN_14
 523:Drivers/STM32G4xx_HAL_Driver/Inc/stm32g4xx_ll_gpio.h ****   *         @arg @ref LL_GPIO_PIN_15
 524:Drivers/STM32G4xx_HAL_Driver/Inc/stm32g4xx_ll_gpio.h ****   * @retval Returned value can be one of the following values:
 525:Drivers/STM32G4xx_HAL_Driver/Inc/stm32g4xx_ll_gpio.h ****   *         @arg @ref LL_GPIO_PULL_NO
 526:Drivers/STM32G4xx_HAL_Driver/Inc/stm32g4xx_ll_gpio.h ****   *         @arg @ref LL_GPIO_PULL_UP
 527:Drivers/STM32G4xx_HAL_Driver/Inc/stm32g4xx_ll_gpio.h ****   *         @arg @ref LL_GPIO_PULL_DOWN
 528:Drivers/STM32G4xx_HAL_Driver/Inc/stm32g4xx_ll_gpio.h ****   */
 529:Drivers/STM32G4xx_HAL_Driver/Inc/stm32g4xx_ll_gpio.h **** __STATIC_INLINE uint32_t LL_GPIO_GetPinPull(GPIO_TypeDef *GPIOx, uint32_t Pin)
 530:Drivers/STM32G4xx_HAL_Driver/Inc/stm32g4xx_ll_gpio.h **** {
 531:Drivers/STM32G4xx_HAL_Driver/Inc/stm32g4xx_ll_gpio.h ****   return (uint32_t)(READ_BIT(GPIOx->PUPDR,
 532:Drivers/STM32G4xx_HAL_Driver/Inc/stm32g4xx_ll_gpio.h ****                              (GPIO_PUPDR_PUPD0 << (POSITION_VAL(Pin) * 2U))) >> (POSITION_VAL(Pin) 
 533:Drivers/STM32G4xx_HAL_Driver/Inc/stm32g4xx_ll_gpio.h **** }
 534:Drivers/STM32G4xx_HAL_Driver/Inc/stm32g4xx_ll_gpio.h **** 
 535:Drivers/STM32G4xx_HAL_Driver/Inc/stm32g4xx_ll_gpio.h **** /**
 536:Drivers/STM32G4xx_HAL_Driver/Inc/stm32g4xx_ll_gpio.h ****   * @brief  Configure gpio alternate function of a dedicated pin from 0 to 7 for a dedicated port.
 537:Drivers/STM32G4xx_HAL_Driver/Inc/stm32g4xx_ll_gpio.h ****   * @note   Possible values are from AF0 to AF15 depending on target.
 538:Drivers/STM32G4xx_HAL_Driver/Inc/stm32g4xx_ll_gpio.h ****   * @note   Warning: only one pin can be passed as parameter.
 539:Drivers/STM32G4xx_HAL_Driver/Inc/stm32g4xx_ll_gpio.h ****   * @rmtoll AFRL         AFSELy        LL_GPIO_SetAFPin_0_7
 540:Drivers/STM32G4xx_HAL_Driver/Inc/stm32g4xx_ll_gpio.h ****   * @param  GPIOx GPIO Port
 541:Drivers/STM32G4xx_HAL_Driver/Inc/stm32g4xx_ll_gpio.h ****   * @param  Pin This parameter can be one of the following values:
 542:Drivers/STM32G4xx_HAL_Driver/Inc/stm32g4xx_ll_gpio.h ****   *         @arg @ref LL_GPIO_PIN_0
ARM GAS  D:\apps\VSCode\data\tmp\cczoc3tE.s 			page 27


 543:Drivers/STM32G4xx_HAL_Driver/Inc/stm32g4xx_ll_gpio.h ****   *         @arg @ref LL_GPIO_PIN_1
 544:Drivers/STM32G4xx_HAL_Driver/Inc/stm32g4xx_ll_gpio.h ****   *         @arg @ref LL_GPIO_PIN_2
 545:Drivers/STM32G4xx_HAL_Driver/Inc/stm32g4xx_ll_gpio.h ****   *         @arg @ref LL_GPIO_PIN_3
 546:Drivers/STM32G4xx_HAL_Driver/Inc/stm32g4xx_ll_gpio.h ****   *         @arg @ref LL_GPIO_PIN_4
 547:Drivers/STM32G4xx_HAL_Driver/Inc/stm32g4xx_ll_gpio.h ****   *         @arg @ref LL_GPIO_PIN_5
 548:Drivers/STM32G4xx_HAL_Driver/Inc/stm32g4xx_ll_gpio.h ****   *         @arg @ref LL_GPIO_PIN_6
 549:Drivers/STM32G4xx_HAL_Driver/Inc/stm32g4xx_ll_gpio.h ****   *         @arg @ref LL_GPIO_PIN_7
 550:Drivers/STM32G4xx_HAL_Driver/Inc/stm32g4xx_ll_gpio.h ****   * @param  Alternate This parameter can be one of the following values:
 551:Drivers/STM32G4xx_HAL_Driver/Inc/stm32g4xx_ll_gpio.h ****   *         @arg @ref LL_GPIO_AF_0
 552:Drivers/STM32G4xx_HAL_Driver/Inc/stm32g4xx_ll_gpio.h ****   *         @arg @ref LL_GPIO_AF_1
 553:Drivers/STM32G4xx_HAL_Driver/Inc/stm32g4xx_ll_gpio.h ****   *         @arg @ref LL_GPIO_AF_2
 554:Drivers/STM32G4xx_HAL_Driver/Inc/stm32g4xx_ll_gpio.h ****   *         @arg @ref LL_GPIO_AF_3
 555:Drivers/STM32G4xx_HAL_Driver/Inc/stm32g4xx_ll_gpio.h ****   *         @arg @ref LL_GPIO_AF_4
 556:Drivers/STM32G4xx_HAL_Driver/Inc/stm32g4xx_ll_gpio.h ****   *         @arg @ref LL_GPIO_AF_5
 557:Drivers/STM32G4xx_HAL_Driver/Inc/stm32g4xx_ll_gpio.h ****   *         @arg @ref LL_GPIO_AF_6
 558:Drivers/STM32G4xx_HAL_Driver/Inc/stm32g4xx_ll_gpio.h ****   *         @arg @ref LL_GPIO_AF_7
 559:Drivers/STM32G4xx_HAL_Driver/Inc/stm32g4xx_ll_gpio.h ****   *         @arg @ref LL_GPIO_AF_8
 560:Drivers/STM32G4xx_HAL_Driver/Inc/stm32g4xx_ll_gpio.h ****   *         @arg @ref LL_GPIO_AF_9
 561:Drivers/STM32G4xx_HAL_Driver/Inc/stm32g4xx_ll_gpio.h ****   *         @arg @ref LL_GPIO_AF_10
 562:Drivers/STM32G4xx_HAL_Driver/Inc/stm32g4xx_ll_gpio.h ****   *         @arg @ref LL_GPIO_AF_11
 563:Drivers/STM32G4xx_HAL_Driver/Inc/stm32g4xx_ll_gpio.h ****   *         @arg @ref LL_GPIO_AF_12
 564:Drivers/STM32G4xx_HAL_Driver/Inc/stm32g4xx_ll_gpio.h ****   *         @arg @ref LL_GPIO_AF_13
 565:Drivers/STM32G4xx_HAL_Driver/Inc/stm32g4xx_ll_gpio.h ****   *         @arg @ref LL_GPIO_AF_14
 566:Drivers/STM32G4xx_HAL_Driver/Inc/stm32g4xx_ll_gpio.h ****   *         @arg @ref LL_GPIO_AF_15
 567:Drivers/STM32G4xx_HAL_Driver/Inc/stm32g4xx_ll_gpio.h ****   * @retval None
 568:Drivers/STM32G4xx_HAL_Driver/Inc/stm32g4xx_ll_gpio.h ****   */
 569:Drivers/STM32G4xx_HAL_Driver/Inc/stm32g4xx_ll_gpio.h **** __STATIC_INLINE void LL_GPIO_SetAFPin_0_7(GPIO_TypeDef *GPIOx, uint32_t Pin, uint32_t Alternate)
 570:Drivers/STM32G4xx_HAL_Driver/Inc/stm32g4xx_ll_gpio.h **** {
 571:Drivers/STM32G4xx_HAL_Driver/Inc/stm32g4xx_ll_gpio.h ****   MODIFY_REG(GPIOx->AFR[0], (GPIO_AFRL_AFSEL0 << (POSITION_VAL(Pin) * 4U)),
 572:Drivers/STM32G4xx_HAL_Driver/Inc/stm32g4xx_ll_gpio.h ****              (Alternate << (POSITION_VAL(Pin) * 4U)));
 573:Drivers/STM32G4xx_HAL_Driver/Inc/stm32g4xx_ll_gpio.h **** }
 574:Drivers/STM32G4xx_HAL_Driver/Inc/stm32g4xx_ll_gpio.h **** 
 575:Drivers/STM32G4xx_HAL_Driver/Inc/stm32g4xx_ll_gpio.h **** /**
 576:Drivers/STM32G4xx_HAL_Driver/Inc/stm32g4xx_ll_gpio.h ****   * @brief  Return gpio alternate function of a dedicated pin from 0 to 7 for a dedicated port.
 577:Drivers/STM32G4xx_HAL_Driver/Inc/stm32g4xx_ll_gpio.h ****   * @rmtoll AFRL         AFSELy        LL_GPIO_GetAFPin_0_7
 578:Drivers/STM32G4xx_HAL_Driver/Inc/stm32g4xx_ll_gpio.h ****   * @param  GPIOx GPIO Port
 579:Drivers/STM32G4xx_HAL_Driver/Inc/stm32g4xx_ll_gpio.h ****   * @param  Pin This parameter can be one of the following values:
 580:Drivers/STM32G4xx_HAL_Driver/Inc/stm32g4xx_ll_gpio.h ****   *         @arg @ref LL_GPIO_PIN_0
 581:Drivers/STM32G4xx_HAL_Driver/Inc/stm32g4xx_ll_gpio.h ****   *         @arg @ref LL_GPIO_PIN_1
 582:Drivers/STM32G4xx_HAL_Driver/Inc/stm32g4xx_ll_gpio.h ****   *         @arg @ref LL_GPIO_PIN_2
 583:Drivers/STM32G4xx_HAL_Driver/Inc/stm32g4xx_ll_gpio.h ****   *         @arg @ref LL_GPIO_PIN_3
 584:Drivers/STM32G4xx_HAL_Driver/Inc/stm32g4xx_ll_gpio.h ****   *         @arg @ref LL_GPIO_PIN_4
 585:Drivers/STM32G4xx_HAL_Driver/Inc/stm32g4xx_ll_gpio.h ****   *         @arg @ref LL_GPIO_PIN_5
 586:Drivers/STM32G4xx_HAL_Driver/Inc/stm32g4xx_ll_gpio.h ****   *         @arg @ref LL_GPIO_PIN_6
 587:Drivers/STM32G4xx_HAL_Driver/Inc/stm32g4xx_ll_gpio.h ****   *         @arg @ref LL_GPIO_PIN_7
 588:Drivers/STM32G4xx_HAL_Driver/Inc/stm32g4xx_ll_gpio.h ****   * @retval Returned value can be one of the following values:
 589:Drivers/STM32G4xx_HAL_Driver/Inc/stm32g4xx_ll_gpio.h ****   *         @arg @ref LL_GPIO_AF_0
 590:Drivers/STM32G4xx_HAL_Driver/Inc/stm32g4xx_ll_gpio.h ****   *         @arg @ref LL_GPIO_AF_1
 591:Drivers/STM32G4xx_HAL_Driver/Inc/stm32g4xx_ll_gpio.h ****   *         @arg @ref LL_GPIO_AF_2
 592:Drivers/STM32G4xx_HAL_Driver/Inc/stm32g4xx_ll_gpio.h ****   *         @arg @ref LL_GPIO_AF_3
 593:Drivers/STM32G4xx_HAL_Driver/Inc/stm32g4xx_ll_gpio.h ****   *         @arg @ref LL_GPIO_AF_4
 594:Drivers/STM32G4xx_HAL_Driver/Inc/stm32g4xx_ll_gpio.h ****   *         @arg @ref LL_GPIO_AF_5
 595:Drivers/STM32G4xx_HAL_Driver/Inc/stm32g4xx_ll_gpio.h ****   *         @arg @ref LL_GPIO_AF_6
 596:Drivers/STM32G4xx_HAL_Driver/Inc/stm32g4xx_ll_gpio.h ****   *         @arg @ref LL_GPIO_AF_7
 597:Drivers/STM32G4xx_HAL_Driver/Inc/stm32g4xx_ll_gpio.h ****   *         @arg @ref LL_GPIO_AF_8
 598:Drivers/STM32G4xx_HAL_Driver/Inc/stm32g4xx_ll_gpio.h ****   *         @arg @ref LL_GPIO_AF_9
 599:Drivers/STM32G4xx_HAL_Driver/Inc/stm32g4xx_ll_gpio.h ****   *         @arg @ref LL_GPIO_AF_10
ARM GAS  D:\apps\VSCode\data\tmp\cczoc3tE.s 			page 28


 600:Drivers/STM32G4xx_HAL_Driver/Inc/stm32g4xx_ll_gpio.h ****   *         @arg @ref LL_GPIO_AF_11
 601:Drivers/STM32G4xx_HAL_Driver/Inc/stm32g4xx_ll_gpio.h ****   *         @arg @ref LL_GPIO_AF_12
 602:Drivers/STM32G4xx_HAL_Driver/Inc/stm32g4xx_ll_gpio.h ****   *         @arg @ref LL_GPIO_AF_13
 603:Drivers/STM32G4xx_HAL_Driver/Inc/stm32g4xx_ll_gpio.h ****   *         @arg @ref LL_GPIO_AF_14
 604:Drivers/STM32G4xx_HAL_Driver/Inc/stm32g4xx_ll_gpio.h ****   *         @arg @ref LL_GPIO_AF_15
 605:Drivers/STM32G4xx_HAL_Driver/Inc/stm32g4xx_ll_gpio.h ****   */
 606:Drivers/STM32G4xx_HAL_Driver/Inc/stm32g4xx_ll_gpio.h **** __STATIC_INLINE uint32_t LL_GPIO_GetAFPin_0_7(GPIO_TypeDef *GPIOx, uint32_t Pin)
 607:Drivers/STM32G4xx_HAL_Driver/Inc/stm32g4xx_ll_gpio.h **** {
 608:Drivers/STM32G4xx_HAL_Driver/Inc/stm32g4xx_ll_gpio.h ****   return (uint32_t)(READ_BIT(GPIOx->AFR[0],
 609:Drivers/STM32G4xx_HAL_Driver/Inc/stm32g4xx_ll_gpio.h ****                              (GPIO_AFRL_AFSEL0 << (POSITION_VAL(Pin) * 4U))) >> (POSITION_VAL(Pin) 
 610:Drivers/STM32G4xx_HAL_Driver/Inc/stm32g4xx_ll_gpio.h **** }
 611:Drivers/STM32G4xx_HAL_Driver/Inc/stm32g4xx_ll_gpio.h **** 
 612:Drivers/STM32G4xx_HAL_Driver/Inc/stm32g4xx_ll_gpio.h **** /**
 613:Drivers/STM32G4xx_HAL_Driver/Inc/stm32g4xx_ll_gpio.h ****   * @brief  Configure gpio alternate function of a dedicated pin from 8 to 15 for a dedicated port.
 614:Drivers/STM32G4xx_HAL_Driver/Inc/stm32g4xx_ll_gpio.h ****   * @note   Possible values are from AF0 to AF15 depending on target.
 615:Drivers/STM32G4xx_HAL_Driver/Inc/stm32g4xx_ll_gpio.h ****   * @note   Warning: only one pin can be passed as parameter.
 616:Drivers/STM32G4xx_HAL_Driver/Inc/stm32g4xx_ll_gpio.h ****   * @rmtoll AFRH         AFSELy        LL_GPIO_SetAFPin_8_15
 617:Drivers/STM32G4xx_HAL_Driver/Inc/stm32g4xx_ll_gpio.h ****   * @param  GPIOx GPIO Port
 618:Drivers/STM32G4xx_HAL_Driver/Inc/stm32g4xx_ll_gpio.h ****   * @param  Pin This parameter can be one of the following values:
 619:Drivers/STM32G4xx_HAL_Driver/Inc/stm32g4xx_ll_gpio.h ****   *         @arg @ref LL_GPIO_PIN_8
 620:Drivers/STM32G4xx_HAL_Driver/Inc/stm32g4xx_ll_gpio.h ****   *         @arg @ref LL_GPIO_PIN_9
 621:Drivers/STM32G4xx_HAL_Driver/Inc/stm32g4xx_ll_gpio.h ****   *         @arg @ref LL_GPIO_PIN_10
 622:Drivers/STM32G4xx_HAL_Driver/Inc/stm32g4xx_ll_gpio.h ****   *         @arg @ref LL_GPIO_PIN_11
 623:Drivers/STM32G4xx_HAL_Driver/Inc/stm32g4xx_ll_gpio.h ****   *         @arg @ref LL_GPIO_PIN_12
 624:Drivers/STM32G4xx_HAL_Driver/Inc/stm32g4xx_ll_gpio.h ****   *         @arg @ref LL_GPIO_PIN_13
 625:Drivers/STM32G4xx_HAL_Driver/Inc/stm32g4xx_ll_gpio.h ****   *         @arg @ref LL_GPIO_PIN_14
 626:Drivers/STM32G4xx_HAL_Driver/Inc/stm32g4xx_ll_gpio.h ****   *         @arg @ref LL_GPIO_PIN_15
 627:Drivers/STM32G4xx_HAL_Driver/Inc/stm32g4xx_ll_gpio.h ****   * @param  Alternate This parameter can be one of the following values:
 628:Drivers/STM32G4xx_HAL_Driver/Inc/stm32g4xx_ll_gpio.h ****   *         @arg @ref LL_GPIO_AF_0
 629:Drivers/STM32G4xx_HAL_Driver/Inc/stm32g4xx_ll_gpio.h ****   *         @arg @ref LL_GPIO_AF_1
 630:Drivers/STM32G4xx_HAL_Driver/Inc/stm32g4xx_ll_gpio.h ****   *         @arg @ref LL_GPIO_AF_2
 631:Drivers/STM32G4xx_HAL_Driver/Inc/stm32g4xx_ll_gpio.h ****   *         @arg @ref LL_GPIO_AF_3
 632:Drivers/STM32G4xx_HAL_Driver/Inc/stm32g4xx_ll_gpio.h ****   *         @arg @ref LL_GPIO_AF_4
 633:Drivers/STM32G4xx_HAL_Driver/Inc/stm32g4xx_ll_gpio.h ****   *         @arg @ref LL_GPIO_AF_5
 634:Drivers/STM32G4xx_HAL_Driver/Inc/stm32g4xx_ll_gpio.h ****   *         @arg @ref LL_GPIO_AF_6
 635:Drivers/STM32G4xx_HAL_Driver/Inc/stm32g4xx_ll_gpio.h ****   *         @arg @ref LL_GPIO_AF_7
 636:Drivers/STM32G4xx_HAL_Driver/Inc/stm32g4xx_ll_gpio.h ****   *         @arg @ref LL_GPIO_AF_8
 637:Drivers/STM32G4xx_HAL_Driver/Inc/stm32g4xx_ll_gpio.h ****   *         @arg @ref LL_GPIO_AF_9
 638:Drivers/STM32G4xx_HAL_Driver/Inc/stm32g4xx_ll_gpio.h ****   *         @arg @ref LL_GPIO_AF_10
 639:Drivers/STM32G4xx_HAL_Driver/Inc/stm32g4xx_ll_gpio.h ****   *         @arg @ref LL_GPIO_AF_11
 640:Drivers/STM32G4xx_HAL_Driver/Inc/stm32g4xx_ll_gpio.h ****   *         @arg @ref LL_GPIO_AF_12
 641:Drivers/STM32G4xx_HAL_Driver/Inc/stm32g4xx_ll_gpio.h ****   *         @arg @ref LL_GPIO_AF_13
 642:Drivers/STM32G4xx_HAL_Driver/Inc/stm32g4xx_ll_gpio.h ****   *         @arg @ref LL_GPIO_AF_14
 643:Drivers/STM32G4xx_HAL_Driver/Inc/stm32g4xx_ll_gpio.h ****   *         @arg @ref LL_GPIO_AF_15
 644:Drivers/STM32G4xx_HAL_Driver/Inc/stm32g4xx_ll_gpio.h ****   * @retval None
 645:Drivers/STM32G4xx_HAL_Driver/Inc/stm32g4xx_ll_gpio.h ****   */
 646:Drivers/STM32G4xx_HAL_Driver/Inc/stm32g4xx_ll_gpio.h **** __STATIC_INLINE void LL_GPIO_SetAFPin_8_15(GPIO_TypeDef *GPIOx, uint32_t Pin, uint32_t Alternate)
 647:Drivers/STM32G4xx_HAL_Driver/Inc/stm32g4xx_ll_gpio.h **** {
 648:Drivers/STM32G4xx_HAL_Driver/Inc/stm32g4xx_ll_gpio.h ****   MODIFY_REG(GPIOx->AFR[1], (GPIO_AFRH_AFSEL8 << (POSITION_VAL(Pin >> 8U) * 4U)),
 649:Drivers/STM32G4xx_HAL_Driver/Inc/stm32g4xx_ll_gpio.h ****              (Alternate << (POSITION_VAL(Pin >> 8U) * 4U)));
 650:Drivers/STM32G4xx_HAL_Driver/Inc/stm32g4xx_ll_gpio.h **** }
 651:Drivers/STM32G4xx_HAL_Driver/Inc/stm32g4xx_ll_gpio.h **** 
 652:Drivers/STM32G4xx_HAL_Driver/Inc/stm32g4xx_ll_gpio.h **** /**
 653:Drivers/STM32G4xx_HAL_Driver/Inc/stm32g4xx_ll_gpio.h ****   * @brief  Return gpio alternate function of a dedicated pin from 8 to 15 for a dedicated port.
 654:Drivers/STM32G4xx_HAL_Driver/Inc/stm32g4xx_ll_gpio.h ****   * @note   Possible values are from AF0 to AF15 depending on target.
 655:Drivers/STM32G4xx_HAL_Driver/Inc/stm32g4xx_ll_gpio.h ****   * @rmtoll AFRH         AFSELy        LL_GPIO_GetAFPin_8_15
 656:Drivers/STM32G4xx_HAL_Driver/Inc/stm32g4xx_ll_gpio.h ****   * @param  GPIOx GPIO Port
ARM GAS  D:\apps\VSCode\data\tmp\cczoc3tE.s 			page 29


 657:Drivers/STM32G4xx_HAL_Driver/Inc/stm32g4xx_ll_gpio.h ****   * @param  Pin This parameter can be one of the following values:
 658:Drivers/STM32G4xx_HAL_Driver/Inc/stm32g4xx_ll_gpio.h ****   *         @arg @ref LL_GPIO_PIN_8
 659:Drivers/STM32G4xx_HAL_Driver/Inc/stm32g4xx_ll_gpio.h ****   *         @arg @ref LL_GPIO_PIN_9
 660:Drivers/STM32G4xx_HAL_Driver/Inc/stm32g4xx_ll_gpio.h ****   *         @arg @ref LL_GPIO_PIN_10
 661:Drivers/STM32G4xx_HAL_Driver/Inc/stm32g4xx_ll_gpio.h ****   *         @arg @ref LL_GPIO_PIN_11
 662:Drivers/STM32G4xx_HAL_Driver/Inc/stm32g4xx_ll_gpio.h ****   *         @arg @ref LL_GPIO_PIN_12
 663:Drivers/STM32G4xx_HAL_Driver/Inc/stm32g4xx_ll_gpio.h ****   *         @arg @ref LL_GPIO_PIN_13
 664:Drivers/STM32G4xx_HAL_Driver/Inc/stm32g4xx_ll_gpio.h ****   *         @arg @ref LL_GPIO_PIN_14
 665:Drivers/STM32G4xx_HAL_Driver/Inc/stm32g4xx_ll_gpio.h ****   *         @arg @ref LL_GPIO_PIN_15
 666:Drivers/STM32G4xx_HAL_Driver/Inc/stm32g4xx_ll_gpio.h ****   * @retval Returned value can be one of the following values:
 667:Drivers/STM32G4xx_HAL_Driver/Inc/stm32g4xx_ll_gpio.h ****   *         @arg @ref LL_GPIO_AF_0
 668:Drivers/STM32G4xx_HAL_Driver/Inc/stm32g4xx_ll_gpio.h ****   *         @arg @ref LL_GPIO_AF_1
 669:Drivers/STM32G4xx_HAL_Driver/Inc/stm32g4xx_ll_gpio.h ****   *         @arg @ref LL_GPIO_AF_2
 670:Drivers/STM32G4xx_HAL_Driver/Inc/stm32g4xx_ll_gpio.h ****   *         @arg @ref LL_GPIO_AF_3
 671:Drivers/STM32G4xx_HAL_Driver/Inc/stm32g4xx_ll_gpio.h ****   *         @arg @ref LL_GPIO_AF_4
 672:Drivers/STM32G4xx_HAL_Driver/Inc/stm32g4xx_ll_gpio.h ****   *         @arg @ref LL_GPIO_AF_5
 673:Drivers/STM32G4xx_HAL_Driver/Inc/stm32g4xx_ll_gpio.h ****   *         @arg @ref LL_GPIO_AF_6
 674:Drivers/STM32G4xx_HAL_Driver/Inc/stm32g4xx_ll_gpio.h ****   *         @arg @ref LL_GPIO_AF_7
 675:Drivers/STM32G4xx_HAL_Driver/Inc/stm32g4xx_ll_gpio.h ****   *         @arg @ref LL_GPIO_AF_8
 676:Drivers/STM32G4xx_HAL_Driver/Inc/stm32g4xx_ll_gpio.h ****   *         @arg @ref LL_GPIO_AF_9
 677:Drivers/STM32G4xx_HAL_Driver/Inc/stm32g4xx_ll_gpio.h ****   *         @arg @ref LL_GPIO_AF_10
 678:Drivers/STM32G4xx_HAL_Driver/Inc/stm32g4xx_ll_gpio.h ****   *         @arg @ref LL_GPIO_AF_11
 679:Drivers/STM32G4xx_HAL_Driver/Inc/stm32g4xx_ll_gpio.h ****   *         @arg @ref LL_GPIO_AF_12
 680:Drivers/STM32G4xx_HAL_Driver/Inc/stm32g4xx_ll_gpio.h ****   *         @arg @ref LL_GPIO_AF_13
 681:Drivers/STM32G4xx_HAL_Driver/Inc/stm32g4xx_ll_gpio.h ****   *         @arg @ref LL_GPIO_AF_14
 682:Drivers/STM32G4xx_HAL_Driver/Inc/stm32g4xx_ll_gpio.h ****   *         @arg @ref LL_GPIO_AF_15
 683:Drivers/STM32G4xx_HAL_Driver/Inc/stm32g4xx_ll_gpio.h ****   */
 684:Drivers/STM32G4xx_HAL_Driver/Inc/stm32g4xx_ll_gpio.h **** __STATIC_INLINE uint32_t LL_GPIO_GetAFPin_8_15(GPIO_TypeDef *GPIOx, uint32_t Pin)
 685:Drivers/STM32G4xx_HAL_Driver/Inc/stm32g4xx_ll_gpio.h **** {
 686:Drivers/STM32G4xx_HAL_Driver/Inc/stm32g4xx_ll_gpio.h ****   return (uint32_t)(READ_BIT(GPIOx->AFR[1],
 687:Drivers/STM32G4xx_HAL_Driver/Inc/stm32g4xx_ll_gpio.h ****                              (GPIO_AFRH_AFSEL8 << (POSITION_VAL(Pin >> 8U) * 4U))) >> (POSITION_VAL
 688:Drivers/STM32G4xx_HAL_Driver/Inc/stm32g4xx_ll_gpio.h **** }
 689:Drivers/STM32G4xx_HAL_Driver/Inc/stm32g4xx_ll_gpio.h **** 
 690:Drivers/STM32G4xx_HAL_Driver/Inc/stm32g4xx_ll_gpio.h **** 
 691:Drivers/STM32G4xx_HAL_Driver/Inc/stm32g4xx_ll_gpio.h **** /**
 692:Drivers/STM32G4xx_HAL_Driver/Inc/stm32g4xx_ll_gpio.h ****   * @brief  Lock configuration of several pins for a dedicated port.
 693:Drivers/STM32G4xx_HAL_Driver/Inc/stm32g4xx_ll_gpio.h ****   * @note   When the lock sequence has been applied on a port bit, the
 694:Drivers/STM32G4xx_HAL_Driver/Inc/stm32g4xx_ll_gpio.h ****   *         value of this port bit can no longer be modified until the
 695:Drivers/STM32G4xx_HAL_Driver/Inc/stm32g4xx_ll_gpio.h ****   *         next reset.
 696:Drivers/STM32G4xx_HAL_Driver/Inc/stm32g4xx_ll_gpio.h ****   * @note   Each lock bit freezes a specific configuration register
 697:Drivers/STM32G4xx_HAL_Driver/Inc/stm32g4xx_ll_gpio.h ****   *         (control and alternate function registers).
 698:Drivers/STM32G4xx_HAL_Driver/Inc/stm32g4xx_ll_gpio.h ****   * @rmtoll LCKR         LCKK          LL_GPIO_LockPin
 699:Drivers/STM32G4xx_HAL_Driver/Inc/stm32g4xx_ll_gpio.h ****   * @param  GPIOx GPIO Port
 700:Drivers/STM32G4xx_HAL_Driver/Inc/stm32g4xx_ll_gpio.h ****   * @param  PinMask This parameter can be a combination of the following values:
 701:Drivers/STM32G4xx_HAL_Driver/Inc/stm32g4xx_ll_gpio.h ****   *         @arg @ref LL_GPIO_PIN_0
 702:Drivers/STM32G4xx_HAL_Driver/Inc/stm32g4xx_ll_gpio.h ****   *         @arg @ref LL_GPIO_PIN_1
 703:Drivers/STM32G4xx_HAL_Driver/Inc/stm32g4xx_ll_gpio.h ****   *         @arg @ref LL_GPIO_PIN_2
 704:Drivers/STM32G4xx_HAL_Driver/Inc/stm32g4xx_ll_gpio.h ****   *         @arg @ref LL_GPIO_PIN_3
 705:Drivers/STM32G4xx_HAL_Driver/Inc/stm32g4xx_ll_gpio.h ****   *         @arg @ref LL_GPIO_PIN_4
 706:Drivers/STM32G4xx_HAL_Driver/Inc/stm32g4xx_ll_gpio.h ****   *         @arg @ref LL_GPIO_PIN_5
 707:Drivers/STM32G4xx_HAL_Driver/Inc/stm32g4xx_ll_gpio.h ****   *         @arg @ref LL_GPIO_PIN_6
 708:Drivers/STM32G4xx_HAL_Driver/Inc/stm32g4xx_ll_gpio.h ****   *         @arg @ref LL_GPIO_PIN_7
 709:Drivers/STM32G4xx_HAL_Driver/Inc/stm32g4xx_ll_gpio.h ****   *         @arg @ref LL_GPIO_PIN_8
 710:Drivers/STM32G4xx_HAL_Driver/Inc/stm32g4xx_ll_gpio.h ****   *         @arg @ref LL_GPIO_PIN_9
 711:Drivers/STM32G4xx_HAL_Driver/Inc/stm32g4xx_ll_gpio.h ****   *         @arg @ref LL_GPIO_PIN_10
 712:Drivers/STM32G4xx_HAL_Driver/Inc/stm32g4xx_ll_gpio.h ****   *         @arg @ref LL_GPIO_PIN_11
 713:Drivers/STM32G4xx_HAL_Driver/Inc/stm32g4xx_ll_gpio.h ****   *         @arg @ref LL_GPIO_PIN_12
ARM GAS  D:\apps\VSCode\data\tmp\cczoc3tE.s 			page 30


 714:Drivers/STM32G4xx_HAL_Driver/Inc/stm32g4xx_ll_gpio.h ****   *         @arg @ref LL_GPIO_PIN_13
 715:Drivers/STM32G4xx_HAL_Driver/Inc/stm32g4xx_ll_gpio.h ****   *         @arg @ref LL_GPIO_PIN_14
 716:Drivers/STM32G4xx_HAL_Driver/Inc/stm32g4xx_ll_gpio.h ****   *         @arg @ref LL_GPIO_PIN_15
 717:Drivers/STM32G4xx_HAL_Driver/Inc/stm32g4xx_ll_gpio.h ****   *         @arg @ref LL_GPIO_PIN_ALL
 718:Drivers/STM32G4xx_HAL_Driver/Inc/stm32g4xx_ll_gpio.h ****   * @retval None
 719:Drivers/STM32G4xx_HAL_Driver/Inc/stm32g4xx_ll_gpio.h ****   */
 720:Drivers/STM32G4xx_HAL_Driver/Inc/stm32g4xx_ll_gpio.h **** __STATIC_INLINE void LL_GPIO_LockPin(GPIO_TypeDef *GPIOx, uint32_t PinMask)
 721:Drivers/STM32G4xx_HAL_Driver/Inc/stm32g4xx_ll_gpio.h **** {
 722:Drivers/STM32G4xx_HAL_Driver/Inc/stm32g4xx_ll_gpio.h ****   __IO uint32_t temp;
 723:Drivers/STM32G4xx_HAL_Driver/Inc/stm32g4xx_ll_gpio.h ****   WRITE_REG(GPIOx->LCKR, GPIO_LCKR_LCKK | PinMask);
 724:Drivers/STM32G4xx_HAL_Driver/Inc/stm32g4xx_ll_gpio.h ****   WRITE_REG(GPIOx->LCKR, PinMask);
 725:Drivers/STM32G4xx_HAL_Driver/Inc/stm32g4xx_ll_gpio.h ****   WRITE_REG(GPIOx->LCKR, GPIO_LCKR_LCKK | PinMask);
 726:Drivers/STM32G4xx_HAL_Driver/Inc/stm32g4xx_ll_gpio.h ****   /* Read LCKR register. This read is mandatory to complete key lock sequence */
 727:Drivers/STM32G4xx_HAL_Driver/Inc/stm32g4xx_ll_gpio.h ****   temp = READ_REG(GPIOx->LCKR);
 728:Drivers/STM32G4xx_HAL_Driver/Inc/stm32g4xx_ll_gpio.h ****   (void) temp;
 729:Drivers/STM32G4xx_HAL_Driver/Inc/stm32g4xx_ll_gpio.h **** }
 730:Drivers/STM32G4xx_HAL_Driver/Inc/stm32g4xx_ll_gpio.h **** 
 731:Drivers/STM32G4xx_HAL_Driver/Inc/stm32g4xx_ll_gpio.h **** /**
 732:Drivers/STM32G4xx_HAL_Driver/Inc/stm32g4xx_ll_gpio.h ****   * @brief  Return 1 if all pins passed as parameter, of a dedicated port, are locked. else Return 
 733:Drivers/STM32G4xx_HAL_Driver/Inc/stm32g4xx_ll_gpio.h ****   * @rmtoll LCKR         LCKy          LL_GPIO_IsPinLocked
 734:Drivers/STM32G4xx_HAL_Driver/Inc/stm32g4xx_ll_gpio.h ****   * @param  GPIOx GPIO Port
 735:Drivers/STM32G4xx_HAL_Driver/Inc/stm32g4xx_ll_gpio.h ****   * @param  PinMask This parameter can be a combination of the following values:
 736:Drivers/STM32G4xx_HAL_Driver/Inc/stm32g4xx_ll_gpio.h ****   *         @arg @ref LL_GPIO_PIN_0
 737:Drivers/STM32G4xx_HAL_Driver/Inc/stm32g4xx_ll_gpio.h ****   *         @arg @ref LL_GPIO_PIN_1
 738:Drivers/STM32G4xx_HAL_Driver/Inc/stm32g4xx_ll_gpio.h ****   *         @arg @ref LL_GPIO_PIN_2
 739:Drivers/STM32G4xx_HAL_Driver/Inc/stm32g4xx_ll_gpio.h ****   *         @arg @ref LL_GPIO_PIN_3
 740:Drivers/STM32G4xx_HAL_Driver/Inc/stm32g4xx_ll_gpio.h ****   *         @arg @ref LL_GPIO_PIN_4
 741:Drivers/STM32G4xx_HAL_Driver/Inc/stm32g4xx_ll_gpio.h ****   *         @arg @ref LL_GPIO_PIN_5
 742:Drivers/STM32G4xx_HAL_Driver/Inc/stm32g4xx_ll_gpio.h ****   *         @arg @ref LL_GPIO_PIN_6
 743:Drivers/STM32G4xx_HAL_Driver/Inc/stm32g4xx_ll_gpio.h ****   *         @arg @ref LL_GPIO_PIN_7
 744:Drivers/STM32G4xx_HAL_Driver/Inc/stm32g4xx_ll_gpio.h ****   *         @arg @ref LL_GPIO_PIN_8
 745:Drivers/STM32G4xx_HAL_Driver/Inc/stm32g4xx_ll_gpio.h ****   *         @arg @ref LL_GPIO_PIN_9
 746:Drivers/STM32G4xx_HAL_Driver/Inc/stm32g4xx_ll_gpio.h ****   *         @arg @ref LL_GPIO_PIN_10
 747:Drivers/STM32G4xx_HAL_Driver/Inc/stm32g4xx_ll_gpio.h ****   *         @arg @ref LL_GPIO_PIN_11
 748:Drivers/STM32G4xx_HAL_Driver/Inc/stm32g4xx_ll_gpio.h ****   *         @arg @ref LL_GPIO_PIN_12
 749:Drivers/STM32G4xx_HAL_Driver/Inc/stm32g4xx_ll_gpio.h ****   *         @arg @ref LL_GPIO_PIN_13
 750:Drivers/STM32G4xx_HAL_Driver/Inc/stm32g4xx_ll_gpio.h ****   *         @arg @ref LL_GPIO_PIN_14
 751:Drivers/STM32G4xx_HAL_Driver/Inc/stm32g4xx_ll_gpio.h ****   *         @arg @ref LL_GPIO_PIN_15
 752:Drivers/STM32G4xx_HAL_Driver/Inc/stm32g4xx_ll_gpio.h ****   *         @arg @ref LL_GPIO_PIN_ALL
 753:Drivers/STM32G4xx_HAL_Driver/Inc/stm32g4xx_ll_gpio.h ****   * @retval State of bit (1 or 0).
 754:Drivers/STM32G4xx_HAL_Driver/Inc/stm32g4xx_ll_gpio.h ****   */
 755:Drivers/STM32G4xx_HAL_Driver/Inc/stm32g4xx_ll_gpio.h **** __STATIC_INLINE uint32_t LL_GPIO_IsPinLocked(GPIO_TypeDef *GPIOx, uint32_t PinMask)
 756:Drivers/STM32G4xx_HAL_Driver/Inc/stm32g4xx_ll_gpio.h **** {
 757:Drivers/STM32G4xx_HAL_Driver/Inc/stm32g4xx_ll_gpio.h ****   return ((READ_BIT(GPIOx->LCKR, PinMask) == (PinMask)) ? 1UL : 0UL);
 758:Drivers/STM32G4xx_HAL_Driver/Inc/stm32g4xx_ll_gpio.h **** }
 759:Drivers/STM32G4xx_HAL_Driver/Inc/stm32g4xx_ll_gpio.h **** 
 760:Drivers/STM32G4xx_HAL_Driver/Inc/stm32g4xx_ll_gpio.h **** /**
 761:Drivers/STM32G4xx_HAL_Driver/Inc/stm32g4xx_ll_gpio.h ****   * @brief  Return 1 if one of the pin of a dedicated port is locked. else return 0.
 762:Drivers/STM32G4xx_HAL_Driver/Inc/stm32g4xx_ll_gpio.h ****   * @rmtoll LCKR         LCKK          LL_GPIO_IsAnyPinLocked
 763:Drivers/STM32G4xx_HAL_Driver/Inc/stm32g4xx_ll_gpio.h ****   * @param  GPIOx GPIO Port
 764:Drivers/STM32G4xx_HAL_Driver/Inc/stm32g4xx_ll_gpio.h ****   * @retval State of bit (1 or 0).
 765:Drivers/STM32G4xx_HAL_Driver/Inc/stm32g4xx_ll_gpio.h ****   */
 766:Drivers/STM32G4xx_HAL_Driver/Inc/stm32g4xx_ll_gpio.h **** __STATIC_INLINE uint32_t LL_GPIO_IsAnyPinLocked(GPIO_TypeDef *GPIOx)
 767:Drivers/STM32G4xx_HAL_Driver/Inc/stm32g4xx_ll_gpio.h **** {
 768:Drivers/STM32G4xx_HAL_Driver/Inc/stm32g4xx_ll_gpio.h ****   return ((READ_BIT(GPIOx->LCKR, GPIO_LCKR_LCKK) == (GPIO_LCKR_LCKK)) ? 1UL : 0UL);
 769:Drivers/STM32G4xx_HAL_Driver/Inc/stm32g4xx_ll_gpio.h **** }
 770:Drivers/STM32G4xx_HAL_Driver/Inc/stm32g4xx_ll_gpio.h **** 
ARM GAS  D:\apps\VSCode\data\tmp\cczoc3tE.s 			page 31


 771:Drivers/STM32G4xx_HAL_Driver/Inc/stm32g4xx_ll_gpio.h **** /**
 772:Drivers/STM32G4xx_HAL_Driver/Inc/stm32g4xx_ll_gpio.h ****   * @}
 773:Drivers/STM32G4xx_HAL_Driver/Inc/stm32g4xx_ll_gpio.h ****   */
 774:Drivers/STM32G4xx_HAL_Driver/Inc/stm32g4xx_ll_gpio.h **** 
 775:Drivers/STM32G4xx_HAL_Driver/Inc/stm32g4xx_ll_gpio.h **** /** @defgroup GPIO_LL_EF_Data_Access Data Access
 776:Drivers/STM32G4xx_HAL_Driver/Inc/stm32g4xx_ll_gpio.h ****   * @{
 777:Drivers/STM32G4xx_HAL_Driver/Inc/stm32g4xx_ll_gpio.h ****   */
 778:Drivers/STM32G4xx_HAL_Driver/Inc/stm32g4xx_ll_gpio.h **** 
 779:Drivers/STM32G4xx_HAL_Driver/Inc/stm32g4xx_ll_gpio.h **** /**
 780:Drivers/STM32G4xx_HAL_Driver/Inc/stm32g4xx_ll_gpio.h ****   * @brief  Return full input data register value for a dedicated port.
 781:Drivers/STM32G4xx_HAL_Driver/Inc/stm32g4xx_ll_gpio.h ****   * @rmtoll IDR          IDy           LL_GPIO_ReadInputPort
 782:Drivers/STM32G4xx_HAL_Driver/Inc/stm32g4xx_ll_gpio.h ****   * @param  GPIOx GPIO Port
 783:Drivers/STM32G4xx_HAL_Driver/Inc/stm32g4xx_ll_gpio.h ****   * @retval Input data register value of port
 784:Drivers/STM32G4xx_HAL_Driver/Inc/stm32g4xx_ll_gpio.h ****   */
 785:Drivers/STM32G4xx_HAL_Driver/Inc/stm32g4xx_ll_gpio.h **** __STATIC_INLINE uint32_t LL_GPIO_ReadInputPort(GPIO_TypeDef *GPIOx)
 786:Drivers/STM32G4xx_HAL_Driver/Inc/stm32g4xx_ll_gpio.h **** {
 787:Drivers/STM32G4xx_HAL_Driver/Inc/stm32g4xx_ll_gpio.h ****   return (uint32_t)(READ_REG(GPIOx->IDR));
 788:Drivers/STM32G4xx_HAL_Driver/Inc/stm32g4xx_ll_gpio.h **** }
 789:Drivers/STM32G4xx_HAL_Driver/Inc/stm32g4xx_ll_gpio.h **** 
 790:Drivers/STM32G4xx_HAL_Driver/Inc/stm32g4xx_ll_gpio.h **** /**
 791:Drivers/STM32G4xx_HAL_Driver/Inc/stm32g4xx_ll_gpio.h ****   * @brief  Return if input data level for several pins of dedicated port is high or low.
 792:Drivers/STM32G4xx_HAL_Driver/Inc/stm32g4xx_ll_gpio.h ****   * @rmtoll IDR          IDy           LL_GPIO_IsInputPinSet
 793:Drivers/STM32G4xx_HAL_Driver/Inc/stm32g4xx_ll_gpio.h ****   * @param  GPIOx GPIO Port
 794:Drivers/STM32G4xx_HAL_Driver/Inc/stm32g4xx_ll_gpio.h ****   * @param  PinMask This parameter can be a combination of the following values:
 795:Drivers/STM32G4xx_HAL_Driver/Inc/stm32g4xx_ll_gpio.h ****   *         @arg @ref LL_GPIO_PIN_0
 796:Drivers/STM32G4xx_HAL_Driver/Inc/stm32g4xx_ll_gpio.h ****   *         @arg @ref LL_GPIO_PIN_1
 797:Drivers/STM32G4xx_HAL_Driver/Inc/stm32g4xx_ll_gpio.h ****   *         @arg @ref LL_GPIO_PIN_2
 798:Drivers/STM32G4xx_HAL_Driver/Inc/stm32g4xx_ll_gpio.h ****   *         @arg @ref LL_GPIO_PIN_3
 799:Drivers/STM32G4xx_HAL_Driver/Inc/stm32g4xx_ll_gpio.h ****   *         @arg @ref LL_GPIO_PIN_4
 800:Drivers/STM32G4xx_HAL_Driver/Inc/stm32g4xx_ll_gpio.h ****   *         @arg @ref LL_GPIO_PIN_5
 801:Drivers/STM32G4xx_HAL_Driver/Inc/stm32g4xx_ll_gpio.h ****   *         @arg @ref LL_GPIO_PIN_6
 802:Drivers/STM32G4xx_HAL_Driver/Inc/stm32g4xx_ll_gpio.h ****   *         @arg @ref LL_GPIO_PIN_7
 803:Drivers/STM32G4xx_HAL_Driver/Inc/stm32g4xx_ll_gpio.h ****   *         @arg @ref LL_GPIO_PIN_8
 804:Drivers/STM32G4xx_HAL_Driver/Inc/stm32g4xx_ll_gpio.h ****   *         @arg @ref LL_GPIO_PIN_9
 805:Drivers/STM32G4xx_HAL_Driver/Inc/stm32g4xx_ll_gpio.h ****   *         @arg @ref LL_GPIO_PIN_10
 806:Drivers/STM32G4xx_HAL_Driver/Inc/stm32g4xx_ll_gpio.h ****   *         @arg @ref LL_GPIO_PIN_11
 807:Drivers/STM32G4xx_HAL_Driver/Inc/stm32g4xx_ll_gpio.h ****   *         @arg @ref LL_GPIO_PIN_12
 808:Drivers/STM32G4xx_HAL_Driver/Inc/stm32g4xx_ll_gpio.h ****   *         @arg @ref LL_GPIO_PIN_13
 809:Drivers/STM32G4xx_HAL_Driver/Inc/stm32g4xx_ll_gpio.h ****   *         @arg @ref LL_GPIO_PIN_14
 810:Drivers/STM32G4xx_HAL_Driver/Inc/stm32g4xx_ll_gpio.h ****   *         @arg @ref LL_GPIO_PIN_15
 811:Drivers/STM32G4xx_HAL_Driver/Inc/stm32g4xx_ll_gpio.h ****   *         @arg @ref LL_GPIO_PIN_ALL
 812:Drivers/STM32G4xx_HAL_Driver/Inc/stm32g4xx_ll_gpio.h ****   * @retval State of bit (1 or 0).
 813:Drivers/STM32G4xx_HAL_Driver/Inc/stm32g4xx_ll_gpio.h ****   */
 814:Drivers/STM32G4xx_HAL_Driver/Inc/stm32g4xx_ll_gpio.h **** __STATIC_INLINE uint32_t LL_GPIO_IsInputPinSet(GPIO_TypeDef *GPIOx, uint32_t PinMask)
 815:Drivers/STM32G4xx_HAL_Driver/Inc/stm32g4xx_ll_gpio.h **** {
 816:Drivers/STM32G4xx_HAL_Driver/Inc/stm32g4xx_ll_gpio.h ****   return ((READ_BIT(GPIOx->IDR, PinMask) == (PinMask)) ? 1UL : 0UL);
 817:Drivers/STM32G4xx_HAL_Driver/Inc/stm32g4xx_ll_gpio.h **** }
 818:Drivers/STM32G4xx_HAL_Driver/Inc/stm32g4xx_ll_gpio.h **** 
 819:Drivers/STM32G4xx_HAL_Driver/Inc/stm32g4xx_ll_gpio.h **** /**
 820:Drivers/STM32G4xx_HAL_Driver/Inc/stm32g4xx_ll_gpio.h ****   * @brief  Write output data register for the port.
 821:Drivers/STM32G4xx_HAL_Driver/Inc/stm32g4xx_ll_gpio.h ****   * @rmtoll ODR          ODy           LL_GPIO_WriteOutputPort
 822:Drivers/STM32G4xx_HAL_Driver/Inc/stm32g4xx_ll_gpio.h ****   * @param  GPIOx GPIO Port
 823:Drivers/STM32G4xx_HAL_Driver/Inc/stm32g4xx_ll_gpio.h ****   * @param  PortValue Level value for each pin of the port
 824:Drivers/STM32G4xx_HAL_Driver/Inc/stm32g4xx_ll_gpio.h ****   * @retval None
 825:Drivers/STM32G4xx_HAL_Driver/Inc/stm32g4xx_ll_gpio.h ****   */
 826:Drivers/STM32G4xx_HAL_Driver/Inc/stm32g4xx_ll_gpio.h **** __STATIC_INLINE void LL_GPIO_WriteOutputPort(GPIO_TypeDef *GPIOx, uint32_t PortValue)
 827:Drivers/STM32G4xx_HAL_Driver/Inc/stm32g4xx_ll_gpio.h **** {
ARM GAS  D:\apps\VSCode\data\tmp\cczoc3tE.s 			page 32


 828:Drivers/STM32G4xx_HAL_Driver/Inc/stm32g4xx_ll_gpio.h ****   WRITE_REG(GPIOx->ODR, PortValue);
 829:Drivers/STM32G4xx_HAL_Driver/Inc/stm32g4xx_ll_gpio.h **** }
 830:Drivers/STM32G4xx_HAL_Driver/Inc/stm32g4xx_ll_gpio.h **** 
 831:Drivers/STM32G4xx_HAL_Driver/Inc/stm32g4xx_ll_gpio.h **** /**
 832:Drivers/STM32G4xx_HAL_Driver/Inc/stm32g4xx_ll_gpio.h ****   * @brief  Return full output data register value for a dedicated port.
 833:Drivers/STM32G4xx_HAL_Driver/Inc/stm32g4xx_ll_gpio.h ****   * @rmtoll ODR          ODy           LL_GPIO_ReadOutputPort
 834:Drivers/STM32G4xx_HAL_Driver/Inc/stm32g4xx_ll_gpio.h ****   * @param  GPIOx GPIO Port
 835:Drivers/STM32G4xx_HAL_Driver/Inc/stm32g4xx_ll_gpio.h ****   * @retval Output data register value of port
 836:Drivers/STM32G4xx_HAL_Driver/Inc/stm32g4xx_ll_gpio.h ****   */
 837:Drivers/STM32G4xx_HAL_Driver/Inc/stm32g4xx_ll_gpio.h **** __STATIC_INLINE uint32_t LL_GPIO_ReadOutputPort(GPIO_TypeDef *GPIOx)
 838:Drivers/STM32G4xx_HAL_Driver/Inc/stm32g4xx_ll_gpio.h **** {
 839:Drivers/STM32G4xx_HAL_Driver/Inc/stm32g4xx_ll_gpio.h ****   return (uint32_t)(READ_REG(GPIOx->ODR));
 840:Drivers/STM32G4xx_HAL_Driver/Inc/stm32g4xx_ll_gpio.h **** }
 841:Drivers/STM32G4xx_HAL_Driver/Inc/stm32g4xx_ll_gpio.h **** 
 842:Drivers/STM32G4xx_HAL_Driver/Inc/stm32g4xx_ll_gpio.h **** /**
 843:Drivers/STM32G4xx_HAL_Driver/Inc/stm32g4xx_ll_gpio.h ****   * @brief  Return if input data level for several pins of dedicated port is high or low.
 844:Drivers/STM32G4xx_HAL_Driver/Inc/stm32g4xx_ll_gpio.h ****   * @rmtoll ODR          ODy           LL_GPIO_IsOutputPinSet
 845:Drivers/STM32G4xx_HAL_Driver/Inc/stm32g4xx_ll_gpio.h ****   * @param  GPIOx GPIO Port
 846:Drivers/STM32G4xx_HAL_Driver/Inc/stm32g4xx_ll_gpio.h ****   * @param  PinMask This parameter can be a combination of the following values:
 847:Drivers/STM32G4xx_HAL_Driver/Inc/stm32g4xx_ll_gpio.h ****   *         @arg @ref LL_GPIO_PIN_0
 848:Drivers/STM32G4xx_HAL_Driver/Inc/stm32g4xx_ll_gpio.h ****   *         @arg @ref LL_GPIO_PIN_1
 849:Drivers/STM32G4xx_HAL_Driver/Inc/stm32g4xx_ll_gpio.h ****   *         @arg @ref LL_GPIO_PIN_2
 850:Drivers/STM32G4xx_HAL_Driver/Inc/stm32g4xx_ll_gpio.h ****   *         @arg @ref LL_GPIO_PIN_3
 851:Drivers/STM32G4xx_HAL_Driver/Inc/stm32g4xx_ll_gpio.h ****   *         @arg @ref LL_GPIO_PIN_4
 852:Drivers/STM32G4xx_HAL_Driver/Inc/stm32g4xx_ll_gpio.h ****   *         @arg @ref LL_GPIO_PIN_5
 853:Drivers/STM32G4xx_HAL_Driver/Inc/stm32g4xx_ll_gpio.h ****   *         @arg @ref LL_GPIO_PIN_6
 854:Drivers/STM32G4xx_HAL_Driver/Inc/stm32g4xx_ll_gpio.h ****   *         @arg @ref LL_GPIO_PIN_7
 855:Drivers/STM32G4xx_HAL_Driver/Inc/stm32g4xx_ll_gpio.h ****   *         @arg @ref LL_GPIO_PIN_8
 856:Drivers/STM32G4xx_HAL_Driver/Inc/stm32g4xx_ll_gpio.h ****   *         @arg @ref LL_GPIO_PIN_9
 857:Drivers/STM32G4xx_HAL_Driver/Inc/stm32g4xx_ll_gpio.h ****   *         @arg @ref LL_GPIO_PIN_10
 858:Drivers/STM32G4xx_HAL_Driver/Inc/stm32g4xx_ll_gpio.h ****   *         @arg @ref LL_GPIO_PIN_11
 859:Drivers/STM32G4xx_HAL_Driver/Inc/stm32g4xx_ll_gpio.h ****   *         @arg @ref LL_GPIO_PIN_12
 860:Drivers/STM32G4xx_HAL_Driver/Inc/stm32g4xx_ll_gpio.h ****   *         @arg @ref LL_GPIO_PIN_13
 861:Drivers/STM32G4xx_HAL_Driver/Inc/stm32g4xx_ll_gpio.h ****   *         @arg @ref LL_GPIO_PIN_14
 862:Drivers/STM32G4xx_HAL_Driver/Inc/stm32g4xx_ll_gpio.h ****   *         @arg @ref LL_GPIO_PIN_15
 863:Drivers/STM32G4xx_HAL_Driver/Inc/stm32g4xx_ll_gpio.h ****   *         @arg @ref LL_GPIO_PIN_ALL
 864:Drivers/STM32G4xx_HAL_Driver/Inc/stm32g4xx_ll_gpio.h ****   * @retval State of bit (1 or 0).
 865:Drivers/STM32G4xx_HAL_Driver/Inc/stm32g4xx_ll_gpio.h ****   */
 866:Drivers/STM32G4xx_HAL_Driver/Inc/stm32g4xx_ll_gpio.h **** __STATIC_INLINE uint32_t LL_GPIO_IsOutputPinSet(GPIO_TypeDef *GPIOx, uint32_t PinMask)
 867:Drivers/STM32G4xx_HAL_Driver/Inc/stm32g4xx_ll_gpio.h **** {
 868:Drivers/STM32G4xx_HAL_Driver/Inc/stm32g4xx_ll_gpio.h ****   return ((READ_BIT(GPIOx->ODR, PinMask) == (PinMask)) ? 1UL : 0UL);
 869:Drivers/STM32G4xx_HAL_Driver/Inc/stm32g4xx_ll_gpio.h **** }
 870:Drivers/STM32G4xx_HAL_Driver/Inc/stm32g4xx_ll_gpio.h **** 
 871:Drivers/STM32G4xx_HAL_Driver/Inc/stm32g4xx_ll_gpio.h **** /**
 872:Drivers/STM32G4xx_HAL_Driver/Inc/stm32g4xx_ll_gpio.h ****   * @brief  Set several pins to high level on dedicated gpio port.
 873:Drivers/STM32G4xx_HAL_Driver/Inc/stm32g4xx_ll_gpio.h ****   * @rmtoll BSRR         BSy           LL_GPIO_SetOutputPin
 874:Drivers/STM32G4xx_HAL_Driver/Inc/stm32g4xx_ll_gpio.h ****   * @param  GPIOx GPIO Port
 875:Drivers/STM32G4xx_HAL_Driver/Inc/stm32g4xx_ll_gpio.h ****   * @param  PinMask This parameter can be a combination of the following values:
 876:Drivers/STM32G4xx_HAL_Driver/Inc/stm32g4xx_ll_gpio.h ****   *         @arg @ref LL_GPIO_PIN_0
 877:Drivers/STM32G4xx_HAL_Driver/Inc/stm32g4xx_ll_gpio.h ****   *         @arg @ref LL_GPIO_PIN_1
 878:Drivers/STM32G4xx_HAL_Driver/Inc/stm32g4xx_ll_gpio.h ****   *         @arg @ref LL_GPIO_PIN_2
 879:Drivers/STM32G4xx_HAL_Driver/Inc/stm32g4xx_ll_gpio.h ****   *         @arg @ref LL_GPIO_PIN_3
 880:Drivers/STM32G4xx_HAL_Driver/Inc/stm32g4xx_ll_gpio.h ****   *         @arg @ref LL_GPIO_PIN_4
 881:Drivers/STM32G4xx_HAL_Driver/Inc/stm32g4xx_ll_gpio.h ****   *         @arg @ref LL_GPIO_PIN_5
 882:Drivers/STM32G4xx_HAL_Driver/Inc/stm32g4xx_ll_gpio.h ****   *         @arg @ref LL_GPIO_PIN_6
 883:Drivers/STM32G4xx_HAL_Driver/Inc/stm32g4xx_ll_gpio.h ****   *         @arg @ref LL_GPIO_PIN_7
 884:Drivers/STM32G4xx_HAL_Driver/Inc/stm32g4xx_ll_gpio.h ****   *         @arg @ref LL_GPIO_PIN_8
ARM GAS  D:\apps\VSCode\data\tmp\cczoc3tE.s 			page 33


 885:Drivers/STM32G4xx_HAL_Driver/Inc/stm32g4xx_ll_gpio.h ****   *         @arg @ref LL_GPIO_PIN_9
 886:Drivers/STM32G4xx_HAL_Driver/Inc/stm32g4xx_ll_gpio.h ****   *         @arg @ref LL_GPIO_PIN_10
 887:Drivers/STM32G4xx_HAL_Driver/Inc/stm32g4xx_ll_gpio.h ****   *         @arg @ref LL_GPIO_PIN_11
 888:Drivers/STM32G4xx_HAL_Driver/Inc/stm32g4xx_ll_gpio.h ****   *         @arg @ref LL_GPIO_PIN_12
 889:Drivers/STM32G4xx_HAL_Driver/Inc/stm32g4xx_ll_gpio.h ****   *         @arg @ref LL_GPIO_PIN_13
 890:Drivers/STM32G4xx_HAL_Driver/Inc/stm32g4xx_ll_gpio.h ****   *         @arg @ref LL_GPIO_PIN_14
 891:Drivers/STM32G4xx_HAL_Driver/Inc/stm32g4xx_ll_gpio.h ****   *         @arg @ref LL_GPIO_PIN_15
 892:Drivers/STM32G4xx_HAL_Driver/Inc/stm32g4xx_ll_gpio.h ****   *         @arg @ref LL_GPIO_PIN_ALL
 893:Drivers/STM32G4xx_HAL_Driver/Inc/stm32g4xx_ll_gpio.h ****   * @retval None
 894:Drivers/STM32G4xx_HAL_Driver/Inc/stm32g4xx_ll_gpio.h ****   */
 895:Drivers/STM32G4xx_HAL_Driver/Inc/stm32g4xx_ll_gpio.h **** __STATIC_INLINE void LL_GPIO_SetOutputPin(GPIO_TypeDef *GPIOx, uint32_t PinMask)
 896:Drivers/STM32G4xx_HAL_Driver/Inc/stm32g4xx_ll_gpio.h **** {
 897:Drivers/STM32G4xx_HAL_Driver/Inc/stm32g4xx_ll_gpio.h ****   WRITE_REG(GPIOx->BSRR, PinMask);
 898:Drivers/STM32G4xx_HAL_Driver/Inc/stm32g4xx_ll_gpio.h **** }
 899:Drivers/STM32G4xx_HAL_Driver/Inc/stm32g4xx_ll_gpio.h **** 
 900:Drivers/STM32G4xx_HAL_Driver/Inc/stm32g4xx_ll_gpio.h **** /**
 901:Drivers/STM32G4xx_HAL_Driver/Inc/stm32g4xx_ll_gpio.h ****   * @brief  Set several pins to low level on dedicated gpio port.
 902:Drivers/STM32G4xx_HAL_Driver/Inc/stm32g4xx_ll_gpio.h ****   * @rmtoll BRR          BRy           LL_GPIO_ResetOutputPin
 903:Drivers/STM32G4xx_HAL_Driver/Inc/stm32g4xx_ll_gpio.h ****   * @param  GPIOx GPIO Port
 904:Drivers/STM32G4xx_HAL_Driver/Inc/stm32g4xx_ll_gpio.h ****   * @param  PinMask This parameter can be a combination of the following values:
 905:Drivers/STM32G4xx_HAL_Driver/Inc/stm32g4xx_ll_gpio.h ****   *         @arg @ref LL_GPIO_PIN_0
 906:Drivers/STM32G4xx_HAL_Driver/Inc/stm32g4xx_ll_gpio.h ****   *         @arg @ref LL_GPIO_PIN_1
 907:Drivers/STM32G4xx_HAL_Driver/Inc/stm32g4xx_ll_gpio.h ****   *         @arg @ref LL_GPIO_PIN_2
 908:Drivers/STM32G4xx_HAL_Driver/Inc/stm32g4xx_ll_gpio.h ****   *         @arg @ref LL_GPIO_PIN_3
 909:Drivers/STM32G4xx_HAL_Driver/Inc/stm32g4xx_ll_gpio.h ****   *         @arg @ref LL_GPIO_PIN_4
 910:Drivers/STM32G4xx_HAL_Driver/Inc/stm32g4xx_ll_gpio.h ****   *         @arg @ref LL_GPIO_PIN_5
 911:Drivers/STM32G4xx_HAL_Driver/Inc/stm32g4xx_ll_gpio.h ****   *         @arg @ref LL_GPIO_PIN_6
 912:Drivers/STM32G4xx_HAL_Driver/Inc/stm32g4xx_ll_gpio.h ****   *         @arg @ref LL_GPIO_PIN_7
 913:Drivers/STM32G4xx_HAL_Driver/Inc/stm32g4xx_ll_gpio.h ****   *         @arg @ref LL_GPIO_PIN_8
 914:Drivers/STM32G4xx_HAL_Driver/Inc/stm32g4xx_ll_gpio.h ****   *         @arg @ref LL_GPIO_PIN_9
 915:Drivers/STM32G4xx_HAL_Driver/Inc/stm32g4xx_ll_gpio.h ****   *         @arg @ref LL_GPIO_PIN_10
 916:Drivers/STM32G4xx_HAL_Driver/Inc/stm32g4xx_ll_gpio.h ****   *         @arg @ref LL_GPIO_PIN_11
 917:Drivers/STM32G4xx_HAL_Driver/Inc/stm32g4xx_ll_gpio.h ****   *         @arg @ref LL_GPIO_PIN_12
 918:Drivers/STM32G4xx_HAL_Driver/Inc/stm32g4xx_ll_gpio.h ****   *         @arg @ref LL_GPIO_PIN_13
 919:Drivers/STM32G4xx_HAL_Driver/Inc/stm32g4xx_ll_gpio.h ****   *         @arg @ref LL_GPIO_PIN_14
 920:Drivers/STM32G4xx_HAL_Driver/Inc/stm32g4xx_ll_gpio.h ****   *         @arg @ref LL_GPIO_PIN_15
 921:Drivers/STM32G4xx_HAL_Driver/Inc/stm32g4xx_ll_gpio.h ****   *         @arg @ref LL_GPIO_PIN_ALL
 922:Drivers/STM32G4xx_HAL_Driver/Inc/stm32g4xx_ll_gpio.h ****   * @retval None
 923:Drivers/STM32G4xx_HAL_Driver/Inc/stm32g4xx_ll_gpio.h ****   */
 924:Drivers/STM32G4xx_HAL_Driver/Inc/stm32g4xx_ll_gpio.h **** __STATIC_INLINE void LL_GPIO_ResetOutputPin(GPIO_TypeDef *GPIOx, uint32_t PinMask)
 925:Drivers/STM32G4xx_HAL_Driver/Inc/stm32g4xx_ll_gpio.h **** {
 550              		.loc 2 925 1
 551              		.cfi_startproc
 552              		@ args = 0, pretend = 0, frame = 8
 553              		@ frame_needed = 1, uses_anonymous_args = 0
 554              		@ link register save eliminated.
 555 0000 80B4     		push	{r7}
 556              	.LCFI6:
 557              		.cfi_def_cfa_offset 4
 558              		.cfi_offset 7, -4
 559 0002 83B0     		sub	sp, sp, #12
 560              	.LCFI7:
 561              		.cfi_def_cfa_offset 16
 562 0004 00AF     		add	r7, sp, #0
 563              	.LCFI8:
 564              		.cfi_def_cfa_register 7
 565 0006 7860     		str	r0, [r7, #4]
ARM GAS  D:\apps\VSCode\data\tmp\cczoc3tE.s 			page 34


 566 0008 3960     		str	r1, [r7]
 926:Drivers/STM32G4xx_HAL_Driver/Inc/stm32g4xx_ll_gpio.h ****   WRITE_REG(GPIOx->BRR, PinMask);
 567              		.loc 2 926 3
 568 000a 7B68     		ldr	r3, [r7, #4]
 569 000c 3A68     		ldr	r2, [r7]
 570 000e 9A62     		str	r2, [r3, #40]
 927:Drivers/STM32G4xx_HAL_Driver/Inc/stm32g4xx_ll_gpio.h **** }
 571              		.loc 2 927 1
 572 0010 00BF     		nop
 573 0012 0C37     		adds	r7, r7, #12
 574              	.LCFI9:
 575              		.cfi_def_cfa_offset 4
 576 0014 BD46     		mov	sp, r7
 577              	.LCFI10:
 578              		.cfi_def_cfa_register 13
 579              		@ sp needed
 580 0016 5DF8047B 		ldr	r7, [sp], #4
 581              	.LCFI11:
 582              		.cfi_restore 7
 583              		.cfi_def_cfa_offset 0
 584 001a 7047     		bx	lr
 585              		.cfi_endproc
 586              	.LFE1963:
 588              		.global	sensorType
 589              		.section	.bss.sensorType,"aw",%nobits
 592              	sensorType:
 593 0000 00       		.space	1
 594              		.section	.text.MX_GPIO_Init,"ax",%progbits
 595              		.align	1
 596              		.global	MX_GPIO_Init
 597              		.syntax unified
 598              		.thumb
 599              		.thumb_func
 600              		.fpu fpv4-sp-d16
 602              	MX_GPIO_Init:
 603              	.LFB1990:
 604              		.file 3 "Src/gpio.c"
   1:Src/gpio.c    **** /**
   2:Src/gpio.c    ****   ******************************************************************************
   3:Src/gpio.c    ****   * File Name          : gpio.c
   4:Src/gpio.c    ****   * Description        : This file provides code for the configuration
   5:Src/gpio.c    ****   *                      of all used GPIO pins.
   6:Src/gpio.c    ****   ******************************************************************************
   7:Src/gpio.c    ****   * @attention
   8:Src/gpio.c    ****   *
   9:Src/gpio.c    ****   * <h2><center>&copy; Copyright (c) 2020 STMicroelectronics.
  10:Src/gpio.c    ****   * All rights reserved.</center></h2>
  11:Src/gpio.c    ****   *
  12:Src/gpio.c    ****   * This software component is licensed by ST under BSD 3-Clause license,
  13:Src/gpio.c    ****   * the "License"; You may not use this file except in compliance with the
  14:Src/gpio.c    ****   * License. You may obtain a copy of the License at:
  15:Src/gpio.c    ****   *                        opensource.org/licenses/BSD-3-Clause
  16:Src/gpio.c    ****   *
  17:Src/gpio.c    ****   ******************************************************************************
  18:Src/gpio.c    ****   */
  19:Src/gpio.c    **** 
  20:Src/gpio.c    **** /* Includes ------------------------------------------------------------------*/
ARM GAS  D:\apps\VSCode\data\tmp\cczoc3tE.s 			page 35


  21:Src/gpio.c    **** #include "gpio.h"
  22:Src/gpio.c    **** /* USER CODE BEGIN 0 */
  23:Src/gpio.c    **** // ----- sensor type defs -------------//
  24:Src/gpio.c    **** #define HALL 0
  25:Src/gpio.c    **** #define ENCODER_ABZ 1
  26:Src/gpio.c    **** #define SENSORLESS 2
  27:Src/gpio.c    **** 
  28:Src/gpio.c    **** uint8_t sensorType = HALL;
  29:Src/gpio.c    **** 
  30:Src/gpio.c    **** /* USER CODE END 0 */
  31:Src/gpio.c    **** 
  32:Src/gpio.c    **** /*----------------------------------------------------------------------------*/
  33:Src/gpio.c    **** /* Configure GPIO                                                             */
  34:Src/gpio.c    **** /*----------------------------------------------------------------------------*/
  35:Src/gpio.c    **** /* USER CODE BEGIN 1 */
  36:Src/gpio.c    **** 
  37:Src/gpio.c    **** /* USER CODE END 1 */
  38:Src/gpio.c    **** 
  39:Src/gpio.c    **** /** Configure pins as 
  40:Src/gpio.c    ****         * Analog 
  41:Src/gpio.c    ****         * Input 
  42:Src/gpio.c    ****         * Output
  43:Src/gpio.c    ****         * EVENT_OUT
  44:Src/gpio.c    ****         * EXTI
  45:Src/gpio.c    ****      PA15   ------> S_TIM2_CH1
  46:Src/gpio.c    ****      PB9   ------> S_TIM8_CH3
  47:Src/gpio.c    **** */
  48:Src/gpio.c    **** void MX_GPIO_Init(void)
  49:Src/gpio.c    **** {
 605              		.loc 3 49 1
 606              		.cfi_startproc
 607              		@ args = 0, pretend = 0, frame = 24
 608              		@ frame_needed = 1, uses_anonymous_args = 0
 609 0000 80B5     		push	{r7, lr}
 610              	.LCFI12:
 611              		.cfi_def_cfa_offset 8
 612              		.cfi_offset 7, -8
 613              		.cfi_offset 14, -4
 614 0002 86B0     		sub	sp, sp, #24
 615              	.LCFI13:
 616              		.cfi_def_cfa_offset 32
 617 0004 00AF     		add	r7, sp, #0
 618              	.LCFI14:
 619              		.cfi_def_cfa_register 7
  50:Src/gpio.c    **** 
  51:Src/gpio.c    ****   //LL_EXTI_InitTypeDef EXTI_InitStruct = {0};
  52:Src/gpio.c    ****   LL_GPIO_InitTypeDef GPIO_InitStruct = {0};
 620              		.loc 3 52 23
 621 0006 3B46     		mov	r3, r7
 622 0008 0022     		movs	r2, #0
 623 000a 1A60     		str	r2, [r3]
 624 000c 5A60     		str	r2, [r3, #4]
 625 000e 9A60     		str	r2, [r3, #8]
 626 0010 DA60     		str	r2, [r3, #12]
 627 0012 1A61     		str	r2, [r3, #16]
 628 0014 5A61     		str	r2, [r3, #20]
  53:Src/gpio.c    **** 
ARM GAS  D:\apps\VSCode\data\tmp\cczoc3tE.s 			page 36


  54:Src/gpio.c    ****   /* GPIO Ports Clock Enable */
  55:Src/gpio.c    ****   LL_AHB2_GRP1_EnableClock(LL_AHB2_GRP1_PERIPH_GPIOF);
 629              		.loc 3 55 3
 630 0016 2020     		movs	r0, #32
 631 0018 FFF7FEFF 		bl	LL_AHB2_GRP1_EnableClock
  56:Src/gpio.c    ****   LL_AHB2_GRP1_EnableClock(LL_AHB2_GRP1_PERIPH_GPIOA);
 632              		.loc 3 56 3
 633 001c 0120     		movs	r0, #1
 634 001e FFF7FEFF 		bl	LL_AHB2_GRP1_EnableClock
  57:Src/gpio.c    ****   LL_AHB2_GRP1_EnableClock(LL_AHB2_GRP1_PERIPH_GPIOC);
 635              		.loc 3 57 3
 636 0022 0420     		movs	r0, #4
 637 0024 FFF7FEFF 		bl	LL_AHB2_GRP1_EnableClock
  58:Src/gpio.c    ****   LL_AHB2_GRP1_EnableClock(LL_AHB2_GRP1_PERIPH_GPIOB);
 638              		.loc 3 58 3
 639 0028 0220     		movs	r0, #2
 640 002a FFF7FEFF 		bl	LL_AHB2_GRP1_EnableClock
  59:Src/gpio.c    **** 
  60:Src/gpio.c    ****   /**/
  61:Src/gpio.c    ****   LL_GPIO_ResetOutputPin(LED_FAULT_GPIO_Port, LED_FAULT_Pin);
 641              		.loc 3 61 3
 642 002e 4FF40051 		mov	r1, #8192
 643 0032 5048     		ldr	r0, .L6
 644 0034 FFF7FEFF 		bl	LL_GPIO_ResetOutputPin
  62:Src/gpio.c    **** 
  63:Src/gpio.c    ****   /**/
  64:Src/gpio.c    ****   LL_GPIO_ResetOutputPin(LED_STATUS_GPIO_Port, LED_STATUS_Pin);
 645              		.loc 3 64 3
 646 0038 4FF48041 		mov	r1, #16384
 647 003c 4D48     		ldr	r0, .L6
 648 003e FFF7FEFF 		bl	LL_GPIO_ResetOutputPin
  65:Src/gpio.c    **** 
  66:Src/gpio.c    ****   /**/
  67:Src/gpio.c    ****   GPIO_InitStruct.Pin = ENABLE_Pin;
 649              		.loc 3 67 23
 650 0042 4FF40063 		mov	r3, #2048
 651 0046 3B60     		str	r3, [r7]
  68:Src/gpio.c    ****   GPIO_InitStruct.Mode = LL_GPIO_MODE_INPUT;
 652              		.loc 3 68 24
 653 0048 0023     		movs	r3, #0
 654 004a 7B60     		str	r3, [r7, #4]
  69:Src/gpio.c    ****   GPIO_InitStruct.Pull = LL_GPIO_PULL_DOWN;
 655              		.loc 3 69 24
 656 004c 0223     		movs	r3, #2
 657 004e 3B61     		str	r3, [r7, #16]
  70:Src/gpio.c    ****   LL_GPIO_Init(ENABLE_GPIO_Port, &GPIO_InitStruct);
 658              		.loc 3 70 3
 659 0050 3B46     		mov	r3, r7
 660 0052 1946     		mov	r1, r3
 661 0054 4748     		ldr	r0, .L6
 662 0056 FFF7FEFF 		bl	LL_GPIO_Init
  71:Src/gpio.c    **** 
  72:Src/gpio.c    ****   /**/
  73:Src/gpio.c    ****   GPIO_InitStruct.Pin = BRAKE_PWM_Pin;
 663              		.loc 3 73 23
 664 005a 4FF40043 		mov	r3, #32768
 665 005e 3B60     		str	r3, [r7]
ARM GAS  D:\apps\VSCode\data\tmp\cczoc3tE.s 			page 37


  74:Src/gpio.c    ****   GPIO_InitStruct.Mode = LL_GPIO_MODE_ALTERNATE;
 666              		.loc 3 74 24
 667 0060 0223     		movs	r3, #2
 668 0062 7B60     		str	r3, [r7, #4]
  75:Src/gpio.c    ****   GPIO_InitStruct.Speed = LL_GPIO_SPEED_FREQ_LOW;
 669              		.loc 3 75 25
 670 0064 0023     		movs	r3, #0
 671 0066 BB60     		str	r3, [r7, #8]
  76:Src/gpio.c    ****   GPIO_InitStruct.OutputType = LL_GPIO_OUTPUT_PUSHPULL;
 672              		.loc 3 76 30
 673 0068 0023     		movs	r3, #0
 674 006a FB60     		str	r3, [r7, #12]
  77:Src/gpio.c    ****   GPIO_InitStruct.Pull = LL_GPIO_PULL_NO;
 675              		.loc 3 77 24
 676 006c 0023     		movs	r3, #0
 677 006e 3B61     		str	r3, [r7, #16]
  78:Src/gpio.c    ****   GPIO_InitStruct.Alternate = LL_GPIO_AF_1;
 678              		.loc 3 78 29
 679 0070 0123     		movs	r3, #1
 680 0072 7B61     		str	r3, [r7, #20]
  79:Src/gpio.c    ****   LL_GPIO_Init(BRAKE_PWM_GPIO_Port, &GPIO_InitStruct);
 681              		.loc 3 79 3
 682 0074 3B46     		mov	r3, r7
 683 0076 1946     		mov	r1, r3
 684 0078 4FF09040 		mov	r0, #1207959552
 685 007c FFF7FEFF 		bl	LL_GPIO_Init
  80:Src/gpio.c    **** 
  81:Src/gpio.c    ****   /**/
  82:Src/gpio.c    ****   GPIO_InitStruct.Pin = LED_FAULT_Pin;
 686              		.loc 3 82 23
 687 0080 4FF40053 		mov	r3, #8192
 688 0084 3B60     		str	r3, [r7]
  83:Src/gpio.c    ****   GPIO_InitStruct.Mode = LL_GPIO_MODE_OUTPUT;
 689              		.loc 3 83 24
 690 0086 0123     		movs	r3, #1
 691 0088 7B60     		str	r3, [r7, #4]
  84:Src/gpio.c    ****   GPIO_InitStruct.Speed = LL_GPIO_SPEED_FREQ_LOW;
 692              		.loc 3 84 25
 693 008a 0023     		movs	r3, #0
 694 008c BB60     		str	r3, [r7, #8]
  85:Src/gpio.c    ****   GPIO_InitStruct.OutputType = LL_GPIO_OUTPUT_PUSHPULL;
 695              		.loc 3 85 30
 696 008e 0023     		movs	r3, #0
 697 0090 FB60     		str	r3, [r7, #12]
  86:Src/gpio.c    ****   GPIO_InitStruct.Pull = LL_GPIO_PULL_NO;
 698              		.loc 3 86 24
 699 0092 0023     		movs	r3, #0
 700 0094 3B61     		str	r3, [r7, #16]
  87:Src/gpio.c    ****   LL_GPIO_Init(LED_FAULT_GPIO_Port, &GPIO_InitStruct);
 701              		.loc 3 87 3
 702 0096 3B46     		mov	r3, r7
 703 0098 1946     		mov	r1, r3
 704 009a 3648     		ldr	r0, .L6
 705 009c FFF7FEFF 		bl	LL_GPIO_Init
  88:Src/gpio.c    **** 
  89:Src/gpio.c    ****   /**/
  90:Src/gpio.c    ****   GPIO_InitStruct.Pin = LED_STATUS_Pin;
ARM GAS  D:\apps\VSCode\data\tmp\cczoc3tE.s 			page 38


 706              		.loc 3 90 23
 707 00a0 4FF48043 		mov	r3, #16384
 708 00a4 3B60     		str	r3, [r7]
  91:Src/gpio.c    ****   GPIO_InitStruct.Mode = LL_GPIO_MODE_OUTPUT;
 709              		.loc 3 91 24
 710 00a6 0123     		movs	r3, #1
 711 00a8 7B60     		str	r3, [r7, #4]
  92:Src/gpio.c    ****   GPIO_InitStruct.Speed = LL_GPIO_SPEED_FREQ_LOW;
 712              		.loc 3 92 25
 713 00aa 0023     		movs	r3, #0
 714 00ac BB60     		str	r3, [r7, #8]
  93:Src/gpio.c    ****   GPIO_InitStruct.OutputType = LL_GPIO_OUTPUT_PUSHPULL;
 715              		.loc 3 93 30
 716 00ae 0023     		movs	r3, #0
 717 00b0 FB60     		str	r3, [r7, #12]
  94:Src/gpio.c    ****   GPIO_InitStruct.Pull = LL_GPIO_PULL_NO;
 718              		.loc 3 94 24
 719 00b2 0023     		movs	r3, #0
 720 00b4 3B61     		str	r3, [r7, #16]
  95:Src/gpio.c    ****   LL_GPIO_Init(LED_STATUS_GPIO_Port, &GPIO_InitStruct);
 721              		.loc 3 95 3
 722 00b6 3B46     		mov	r3, r7
 723 00b8 1946     		mov	r1, r3
 724 00ba 2E48     		ldr	r0, .L6
 725 00bc FFF7FEFF 		bl	LL_GPIO_Init
  96:Src/gpio.c    **** 
  97:Src/gpio.c    ****   /**/
  98:Src/gpio.c    ****   GPIO_InitStruct.Pin = SPEED_PWM_Pin;
 726              		.loc 3 98 23
 727 00c0 2023     		movs	r3, #32
 728 00c2 3B60     		str	r3, [r7]
  99:Src/gpio.c    ****   GPIO_InitStruct.Mode = LL_GPIO_MODE_ALTERNATE;
 729              		.loc 3 99 24
 730 00c4 0223     		movs	r3, #2
 731 00c6 7B60     		str	r3, [r7, #4]
 100:Src/gpio.c    ****   GPIO_InitStruct.Speed = LL_GPIO_SPEED_FREQ_LOW;
 732              		.loc 3 100 25
 733 00c8 0023     		movs	r3, #0
 734 00ca BB60     		str	r3, [r7, #8]
 101:Src/gpio.c    ****   GPIO_InitStruct.OutputType = LL_GPIO_OUTPUT_PUSHPULL;
 735              		.loc 3 101 30
 736 00cc 0023     		movs	r3, #0
 737 00ce FB60     		str	r3, [r7, #12]
 102:Src/gpio.c    ****   GPIO_InitStruct.Pull = LL_GPIO_PULL_NO;
 738              		.loc 3 102 24
 739 00d0 0023     		movs	r3, #0
 740 00d2 3B61     		str	r3, [r7, #16]
 103:Src/gpio.c    ****   GPIO_InitStruct.Alternate = LL_GPIO_AF_10;
 741              		.loc 3 103 29
 742 00d4 0A23     		movs	r3, #10
 743 00d6 7B61     		str	r3, [r7, #20]
 104:Src/gpio.c    ****   LL_GPIO_Init(SPEED_PWM_GPIO_Port, &GPIO_InitStruct);
 744              		.loc 3 104 3
 745 00d8 3B46     		mov	r3, r7
 746 00da 1946     		mov	r1, r3
 747 00dc 2648     		ldr	r0, .L6+4
 748 00de FFF7FEFF 		bl	LL_GPIO_Init
ARM GAS  D:\apps\VSCode\data\tmp\cczoc3tE.s 			page 39


 105:Src/gpio.c    **** 
 106:Src/gpio.c    ****   /**/
 107:Src/gpio.c    ****   GPIO_InitStruct.Pin = LL_GPIO_PIN_5;
 749              		.loc 3 107 23
 750 00e2 2023     		movs	r3, #32
 751 00e4 3B60     		str	r3, [r7]
 108:Src/gpio.c    ****   GPIO_InitStruct.Mode = LL_GPIO_MODE_INPUT;
 752              		.loc 3 108 24
 753 00e6 0023     		movs	r3, #0
 754 00e8 7B60     		str	r3, [r7, #4]
 109:Src/gpio.c    ****   GPIO_InitStruct.Pull = LL_GPIO_PULL_NO;
 755              		.loc 3 109 24
 756 00ea 0023     		movs	r3, #0
 757 00ec 3B61     		str	r3, [r7, #16]
 110:Src/gpio.c    ****   LL_GPIO_Init(GPIOB, &GPIO_InitStruct);
 758              		.loc 3 110 3
 759 00ee 3B46     		mov	r3, r7
 760 00f0 1946     		mov	r1, r3
 761 00f2 2148     		ldr	r0, .L6+4
 762 00f4 FFF7FEFF 		bl	LL_GPIO_Init
 111:Src/gpio.c    ****   /**/
 112:Src/gpio.c    ****   GPIO_InitStruct.Pin = LL_GPIO_PIN_6;
 763              		.loc 3 112 23
 764 00f8 4023     		movs	r3, #64
 765 00fa 3B60     		str	r3, [r7]
 113:Src/gpio.c    ****   GPIO_InitStruct.Mode = LL_GPIO_MODE_INPUT;
 766              		.loc 3 113 24
 767 00fc 0023     		movs	r3, #0
 768 00fe 7B60     		str	r3, [r7, #4]
 114:Src/gpio.c    ****   GPIO_InitStruct.Pull = LL_GPIO_PULL_NO;
 769              		.loc 3 114 24
 770 0100 0023     		movs	r3, #0
 771 0102 3B61     		str	r3, [r7, #16]
 115:Src/gpio.c    ****   LL_GPIO_Init(GPIOB, &GPIO_InitStruct);
 772              		.loc 3 115 3
 773 0104 3B46     		mov	r3, r7
 774 0106 1946     		mov	r1, r3
 775 0108 1B48     		ldr	r0, .L6+4
 776 010a FFF7FEFF 		bl	LL_GPIO_Init
 116:Src/gpio.c    **** 
 117:Src/gpio.c    ****   // HALL
 118:Src/gpio.c    ****   GPIO_InitStruct.Pin = HALL_PHASE_A_Pin;
 777              		.loc 3 118 23
 778 010e 8023     		movs	r3, #128
 779 0110 3B60     		str	r3, [r7]
 119:Src/gpio.c    ****   GPIO_InitStruct.Mode = LL_GPIO_MODE_INPUT;
 780              		.loc 3 119 24
 781 0112 0023     		movs	r3, #0
 782 0114 7B60     		str	r3, [r7, #4]
 120:Src/gpio.c    ****   GPIO_InitStruct.Pull = LL_GPIO_PULL_NO;
 783              		.loc 3 120 24
 784 0116 0023     		movs	r3, #0
 785 0118 3B61     		str	r3, [r7, #16]
 121:Src/gpio.c    ****   LL_GPIO_Init(HALL_PHASE_A_GPIO_Port, &GPIO_InitStruct);
 786              		.loc 3 121 3
 787 011a 3B46     		mov	r3, r7
 788 011c 1946     		mov	r1, r3
ARM GAS  D:\apps\VSCode\data\tmp\cczoc3tE.s 			page 40


 789 011e 1648     		ldr	r0, .L6+4
 790 0120 FFF7FEFF 		bl	LL_GPIO_Init
 122:Src/gpio.c    **** 
 123:Src/gpio.c    ****   GPIO_InitStruct.Pin = HALL_PHASE_B_Pin;
 791              		.loc 3 123 23
 792 0124 4FF48073 		mov	r3, #256
 793 0128 3B60     		str	r3, [r7]
 124:Src/gpio.c    ****   GPIO_InitStruct.Mode = LL_GPIO_MODE_INPUT;
 794              		.loc 3 124 24
 795 012a 0023     		movs	r3, #0
 796 012c 7B60     		str	r3, [r7, #4]
 125:Src/gpio.c    ****   GPIO_InitStruct.Pull = LL_GPIO_PULL_NO;
 797              		.loc 3 125 24
 798 012e 0023     		movs	r3, #0
 799 0130 3B61     		str	r3, [r7, #16]
 126:Src/gpio.c    ****   LL_GPIO_Init(HALL_PHASE_B_GPIO_Port, &GPIO_InitStruct);
 800              		.loc 3 126 3
 801 0132 3B46     		mov	r3, r7
 802 0134 1946     		mov	r1, r3
 803 0136 1048     		ldr	r0, .L6+4
 804 0138 FFF7FEFF 		bl	LL_GPIO_Init
 127:Src/gpio.c    ****   /**/
 128:Src/gpio.c    ****   GPIO_InitStruct.Pin = HALL_PHASE_C_Pin;
 805              		.loc 3 128 23
 806 013c 4FF40073 		mov	r3, #512
 807 0140 3B60     		str	r3, [r7]
 129:Src/gpio.c    ****   GPIO_InitStruct.Mode = LL_GPIO_MODE_INPUT;
 808              		.loc 3 129 24
 809 0142 0023     		movs	r3, #0
 810 0144 7B60     		str	r3, [r7, #4]
 130:Src/gpio.c    ****   GPIO_InitStruct.Pull = LL_GPIO_PULL_NO;
 811              		.loc 3 130 24
 812 0146 0023     		movs	r3, #0
 813 0148 3B61     		str	r3, [r7, #16]
 131:Src/gpio.c    ****   LL_GPIO_Init(HALL_PHASE_C_GPIO_Port, &GPIO_InitStruct);
 814              		.loc 3 131 3
 815 014a 3B46     		mov	r3, r7
 816 014c 1946     		mov	r1, r3
 817 014e 0A48     		ldr	r0, .L6+4
 818 0150 FFF7FEFF 		bl	LL_GPIO_Init
 132:Src/gpio.c    ****   /**/
 133:Src/gpio.c    ****   GPIO_InitStruct.Pin = DIR_Pin;
 819              		.loc 3 133 23
 820 0154 1023     		movs	r3, #16
 821 0156 3B60     		str	r3, [r7]
 134:Src/gpio.c    ****   GPIO_InitStruct.Mode = LL_GPIO_MODE_INPUT;
 822              		.loc 3 134 24
 823 0158 0023     		movs	r3, #0
 824 015a 7B60     		str	r3, [r7, #4]
 135:Src/gpio.c    ****   GPIO_InitStruct.Pull = LL_GPIO_PULL_NO;
 825              		.loc 3 135 24
 826 015c 0023     		movs	r3, #0
 827 015e 3B61     		str	r3, [r7, #16]
 136:Src/gpio.c    ****   LL_GPIO_Init(DIR_GPIO_Port, &GPIO_InitStruct);
 828              		.loc 3 136 3
 829 0160 3B46     		mov	r3, r7
 830 0162 1946     		mov	r1, r3
ARM GAS  D:\apps\VSCode\data\tmp\cczoc3tE.s 			page 41


 831 0164 4FF09040 		mov	r0, #1207959552
 832 0168 FFF7FEFF 		bl	LL_GPIO_Init
 137:Src/gpio.c    **** }
 833              		.loc 3 137 1
 834 016c 00BF     		nop
 835 016e 1837     		adds	r7, r7, #24
 836              	.LCFI15:
 837              		.cfi_def_cfa_offset 8
 838 0170 BD46     		mov	sp, r7
 839              	.LCFI16:
 840              		.cfi_def_cfa_register 13
 841              		@ sp needed
 842 0172 80BD     		pop	{r7, pc}
 843              	.L7:
 844              		.align	2
 845              	.L6:
 846 0174 00080048 		.word	1207961600
 847 0178 00040048 		.word	1207960576
 848              		.cfi_endproc
 849              	.LFE1990:
 851              		.text
 852              	.Letext0:
 853              		.file 4 "d:\\apps\\embedded_gcc\\arm_gcc\\arm-none-eabi\\include\\machine\\_default_types.h"
 854              		.file 5 "d:\\apps\\embedded_gcc\\arm_gcc\\arm-none-eabi\\include\\sys\\_stdint.h"
 855              		.file 6 "Drivers/CMSIS/Include/core_cm4.h"
 856              		.file 7 "Drivers/CMSIS/Device/ST/STM32G4xx/Include/system_stm32g4xx.h"
 857              		.file 8 "Drivers/CMSIS/Device/ST/STM32G4xx/Include/stm32g474xx.h"
 858              		.file 9 "Drivers/STM32G4xx_HAL_Driver/Inc/stm32g4xx_ll_hrtim.h"
 859              		.file 10 "Drivers/STM32G4xx_HAL_Driver/Inc/stm32g4xx_ll_dma.h"
 860              		.file 11 "Drivers/STM32G4xx_HAL_Driver/Inc/stm32g4xx_ll_tim.h"
 861              		.file 12 "Drivers/STM32G4xx_HAL_Driver/Inc/stm32g4xx_ll_usart.h"
 862              		.file 13 "d:\\apps\\embedded_gcc\\arm_gcc\\arm-none-eabi\\include\\sys\\lock.h"
 863              		.file 14 "d:\\apps\\embedded_gcc\\arm_gcc\\arm-none-eabi\\include\\sys\\_types.h"
 864              		.file 15 "d:\\apps\\embedded_gcc\\arm_gcc\\lib\\gcc\\arm-none-eabi\\8.2.1\\include\\stddef.h"
 865              		.file 16 "d:\\apps\\embedded_gcc\\arm_gcc\\arm-none-eabi\\include\\sys\\reent.h"
 866              		.file 17 "d:\\apps\\embedded_gcc\\arm_gcc\\arm-none-eabi\\include\\math.h"
ARM GAS  D:\apps\VSCode\data\tmp\cczoc3tE.s 			page 42

