ARM GAS  D:\apps\VSCode\data\tmp\ccNKRXCB.s 			page 1


   1              		.cpu cortex-m4
   2              		.eabi_attribute 27, 1
   3              		.eabi_attribute 28, 1
   4              		.eabi_attribute 20, 1
   5              		.eabi_attribute 21, 1
   6              		.eabi_attribute 23, 3
   7              		.eabi_attribute 24, 1
   8              		.eabi_attribute 25, 1
   9              		.eabi_attribute 26, 1
  10              		.eabi_attribute 30, 2
  11              		.eabi_attribute 34, 1
  12              		.eabi_attribute 18, 4
  13              		.file	"hrtim.c"
  14              		.text
  15              	.Ltext0:
  16              		.cfi_sections	.debug_frame
  17              		.section	.text.hrtim_start,"ax",%progbits
  18              		.align	1
  19              		.p2align 2,,3
  20              		.global	hrtim_start
  21              		.arch armv7e-m
  22              		.syntax unified
  23              		.thumb
  24              		.thumb_func
  25              		.fpu fpv4-sp-d16
  27              	hrtim_start:
  28              	.LVL0:
  29              	.LFB2057:
  30              		.file 1 "Src/hrtim.c"
   1:Src/hrtim.c   **** /**
   2:Src/hrtim.c   ****   ******************************************************************************
   3:Src/hrtim.c   ****   * File Name          : HRTIM.c
   4:Src/hrtim.c   ****   * Description        : This file provides code for the configuration
   5:Src/hrtim.c   ****   *                      of the HRTIM instances.
   6:Src/hrtim.c   ****   ******************************************************************************
   7:Src/hrtim.c   ****   * @attention
   8:Src/hrtim.c   ****   *
   9:Src/hrtim.c   ****   * <h2><center>&copy; Copyright (c) 2020 STMicroelectronics.
  10:Src/hrtim.c   ****   * All rights reserved.</center></h2>
  11:Src/hrtim.c   ****   *
  12:Src/hrtim.c   ****   * This software component is licensed by ST under BSD 3-Clause license,
  13:Src/hrtim.c   ****   * the "License"; You may not use this file except in compliance with the
  14:Src/hrtim.c   ****   * License. You may obtain a copy of the License at:
  15:Src/hrtim.c   ****   *                        opensource.org/licenses/BSD-3-Clause
  16:Src/hrtim.c   ****   *
  17:Src/hrtim.c   ****   ******************************************************************************
  18:Src/hrtim.c   ****   */
  19:Src/hrtim.c   **** 
  20:Src/hrtim.c   **** /* Includes ------------------------------------------------------------------*/
  21:Src/hrtim.c   **** #include "hrtim.h"
  22:Src/hrtim.c   **** 
  23:Src/hrtim.c   **** /* USER CODE BEGIN 0 */
  24:Src/hrtim.c   **** 
  25:Src/hrtim.c   **** void hrtim_start(volatile float pwmFreq, volatile float deadtime_ns, uint32_t pwmPeriod_adcTrig_rat
  26:Src/hrtim.c   **** {
  31              		.loc 1 26 1 view -0
  32              		.cfi_startproc
ARM GAS  D:\apps\VSCode\data\tmp\ccNKRXCB.s 			page 2


  33              		@ args = 0, pretend = 0, frame = 8
  34              		@ frame_needed = 0, uses_anonymous_args = 0
  27:Src/hrtim.c   ****   *halfPeriod = (340000000.0f / pwmFreq) / 4.0f;
  35              		.loc 1 27 3 view .LVU1
  26:Src/hrtim.c   ****   *halfPeriod = (340000000.0f / pwmFreq) / 4.0f;
  36              		.loc 1 26 1 is_stmt 0 view .LVU2
  37 0000 2DE9F047 		push	{r4, r5, r6, r7, r8, r9, r10, lr}
  38              	.LCFI0:
  39              		.cfi_def_cfa_offset 32
  40              		.cfi_offset 4, -32
  41              		.cfi_offset 5, -28
  42              		.cfi_offset 6, -24
  43              		.cfi_offset 7, -20
  44              		.cfi_offset 8, -16
  45              		.cfi_offset 9, -12
  46              		.cfi_offset 10, -8
  47              		.cfi_offset 14, -4
  48 0004 82B0     		sub	sp, sp, #8
  49              	.LCFI1:
  50              		.cfi_def_cfa_offset 40
  26:Src/hrtim.c   ****   *halfPeriod = (340000000.0f / pwmFreq) / 4.0f;
  51              		.loc 1 26 1 view .LVU3
  52 0006 8DED010A 		vstr.32	s0, [sp, #4]
  53 000a CDED000A 		vstr.32	s1, [sp]
  54              		.loc 1 27 31 view .LVU4
  55 000e 9DED017A 		vldr.32	s14, [sp, #4]
  56 0012 DFEDD36A 		vldr.32	s13, .L4
  57              	.LBB1028:
  58              	.LBB1029:
  59              		.file 2 "Drivers/STM32G4xx_HAL_Driver/Inc/stm32g4xx_ll_hrtim.h"
   1:Drivers/STM32G4xx_HAL_Driver/Inc/stm32g4xx_ll_hrtim.h **** /**
   2:Drivers/STM32G4xx_HAL_Driver/Inc/stm32g4xx_ll_hrtim.h ****   ******************************************************************************
   3:Drivers/STM32G4xx_HAL_Driver/Inc/stm32g4xx_ll_hrtim.h ****   * @file    stm32g4xx_ll_hrtim.h
   4:Drivers/STM32G4xx_HAL_Driver/Inc/stm32g4xx_ll_hrtim.h ****   * @author  MCD Application Team
   5:Drivers/STM32G4xx_HAL_Driver/Inc/stm32g4xx_ll_hrtim.h ****   * @brief   Header file of HRTIM LL module.
   6:Drivers/STM32G4xx_HAL_Driver/Inc/stm32g4xx_ll_hrtim.h ****   ******************************************************************************
   7:Drivers/STM32G4xx_HAL_Driver/Inc/stm32g4xx_ll_hrtim.h ****   * @attention
   8:Drivers/STM32G4xx_HAL_Driver/Inc/stm32g4xx_ll_hrtim.h ****   *
   9:Drivers/STM32G4xx_HAL_Driver/Inc/stm32g4xx_ll_hrtim.h ****   * <h2><center>&copy; Copyright (c) 2019 STMicroelectronics.
  10:Drivers/STM32G4xx_HAL_Driver/Inc/stm32g4xx_ll_hrtim.h ****   * All rights reserved.</center></h2>
  11:Drivers/STM32G4xx_HAL_Driver/Inc/stm32g4xx_ll_hrtim.h ****   *
  12:Drivers/STM32G4xx_HAL_Driver/Inc/stm32g4xx_ll_hrtim.h ****   * This software component is licensed by ST under BSD 3-Clause license,
  13:Drivers/STM32G4xx_HAL_Driver/Inc/stm32g4xx_ll_hrtim.h ****   * the "License"; You may not use this file except in compliance with the
  14:Drivers/STM32G4xx_HAL_Driver/Inc/stm32g4xx_ll_hrtim.h ****   * License. You may obtain a copy of the License at:
  15:Drivers/STM32G4xx_HAL_Driver/Inc/stm32g4xx_ll_hrtim.h ****   *                        opensource.org/licenses/BSD-3-Clause
  16:Drivers/STM32G4xx_HAL_Driver/Inc/stm32g4xx_ll_hrtim.h ****   *
  17:Drivers/STM32G4xx_HAL_Driver/Inc/stm32g4xx_ll_hrtim.h ****   ******************************************************************************
  18:Drivers/STM32G4xx_HAL_Driver/Inc/stm32g4xx_ll_hrtim.h ****   */
  19:Drivers/STM32G4xx_HAL_Driver/Inc/stm32g4xx_ll_hrtim.h **** 
  20:Drivers/STM32G4xx_HAL_Driver/Inc/stm32g4xx_ll_hrtim.h **** /* Define to prevent recursive inclusion -------------------------------------*/
  21:Drivers/STM32G4xx_HAL_Driver/Inc/stm32g4xx_ll_hrtim.h **** #ifndef STM32G4xx_LL_HRTIM_H
  22:Drivers/STM32G4xx_HAL_Driver/Inc/stm32g4xx_ll_hrtim.h **** #define STM32G4xx_LL_HRTIM_H
  23:Drivers/STM32G4xx_HAL_Driver/Inc/stm32g4xx_ll_hrtim.h **** 
  24:Drivers/STM32G4xx_HAL_Driver/Inc/stm32g4xx_ll_hrtim.h **** #ifdef __cplusplus
  25:Drivers/STM32G4xx_HAL_Driver/Inc/stm32g4xx_ll_hrtim.h **** extern "C" {
  26:Drivers/STM32G4xx_HAL_Driver/Inc/stm32g4xx_ll_hrtim.h **** #endif
  27:Drivers/STM32G4xx_HAL_Driver/Inc/stm32g4xx_ll_hrtim.h **** 
ARM GAS  D:\apps\VSCode\data\tmp\ccNKRXCB.s 			page 3


  28:Drivers/STM32G4xx_HAL_Driver/Inc/stm32g4xx_ll_hrtim.h **** /* Includes ------------------------------------------------------------------*/
  29:Drivers/STM32G4xx_HAL_Driver/Inc/stm32g4xx_ll_hrtim.h **** #include "stm32g4xx.h"
  30:Drivers/STM32G4xx_HAL_Driver/Inc/stm32g4xx_ll_hrtim.h **** 
  31:Drivers/STM32G4xx_HAL_Driver/Inc/stm32g4xx_ll_hrtim.h **** /** @addtogroup STM32G4xx_LL_Driver
  32:Drivers/STM32G4xx_HAL_Driver/Inc/stm32g4xx_ll_hrtim.h ****   * @{
  33:Drivers/STM32G4xx_HAL_Driver/Inc/stm32g4xx_ll_hrtim.h ****   */
  34:Drivers/STM32G4xx_HAL_Driver/Inc/stm32g4xx_ll_hrtim.h **** 
  35:Drivers/STM32G4xx_HAL_Driver/Inc/stm32g4xx_ll_hrtim.h **** #if defined (HRTIM1)
  36:Drivers/STM32G4xx_HAL_Driver/Inc/stm32g4xx_ll_hrtim.h **** 
  37:Drivers/STM32G4xx_HAL_Driver/Inc/stm32g4xx_ll_hrtim.h **** /** @defgroup HRTIM_LL HRTIM
  38:Drivers/STM32G4xx_HAL_Driver/Inc/stm32g4xx_ll_hrtim.h ****   * @{
  39:Drivers/STM32G4xx_HAL_Driver/Inc/stm32g4xx_ll_hrtim.h ****   */
  40:Drivers/STM32G4xx_HAL_Driver/Inc/stm32g4xx_ll_hrtim.h **** 
  41:Drivers/STM32G4xx_HAL_Driver/Inc/stm32g4xx_ll_hrtim.h **** /* Private types -------------------------------------------------------------*/
  42:Drivers/STM32G4xx_HAL_Driver/Inc/stm32g4xx_ll_hrtim.h **** /* Private variables ---------------------------------------------------------*/
  43:Drivers/STM32G4xx_HAL_Driver/Inc/stm32g4xx_ll_hrtim.h **** /** @defgroup HRTIM_LL_Private_Variables HRTIM Private Variables
  44:Drivers/STM32G4xx_HAL_Driver/Inc/stm32g4xx_ll_hrtim.h ****   * @{
  45:Drivers/STM32G4xx_HAL_Driver/Inc/stm32g4xx_ll_hrtim.h ****   */
  46:Drivers/STM32G4xx_HAL_Driver/Inc/stm32g4xx_ll_hrtim.h **** static const uint16_t REG_OFFSET_TAB_TIMER[] =
  47:Drivers/STM32G4xx_HAL_Driver/Inc/stm32g4xx_ll_hrtim.h **** {
  48:Drivers/STM32G4xx_HAL_Driver/Inc/stm32g4xx_ll_hrtim.h ****   0x00U,   /* 0: MASTER  */
  49:Drivers/STM32G4xx_HAL_Driver/Inc/stm32g4xx_ll_hrtim.h ****   0x80U,   /* 1: TIMER A */
  50:Drivers/STM32G4xx_HAL_Driver/Inc/stm32g4xx_ll_hrtim.h ****   0x100U,  /* 2: TIMER B */
  51:Drivers/STM32G4xx_HAL_Driver/Inc/stm32g4xx_ll_hrtim.h ****   0x180U,  /* 3: TIMER C */
  52:Drivers/STM32G4xx_HAL_Driver/Inc/stm32g4xx_ll_hrtim.h ****   0x200U,  /* 4: TIMER D */
  53:Drivers/STM32G4xx_HAL_Driver/Inc/stm32g4xx_ll_hrtim.h ****   0x280U,  /* 5: TIMER E */
  54:Drivers/STM32G4xx_HAL_Driver/Inc/stm32g4xx_ll_hrtim.h ****   0x300U,  /* 6: TIMER F */
  55:Drivers/STM32G4xx_HAL_Driver/Inc/stm32g4xx_ll_hrtim.h **** };
  56:Drivers/STM32G4xx_HAL_Driver/Inc/stm32g4xx_ll_hrtim.h **** 
  57:Drivers/STM32G4xx_HAL_Driver/Inc/stm32g4xx_ll_hrtim.h **** static const uint8_t REG_OFFSET_TAB_ADCER[] =
  58:Drivers/STM32G4xx_HAL_Driver/Inc/stm32g4xx_ll_hrtim.h **** {
  59:Drivers/STM32G4xx_HAL_Driver/Inc/stm32g4xx_ll_hrtim.h ****   0x00U,    /* LL_HRTIM_ADCTRIG_1:  HRTIM_ADC1R */
  60:Drivers/STM32G4xx_HAL_Driver/Inc/stm32g4xx_ll_hrtim.h ****   0x04U,    /* LL_HRTIM_ADCTRIG_2:  HRTIM_ADC2R */
  61:Drivers/STM32G4xx_HAL_Driver/Inc/stm32g4xx_ll_hrtim.h ****   0x08U,    /* LL_HRTIM_ADCTRIG_3:  HRTIM_ADC3R */
  62:Drivers/STM32G4xx_HAL_Driver/Inc/stm32g4xx_ll_hrtim.h ****   0x0CU,    /* LL_HRTIM_ADCTRIG_4:  HRTIM_ADC4R */
  63:Drivers/STM32G4xx_HAL_Driver/Inc/stm32g4xx_ll_hrtim.h ****   0x3CU,    /* LL_HRTIM_ADCTRIG_5:  HRTIM_ADCER */
  64:Drivers/STM32G4xx_HAL_Driver/Inc/stm32g4xx_ll_hrtim.h ****   0x3CU,    /* LL_HRTIM_ADCTRIG_6:  HRTIM_ADCER */
  65:Drivers/STM32G4xx_HAL_Driver/Inc/stm32g4xx_ll_hrtim.h ****   0x3CU,    /* LL_HRTIM_ADCTRIG_7:  HRTIM_ADCER */
  66:Drivers/STM32G4xx_HAL_Driver/Inc/stm32g4xx_ll_hrtim.h ****   0x3CU,    /* LL_HRTIM_ADCTRIG_8:  HRTIM_ADCER */
  67:Drivers/STM32G4xx_HAL_Driver/Inc/stm32g4xx_ll_hrtim.h ****   0x3CU,    /* LL_HRTIM_ADCTRIG_9:  HRTIM_ADCER */
  68:Drivers/STM32G4xx_HAL_Driver/Inc/stm32g4xx_ll_hrtim.h ****   0x3CU,    /* LL_HRTIM_ADCTRIG_10: HRTIM_ADCER */
  69:Drivers/STM32G4xx_HAL_Driver/Inc/stm32g4xx_ll_hrtim.h **** };
  70:Drivers/STM32G4xx_HAL_Driver/Inc/stm32g4xx_ll_hrtim.h **** 
  71:Drivers/STM32G4xx_HAL_Driver/Inc/stm32g4xx_ll_hrtim.h **** static const uint8_t REG_OFFSET_TAB_ADCUR[] =
  72:Drivers/STM32G4xx_HAL_Driver/Inc/stm32g4xx_ll_hrtim.h **** {
  73:Drivers/STM32G4xx_HAL_Driver/Inc/stm32g4xx_ll_hrtim.h ****   0x00U,    /* LL_HRTIM_ADCTRIG_1:  HRTIM_CR1   */
  74:Drivers/STM32G4xx_HAL_Driver/Inc/stm32g4xx_ll_hrtim.h ****   0x00U,    /* LL_HRTIM_ADCTRIG_2:  HRTIM_CR1   */
  75:Drivers/STM32G4xx_HAL_Driver/Inc/stm32g4xx_ll_hrtim.h ****   0x00U,    /* LL_HRTIM_ADCTRIG_3:  HRTIM_CR1   */
  76:Drivers/STM32G4xx_HAL_Driver/Inc/stm32g4xx_ll_hrtim.h ****   0x00U,    /* LL_HRTIM_ADCTRIG_4:  HRTIM_CR1   */
  77:Drivers/STM32G4xx_HAL_Driver/Inc/stm32g4xx_ll_hrtim.h ****   0x7CU,    /* LL_HRTIM_ADCTRIG_5:  HRTIM_ADCUR */
  78:Drivers/STM32G4xx_HAL_Driver/Inc/stm32g4xx_ll_hrtim.h ****   0x7CU,    /* LL_HRTIM_ADCTRIG_6:  HRTIM_ADCUR */
  79:Drivers/STM32G4xx_HAL_Driver/Inc/stm32g4xx_ll_hrtim.h ****   0x7CU,    /* LL_HRTIM_ADCTRIG_7:  HRTIM_ADCUR */
  80:Drivers/STM32G4xx_HAL_Driver/Inc/stm32g4xx_ll_hrtim.h ****   0x7CU,    /* LL_HRTIM_ADCTRIG_8:  HRTIM_ADCUR */
  81:Drivers/STM32G4xx_HAL_Driver/Inc/stm32g4xx_ll_hrtim.h ****   0x7CU,    /* LL_HRTIM_ADCTRIG_9:  HRTIM_ADCUR */
  82:Drivers/STM32G4xx_HAL_Driver/Inc/stm32g4xx_ll_hrtim.h ****   0x7CU,    /* LL_HRTIM_ADCTRIG_10: HRTIM_ADCUR */
  83:Drivers/STM32G4xx_HAL_Driver/Inc/stm32g4xx_ll_hrtim.h **** };
  84:Drivers/STM32G4xx_HAL_Driver/Inc/stm32g4xx_ll_hrtim.h **** 
ARM GAS  D:\apps\VSCode\data\tmp\ccNKRXCB.s 			page 4


  85:Drivers/STM32G4xx_HAL_Driver/Inc/stm32g4xx_ll_hrtim.h **** static const uint8_t REG_SHIFT_TAB_ADCER[] =
  86:Drivers/STM32G4xx_HAL_Driver/Inc/stm32g4xx_ll_hrtim.h **** {
  87:Drivers/STM32G4xx_HAL_Driver/Inc/stm32g4xx_ll_hrtim.h ****   0,   /* LL_HRTIM_ADCTRIG_1  */
  88:Drivers/STM32G4xx_HAL_Driver/Inc/stm32g4xx_ll_hrtim.h ****   0,   /* LL_HRTIM_ADCTRIG_2  */
  89:Drivers/STM32G4xx_HAL_Driver/Inc/stm32g4xx_ll_hrtim.h ****   0,   /* LL_HRTIM_ADCTRIG_3  */
  90:Drivers/STM32G4xx_HAL_Driver/Inc/stm32g4xx_ll_hrtim.h ****   0,   /* LL_HRTIM_ADCTRIG_4  */
  91:Drivers/STM32G4xx_HAL_Driver/Inc/stm32g4xx_ll_hrtim.h ****   0,   /* LL_HRTIM_ADCTRIG_5  */
  92:Drivers/STM32G4xx_HAL_Driver/Inc/stm32g4xx_ll_hrtim.h ****   5,   /* LL_HRTIM_ADCTRIG_6  */
  93:Drivers/STM32G4xx_HAL_Driver/Inc/stm32g4xx_ll_hrtim.h ****   10,  /* LL_HRTIM_ADCTRIG_7  */
  94:Drivers/STM32G4xx_HAL_Driver/Inc/stm32g4xx_ll_hrtim.h ****   16,  /* LL_HRTIM_ADCTRIG_8  */
  95:Drivers/STM32G4xx_HAL_Driver/Inc/stm32g4xx_ll_hrtim.h ****   21,  /* LL_HRTIM_ADCTRIG_9  */
  96:Drivers/STM32G4xx_HAL_Driver/Inc/stm32g4xx_ll_hrtim.h ****   26   /* LL_HRTIM_ADCTRIG_10 */
  97:Drivers/STM32G4xx_HAL_Driver/Inc/stm32g4xx_ll_hrtim.h **** };
  98:Drivers/STM32G4xx_HAL_Driver/Inc/stm32g4xx_ll_hrtim.h **** 
  99:Drivers/STM32G4xx_HAL_Driver/Inc/stm32g4xx_ll_hrtim.h **** static const uint8_t REG_SHIFT_TAB_ADCUR[] =
 100:Drivers/STM32G4xx_HAL_Driver/Inc/stm32g4xx_ll_hrtim.h **** {
 101:Drivers/STM32G4xx_HAL_Driver/Inc/stm32g4xx_ll_hrtim.h ****   16,   /* LL_HRTIM_ADCTRIG_1  */
 102:Drivers/STM32G4xx_HAL_Driver/Inc/stm32g4xx_ll_hrtim.h ****   19,   /* LL_HRTIM_ADCTRIG_2  */
 103:Drivers/STM32G4xx_HAL_Driver/Inc/stm32g4xx_ll_hrtim.h ****   22,   /* LL_HRTIM_ADCTRIG_3  */
 104:Drivers/STM32G4xx_HAL_Driver/Inc/stm32g4xx_ll_hrtim.h ****   25,   /* LL_HRTIM_ADCTRIG_4  */
 105:Drivers/STM32G4xx_HAL_Driver/Inc/stm32g4xx_ll_hrtim.h ****   0,    /* LL_HRTIM_ADCTRIG_5  */
 106:Drivers/STM32G4xx_HAL_Driver/Inc/stm32g4xx_ll_hrtim.h ****   4,    /* LL_HRTIM_ADCTRIG_6  */
 107:Drivers/STM32G4xx_HAL_Driver/Inc/stm32g4xx_ll_hrtim.h ****   8,    /* LL_HRTIM_ADCTRIG_7  */
 108:Drivers/STM32G4xx_HAL_Driver/Inc/stm32g4xx_ll_hrtim.h ****   12,   /* LL_HRTIM_ADCTRIG_8  */
 109:Drivers/STM32G4xx_HAL_Driver/Inc/stm32g4xx_ll_hrtim.h ****   16,   /* LL_HRTIM_ADCTRIG_9  */
 110:Drivers/STM32G4xx_HAL_Driver/Inc/stm32g4xx_ll_hrtim.h ****   20    /* LL_HRTIM_ADCTRIG_10 */
 111:Drivers/STM32G4xx_HAL_Driver/Inc/stm32g4xx_ll_hrtim.h **** };
 112:Drivers/STM32G4xx_HAL_Driver/Inc/stm32g4xx_ll_hrtim.h **** 
 113:Drivers/STM32G4xx_HAL_Driver/Inc/stm32g4xx_ll_hrtim.h **** static const uint32_t REG_MASK_TAB_ADCER[] =
 114:Drivers/STM32G4xx_HAL_Driver/Inc/stm32g4xx_ll_hrtim.h **** {
 115:Drivers/STM32G4xx_HAL_Driver/Inc/stm32g4xx_ll_hrtim.h ****   0xFFFFFFFFU,   /* LL_HRTIM_ADCTRIG_1  */
 116:Drivers/STM32G4xx_HAL_Driver/Inc/stm32g4xx_ll_hrtim.h ****   0xFFFFFFFFU,   /* LL_HRTIM_ADCTRIG_2  */
 117:Drivers/STM32G4xx_HAL_Driver/Inc/stm32g4xx_ll_hrtim.h ****   0xFFFFFFFFU,   /* LL_HRTIM_ADCTRIG_3  */
 118:Drivers/STM32G4xx_HAL_Driver/Inc/stm32g4xx_ll_hrtim.h ****   0xFFFFFFFFU,   /* LL_HRTIM_ADCTRIG_4  */
 119:Drivers/STM32G4xx_HAL_Driver/Inc/stm32g4xx_ll_hrtim.h ****   0x0000001FU,   /* LL_HRTIM_ADCTRIG_5  */
 120:Drivers/STM32G4xx_HAL_Driver/Inc/stm32g4xx_ll_hrtim.h ****   0x000003E0U,   /* LL_HRTIM_ADCTRIG_6  */
 121:Drivers/STM32G4xx_HAL_Driver/Inc/stm32g4xx_ll_hrtim.h ****   0x00007C00U,   /* LL_HRTIM_ADCTRIG_7  */
 122:Drivers/STM32G4xx_HAL_Driver/Inc/stm32g4xx_ll_hrtim.h ****   0x001F0000U,   /* LL_HRTIM_ADCTRIG_8  */
 123:Drivers/STM32G4xx_HAL_Driver/Inc/stm32g4xx_ll_hrtim.h ****   0x03E00000U,   /* LL_HRTIM_ADCTRIG_9  */
 124:Drivers/STM32G4xx_HAL_Driver/Inc/stm32g4xx_ll_hrtim.h ****   0x7C000000U    /* LL_HRTIM_ADCTRIG_10 */
 125:Drivers/STM32G4xx_HAL_Driver/Inc/stm32g4xx_ll_hrtim.h **** };
 126:Drivers/STM32G4xx_HAL_Driver/Inc/stm32g4xx_ll_hrtim.h **** 
 127:Drivers/STM32G4xx_HAL_Driver/Inc/stm32g4xx_ll_hrtim.h **** static const uint32_t REG_MASK_TAB_ADCUR[] =
 128:Drivers/STM32G4xx_HAL_Driver/Inc/stm32g4xx_ll_hrtim.h **** {
 129:Drivers/STM32G4xx_HAL_Driver/Inc/stm32g4xx_ll_hrtim.h ****   0x00070000U,   /* LL_HRTIM_ADCTRIG_1  */
 130:Drivers/STM32G4xx_HAL_Driver/Inc/stm32g4xx_ll_hrtim.h ****   0x00380000U,   /* LL_HRTIM_ADCTRIG_2  */
 131:Drivers/STM32G4xx_HAL_Driver/Inc/stm32g4xx_ll_hrtim.h ****   0x01C00000U,   /* LL_HRTIM_ADCTRIG_3  */
 132:Drivers/STM32G4xx_HAL_Driver/Inc/stm32g4xx_ll_hrtim.h ****   0x0E000000U,   /* LL_HRTIM_ADCTRIG_4  */
 133:Drivers/STM32G4xx_HAL_Driver/Inc/stm32g4xx_ll_hrtim.h ****   0x00000007U,   /* LL_HRTIM_ADCTRIG_5  */
 134:Drivers/STM32G4xx_HAL_Driver/Inc/stm32g4xx_ll_hrtim.h ****   0x00000070U,   /* LL_HRTIM_ADCTRIG_6  */
 135:Drivers/STM32G4xx_HAL_Driver/Inc/stm32g4xx_ll_hrtim.h ****   0x00000700U,   /* LL_HRTIM_ADCTRIG_7  */
 136:Drivers/STM32G4xx_HAL_Driver/Inc/stm32g4xx_ll_hrtim.h ****   0x00007000U,   /* LL_HRTIM_ADCTRIG_8  */
 137:Drivers/STM32G4xx_HAL_Driver/Inc/stm32g4xx_ll_hrtim.h ****   0x00070000U,   /* LL_HRTIM_ADCTRIG_9  */
 138:Drivers/STM32G4xx_HAL_Driver/Inc/stm32g4xx_ll_hrtim.h ****   0x00700000U    /* LL_HRTIM_ADCTRIG_10 */
 139:Drivers/STM32G4xx_HAL_Driver/Inc/stm32g4xx_ll_hrtim.h **** };
 140:Drivers/STM32G4xx_HAL_Driver/Inc/stm32g4xx_ll_hrtim.h **** 
 141:Drivers/STM32G4xx_HAL_Driver/Inc/stm32g4xx_ll_hrtim.h **** static const uint8_t REG_OFFSET_TAB_ADCPSx[] =
ARM GAS  D:\apps\VSCode\data\tmp\ccNKRXCB.s 			page 5


 142:Drivers/STM32G4xx_HAL_Driver/Inc/stm32g4xx_ll_hrtim.h **** {
 143:Drivers/STM32G4xx_HAL_Driver/Inc/stm32g4xx_ll_hrtim.h ****   0U,    /* 0: HRTIM_ADC1R  */
 144:Drivers/STM32G4xx_HAL_Driver/Inc/stm32g4xx_ll_hrtim.h ****   6U,    /* 1: HRTIM_ADC2R  */
 145:Drivers/STM32G4xx_HAL_Driver/Inc/stm32g4xx_ll_hrtim.h ****   12U,   /* 2: HRTIM_ADC3R  */
 146:Drivers/STM32G4xx_HAL_Driver/Inc/stm32g4xx_ll_hrtim.h ****   18U,   /* 3: HRTIM_ADC4R  */
 147:Drivers/STM32G4xx_HAL_Driver/Inc/stm32g4xx_ll_hrtim.h ****   24U,   /* 4: HRTIM_ADC5R  */
 148:Drivers/STM32G4xx_HAL_Driver/Inc/stm32g4xx_ll_hrtim.h ****   32U,   /* 5: HRTIM_ADC6R  */
 149:Drivers/STM32G4xx_HAL_Driver/Inc/stm32g4xx_ll_hrtim.h ****   38U,   /* 6: HRTIM_ADC7R  */
 150:Drivers/STM32G4xx_HAL_Driver/Inc/stm32g4xx_ll_hrtim.h ****   44U,   /* 7: HRTIM_ADC8R  */
 151:Drivers/STM32G4xx_HAL_Driver/Inc/stm32g4xx_ll_hrtim.h ****   50U,   /* 8: HRTIM_ADC9R  */
 152:Drivers/STM32G4xx_HAL_Driver/Inc/stm32g4xx_ll_hrtim.h ****   56U    /* 9: HRTIM_ADC10R */
 153:Drivers/STM32G4xx_HAL_Driver/Inc/stm32g4xx_ll_hrtim.h **** };
 154:Drivers/STM32G4xx_HAL_Driver/Inc/stm32g4xx_ll_hrtim.h **** 
 155:Drivers/STM32G4xx_HAL_Driver/Inc/stm32g4xx_ll_hrtim.h **** static const uint16_t REG_OFFSET_TAB_SETxR[] =
 156:Drivers/STM32G4xx_HAL_Driver/Inc/stm32g4xx_ll_hrtim.h **** {
 157:Drivers/STM32G4xx_HAL_Driver/Inc/stm32g4xx_ll_hrtim.h ****   0x00U,   /* 0: TA1 */
 158:Drivers/STM32G4xx_HAL_Driver/Inc/stm32g4xx_ll_hrtim.h ****   0x08U,   /* 1: TA2 */
 159:Drivers/STM32G4xx_HAL_Driver/Inc/stm32g4xx_ll_hrtim.h ****   0x80U,   /* 2: TB1 */
 160:Drivers/STM32G4xx_HAL_Driver/Inc/stm32g4xx_ll_hrtim.h ****   0x88U,   /* 3: TB2 */
 161:Drivers/STM32G4xx_HAL_Driver/Inc/stm32g4xx_ll_hrtim.h ****   0x100U,  /* 4: TC1 */
 162:Drivers/STM32G4xx_HAL_Driver/Inc/stm32g4xx_ll_hrtim.h ****   0x108U,  /* 5: TC2 */
 163:Drivers/STM32G4xx_HAL_Driver/Inc/stm32g4xx_ll_hrtim.h ****   0x180U,  /* 6: TD1 */
 164:Drivers/STM32G4xx_HAL_Driver/Inc/stm32g4xx_ll_hrtim.h ****   0x188U,  /* 7: TD2 */
 165:Drivers/STM32G4xx_HAL_Driver/Inc/stm32g4xx_ll_hrtim.h ****   0x200U,  /* 8: TE1 */
 166:Drivers/STM32G4xx_HAL_Driver/Inc/stm32g4xx_ll_hrtim.h ****   0x208U,  /* 9: TE2 */
 167:Drivers/STM32G4xx_HAL_Driver/Inc/stm32g4xx_ll_hrtim.h ****   0x280U,  /* 10: TF1 */
 168:Drivers/STM32G4xx_HAL_Driver/Inc/stm32g4xx_ll_hrtim.h ****   0x288U   /* 11: TF2 */
 169:Drivers/STM32G4xx_HAL_Driver/Inc/stm32g4xx_ll_hrtim.h **** };
 170:Drivers/STM32G4xx_HAL_Driver/Inc/stm32g4xx_ll_hrtim.h **** 
 171:Drivers/STM32G4xx_HAL_Driver/Inc/stm32g4xx_ll_hrtim.h **** static const uint16_t REG_OFFSET_TAB_OUTxR[] =
 172:Drivers/STM32G4xx_HAL_Driver/Inc/stm32g4xx_ll_hrtim.h **** {
 173:Drivers/STM32G4xx_HAL_Driver/Inc/stm32g4xx_ll_hrtim.h ****   0x00U,   /*  0: TA1 */
 174:Drivers/STM32G4xx_HAL_Driver/Inc/stm32g4xx_ll_hrtim.h ****   0x00U,   /*  1: TA2 */
 175:Drivers/STM32G4xx_HAL_Driver/Inc/stm32g4xx_ll_hrtim.h ****   0x80U,   /*  2: TB1 */
 176:Drivers/STM32G4xx_HAL_Driver/Inc/stm32g4xx_ll_hrtim.h ****   0x80U,   /*  3: TB2 */
 177:Drivers/STM32G4xx_HAL_Driver/Inc/stm32g4xx_ll_hrtim.h ****   0x100U,  /*  4: TC1 */
 178:Drivers/STM32G4xx_HAL_Driver/Inc/stm32g4xx_ll_hrtim.h ****   0x100U,  /*  5: TC2 */
 179:Drivers/STM32G4xx_HAL_Driver/Inc/stm32g4xx_ll_hrtim.h ****   0x180U,  /*  6: TD1 */
 180:Drivers/STM32G4xx_HAL_Driver/Inc/stm32g4xx_ll_hrtim.h ****   0x180U,  /*  7: TD2 */
 181:Drivers/STM32G4xx_HAL_Driver/Inc/stm32g4xx_ll_hrtim.h ****   0x200U,  /*  8: TE1 */
 182:Drivers/STM32G4xx_HAL_Driver/Inc/stm32g4xx_ll_hrtim.h ****   0x200U,  /*  9: TE2 */
 183:Drivers/STM32G4xx_HAL_Driver/Inc/stm32g4xx_ll_hrtim.h ****   0x280U,  /* 10: TF1 */
 184:Drivers/STM32G4xx_HAL_Driver/Inc/stm32g4xx_ll_hrtim.h ****   0x280U   /* 11: TF2 */
 185:Drivers/STM32G4xx_HAL_Driver/Inc/stm32g4xx_ll_hrtim.h **** };
 186:Drivers/STM32G4xx_HAL_Driver/Inc/stm32g4xx_ll_hrtim.h **** 
 187:Drivers/STM32G4xx_HAL_Driver/Inc/stm32g4xx_ll_hrtim.h **** static const uint8_t REG_OFFSET_TAB_EECR[] =
 188:Drivers/STM32G4xx_HAL_Driver/Inc/stm32g4xx_ll_hrtim.h **** {
 189:Drivers/STM32G4xx_HAL_Driver/Inc/stm32g4xx_ll_hrtim.h ****   0x00U, /* LL_HRTIM_EVENT_1 */
 190:Drivers/STM32G4xx_HAL_Driver/Inc/stm32g4xx_ll_hrtim.h ****   0x00U, /* LL_HRTIM_EVENT_2 */
 191:Drivers/STM32G4xx_HAL_Driver/Inc/stm32g4xx_ll_hrtim.h ****   0x00U, /* LL_HRTIM_EVENT_3 */
 192:Drivers/STM32G4xx_HAL_Driver/Inc/stm32g4xx_ll_hrtim.h ****   0x00U, /* LL_HRTIM_EVENT_4 */
 193:Drivers/STM32G4xx_HAL_Driver/Inc/stm32g4xx_ll_hrtim.h ****   0x00U, /* LL_HRTIM_EVENT_5 */
 194:Drivers/STM32G4xx_HAL_Driver/Inc/stm32g4xx_ll_hrtim.h ****   0x04U, /* LL_HRTIM_EVENT_6 */
 195:Drivers/STM32G4xx_HAL_Driver/Inc/stm32g4xx_ll_hrtim.h ****   0x04U, /* LL_HRTIM_EVENT_7 */
 196:Drivers/STM32G4xx_HAL_Driver/Inc/stm32g4xx_ll_hrtim.h ****   0x04U, /* LL_HRTIM_EVENT_8 */
 197:Drivers/STM32G4xx_HAL_Driver/Inc/stm32g4xx_ll_hrtim.h ****   0x04U, /* LL_HRTIM_EVENT_9 */
 198:Drivers/STM32G4xx_HAL_Driver/Inc/stm32g4xx_ll_hrtim.h ****   0x04U  /* LL_HRTIM_EVENT_10 */
ARM GAS  D:\apps\VSCode\data\tmp\ccNKRXCB.s 			page 6


 199:Drivers/STM32G4xx_HAL_Driver/Inc/stm32g4xx_ll_hrtim.h **** };
 200:Drivers/STM32G4xx_HAL_Driver/Inc/stm32g4xx_ll_hrtim.h **** 
 201:Drivers/STM32G4xx_HAL_Driver/Inc/stm32g4xx_ll_hrtim.h **** static const uint8_t REG_OFFSET_TAB_FLTINR[] =
 202:Drivers/STM32G4xx_HAL_Driver/Inc/stm32g4xx_ll_hrtim.h **** {
 203:Drivers/STM32G4xx_HAL_Driver/Inc/stm32g4xx_ll_hrtim.h ****   0x00U, /* LL_HRTIM_FAULT_1 */
 204:Drivers/STM32G4xx_HAL_Driver/Inc/stm32g4xx_ll_hrtim.h ****   0x00U, /* LL_HRTIM_FAULT_2 */
 205:Drivers/STM32G4xx_HAL_Driver/Inc/stm32g4xx_ll_hrtim.h ****   0x00U, /* LL_HRTIM_FAULT_3 */
 206:Drivers/STM32G4xx_HAL_Driver/Inc/stm32g4xx_ll_hrtim.h ****   0x00U, /* LL_HRTIM_FAULT_4 */
 207:Drivers/STM32G4xx_HAL_Driver/Inc/stm32g4xx_ll_hrtim.h ****   0x04U, /* LL_HRTIM_FAULT_5 */
 208:Drivers/STM32G4xx_HAL_Driver/Inc/stm32g4xx_ll_hrtim.h ****   0x04U  /* LL_HRTIM_FAULT_6 */
 209:Drivers/STM32G4xx_HAL_Driver/Inc/stm32g4xx_ll_hrtim.h **** };
 210:Drivers/STM32G4xx_HAL_Driver/Inc/stm32g4xx_ll_hrtim.h **** 
 211:Drivers/STM32G4xx_HAL_Driver/Inc/stm32g4xx_ll_hrtim.h **** static const uint32_t REG_MASK_TAB_UPDATETRIG[] =
 212:Drivers/STM32G4xx_HAL_Driver/Inc/stm32g4xx_ll_hrtim.h **** {
 213:Drivers/STM32G4xx_HAL_Driver/Inc/stm32g4xx_ll_hrtim.h ****   0x20000000U,  /* 0: MASTER  */
 214:Drivers/STM32G4xx_HAL_Driver/Inc/stm32g4xx_ll_hrtim.h ****   0x01FF0000U,  /* 1: TIMER A */
 215:Drivers/STM32G4xx_HAL_Driver/Inc/stm32g4xx_ll_hrtim.h ****   0x01FF0000U,  /* 2: TIMER B */
 216:Drivers/STM32G4xx_HAL_Driver/Inc/stm32g4xx_ll_hrtim.h ****   0x01FF0000U,  /* 3: TIMER C */
 217:Drivers/STM32G4xx_HAL_Driver/Inc/stm32g4xx_ll_hrtim.h ****   0x01FF0000U,  /* 4: TIMER D */
 218:Drivers/STM32G4xx_HAL_Driver/Inc/stm32g4xx_ll_hrtim.h ****   0x01FF0000U,  /* 5: TIMER E */
 219:Drivers/STM32G4xx_HAL_Driver/Inc/stm32g4xx_ll_hrtim.h ****   0x01FF0000U,  /* 5: TIMER E */
 220:Drivers/STM32G4xx_HAL_Driver/Inc/stm32g4xx_ll_hrtim.h ****   0x01FF0000U   /* 6: TIMER F */
 221:Drivers/STM32G4xx_HAL_Driver/Inc/stm32g4xx_ll_hrtim.h **** };
 222:Drivers/STM32G4xx_HAL_Driver/Inc/stm32g4xx_ll_hrtim.h **** 
 223:Drivers/STM32G4xx_HAL_Driver/Inc/stm32g4xx_ll_hrtim.h **** static const uint8_t REG_SHIFT_TAB_UPDATETRIG[] =
 224:Drivers/STM32G4xx_HAL_Driver/Inc/stm32g4xx_ll_hrtim.h **** {
 225:Drivers/STM32G4xx_HAL_Driver/Inc/stm32g4xx_ll_hrtim.h ****   12U, /* 0: MASTER  */
 226:Drivers/STM32G4xx_HAL_Driver/Inc/stm32g4xx_ll_hrtim.h ****   0U,  /* 1: TIMER A */
 227:Drivers/STM32G4xx_HAL_Driver/Inc/stm32g4xx_ll_hrtim.h ****   0U,  /* 2: TIMER B  */
 228:Drivers/STM32G4xx_HAL_Driver/Inc/stm32g4xx_ll_hrtim.h ****   0U,  /* 3: TIMER C */
 229:Drivers/STM32G4xx_HAL_Driver/Inc/stm32g4xx_ll_hrtim.h ****   0U,  /* 4: TIMER D  */
 230:Drivers/STM32G4xx_HAL_Driver/Inc/stm32g4xx_ll_hrtim.h ****   0U,  /* 5: TIMER E */
 231:Drivers/STM32G4xx_HAL_Driver/Inc/stm32g4xx_ll_hrtim.h ****   0U   /* 6: TIMER F */
 232:Drivers/STM32G4xx_HAL_Driver/Inc/stm32g4xx_ll_hrtim.h **** };
 233:Drivers/STM32G4xx_HAL_Driver/Inc/stm32g4xx_ll_hrtim.h **** 
 234:Drivers/STM32G4xx_HAL_Driver/Inc/stm32g4xx_ll_hrtim.h **** static const uint8_t REG_SHIFT_TAB_EExSRC[] =
 235:Drivers/STM32G4xx_HAL_Driver/Inc/stm32g4xx_ll_hrtim.h **** {
 236:Drivers/STM32G4xx_HAL_Driver/Inc/stm32g4xx_ll_hrtim.h ****   0U,  /* LL_HRTIM_EVENT_1  */
 237:Drivers/STM32G4xx_HAL_Driver/Inc/stm32g4xx_ll_hrtim.h ****   6U,  /* LL_HRTIM_EVENT_2  */
 238:Drivers/STM32G4xx_HAL_Driver/Inc/stm32g4xx_ll_hrtim.h ****   12U, /* LL_HRTIM_EVENT_3  */
 239:Drivers/STM32G4xx_HAL_Driver/Inc/stm32g4xx_ll_hrtim.h ****   18U, /* LL_HRTIM_EVENT_4  */
 240:Drivers/STM32G4xx_HAL_Driver/Inc/stm32g4xx_ll_hrtim.h ****   24U, /* LL_HRTIM_EVENT_5  */
 241:Drivers/STM32G4xx_HAL_Driver/Inc/stm32g4xx_ll_hrtim.h ****   0U,  /* LL_HRTIM_EVENT_6  */
 242:Drivers/STM32G4xx_HAL_Driver/Inc/stm32g4xx_ll_hrtim.h ****   6U,  /* LL_HRTIM_EVENT_7  */
 243:Drivers/STM32G4xx_HAL_Driver/Inc/stm32g4xx_ll_hrtim.h ****   12U, /* LL_HRTIM_EVENT_8  */
 244:Drivers/STM32G4xx_HAL_Driver/Inc/stm32g4xx_ll_hrtim.h ****   18U, /* LL_HRTIM_EVENT_9  */
 245:Drivers/STM32G4xx_HAL_Driver/Inc/stm32g4xx_ll_hrtim.h ****   24U  /* LL_HRTIM_EVENT_10 */
 246:Drivers/STM32G4xx_HAL_Driver/Inc/stm32g4xx_ll_hrtim.h **** };
 247:Drivers/STM32G4xx_HAL_Driver/Inc/stm32g4xx_ll_hrtim.h **** 
 248:Drivers/STM32G4xx_HAL_Driver/Inc/stm32g4xx_ll_hrtim.h **** static const uint32_t REG_MASK_TAB_UPDATEGATING[] =
 249:Drivers/STM32G4xx_HAL_Driver/Inc/stm32g4xx_ll_hrtim.h **** {
 250:Drivers/STM32G4xx_HAL_Driver/Inc/stm32g4xx_ll_hrtim.h ****   HRTIM_MCR_BRSTDMA,   /* 0: MASTER  */
 251:Drivers/STM32G4xx_HAL_Driver/Inc/stm32g4xx_ll_hrtim.h ****   HRTIM_TIMCR_UPDGAT,  /* 1: TIMER A */
 252:Drivers/STM32G4xx_HAL_Driver/Inc/stm32g4xx_ll_hrtim.h ****   HRTIM_TIMCR_UPDGAT,  /* 2: TIMER B  */
 253:Drivers/STM32G4xx_HAL_Driver/Inc/stm32g4xx_ll_hrtim.h ****   HRTIM_TIMCR_UPDGAT,  /* 3: TIMER C */
 254:Drivers/STM32G4xx_HAL_Driver/Inc/stm32g4xx_ll_hrtim.h ****   HRTIM_TIMCR_UPDGAT,  /* 4: TIMER D  */
 255:Drivers/STM32G4xx_HAL_Driver/Inc/stm32g4xx_ll_hrtim.h ****   HRTIM_TIMCR_UPDGAT,  /* 5: TIMER E */
ARM GAS  D:\apps\VSCode\data\tmp\ccNKRXCB.s 			page 7


 256:Drivers/STM32G4xx_HAL_Driver/Inc/stm32g4xx_ll_hrtim.h ****   HRTIM_TIMCR_UPDGAT   /* 6: TIMER F */
 257:Drivers/STM32G4xx_HAL_Driver/Inc/stm32g4xx_ll_hrtim.h **** };
 258:Drivers/STM32G4xx_HAL_Driver/Inc/stm32g4xx_ll_hrtim.h **** 
 259:Drivers/STM32G4xx_HAL_Driver/Inc/stm32g4xx_ll_hrtim.h **** static const uint8_t REG_SHIFT_TAB_UPDATEGATING[] =
 260:Drivers/STM32G4xx_HAL_Driver/Inc/stm32g4xx_ll_hrtim.h **** {
 261:Drivers/STM32G4xx_HAL_Driver/Inc/stm32g4xx_ll_hrtim.h ****   2U, /* 0: MASTER  */
 262:Drivers/STM32G4xx_HAL_Driver/Inc/stm32g4xx_ll_hrtim.h ****   0U, /* 1: TIMER A */
 263:Drivers/STM32G4xx_HAL_Driver/Inc/stm32g4xx_ll_hrtim.h ****   0U, /* 2: TIMER B  */
 264:Drivers/STM32G4xx_HAL_Driver/Inc/stm32g4xx_ll_hrtim.h ****   0U, /* 3: TIMER C */
 265:Drivers/STM32G4xx_HAL_Driver/Inc/stm32g4xx_ll_hrtim.h ****   0U, /* 4: TIMER D  */
 266:Drivers/STM32G4xx_HAL_Driver/Inc/stm32g4xx_ll_hrtim.h ****   0U, /* 5: TIMER E */
 267:Drivers/STM32G4xx_HAL_Driver/Inc/stm32g4xx_ll_hrtim.h ****   0U  /* 6: TIMER F */
 268:Drivers/STM32G4xx_HAL_Driver/Inc/stm32g4xx_ll_hrtim.h **** };
 269:Drivers/STM32G4xx_HAL_Driver/Inc/stm32g4xx_ll_hrtim.h **** 
 270:Drivers/STM32G4xx_HAL_Driver/Inc/stm32g4xx_ll_hrtim.h **** static const uint8_t REG_SHIFT_TAB_OUTxR[] =
 271:Drivers/STM32G4xx_HAL_Driver/Inc/stm32g4xx_ll_hrtim.h **** {
 272:Drivers/STM32G4xx_HAL_Driver/Inc/stm32g4xx_ll_hrtim.h ****   0U,  /* 0: TA1  */
 273:Drivers/STM32G4xx_HAL_Driver/Inc/stm32g4xx_ll_hrtim.h ****   16U, /* 1: TA2 */
 274:Drivers/STM32G4xx_HAL_Driver/Inc/stm32g4xx_ll_hrtim.h ****   0U,  /* 2: TB1  */
 275:Drivers/STM32G4xx_HAL_Driver/Inc/stm32g4xx_ll_hrtim.h ****   16U, /* 3: TB2 */
 276:Drivers/STM32G4xx_HAL_Driver/Inc/stm32g4xx_ll_hrtim.h ****   0U,  /* 4: TC1  */
 277:Drivers/STM32G4xx_HAL_Driver/Inc/stm32g4xx_ll_hrtim.h ****   16U, /* 5: TC2 */
 278:Drivers/STM32G4xx_HAL_Driver/Inc/stm32g4xx_ll_hrtim.h ****   0U,  /* 6: TD1  */
 279:Drivers/STM32G4xx_HAL_Driver/Inc/stm32g4xx_ll_hrtim.h ****   16U, /* 7: TD2 */
 280:Drivers/STM32G4xx_HAL_Driver/Inc/stm32g4xx_ll_hrtim.h ****   0U,  /* 8: TE1  */
 281:Drivers/STM32G4xx_HAL_Driver/Inc/stm32g4xx_ll_hrtim.h ****   16U, /* 9: TE2 */
 282:Drivers/STM32G4xx_HAL_Driver/Inc/stm32g4xx_ll_hrtim.h ****   0U,  /* 10: TF1  */
 283:Drivers/STM32G4xx_HAL_Driver/Inc/stm32g4xx_ll_hrtim.h ****   16U  /* 11: TF2 */
 284:Drivers/STM32G4xx_HAL_Driver/Inc/stm32g4xx_ll_hrtim.h **** };
 285:Drivers/STM32G4xx_HAL_Driver/Inc/stm32g4xx_ll_hrtim.h **** 
 286:Drivers/STM32G4xx_HAL_Driver/Inc/stm32g4xx_ll_hrtim.h **** static const uint8_t REG_SHIFT_TAB_OxSTAT[] =
 287:Drivers/STM32G4xx_HAL_Driver/Inc/stm32g4xx_ll_hrtim.h **** {
 288:Drivers/STM32G4xx_HAL_Driver/Inc/stm32g4xx_ll_hrtim.h ****   0U,  /* 0: TA1  */
 289:Drivers/STM32G4xx_HAL_Driver/Inc/stm32g4xx_ll_hrtim.h ****   1U,  /* 1: TA2 */
 290:Drivers/STM32G4xx_HAL_Driver/Inc/stm32g4xx_ll_hrtim.h ****   0U,  /* 2: TB1  */
 291:Drivers/STM32G4xx_HAL_Driver/Inc/stm32g4xx_ll_hrtim.h ****   1U,  /* 3: TB2 */
 292:Drivers/STM32G4xx_HAL_Driver/Inc/stm32g4xx_ll_hrtim.h ****   0U,  /* 4: TC1  */
 293:Drivers/STM32G4xx_HAL_Driver/Inc/stm32g4xx_ll_hrtim.h ****   1U,  /* 5: TC2 */
 294:Drivers/STM32G4xx_HAL_Driver/Inc/stm32g4xx_ll_hrtim.h ****   0U,  /* 6: TD1  */
 295:Drivers/STM32G4xx_HAL_Driver/Inc/stm32g4xx_ll_hrtim.h ****   1U,  /* 7: TD2 */
 296:Drivers/STM32G4xx_HAL_Driver/Inc/stm32g4xx_ll_hrtim.h ****   0U,  /* 8: TE1  */
 297:Drivers/STM32G4xx_HAL_Driver/Inc/stm32g4xx_ll_hrtim.h ****   1U,  /* 9: TE2 */
 298:Drivers/STM32G4xx_HAL_Driver/Inc/stm32g4xx_ll_hrtim.h ****   0U,  /* 10: TF1  */
 299:Drivers/STM32G4xx_HAL_Driver/Inc/stm32g4xx_ll_hrtim.h ****   1U   /* 11: TF2 */
 300:Drivers/STM32G4xx_HAL_Driver/Inc/stm32g4xx_ll_hrtim.h **** };
 301:Drivers/STM32G4xx_HAL_Driver/Inc/stm32g4xx_ll_hrtim.h **** 
 302:Drivers/STM32G4xx_HAL_Driver/Inc/stm32g4xx_ll_hrtim.h **** static const uint8_t REG_SHIFT_TAB_FLTxE[] =
 303:Drivers/STM32G4xx_HAL_Driver/Inc/stm32g4xx_ll_hrtim.h **** {
 304:Drivers/STM32G4xx_HAL_Driver/Inc/stm32g4xx_ll_hrtim.h ****   0U,   /* LL_HRTIM_FAULT_1 */
 305:Drivers/STM32G4xx_HAL_Driver/Inc/stm32g4xx_ll_hrtim.h ****   8U,   /* LL_HRTIM_FAULT_2 */
 306:Drivers/STM32G4xx_HAL_Driver/Inc/stm32g4xx_ll_hrtim.h ****   16U,  /* LL_HRTIM_FAULT_3 */
 307:Drivers/STM32G4xx_HAL_Driver/Inc/stm32g4xx_ll_hrtim.h ****   24U,  /* LL_HRTIM_FAULT_4 */
 308:Drivers/STM32G4xx_HAL_Driver/Inc/stm32g4xx_ll_hrtim.h ****   0U,   /* LL_HRTIM_FAULT_5 */
 309:Drivers/STM32G4xx_HAL_Driver/Inc/stm32g4xx_ll_hrtim.h ****   8U    /* LL_HRTIM_FAULT_6 */
 310:Drivers/STM32G4xx_HAL_Driver/Inc/stm32g4xx_ll_hrtim.h **** };
 311:Drivers/STM32G4xx_HAL_Driver/Inc/stm32g4xx_ll_hrtim.h **** 
 312:Drivers/STM32G4xx_HAL_Driver/Inc/stm32g4xx_ll_hrtim.h **** static const uint8_t REG_SHIFT_TAB_FLTxF[] =
ARM GAS  D:\apps\VSCode\data\tmp\ccNKRXCB.s 			page 8


 313:Drivers/STM32G4xx_HAL_Driver/Inc/stm32g4xx_ll_hrtim.h **** {
 314:Drivers/STM32G4xx_HAL_Driver/Inc/stm32g4xx_ll_hrtim.h ****   0U,   /* LL_HRTIM_FAULT_1 */
 315:Drivers/STM32G4xx_HAL_Driver/Inc/stm32g4xx_ll_hrtim.h ****   8U,   /* LL_HRTIM_FAULT_2 */
 316:Drivers/STM32G4xx_HAL_Driver/Inc/stm32g4xx_ll_hrtim.h ****   16U,  /* LL_HRTIM_FAULT_3 */
 317:Drivers/STM32G4xx_HAL_Driver/Inc/stm32g4xx_ll_hrtim.h ****   24U,  /* LL_HRTIM_FAULT_4 */
 318:Drivers/STM32G4xx_HAL_Driver/Inc/stm32g4xx_ll_hrtim.h ****   32U,  /* LL_HRTIM_FAULT_5 */
 319:Drivers/STM32G4xx_HAL_Driver/Inc/stm32g4xx_ll_hrtim.h ****   40U   /* LL_HRTIM_FAULT_6 */
 320:Drivers/STM32G4xx_HAL_Driver/Inc/stm32g4xx_ll_hrtim.h **** };
 321:Drivers/STM32G4xx_HAL_Driver/Inc/stm32g4xx_ll_hrtim.h **** 
 322:Drivers/STM32G4xx_HAL_Driver/Inc/stm32g4xx_ll_hrtim.h **** static const uint8_t REG_SHIFT_TAB_FLTx[] =
 323:Drivers/STM32G4xx_HAL_Driver/Inc/stm32g4xx_ll_hrtim.h **** {
 324:Drivers/STM32G4xx_HAL_Driver/Inc/stm32g4xx_ll_hrtim.h ****   0,  /* LL_HRTIM_FAULT_1 */
 325:Drivers/STM32G4xx_HAL_Driver/Inc/stm32g4xx_ll_hrtim.h ****   1,  /* LL_HRTIM_FAULT_2 */
 326:Drivers/STM32G4xx_HAL_Driver/Inc/stm32g4xx_ll_hrtim.h ****   2,  /* LL_HRTIM_FAULT_3 */
 327:Drivers/STM32G4xx_HAL_Driver/Inc/stm32g4xx_ll_hrtim.h ****   3,  /* LL_HRTIM_FAULT_4 */
 328:Drivers/STM32G4xx_HAL_Driver/Inc/stm32g4xx_ll_hrtim.h ****   4,  /* LL_HRTIM_FAULT_5 */
 329:Drivers/STM32G4xx_HAL_Driver/Inc/stm32g4xx_ll_hrtim.h ****   5   /* LL_HRTIM_FAULT_6 */
 330:Drivers/STM32G4xx_HAL_Driver/Inc/stm32g4xx_ll_hrtim.h **** };
 331:Drivers/STM32G4xx_HAL_Driver/Inc/stm32g4xx_ll_hrtim.h **** 
 332:Drivers/STM32G4xx_HAL_Driver/Inc/stm32g4xx_ll_hrtim.h **** static const uint8_t REG_SHIFT_TAB_INTLVD[] =
 333:Drivers/STM32G4xx_HAL_Driver/Inc/stm32g4xx_ll_hrtim.h **** {
 334:Drivers/STM32G4xx_HAL_Driver/Inc/stm32g4xx_ll_hrtim.h ****   0U,  /* 0: MASTER  */
 335:Drivers/STM32G4xx_HAL_Driver/Inc/stm32g4xx_ll_hrtim.h ****   1U,  /* 1: TIMER A */
 336:Drivers/STM32G4xx_HAL_Driver/Inc/stm32g4xx_ll_hrtim.h ****   1U,  /* 2: TIMER B */
 337:Drivers/STM32G4xx_HAL_Driver/Inc/stm32g4xx_ll_hrtim.h ****   1U,  /* 3: TIMER C */
 338:Drivers/STM32G4xx_HAL_Driver/Inc/stm32g4xx_ll_hrtim.h ****   1U,  /* 4: TIMER D */
 339:Drivers/STM32G4xx_HAL_Driver/Inc/stm32g4xx_ll_hrtim.h ****   1U,  /* 5: TIMER E */
 340:Drivers/STM32G4xx_HAL_Driver/Inc/stm32g4xx_ll_hrtim.h ****   1U,  /* 6: TIMER F */
 341:Drivers/STM32G4xx_HAL_Driver/Inc/stm32g4xx_ll_hrtim.h **** };
 342:Drivers/STM32G4xx_HAL_Driver/Inc/stm32g4xx_ll_hrtim.h **** 
 343:Drivers/STM32G4xx_HAL_Driver/Inc/stm32g4xx_ll_hrtim.h **** static const uint32_t REG_MASK_TAB_INTLVD[] =
 344:Drivers/STM32G4xx_HAL_Driver/Inc/stm32g4xx_ll_hrtim.h **** {
 345:Drivers/STM32G4xx_HAL_Driver/Inc/stm32g4xx_ll_hrtim.h ****   0x000000E0U,  /* 0: MASTER  */
 346:Drivers/STM32G4xx_HAL_Driver/Inc/stm32g4xx_ll_hrtim.h ****   0x000001A0U,  /* 1: TIMER A */
 347:Drivers/STM32G4xx_HAL_Driver/Inc/stm32g4xx_ll_hrtim.h ****   0x000001A0U,  /* 2: TIMER B */
 348:Drivers/STM32G4xx_HAL_Driver/Inc/stm32g4xx_ll_hrtim.h ****   0x000001A0U,  /* 3: TIMER C */
 349:Drivers/STM32G4xx_HAL_Driver/Inc/stm32g4xx_ll_hrtim.h ****   0x000001A0U,  /* 4: TIMER D */
 350:Drivers/STM32G4xx_HAL_Driver/Inc/stm32g4xx_ll_hrtim.h ****   0x000001A0U,  /* 5: TIMER E */
 351:Drivers/STM32G4xx_HAL_Driver/Inc/stm32g4xx_ll_hrtim.h ****   0x000001A0U,  /* 6: TIMER F */
 352:Drivers/STM32G4xx_HAL_Driver/Inc/stm32g4xx_ll_hrtim.h **** };
 353:Drivers/STM32G4xx_HAL_Driver/Inc/stm32g4xx_ll_hrtim.h **** 
 354:Drivers/STM32G4xx_HAL_Driver/Inc/stm32g4xx_ll_hrtim.h **** static const uint8_t REG_SHIFT_TAB_CPT[] =
 355:Drivers/STM32G4xx_HAL_Driver/Inc/stm32g4xx_ll_hrtim.h **** {
 356:Drivers/STM32G4xx_HAL_Driver/Inc/stm32g4xx_ll_hrtim.h ****   12U,  /* 1: TIMER A */
 357:Drivers/STM32G4xx_HAL_Driver/Inc/stm32g4xx_ll_hrtim.h ****   16U,  /* 2: TIMER B */
 358:Drivers/STM32G4xx_HAL_Driver/Inc/stm32g4xx_ll_hrtim.h ****   20U,  /* 3: TIMER C */
 359:Drivers/STM32G4xx_HAL_Driver/Inc/stm32g4xx_ll_hrtim.h ****   24U,  /* 4: TIMER D */
 360:Drivers/STM32G4xx_HAL_Driver/Inc/stm32g4xx_ll_hrtim.h ****   28U,  /* 5: TIMER E */
 361:Drivers/STM32G4xx_HAL_Driver/Inc/stm32g4xx_ll_hrtim.h ****   32U,  /* 6: TIMER F */
 362:Drivers/STM32G4xx_HAL_Driver/Inc/stm32g4xx_ll_hrtim.h **** };
 363:Drivers/STM32G4xx_HAL_Driver/Inc/stm32g4xx_ll_hrtim.h **** 
 364:Drivers/STM32G4xx_HAL_Driver/Inc/stm32g4xx_ll_hrtim.h **** static const uint32_t REG_MASK_TAB_CPT[] =
 365:Drivers/STM32G4xx_HAL_Driver/Inc/stm32g4xx_ll_hrtim.h **** {
 366:Drivers/STM32G4xx_HAL_Driver/Inc/stm32g4xx_ll_hrtim.h ****   0xFFFF0000U,  /* 1: TIMER A */
 367:Drivers/STM32G4xx_HAL_Driver/Inc/stm32g4xx_ll_hrtim.h ****   0xFFF0F000U,  /* 2: TIMER B */
 368:Drivers/STM32G4xx_HAL_Driver/Inc/stm32g4xx_ll_hrtim.h ****   0xFF0FF000U,  /* 3: TIMER C */
 369:Drivers/STM32G4xx_HAL_Driver/Inc/stm32g4xx_ll_hrtim.h ****   0xF0FFF000U,  /* 4: TIMER D */
ARM GAS  D:\apps\VSCode\data\tmp\ccNKRXCB.s 			page 9


 370:Drivers/STM32G4xx_HAL_Driver/Inc/stm32g4xx_ll_hrtim.h ****   0x0FFFF000U,  /* 5: TIMER E */
 371:Drivers/STM32G4xx_HAL_Driver/Inc/stm32g4xx_ll_hrtim.h ****   0xFFFFF000U,  /* 6: TIMER F */
 372:Drivers/STM32G4xx_HAL_Driver/Inc/stm32g4xx_ll_hrtim.h **** };
 373:Drivers/STM32G4xx_HAL_Driver/Inc/stm32g4xx_ll_hrtim.h **** 
 374:Drivers/STM32G4xx_HAL_Driver/Inc/stm32g4xx_ll_hrtim.h **** /**
 375:Drivers/STM32G4xx_HAL_Driver/Inc/stm32g4xx_ll_hrtim.h ****   * @}
 376:Drivers/STM32G4xx_HAL_Driver/Inc/stm32g4xx_ll_hrtim.h ****   */
 377:Drivers/STM32G4xx_HAL_Driver/Inc/stm32g4xx_ll_hrtim.h **** 
 378:Drivers/STM32G4xx_HAL_Driver/Inc/stm32g4xx_ll_hrtim.h **** 
 379:Drivers/STM32G4xx_HAL_Driver/Inc/stm32g4xx_ll_hrtim.h **** /* Private constants ---------------------------------------------------------*/
 380:Drivers/STM32G4xx_HAL_Driver/Inc/stm32g4xx_ll_hrtim.h **** /** @defgroup HRTIM_LL_Private_Constants HRTIM Private Constants
 381:Drivers/STM32G4xx_HAL_Driver/Inc/stm32g4xx_ll_hrtim.h ****   * @{
 382:Drivers/STM32G4xx_HAL_Driver/Inc/stm32g4xx_ll_hrtim.h ****   */
 383:Drivers/STM32G4xx_HAL_Driver/Inc/stm32g4xx_ll_hrtim.h **** #define HRTIM_CR1_UDIS_MASK   ((uint32_t)(HRTIM_CR1_MUDIS  |\
 384:Drivers/STM32G4xx_HAL_Driver/Inc/stm32g4xx_ll_hrtim.h ****                                           HRTIM_CR1_TAUDIS |\
 385:Drivers/STM32G4xx_HAL_Driver/Inc/stm32g4xx_ll_hrtim.h ****                                           HRTIM_CR1_TBUDIS |\
 386:Drivers/STM32G4xx_HAL_Driver/Inc/stm32g4xx_ll_hrtim.h ****                                           HRTIM_CR1_TCUDIS |\
 387:Drivers/STM32G4xx_HAL_Driver/Inc/stm32g4xx_ll_hrtim.h ****                                           HRTIM_CR1_TDUDIS |\
 388:Drivers/STM32G4xx_HAL_Driver/Inc/stm32g4xx_ll_hrtim.h ****                                           HRTIM_CR1_TEUDIS |\
 389:Drivers/STM32G4xx_HAL_Driver/Inc/stm32g4xx_ll_hrtim.h ****                                           HRTIM_CR1_TFUDIS))
 390:Drivers/STM32G4xx_HAL_Driver/Inc/stm32g4xx_ll_hrtim.h **** 
 391:Drivers/STM32G4xx_HAL_Driver/Inc/stm32g4xx_ll_hrtim.h **** #define HRTIM_CR2_SWUPD_MASK   ((uint32_t)(HRTIM_CR2_MSWU |\
 392:Drivers/STM32G4xx_HAL_Driver/Inc/stm32g4xx_ll_hrtim.h ****                                            HRTIM_CR2_TASWU |\
 393:Drivers/STM32G4xx_HAL_Driver/Inc/stm32g4xx_ll_hrtim.h ****                                            HRTIM_CR2_TBSWU |\
 394:Drivers/STM32G4xx_HAL_Driver/Inc/stm32g4xx_ll_hrtim.h ****                                            HRTIM_CR2_TCSWU |\
 395:Drivers/STM32G4xx_HAL_Driver/Inc/stm32g4xx_ll_hrtim.h ****                                            HRTIM_CR2_TDSWU |\
 396:Drivers/STM32G4xx_HAL_Driver/Inc/stm32g4xx_ll_hrtim.h ****                                            HRTIM_CR2_TESWU |\
 397:Drivers/STM32G4xx_HAL_Driver/Inc/stm32g4xx_ll_hrtim.h ****                                            HRTIM_CR2_TFSWU))
 398:Drivers/STM32G4xx_HAL_Driver/Inc/stm32g4xx_ll_hrtim.h **** 
 399:Drivers/STM32G4xx_HAL_Driver/Inc/stm32g4xx_ll_hrtim.h **** #define HRTIM_CR2_SWAP_MASK   ((uint32_t)(HRTIM_CR2_SWPA |\
 400:Drivers/STM32G4xx_HAL_Driver/Inc/stm32g4xx_ll_hrtim.h ****                                           HRTIM_CR2_SWPB |\
 401:Drivers/STM32G4xx_HAL_Driver/Inc/stm32g4xx_ll_hrtim.h ****                                           HRTIM_CR2_SWPC |\
 402:Drivers/STM32G4xx_HAL_Driver/Inc/stm32g4xx_ll_hrtim.h ****                                           HRTIM_CR2_SWPD |\
 403:Drivers/STM32G4xx_HAL_Driver/Inc/stm32g4xx_ll_hrtim.h ****                                           HRTIM_CR2_SWPE |\
 404:Drivers/STM32G4xx_HAL_Driver/Inc/stm32g4xx_ll_hrtim.h ****                                           HRTIM_CR2_SWPF))
 405:Drivers/STM32G4xx_HAL_Driver/Inc/stm32g4xx_ll_hrtim.h **** 
 406:Drivers/STM32G4xx_HAL_Driver/Inc/stm32g4xx_ll_hrtim.h **** #define HRTIM_CR2_SWRST_MASK   ((uint32_t)(HRTIM_CR2_MRST |\
 407:Drivers/STM32G4xx_HAL_Driver/Inc/stm32g4xx_ll_hrtim.h ****                                            HRTIM_CR2_TARST |\
 408:Drivers/STM32G4xx_HAL_Driver/Inc/stm32g4xx_ll_hrtim.h ****                                            HRTIM_CR2_TBRST |\
 409:Drivers/STM32G4xx_HAL_Driver/Inc/stm32g4xx_ll_hrtim.h ****                                            HRTIM_CR2_TCRST |\
 410:Drivers/STM32G4xx_HAL_Driver/Inc/stm32g4xx_ll_hrtim.h ****                                            HRTIM_CR2_TDRST |\
 411:Drivers/STM32G4xx_HAL_Driver/Inc/stm32g4xx_ll_hrtim.h ****                                            HRTIM_CR2_TERST |\
 412:Drivers/STM32G4xx_HAL_Driver/Inc/stm32g4xx_ll_hrtim.h ****                                            HRTIM_CR2_TFRST))
 413:Drivers/STM32G4xx_HAL_Driver/Inc/stm32g4xx_ll_hrtim.h **** 
 414:Drivers/STM32G4xx_HAL_Driver/Inc/stm32g4xx_ll_hrtim.h **** #define HRTIM_OENR_OEN_MASK   ((uint32_t)(HRTIM_OENR_TA1OEN |\
 415:Drivers/STM32G4xx_HAL_Driver/Inc/stm32g4xx_ll_hrtim.h ****                                           HRTIM_OENR_TA2OEN |\
 416:Drivers/STM32G4xx_HAL_Driver/Inc/stm32g4xx_ll_hrtim.h ****                                           HRTIM_OENR_TB1OEN |\
 417:Drivers/STM32G4xx_HAL_Driver/Inc/stm32g4xx_ll_hrtim.h ****                                           HRTIM_OENR_TB2OEN |\
 418:Drivers/STM32G4xx_HAL_Driver/Inc/stm32g4xx_ll_hrtim.h ****                                           HRTIM_OENR_TC1OEN |\
 419:Drivers/STM32G4xx_HAL_Driver/Inc/stm32g4xx_ll_hrtim.h ****                                           HRTIM_OENR_TC2OEN |\
 420:Drivers/STM32G4xx_HAL_Driver/Inc/stm32g4xx_ll_hrtim.h ****                                           HRTIM_OENR_TD1OEN |\
 421:Drivers/STM32G4xx_HAL_Driver/Inc/stm32g4xx_ll_hrtim.h ****                                           HRTIM_OENR_TD2OEN |\
 422:Drivers/STM32G4xx_HAL_Driver/Inc/stm32g4xx_ll_hrtim.h ****                                           HRTIM_OENR_TE1OEN |\
 423:Drivers/STM32G4xx_HAL_Driver/Inc/stm32g4xx_ll_hrtim.h ****                                           HRTIM_OENR_TE2OEN |\
 424:Drivers/STM32G4xx_HAL_Driver/Inc/stm32g4xx_ll_hrtim.h ****                                           HRTIM_OENR_TF1OEN |\
 425:Drivers/STM32G4xx_HAL_Driver/Inc/stm32g4xx_ll_hrtim.h ****                                           HRTIM_OENR_TF2OEN))
 426:Drivers/STM32G4xx_HAL_Driver/Inc/stm32g4xx_ll_hrtim.h **** 
ARM GAS  D:\apps\VSCode\data\tmp\ccNKRXCB.s 			page 10


 427:Drivers/STM32G4xx_HAL_Driver/Inc/stm32g4xx_ll_hrtim.h **** #define HRTIM_OENR_ODIS_MASK  ((uint32_t)(HRTIM_ODISR_TA1ODIS  |\
 428:Drivers/STM32G4xx_HAL_Driver/Inc/stm32g4xx_ll_hrtim.h ****                                           HRTIM_ODISR_TA2ODIS  |\
 429:Drivers/STM32G4xx_HAL_Driver/Inc/stm32g4xx_ll_hrtim.h ****                                           HRTIM_ODISR_TB1ODIS  |\
 430:Drivers/STM32G4xx_HAL_Driver/Inc/stm32g4xx_ll_hrtim.h ****                                           HRTIM_ODISR_TB2ODIS  |\
 431:Drivers/STM32G4xx_HAL_Driver/Inc/stm32g4xx_ll_hrtim.h ****                                           HRTIM_ODISR_TC1ODIS  |\
 432:Drivers/STM32G4xx_HAL_Driver/Inc/stm32g4xx_ll_hrtim.h ****                                           HRTIM_ODISR_TC2ODIS  |\
 433:Drivers/STM32G4xx_HAL_Driver/Inc/stm32g4xx_ll_hrtim.h ****                                           HRTIM_ODISR_TD1ODIS  |\
 434:Drivers/STM32G4xx_HAL_Driver/Inc/stm32g4xx_ll_hrtim.h ****                                           HRTIM_ODISR_TD2ODIS  |\
 435:Drivers/STM32G4xx_HAL_Driver/Inc/stm32g4xx_ll_hrtim.h ****                                           HRTIM_ODISR_TE1ODIS  |\
 436:Drivers/STM32G4xx_HAL_Driver/Inc/stm32g4xx_ll_hrtim.h ****                                           HRTIM_ODISR_TE2ODIS  |\
 437:Drivers/STM32G4xx_HAL_Driver/Inc/stm32g4xx_ll_hrtim.h ****                                           HRTIM_ODISR_TF1ODIS  |\
 438:Drivers/STM32G4xx_HAL_Driver/Inc/stm32g4xx_ll_hrtim.h ****                                           HRTIM_ODISR_TF2ODIS))
 439:Drivers/STM32G4xx_HAL_Driver/Inc/stm32g4xx_ll_hrtim.h **** 
 440:Drivers/STM32G4xx_HAL_Driver/Inc/stm32g4xx_ll_hrtim.h **** #define HRTIM_OUT_CONFIG_MASK  ((uint32_t)(HRTIM_OUTR_POL1   |\
 441:Drivers/STM32G4xx_HAL_Driver/Inc/stm32g4xx_ll_hrtim.h ****                                            HRTIM_OUTR_IDLM1  |\
 442:Drivers/STM32G4xx_HAL_Driver/Inc/stm32g4xx_ll_hrtim.h ****                                            HRTIM_OUTR_IDLES1 |\
 443:Drivers/STM32G4xx_HAL_Driver/Inc/stm32g4xx_ll_hrtim.h ****                                            HRTIM_OUTR_FAULT1 |\
 444:Drivers/STM32G4xx_HAL_Driver/Inc/stm32g4xx_ll_hrtim.h ****                                            HRTIM_OUTR_CHP1   |\
 445:Drivers/STM32G4xx_HAL_Driver/Inc/stm32g4xx_ll_hrtim.h ****                                            HRTIM_OUTR_DIDL1))
 446:Drivers/STM32G4xx_HAL_Driver/Inc/stm32g4xx_ll_hrtim.h **** 
 447:Drivers/STM32G4xx_HAL_Driver/Inc/stm32g4xx_ll_hrtim.h **** #define HRTIM_EE_CONFIG_MASK   ((uint32_t)(HRTIM_EECR1_EE1SRC |\
 448:Drivers/STM32G4xx_HAL_Driver/Inc/stm32g4xx_ll_hrtim.h ****                                            HRTIM_EECR1_EE1POL |\
 449:Drivers/STM32G4xx_HAL_Driver/Inc/stm32g4xx_ll_hrtim.h ****                                            HRTIM_EECR1_EE1SNS |\
 450:Drivers/STM32G4xx_HAL_Driver/Inc/stm32g4xx_ll_hrtim.h ****                                            HRTIM_EECR1_EE1FAST))
 451:Drivers/STM32G4xx_HAL_Driver/Inc/stm32g4xx_ll_hrtim.h **** 
 452:Drivers/STM32G4xx_HAL_Driver/Inc/stm32g4xx_ll_hrtim.h **** #define HRTIM_FLT_CONFIG_MASK   ((uint32_t)(HRTIM_FLTINR1_FLT1P |\
 453:Drivers/STM32G4xx_HAL_Driver/Inc/stm32g4xx_ll_hrtim.h ****                                             HRTIM_FLTINR1_FLT1SRC_0 ))
 454:Drivers/STM32G4xx_HAL_Driver/Inc/stm32g4xx_ll_hrtim.h **** 
 455:Drivers/STM32G4xx_HAL_Driver/Inc/stm32g4xx_ll_hrtim.h **** #define HRTIM_FLT_SRC_1_MASK   ((uint32_t)(HRTIM_FLTINR2_FLT6SRC_1 |\
 456:Drivers/STM32G4xx_HAL_Driver/Inc/stm32g4xx_ll_hrtim.h ****                                            HRTIM_FLTINR2_FLT5SRC_1 |\
 457:Drivers/STM32G4xx_HAL_Driver/Inc/stm32g4xx_ll_hrtim.h ****                                            HRTIM_FLTINR2_FLT4SRC_1 |\
 458:Drivers/STM32G4xx_HAL_Driver/Inc/stm32g4xx_ll_hrtim.h ****                                            HRTIM_FLTINR2_FLT3SRC_1 |\
 459:Drivers/STM32G4xx_HAL_Driver/Inc/stm32g4xx_ll_hrtim.h ****                                            HRTIM_FLTINR2_FLT2SRC_1 |\
 460:Drivers/STM32G4xx_HAL_Driver/Inc/stm32g4xx_ll_hrtim.h ****                                            HRTIM_FLTINR2_FLT1SRC_1))
 461:Drivers/STM32G4xx_HAL_Driver/Inc/stm32g4xx_ll_hrtim.h **** 
 462:Drivers/STM32G4xx_HAL_Driver/Inc/stm32g4xx_ll_hrtim.h **** #define HRTIM_BM_CONFIG_MASK   ((uint32_t)( HRTIM_BMCR_BMPRSC |\
 463:Drivers/STM32G4xx_HAL_Driver/Inc/stm32g4xx_ll_hrtim.h ****                                             HRTIM_BMCR_BMCLK  |\
 464:Drivers/STM32G4xx_HAL_Driver/Inc/stm32g4xx_ll_hrtim.h ****                                             HRTIM_BMCR_BMOM))
 465:Drivers/STM32G4xx_HAL_Driver/Inc/stm32g4xx_ll_hrtim.h **** 
 466:Drivers/STM32G4xx_HAL_Driver/Inc/stm32g4xx_ll_hrtim.h **** /**
 467:Drivers/STM32G4xx_HAL_Driver/Inc/stm32g4xx_ll_hrtim.h ****   * @}
 468:Drivers/STM32G4xx_HAL_Driver/Inc/stm32g4xx_ll_hrtim.h ****   */
 469:Drivers/STM32G4xx_HAL_Driver/Inc/stm32g4xx_ll_hrtim.h **** 
 470:Drivers/STM32G4xx_HAL_Driver/Inc/stm32g4xx_ll_hrtim.h **** 
 471:Drivers/STM32G4xx_HAL_Driver/Inc/stm32g4xx_ll_hrtim.h **** /* Private macros ------------------------------------------------------------*/
 472:Drivers/STM32G4xx_HAL_Driver/Inc/stm32g4xx_ll_hrtim.h **** /* Exported types ------------------------------------------------------------*/
 473:Drivers/STM32G4xx_HAL_Driver/Inc/stm32g4xx_ll_hrtim.h **** /* Exported constants --------------------------------------------------------*/
 474:Drivers/STM32G4xx_HAL_Driver/Inc/stm32g4xx_ll_hrtim.h **** /** @defgroup HRTIM_LL_Exported_Constants HRTIM Exported Constants
 475:Drivers/STM32G4xx_HAL_Driver/Inc/stm32g4xx_ll_hrtim.h ****   * @{
 476:Drivers/STM32G4xx_HAL_Driver/Inc/stm32g4xx_ll_hrtim.h ****   */
 477:Drivers/STM32G4xx_HAL_Driver/Inc/stm32g4xx_ll_hrtim.h **** 
 478:Drivers/STM32G4xx_HAL_Driver/Inc/stm32g4xx_ll_hrtim.h **** /** @defgroup HRTIM_LL_EC_GET_FLAG Get Flags Defines
 479:Drivers/STM32G4xx_HAL_Driver/Inc/stm32g4xx_ll_hrtim.h ****   * @brief    Flags defines which can be used with LL_HRTIM_ReadReg function
 480:Drivers/STM32G4xx_HAL_Driver/Inc/stm32g4xx_ll_hrtim.h ****   * @{
 481:Drivers/STM32G4xx_HAL_Driver/Inc/stm32g4xx_ll_hrtim.h ****   */
 482:Drivers/STM32G4xx_HAL_Driver/Inc/stm32g4xx_ll_hrtim.h **** #define LL_HRTIM_ISR_FLT1                  HRTIM_ISR_FLT1
 483:Drivers/STM32G4xx_HAL_Driver/Inc/stm32g4xx_ll_hrtim.h **** #define LL_HRTIM_ISR_FLT2                  HRTIM_ISR_FLT2
ARM GAS  D:\apps\VSCode\data\tmp\ccNKRXCB.s 			page 11


 484:Drivers/STM32G4xx_HAL_Driver/Inc/stm32g4xx_ll_hrtim.h **** #define LL_HRTIM_ISR_FLT3                  HRTIM_ISR_FLT3
 485:Drivers/STM32G4xx_HAL_Driver/Inc/stm32g4xx_ll_hrtim.h **** #define LL_HRTIM_ISR_FLT4                  HRTIM_ISR_FLT4
 486:Drivers/STM32G4xx_HAL_Driver/Inc/stm32g4xx_ll_hrtim.h **** #define LL_HRTIM_ISR_FLT5                  HRTIM_ISR_FLT5
 487:Drivers/STM32G4xx_HAL_Driver/Inc/stm32g4xx_ll_hrtim.h **** #define LL_HRTIM_ISR_FLT6                  HRTIM_ISR_FLT6
 488:Drivers/STM32G4xx_HAL_Driver/Inc/stm32g4xx_ll_hrtim.h **** #define LL_HRTIM_ISR_SYSFLT                HRTIM_ISR_SYSFLT
 489:Drivers/STM32G4xx_HAL_Driver/Inc/stm32g4xx_ll_hrtim.h **** #define LL_HRTIM_ISR_DLLRDY                HRTIM_ISR_DLLRDY
 490:Drivers/STM32G4xx_HAL_Driver/Inc/stm32g4xx_ll_hrtim.h **** #define LL_HRTIM_ISR_BMPER                 HRTIM_ISR_BMPER
 491:Drivers/STM32G4xx_HAL_Driver/Inc/stm32g4xx_ll_hrtim.h **** 
 492:Drivers/STM32G4xx_HAL_Driver/Inc/stm32g4xx_ll_hrtim.h **** #define LL_HRTIM_MISR_MCMP1                HRTIM_MISR_MCMP1
 493:Drivers/STM32G4xx_HAL_Driver/Inc/stm32g4xx_ll_hrtim.h **** #define LL_HRTIM_MISR_MCMP2                HRTIM_MISR_MCMP2
 494:Drivers/STM32G4xx_HAL_Driver/Inc/stm32g4xx_ll_hrtim.h **** #define LL_HRTIM_MISR_MCMP3                HRTIM_MISR_MCMP3
 495:Drivers/STM32G4xx_HAL_Driver/Inc/stm32g4xx_ll_hrtim.h **** #define LL_HRTIM_MISR_MCMP4                HRTIM_MISR_MCMP4
 496:Drivers/STM32G4xx_HAL_Driver/Inc/stm32g4xx_ll_hrtim.h **** #define LL_HRTIM_MISR_MREP                 HRTIM_MISR_MREP
 497:Drivers/STM32G4xx_HAL_Driver/Inc/stm32g4xx_ll_hrtim.h **** #define LL_HRTIM_MISR_SYNC                 HRTIM_MISR_SYNC
 498:Drivers/STM32G4xx_HAL_Driver/Inc/stm32g4xx_ll_hrtim.h **** #define LL_HRTIM_MISR_MUPD                 HRTIM_MISR_MUPD
 499:Drivers/STM32G4xx_HAL_Driver/Inc/stm32g4xx_ll_hrtim.h **** 
 500:Drivers/STM32G4xx_HAL_Driver/Inc/stm32g4xx_ll_hrtim.h **** #define LL_HRTIM_TIMISR_CMP1               HRTIM_TIMISR_CMP1
 501:Drivers/STM32G4xx_HAL_Driver/Inc/stm32g4xx_ll_hrtim.h **** #define LL_HRTIM_TIMISR_CMP2               HRTIM_TIMISR_CMP2
 502:Drivers/STM32G4xx_HAL_Driver/Inc/stm32g4xx_ll_hrtim.h **** #define LL_HRTIM_TIMISR_CMP3               HRTIM_TIMISR_CMP3
 503:Drivers/STM32G4xx_HAL_Driver/Inc/stm32g4xx_ll_hrtim.h **** #define LL_HRTIM_TIMISR_CMP4               HRTIM_TIMISR_CMP4
 504:Drivers/STM32G4xx_HAL_Driver/Inc/stm32g4xx_ll_hrtim.h **** #define LL_HRTIM_TIMISR_REP                HRTIM_TIMISR_REP
 505:Drivers/STM32G4xx_HAL_Driver/Inc/stm32g4xx_ll_hrtim.h **** #define LL_HRTIM_TIMISR_UPD                HRTIM_TIMISR_UPD
 506:Drivers/STM32G4xx_HAL_Driver/Inc/stm32g4xx_ll_hrtim.h **** #define LL_HRTIM_TIMISR_CPT1               HRTIM_TIMISR_CPT1
 507:Drivers/STM32G4xx_HAL_Driver/Inc/stm32g4xx_ll_hrtim.h **** #define LL_HRTIM_TIMISR_CPT2               HRTIM_TIMISR_CPT2
 508:Drivers/STM32G4xx_HAL_Driver/Inc/stm32g4xx_ll_hrtim.h **** #define LL_HRTIM_TIMISR_SET1               HRTIM_TIMISR_SET1
 509:Drivers/STM32G4xx_HAL_Driver/Inc/stm32g4xx_ll_hrtim.h **** #define LL_HRTIM_TIMISR_RST1               HRTIM_TIMISR_RST1
 510:Drivers/STM32G4xx_HAL_Driver/Inc/stm32g4xx_ll_hrtim.h **** #define LL_HRTIM_TIMISR_SET2               HRTIM_TIMISR_SET2
 511:Drivers/STM32G4xx_HAL_Driver/Inc/stm32g4xx_ll_hrtim.h **** #define LL_HRTIM_TIMISR_RST2               HRTIM_TIMISR_RST2
 512:Drivers/STM32G4xx_HAL_Driver/Inc/stm32g4xx_ll_hrtim.h **** #define LL_HRTIM_TIMISR_RST                HRTIM_TIMISR_RST
 513:Drivers/STM32G4xx_HAL_Driver/Inc/stm32g4xx_ll_hrtim.h **** #define LL_HRTIM_TIMISR_DLYPRT             HRTIM_TIMISR_DLYPRT
 514:Drivers/STM32G4xx_HAL_Driver/Inc/stm32g4xx_ll_hrtim.h **** /**
 515:Drivers/STM32G4xx_HAL_Driver/Inc/stm32g4xx_ll_hrtim.h ****   * @}
 516:Drivers/STM32G4xx_HAL_Driver/Inc/stm32g4xx_ll_hrtim.h ****   */
 517:Drivers/STM32G4xx_HAL_Driver/Inc/stm32g4xx_ll_hrtim.h **** 
 518:Drivers/STM32G4xx_HAL_Driver/Inc/stm32g4xx_ll_hrtim.h **** /** @defgroup HRTIM_LL_EC_IT IT Defines
 519:Drivers/STM32G4xx_HAL_Driver/Inc/stm32g4xx_ll_hrtim.h ****   * @brief    IT defines which can be used with LL_HRTIM_ReadReg and LL_HRTIM_WriteReg functions
 520:Drivers/STM32G4xx_HAL_Driver/Inc/stm32g4xx_ll_hrtim.h ****   * @{
 521:Drivers/STM32G4xx_HAL_Driver/Inc/stm32g4xx_ll_hrtim.h ****   */
 522:Drivers/STM32G4xx_HAL_Driver/Inc/stm32g4xx_ll_hrtim.h **** #define LL_HRTIM_IER_FLT1IE                HRTIM_IER_FLT1IE
 523:Drivers/STM32G4xx_HAL_Driver/Inc/stm32g4xx_ll_hrtim.h **** #define LL_HRTIM_IER_FLT2IE                HRTIM_IER_FLT2IE
 524:Drivers/STM32G4xx_HAL_Driver/Inc/stm32g4xx_ll_hrtim.h **** #define LL_HRTIM_IER_FLT3IE                HRTIM_IER_FLT3IE
 525:Drivers/STM32G4xx_HAL_Driver/Inc/stm32g4xx_ll_hrtim.h **** #define LL_HRTIM_IER_FLT4IE                HRTIM_IER_FLT4IE
 526:Drivers/STM32G4xx_HAL_Driver/Inc/stm32g4xx_ll_hrtim.h **** #define LL_HRTIM_IER_FLT5IE                HRTIM_IER_FLT5IE
 527:Drivers/STM32G4xx_HAL_Driver/Inc/stm32g4xx_ll_hrtim.h **** #define LL_HRTIM_IER_FLT6IE                HRTIM_IER_FLT6IE
 528:Drivers/STM32G4xx_HAL_Driver/Inc/stm32g4xx_ll_hrtim.h **** #define LL_HRTIM_IER_SYSFLTIE              HRTIM_IER_SYSFLTIE
 529:Drivers/STM32G4xx_HAL_Driver/Inc/stm32g4xx_ll_hrtim.h **** #define LL_HRTIM_IER_DLLRDYIE              HRTIM_IER_DLLRDYIE
 530:Drivers/STM32G4xx_HAL_Driver/Inc/stm32g4xx_ll_hrtim.h **** #define LL_HRTIM_IER_BMPERIE               HRTIM_IER_BMPERIE
 531:Drivers/STM32G4xx_HAL_Driver/Inc/stm32g4xx_ll_hrtim.h **** 
 532:Drivers/STM32G4xx_HAL_Driver/Inc/stm32g4xx_ll_hrtim.h **** #define LL_HRTIM_MDIER_MCMP1IE             HRTIM_MDIER_MCMP1IE
 533:Drivers/STM32G4xx_HAL_Driver/Inc/stm32g4xx_ll_hrtim.h **** #define LL_HRTIM_MDIER_MCMP2IE             HRTIM_MDIER_MCMP2IE
 534:Drivers/STM32G4xx_HAL_Driver/Inc/stm32g4xx_ll_hrtim.h **** #define LL_HRTIM_MDIER_MCMP3IE             HRTIM_MDIER_MCMP3IE
 535:Drivers/STM32G4xx_HAL_Driver/Inc/stm32g4xx_ll_hrtim.h **** #define LL_HRTIM_MDIER_MCMP4IE             HRTIM_MDIER_MCMP4IE
 536:Drivers/STM32G4xx_HAL_Driver/Inc/stm32g4xx_ll_hrtim.h **** #define LL_HRTIM_MDIER_MREPIE              HRTIM_MDIER_MREPIE
 537:Drivers/STM32G4xx_HAL_Driver/Inc/stm32g4xx_ll_hrtim.h **** #define LL_HRTIM_MDIER_SYNCIE              HRTIM_MDIER_SYNCIE
 538:Drivers/STM32G4xx_HAL_Driver/Inc/stm32g4xx_ll_hrtim.h **** #define LL_HRTIM_MDIER_MUPDIE              HRTIM_MDIER_MUPDIE
 539:Drivers/STM32G4xx_HAL_Driver/Inc/stm32g4xx_ll_hrtim.h **** 
 540:Drivers/STM32G4xx_HAL_Driver/Inc/stm32g4xx_ll_hrtim.h **** #define LL_HRTIM_TIMDIER_CMP1IE            HRTIM_TIMDIER_CMP1IE
ARM GAS  D:\apps\VSCode\data\tmp\ccNKRXCB.s 			page 12


 541:Drivers/STM32G4xx_HAL_Driver/Inc/stm32g4xx_ll_hrtim.h **** #define LL_HRTIM_TIMDIER_CMP2IE            HRTIM_TIMDIER_CMP2IE
 542:Drivers/STM32G4xx_HAL_Driver/Inc/stm32g4xx_ll_hrtim.h **** #define LL_HRTIM_TIMDIER_CMP3IE            HRTIM_TIMDIER_CMP3IE
 543:Drivers/STM32G4xx_HAL_Driver/Inc/stm32g4xx_ll_hrtim.h **** #define LL_HRTIM_TIMDIER_CMP4IE            HRTIM_TIMDIER_CMP4IE
 544:Drivers/STM32G4xx_HAL_Driver/Inc/stm32g4xx_ll_hrtim.h **** #define LL_HRTIM_TIMDIER_REPIE             HRTIM_TIMDIER_REPIE
 545:Drivers/STM32G4xx_HAL_Driver/Inc/stm32g4xx_ll_hrtim.h **** #define LL_HRTIM_TIMDIER_UPDIE             HRTIM_TIMDIER_UPDIE
 546:Drivers/STM32G4xx_HAL_Driver/Inc/stm32g4xx_ll_hrtim.h **** #define LL_HRTIM_TIMDIER_CPT1IE            HRTIM_TIMDIER_CPT1IE
 547:Drivers/STM32G4xx_HAL_Driver/Inc/stm32g4xx_ll_hrtim.h **** #define LL_HRTIM_TIMDIER_CPT2IE            HRTIM_TIMDIER_CPT2IE
 548:Drivers/STM32G4xx_HAL_Driver/Inc/stm32g4xx_ll_hrtim.h **** #define LL_HRTIM_TIMDIER_SET1IE            HRTIM_TIMDIER_SET1IE
 549:Drivers/STM32G4xx_HAL_Driver/Inc/stm32g4xx_ll_hrtim.h **** #define LL_HRTIM_TIMDIER_RST1IE            HRTIM_TIMDIER_RST1IE
 550:Drivers/STM32G4xx_HAL_Driver/Inc/stm32g4xx_ll_hrtim.h **** #define LL_HRTIM_TIMDIER_SET2IE            HRTIM_TIMDIER_SET2IE
 551:Drivers/STM32G4xx_HAL_Driver/Inc/stm32g4xx_ll_hrtim.h **** #define LL_HRTIM_TIMDIER_RST2IE            HRTIM_TIMDIER_RST2IE
 552:Drivers/STM32G4xx_HAL_Driver/Inc/stm32g4xx_ll_hrtim.h **** #define LL_HRTIM_TIMDIER_RSTIE             HRTIM_TIMDIER_RSTIE
 553:Drivers/STM32G4xx_HAL_Driver/Inc/stm32g4xx_ll_hrtim.h **** #define LL_HRTIM_TIMDIER_DLYPRTIE          HRTIM_TIMDIER_DLYPRTIE
 554:Drivers/STM32G4xx_HAL_Driver/Inc/stm32g4xx_ll_hrtim.h **** /**
 555:Drivers/STM32G4xx_HAL_Driver/Inc/stm32g4xx_ll_hrtim.h ****   * @}
 556:Drivers/STM32G4xx_HAL_Driver/Inc/stm32g4xx_ll_hrtim.h ****   */
 557:Drivers/STM32G4xx_HAL_Driver/Inc/stm32g4xx_ll_hrtim.h **** 
 558:Drivers/STM32G4xx_HAL_Driver/Inc/stm32g4xx_ll_hrtim.h **** /** @defgroup HRTIM_LL_EC_SYNCIN_SRC  SYNCHRONIZATION INPUT SOURCE
 559:Drivers/STM32G4xx_HAL_Driver/Inc/stm32g4xx_ll_hrtim.h ****   * @{
 560:Drivers/STM32G4xx_HAL_Driver/Inc/stm32g4xx_ll_hrtim.h ****   * @brief Constants defining defining the synchronization input source.
 561:Drivers/STM32G4xx_HAL_Driver/Inc/stm32g4xx_ll_hrtim.h ****   */
 562:Drivers/STM32G4xx_HAL_Driver/Inc/stm32g4xx_ll_hrtim.h **** #define LL_HRTIM_SYNCIN_SRC_NONE            0x00000000U                      /*!< HRTIM is not sync
 563:Drivers/STM32G4xx_HAL_Driver/Inc/stm32g4xx_ll_hrtim.h **** #define LL_HRTIM_SYNCIN_SRC_TIM_EVENT       (HRTIM_MCR_SYNC_IN_1)                        /*!< The H
 564:Drivers/STM32G4xx_HAL_Driver/Inc/stm32g4xx_ll_hrtim.h **** #define LL_HRTIM_SYNCIN_SRC_EXTERNAL_EVENT  (HRTIM_MCR_SYNC_IN_1 | HRTIM_MCR_SYNC_IN_0)  /*!< A pos
 565:Drivers/STM32G4xx_HAL_Driver/Inc/stm32g4xx_ll_hrtim.h **** /**
 566:Drivers/STM32G4xx_HAL_Driver/Inc/stm32g4xx_ll_hrtim.h ****   * @}
 567:Drivers/STM32G4xx_HAL_Driver/Inc/stm32g4xx_ll_hrtim.h ****   */
 568:Drivers/STM32G4xx_HAL_Driver/Inc/stm32g4xx_ll_hrtim.h **** 
 569:Drivers/STM32G4xx_HAL_Driver/Inc/stm32g4xx_ll_hrtim.h **** /** @defgroup HRTIM_LL_EC_SYNCOUT_SRC  SYNCHRONIZATION OUTPUT SOURCE
 570:Drivers/STM32G4xx_HAL_Driver/Inc/stm32g4xx_ll_hrtim.h ****   * @{
 571:Drivers/STM32G4xx_HAL_Driver/Inc/stm32g4xx_ll_hrtim.h ****   * @brief Constants defining the source and event to be sent on the synchronization output.
 572:Drivers/STM32G4xx_HAL_Driver/Inc/stm32g4xx_ll_hrtim.h ****   */
 573:Drivers/STM32G4xx_HAL_Driver/Inc/stm32g4xx_ll_hrtim.h **** #define LL_HRTIM_SYNCOUT_SRC_MASTER_START  0x00000000U                        /*!< A pulse is sent 
 574:Drivers/STM32G4xx_HAL_Driver/Inc/stm32g4xx_ll_hrtim.h **** #define LL_HRTIM_SYNCOUT_SRC_MASTER_CMP1   (HRTIM_MCR_SYNC_SRC_0)                         /*!< A pu
 575:Drivers/STM32G4xx_HAL_Driver/Inc/stm32g4xx_ll_hrtim.h **** #define LL_HRTIM_SYNCOUT_SRC_TIMA_START    (HRTIM_MCR_SYNC_SRC_1)                         /*!< A pu
 576:Drivers/STM32G4xx_HAL_Driver/Inc/stm32g4xx_ll_hrtim.h **** #define LL_HRTIM_SYNCOUT_SRC_TIMA_CMP1     (HRTIM_MCR_SYNC_SRC_1 | HRTIM_MCR_SYNC_SRC_0)  /*!< A pu
 577:Drivers/STM32G4xx_HAL_Driver/Inc/stm32g4xx_ll_hrtim.h **** /**
 578:Drivers/STM32G4xx_HAL_Driver/Inc/stm32g4xx_ll_hrtim.h ****   * @}
 579:Drivers/STM32G4xx_HAL_Driver/Inc/stm32g4xx_ll_hrtim.h ****   */
 580:Drivers/STM32G4xx_HAL_Driver/Inc/stm32g4xx_ll_hrtim.h **** 
 581:Drivers/STM32G4xx_HAL_Driver/Inc/stm32g4xx_ll_hrtim.h **** /** @defgroup HRTIM_LL_EC_SYNCOUT_POLARITY  SYNCHRONIZATION OUTPUT POLARITY
 582:Drivers/STM32G4xx_HAL_Driver/Inc/stm32g4xx_ll_hrtim.h ****   * @{
 583:Drivers/STM32G4xx_HAL_Driver/Inc/stm32g4xx_ll_hrtim.h ****   * @brief Constants defining the routing and conditioning of the synchronization output event.
 584:Drivers/STM32G4xx_HAL_Driver/Inc/stm32g4xx_ll_hrtim.h ****   */
 585:Drivers/STM32G4xx_HAL_Driver/Inc/stm32g4xx_ll_hrtim.h **** #define LL_HRTIM_SYNCOUT_DISABLED     0x00000000U                         /*!< Synchronization outp
 586:Drivers/STM32G4xx_HAL_Driver/Inc/stm32g4xx_ll_hrtim.h **** #define LL_HRTIM_SYNCOUT_POSITIVE_PULSE (HRTIM_MCR_SYNC_OUT_1)                        /*!< SCOUT pi
 587:Drivers/STM32G4xx_HAL_Driver/Inc/stm32g4xx_ll_hrtim.h **** #define LL_HRTIM_SYNCOUT_NEGATIVE_PULSE (HRTIM_MCR_SYNC_OUT_1 | HRTIM_MCR_SYNC_OUT_0) /*!< SCOUT pi
 588:Drivers/STM32G4xx_HAL_Driver/Inc/stm32g4xx_ll_hrtim.h **** /**
 589:Drivers/STM32G4xx_HAL_Driver/Inc/stm32g4xx_ll_hrtim.h ****   * @}
 590:Drivers/STM32G4xx_HAL_Driver/Inc/stm32g4xx_ll_hrtim.h ****   */
 591:Drivers/STM32G4xx_HAL_Driver/Inc/stm32g4xx_ll_hrtim.h **** 
 592:Drivers/STM32G4xx_HAL_Driver/Inc/stm32g4xx_ll_hrtim.h **** /** @defgroup HRTIM_LL_EC_TIMER  TIMER ID
 593:Drivers/STM32G4xx_HAL_Driver/Inc/stm32g4xx_ll_hrtim.h ****   * @{
 594:Drivers/STM32G4xx_HAL_Driver/Inc/stm32g4xx_ll_hrtim.h ****   * @brief Constants identifying a timing unit.
 595:Drivers/STM32G4xx_HAL_Driver/Inc/stm32g4xx_ll_hrtim.h ****   */
 596:Drivers/STM32G4xx_HAL_Driver/Inc/stm32g4xx_ll_hrtim.h **** #define LL_HRTIM_TIMER_NONE                0U   /*!< Master timer identifier */
 597:Drivers/STM32G4xx_HAL_Driver/Inc/stm32g4xx_ll_hrtim.h **** #define LL_HRTIM_TIMER_MASTER              HRTIM_MCR_MCEN   /*!< Master timer identifier */
ARM GAS  D:\apps\VSCode\data\tmp\ccNKRXCB.s 			page 13


 598:Drivers/STM32G4xx_HAL_Driver/Inc/stm32g4xx_ll_hrtim.h **** #define LL_HRTIM_TIMER_A                   HRTIM_MCR_TACEN  /*!< Timer A identifier */
 599:Drivers/STM32G4xx_HAL_Driver/Inc/stm32g4xx_ll_hrtim.h **** #define LL_HRTIM_TIMER_B                   HRTIM_MCR_TBCEN  /*!< Timer B identifier */
 600:Drivers/STM32G4xx_HAL_Driver/Inc/stm32g4xx_ll_hrtim.h **** #define LL_HRTIM_TIMER_C                   HRTIM_MCR_TCCEN  /*!< Timer C identifier */
 601:Drivers/STM32G4xx_HAL_Driver/Inc/stm32g4xx_ll_hrtim.h **** #define LL_HRTIM_TIMER_D                   HRTIM_MCR_TDCEN  /*!< Timer D identifier */
 602:Drivers/STM32G4xx_HAL_Driver/Inc/stm32g4xx_ll_hrtim.h **** #define LL_HRTIM_TIMER_E                   HRTIM_MCR_TECEN  /*!< Timer E identifier */
 603:Drivers/STM32G4xx_HAL_Driver/Inc/stm32g4xx_ll_hrtim.h **** #define LL_HRTIM_TIMER_F                   HRTIM_MCR_TFCEN  /*!< Timer F identifier */
 604:Drivers/STM32G4xx_HAL_Driver/Inc/stm32g4xx_ll_hrtim.h **** 
 605:Drivers/STM32G4xx_HAL_Driver/Inc/stm32g4xx_ll_hrtim.h **** #define LL_HRTIM_TIMER_X                  (HRTIM_MCR_TFCEN | HRTIM_MCR_TACEN |\
 606:Drivers/STM32G4xx_HAL_Driver/Inc/stm32g4xx_ll_hrtim.h ****                                            HRTIM_MCR_TBCEN | HRTIM_MCR_TCCEN |\
 607:Drivers/STM32G4xx_HAL_Driver/Inc/stm32g4xx_ll_hrtim.h ****                                            HRTIM_MCR_TDCEN | HRTIM_MCR_TECEN )
 608:Drivers/STM32G4xx_HAL_Driver/Inc/stm32g4xx_ll_hrtim.h **** #define LL_HRTIM_TIMER_ALL                (LL_HRTIM_TIMER_MASTER | LL_HRTIM_TIMER_X)
 609:Drivers/STM32G4xx_HAL_Driver/Inc/stm32g4xx_ll_hrtim.h **** 
 610:Drivers/STM32G4xx_HAL_Driver/Inc/stm32g4xx_ll_hrtim.h **** /**
 611:Drivers/STM32G4xx_HAL_Driver/Inc/stm32g4xx_ll_hrtim.h ****   * @}
 612:Drivers/STM32G4xx_HAL_Driver/Inc/stm32g4xx_ll_hrtim.h ****   */
 613:Drivers/STM32G4xx_HAL_Driver/Inc/stm32g4xx_ll_hrtim.h **** 
 614:Drivers/STM32G4xx_HAL_Driver/Inc/stm32g4xx_ll_hrtim.h **** /** @defgroup HRTIM_LL_EC_OUTPUT  OUTPUT ID
 615:Drivers/STM32G4xx_HAL_Driver/Inc/stm32g4xx_ll_hrtim.h ****   * @{
 616:Drivers/STM32G4xx_HAL_Driver/Inc/stm32g4xx_ll_hrtim.h ****   * @brief Constants identifying an HRTIM output.
 617:Drivers/STM32G4xx_HAL_Driver/Inc/stm32g4xx_ll_hrtim.h ****   */
 618:Drivers/STM32G4xx_HAL_Driver/Inc/stm32g4xx_ll_hrtim.h **** #define LL_HRTIM_OUTPUT_TA1                HRTIM_OENR_TA1OEN  /*!< Timer A - Output 1 identifier */
 619:Drivers/STM32G4xx_HAL_Driver/Inc/stm32g4xx_ll_hrtim.h **** #define LL_HRTIM_OUTPUT_TA2                HRTIM_OENR_TA2OEN  /*!< Timer A - Output 2 identifier */
 620:Drivers/STM32G4xx_HAL_Driver/Inc/stm32g4xx_ll_hrtim.h **** #define LL_HRTIM_OUTPUT_TB1                HRTIM_OENR_TB1OEN  /*!< Timer B - Output 1 identifier */
 621:Drivers/STM32G4xx_HAL_Driver/Inc/stm32g4xx_ll_hrtim.h **** #define LL_HRTIM_OUTPUT_TB2                HRTIM_OENR_TB2OEN  /*!< Timer B - Output 2 identifier */
 622:Drivers/STM32G4xx_HAL_Driver/Inc/stm32g4xx_ll_hrtim.h **** #define LL_HRTIM_OUTPUT_TC1                HRTIM_OENR_TC1OEN  /*!< Timer C - Output 1 identifier */
 623:Drivers/STM32G4xx_HAL_Driver/Inc/stm32g4xx_ll_hrtim.h **** #define LL_HRTIM_OUTPUT_TC2                HRTIM_OENR_TC2OEN  /*!< Timer C - Output 2 identifier */
 624:Drivers/STM32G4xx_HAL_Driver/Inc/stm32g4xx_ll_hrtim.h **** #define LL_HRTIM_OUTPUT_TD1                HRTIM_OENR_TD1OEN  /*!< Timer D - Output 1 identifier */
 625:Drivers/STM32G4xx_HAL_Driver/Inc/stm32g4xx_ll_hrtim.h **** #define LL_HRTIM_OUTPUT_TD2                HRTIM_OENR_TD2OEN  /*!< Timer D - Output 2 identifier */
 626:Drivers/STM32G4xx_HAL_Driver/Inc/stm32g4xx_ll_hrtim.h **** #define LL_HRTIM_OUTPUT_TE1                HRTIM_OENR_TE1OEN  /*!< Timer E - Output 1 identifier */
 627:Drivers/STM32G4xx_HAL_Driver/Inc/stm32g4xx_ll_hrtim.h **** #define LL_HRTIM_OUTPUT_TE2                HRTIM_OENR_TE2OEN  /*!< Timer E - Output 2 identifier */
 628:Drivers/STM32G4xx_HAL_Driver/Inc/stm32g4xx_ll_hrtim.h **** #define LL_HRTIM_OUTPUT_TF1                HRTIM_OENR_TF1OEN  /*!< Timer F - Output 1 identifier */
 629:Drivers/STM32G4xx_HAL_Driver/Inc/stm32g4xx_ll_hrtim.h **** #define LL_HRTIM_OUTPUT_TF2                HRTIM_OENR_TF2OEN  /*!< Timer F - Output 2 identifier */
 630:Drivers/STM32G4xx_HAL_Driver/Inc/stm32g4xx_ll_hrtim.h **** /**
 631:Drivers/STM32G4xx_HAL_Driver/Inc/stm32g4xx_ll_hrtim.h ****   * @}
 632:Drivers/STM32G4xx_HAL_Driver/Inc/stm32g4xx_ll_hrtim.h ****   */
 633:Drivers/STM32G4xx_HAL_Driver/Inc/stm32g4xx_ll_hrtim.h **** 
 634:Drivers/STM32G4xx_HAL_Driver/Inc/stm32g4xx_ll_hrtim.h **** /** @defgroup HRTIM_LL_EC_COMPAREUNIT  COMPARE UNIT ID
 635:Drivers/STM32G4xx_HAL_Driver/Inc/stm32g4xx_ll_hrtim.h ****   * @{
 636:Drivers/STM32G4xx_HAL_Driver/Inc/stm32g4xx_ll_hrtim.h ****   * @brief Constants identifying a compare unit.
 637:Drivers/STM32G4xx_HAL_Driver/Inc/stm32g4xx_ll_hrtim.h ****   */
 638:Drivers/STM32G4xx_HAL_Driver/Inc/stm32g4xx_ll_hrtim.h **** #define LL_HRTIM_COMPAREUNIT_2             HRTIM_TIMCR_DELCMP2  /*!< Compare unit 2 identifier */
 639:Drivers/STM32G4xx_HAL_Driver/Inc/stm32g4xx_ll_hrtim.h **** #define LL_HRTIM_COMPAREUNIT_4             HRTIM_TIMCR_DELCMP4  /*!< Compare unit 4 identifier */
 640:Drivers/STM32G4xx_HAL_Driver/Inc/stm32g4xx_ll_hrtim.h **** /**
 641:Drivers/STM32G4xx_HAL_Driver/Inc/stm32g4xx_ll_hrtim.h ****   * @}
 642:Drivers/STM32G4xx_HAL_Driver/Inc/stm32g4xx_ll_hrtim.h ****   */
 643:Drivers/STM32G4xx_HAL_Driver/Inc/stm32g4xx_ll_hrtim.h **** 
 644:Drivers/STM32G4xx_HAL_Driver/Inc/stm32g4xx_ll_hrtim.h **** /** @defgroup HRTIM_LL_EC_CAPTUREUNIT  CAPTURE UNIT ID
 645:Drivers/STM32G4xx_HAL_Driver/Inc/stm32g4xx_ll_hrtim.h ****   * @{
 646:Drivers/STM32G4xx_HAL_Driver/Inc/stm32g4xx_ll_hrtim.h ****   * @brief Constants identifying a capture unit.
 647:Drivers/STM32G4xx_HAL_Driver/Inc/stm32g4xx_ll_hrtim.h ****   */
 648:Drivers/STM32G4xx_HAL_Driver/Inc/stm32g4xx_ll_hrtim.h **** #define LL_HRTIM_CAPTUREUNIT_1             0  /*!< Capture unit 1 identifier */
 649:Drivers/STM32G4xx_HAL_Driver/Inc/stm32g4xx_ll_hrtim.h **** #define LL_HRTIM_CAPTUREUNIT_2             1  /*!< Capture unit 2 identifier */
 650:Drivers/STM32G4xx_HAL_Driver/Inc/stm32g4xx_ll_hrtim.h **** /**
 651:Drivers/STM32G4xx_HAL_Driver/Inc/stm32g4xx_ll_hrtim.h ****   * @}
 652:Drivers/STM32G4xx_HAL_Driver/Inc/stm32g4xx_ll_hrtim.h ****   */
 653:Drivers/STM32G4xx_HAL_Driver/Inc/stm32g4xx_ll_hrtim.h **** 
 654:Drivers/STM32G4xx_HAL_Driver/Inc/stm32g4xx_ll_hrtim.h **** /** @defgroup HRTIM_LL_EC_FAULT  FAULT ID
ARM GAS  D:\apps\VSCode\data\tmp\ccNKRXCB.s 			page 14


 655:Drivers/STM32G4xx_HAL_Driver/Inc/stm32g4xx_ll_hrtim.h ****   * @{
 656:Drivers/STM32G4xx_HAL_Driver/Inc/stm32g4xx_ll_hrtim.h ****   * @brief Constants identifying a fault channel.
 657:Drivers/STM32G4xx_HAL_Driver/Inc/stm32g4xx_ll_hrtim.h ****   */
 658:Drivers/STM32G4xx_HAL_Driver/Inc/stm32g4xx_ll_hrtim.h **** #define LL_HRTIM_FAULT_1      HRTIM_FLTR_FLT1EN     /*!< Fault channel 1 identifier */
 659:Drivers/STM32G4xx_HAL_Driver/Inc/stm32g4xx_ll_hrtim.h **** #define LL_HRTIM_FAULT_2      HRTIM_FLTR_FLT2EN     /*!< Fault channel 2 identifier */
 660:Drivers/STM32G4xx_HAL_Driver/Inc/stm32g4xx_ll_hrtim.h **** #define LL_HRTIM_FAULT_3      HRTIM_FLTR_FLT3EN     /*!< Fault channel 3 identifier */
 661:Drivers/STM32G4xx_HAL_Driver/Inc/stm32g4xx_ll_hrtim.h **** #define LL_HRTIM_FAULT_4      HRTIM_FLTR_FLT4EN     /*!< Fault channel 4 identifier */
 662:Drivers/STM32G4xx_HAL_Driver/Inc/stm32g4xx_ll_hrtim.h **** #define LL_HRTIM_FAULT_5      HRTIM_FLTR_FLT5EN     /*!< Fault channel 5 identifier */
 663:Drivers/STM32G4xx_HAL_Driver/Inc/stm32g4xx_ll_hrtim.h **** #define LL_HRTIM_FAULT_6      HRTIM_FLTR_FLT6EN     /*!< Fault channel 6 identifier */
 664:Drivers/STM32G4xx_HAL_Driver/Inc/stm32g4xx_ll_hrtim.h **** /**
 665:Drivers/STM32G4xx_HAL_Driver/Inc/stm32g4xx_ll_hrtim.h ****   * @}
 666:Drivers/STM32G4xx_HAL_Driver/Inc/stm32g4xx_ll_hrtim.h ****   */
 667:Drivers/STM32G4xx_HAL_Driver/Inc/stm32g4xx_ll_hrtim.h **** 
 668:Drivers/STM32G4xx_HAL_Driver/Inc/stm32g4xx_ll_hrtim.h **** /** @defgroup HRTIM_LL_EC_EVENT  EXTERNAL EVENT ID
 669:Drivers/STM32G4xx_HAL_Driver/Inc/stm32g4xx_ll_hrtim.h ****   * @{
 670:Drivers/STM32G4xx_HAL_Driver/Inc/stm32g4xx_ll_hrtim.h ****   * @brief Constants identifying an external event channel.
 671:Drivers/STM32G4xx_HAL_Driver/Inc/stm32g4xx_ll_hrtim.h ****   */
 672:Drivers/STM32G4xx_HAL_Driver/Inc/stm32g4xx_ll_hrtim.h **** #define LL_HRTIM_EVENT_1        ((uint32_t)0x00000001U)     /*!< External event channel 1 identifie
 673:Drivers/STM32G4xx_HAL_Driver/Inc/stm32g4xx_ll_hrtim.h **** #define LL_HRTIM_EVENT_2        ((uint32_t)0x00000002U)     /*!< External event channel 2 identifie
 674:Drivers/STM32G4xx_HAL_Driver/Inc/stm32g4xx_ll_hrtim.h **** #define LL_HRTIM_EVENT_3        ((uint32_t)0x00000004U)     /*!< External event channel 3 identifie
 675:Drivers/STM32G4xx_HAL_Driver/Inc/stm32g4xx_ll_hrtim.h **** #define LL_HRTIM_EVENT_4        ((uint32_t)0x00000008U)     /*!< External event channel 4 identifie
 676:Drivers/STM32G4xx_HAL_Driver/Inc/stm32g4xx_ll_hrtim.h **** #define LL_HRTIM_EVENT_5        ((uint32_t)0x00000010U)     /*!< External event channel 5 identifie
 677:Drivers/STM32G4xx_HAL_Driver/Inc/stm32g4xx_ll_hrtim.h **** #define LL_HRTIM_EVENT_6        ((uint32_t)0x00000020U)     /*!< External event channel 6 identifie
 678:Drivers/STM32G4xx_HAL_Driver/Inc/stm32g4xx_ll_hrtim.h **** #define LL_HRTIM_EVENT_7        ((uint32_t)0x00000040U)     /*!< External event channel 7 identifie
 679:Drivers/STM32G4xx_HAL_Driver/Inc/stm32g4xx_ll_hrtim.h **** #define LL_HRTIM_EVENT_8        ((uint32_t)0x00000080U)     /*!< External event channel 8 identifie
 680:Drivers/STM32G4xx_HAL_Driver/Inc/stm32g4xx_ll_hrtim.h **** #define LL_HRTIM_EVENT_9        ((uint32_t)0x00000100U)     /*!< External event channel 9 identifie
 681:Drivers/STM32G4xx_HAL_Driver/Inc/stm32g4xx_ll_hrtim.h **** #define LL_HRTIM_EVENT_10       ((uint32_t)0x00000200U)     /*!< External event channel 10 identifi
 682:Drivers/STM32G4xx_HAL_Driver/Inc/stm32g4xx_ll_hrtim.h **** /**
 683:Drivers/STM32G4xx_HAL_Driver/Inc/stm32g4xx_ll_hrtim.h ****   * @}
 684:Drivers/STM32G4xx_HAL_Driver/Inc/stm32g4xx_ll_hrtim.h ****   */
 685:Drivers/STM32G4xx_HAL_Driver/Inc/stm32g4xx_ll_hrtim.h **** 
 686:Drivers/STM32G4xx_HAL_Driver/Inc/stm32g4xx_ll_hrtim.h **** /** @defgroup HRTIM_LL_EC_OUTPUTSTATE  OUTPUT STATE
 687:Drivers/STM32G4xx_HAL_Driver/Inc/stm32g4xx_ll_hrtim.h ****   * @{
 688:Drivers/STM32G4xx_HAL_Driver/Inc/stm32g4xx_ll_hrtim.h ****   * @brief Constants defining the state of an HRTIM output.
 689:Drivers/STM32G4xx_HAL_Driver/Inc/stm32g4xx_ll_hrtim.h ****   */
 690:Drivers/STM32G4xx_HAL_Driver/Inc/stm32g4xx_ll_hrtim.h **** #define LL_HRTIM_OUTPUTSTATE_IDLE          ((uint32_t)0x00000001U) /*!< Main operating mode, where 
 691:Drivers/STM32G4xx_HAL_Driver/Inc/stm32g4xx_ll_hrtim.h **** #define LL_HRTIM_OUTPUTSTATE_RUN           ((uint32_t)0x00000002U) /*!< Default operating state (e.
 692:Drivers/STM32G4xx_HAL_Driver/Inc/stm32g4xx_ll_hrtim.h **** #define LL_HRTIM_OUTPUTSTATE_FAULT         ((uint32_t)0x00000003U) /*!< Safety state, entered in ca
 693:Drivers/STM32G4xx_HAL_Driver/Inc/stm32g4xx_ll_hrtim.h **** /**
 694:Drivers/STM32G4xx_HAL_Driver/Inc/stm32g4xx_ll_hrtim.h ****   * @}
 695:Drivers/STM32G4xx_HAL_Driver/Inc/stm32g4xx_ll_hrtim.h ****   */
 696:Drivers/STM32G4xx_HAL_Driver/Inc/stm32g4xx_ll_hrtim.h **** 
 697:Drivers/STM32G4xx_HAL_Driver/Inc/stm32g4xx_ll_hrtim.h **** /** @defgroup HRTIM_LL_EC_ADCTRIG  ADC TRIGGER
 698:Drivers/STM32G4xx_HAL_Driver/Inc/stm32g4xx_ll_hrtim.h ****   * @{
 699:Drivers/STM32G4xx_HAL_Driver/Inc/stm32g4xx_ll_hrtim.h ****   * @brief Constants identifying an ADC trigger.
 700:Drivers/STM32G4xx_HAL_Driver/Inc/stm32g4xx_ll_hrtim.h ****   */
 701:Drivers/STM32G4xx_HAL_Driver/Inc/stm32g4xx_ll_hrtim.h **** #define LL_HRTIM_ADCTRIG_1              ((uint32_t)0x00000000U) /*!< ADC trigger 1 identifier */
 702:Drivers/STM32G4xx_HAL_Driver/Inc/stm32g4xx_ll_hrtim.h **** #define LL_HRTIM_ADCTRIG_2              ((uint32_t)0x00000001U)  /*!< ADC trigger 2 identifier */
 703:Drivers/STM32G4xx_HAL_Driver/Inc/stm32g4xx_ll_hrtim.h **** #define LL_HRTIM_ADCTRIG_3              ((uint32_t)0x00000002U)  /*!< ADC trigger 3 identifier */
 704:Drivers/STM32G4xx_HAL_Driver/Inc/stm32g4xx_ll_hrtim.h **** #define LL_HRTIM_ADCTRIG_4              ((uint32_t)0x00000003U)  /*!< ADC trigger 4 identifier */
 705:Drivers/STM32G4xx_HAL_Driver/Inc/stm32g4xx_ll_hrtim.h **** #define LL_HRTIM_ADCTRIG_5              ((uint32_t)0x00000004U)  /*!< ADC trigger 5 identifier */
 706:Drivers/STM32G4xx_HAL_Driver/Inc/stm32g4xx_ll_hrtim.h **** #define LL_HRTIM_ADCTRIG_6              ((uint32_t)0x00000005U)  /*!< ADC trigger 6 identifier */
 707:Drivers/STM32G4xx_HAL_Driver/Inc/stm32g4xx_ll_hrtim.h **** #define LL_HRTIM_ADCTRIG_7              ((uint32_t)0x00000006U)  /*!< ADC trigger 7 identifier */
 708:Drivers/STM32G4xx_HAL_Driver/Inc/stm32g4xx_ll_hrtim.h **** #define LL_HRTIM_ADCTRIG_8              ((uint32_t)0x00000007U)  /*!< ADC trigger 8 identifier */
 709:Drivers/STM32G4xx_HAL_Driver/Inc/stm32g4xx_ll_hrtim.h **** #define LL_HRTIM_ADCTRIG_9              ((uint32_t)0x00000008U)  /*!< ADC trigger 9 identifier */
 710:Drivers/STM32G4xx_HAL_Driver/Inc/stm32g4xx_ll_hrtim.h **** #define LL_HRTIM_ADCTRIG_10             ((uint32_t)0x00000009U)  /*!< ADC trigger 10 identifier */
 711:Drivers/STM32G4xx_HAL_Driver/Inc/stm32g4xx_ll_hrtim.h **** /**
ARM GAS  D:\apps\VSCode\data\tmp\ccNKRXCB.s 			page 15


 712:Drivers/STM32G4xx_HAL_Driver/Inc/stm32g4xx_ll_hrtim.h ****   * @}
 713:Drivers/STM32G4xx_HAL_Driver/Inc/stm32g4xx_ll_hrtim.h ****   */
 714:Drivers/STM32G4xx_HAL_Driver/Inc/stm32g4xx_ll_hrtim.h **** 
 715:Drivers/STM32G4xx_HAL_Driver/Inc/stm32g4xx_ll_hrtim.h **** /** @defgroup HRTIM_LL_EC_ADCTRIG_UPDATE ADC TRIGGER UPDATE
 716:Drivers/STM32G4xx_HAL_Driver/Inc/stm32g4xx_ll_hrtim.h ****   * @{
 717:Drivers/STM32G4xx_HAL_Driver/Inc/stm32g4xx_ll_hrtim.h ****   * @brief constants defining the source triggering the update of the HRTIM_ADCxR register (transfe
 718:Drivers/STM32G4xx_HAL_Driver/Inc/stm32g4xx_ll_hrtim.h ****   */
 719:Drivers/STM32G4xx_HAL_Driver/Inc/stm32g4xx_ll_hrtim.h **** #define LL_HRTIM_ADCTRIG_UPDATE_MASTER  0x00000000U  /*!< HRTIM_ADCxR register update is triggered 
 720:Drivers/STM32G4xx_HAL_Driver/Inc/stm32g4xx_ll_hrtim.h **** #define LL_HRTIM_ADCTRIG_UPDATE_TIMER_A 0x00000001U  /*!< HRTIM_ADCxR register update is triggered 
 721:Drivers/STM32G4xx_HAL_Driver/Inc/stm32g4xx_ll_hrtim.h **** #define LL_HRTIM_ADCTRIG_UPDATE_TIMER_B 0x00000002U  /*!< HRTIM_ADCxR register update is triggered 
 722:Drivers/STM32G4xx_HAL_Driver/Inc/stm32g4xx_ll_hrtim.h **** #define LL_HRTIM_ADCTRIG_UPDATE_TIMER_C 0x00000003U  /*!< HRTIM_ADCxR register update is triggered 
 723:Drivers/STM32G4xx_HAL_Driver/Inc/stm32g4xx_ll_hrtim.h **** #define LL_HRTIM_ADCTRIG_UPDATE_TIMER_D 0x00000004U  /*!< HRTIM_ADCxR register update is triggered 
 724:Drivers/STM32G4xx_HAL_Driver/Inc/stm32g4xx_ll_hrtim.h **** #define LL_HRTIM_ADCTRIG_UPDATE_TIMER_E 0x00000005U  /*!< HRTIM_ADCxR register update is triggered 
 725:Drivers/STM32G4xx_HAL_Driver/Inc/stm32g4xx_ll_hrtim.h **** #define LL_HRTIM_ADCTRIG_UPDATE_TIMER_F 0x00000006U  /*!< HRTIM_ADCxR register update is triggered 
 726:Drivers/STM32G4xx_HAL_Driver/Inc/stm32g4xx_ll_hrtim.h **** /**
 727:Drivers/STM32G4xx_HAL_Driver/Inc/stm32g4xx_ll_hrtim.h ****   * @}
 728:Drivers/STM32G4xx_HAL_Driver/Inc/stm32g4xx_ll_hrtim.h ****   */
 729:Drivers/STM32G4xx_HAL_Driver/Inc/stm32g4xx_ll_hrtim.h **** 
 730:Drivers/STM32G4xx_HAL_Driver/Inc/stm32g4xx_ll_hrtim.h **** /** @defgroup HRTIM_LL_EC_ADCTRIG_SRC13  ADC TRIGGER 1/3 SOURCE
 731:Drivers/STM32G4xx_HAL_Driver/Inc/stm32g4xx_ll_hrtim.h ****   * @{
 732:Drivers/STM32G4xx_HAL_Driver/Inc/stm32g4xx_ll_hrtim.h ****   * @brief constants defining the events triggering ADC conversion for ADC Triggers 1 and 3.
 733:Drivers/STM32G4xx_HAL_Driver/Inc/stm32g4xx_ll_hrtim.h ****   */
 734:Drivers/STM32G4xx_HAL_Driver/Inc/stm32g4xx_ll_hrtim.h **** #define LL_HRTIM_ADCTRIG_SRC13_NONE           0x00000000U              /*!< No ADC trigger event */
 735:Drivers/STM32G4xx_HAL_Driver/Inc/stm32g4xx_ll_hrtim.h **** #define LL_HRTIM_ADCTRIG_SRC13_MCMP1          HRTIM_ADC1R_AD1MC1       /*!< ADC Trigger on master c
 736:Drivers/STM32G4xx_HAL_Driver/Inc/stm32g4xx_ll_hrtim.h **** #define LL_HRTIM_ADCTRIG_SRC13_MCMP2          HRTIM_ADC1R_AD1MC2       /*!< ADC Trigger on master c
 737:Drivers/STM32G4xx_HAL_Driver/Inc/stm32g4xx_ll_hrtim.h **** #define LL_HRTIM_ADCTRIG_SRC13_MCMP3          HRTIM_ADC1R_AD1MC3       /*!< ADC Trigger on master c
 738:Drivers/STM32G4xx_HAL_Driver/Inc/stm32g4xx_ll_hrtim.h **** #define LL_HRTIM_ADCTRIG_SRC13_MCMP4          HRTIM_ADC1R_AD1MC4       /*!< ADC Trigger on master c
 739:Drivers/STM32G4xx_HAL_Driver/Inc/stm32g4xx_ll_hrtim.h **** #define LL_HRTIM_ADCTRIG_SRC13_MPER           HRTIM_ADC1R_AD1MPER      /*!< ADC Trigger on master p
 740:Drivers/STM32G4xx_HAL_Driver/Inc/stm32g4xx_ll_hrtim.h **** #define LL_HRTIM_ADCTRIG_SRC13_EEV1           HRTIM_ADC1R_AD1EEV1      /*!< ADC Trigger on external
 741:Drivers/STM32G4xx_HAL_Driver/Inc/stm32g4xx_ll_hrtim.h **** #define LL_HRTIM_ADCTRIG_SRC13_EEV2           HRTIM_ADC1R_AD1EEV2      /*!< ADC Trigger on external
 742:Drivers/STM32G4xx_HAL_Driver/Inc/stm32g4xx_ll_hrtim.h **** #define LL_HRTIM_ADCTRIG_SRC13_EEV3           HRTIM_ADC1R_AD1EEV3      /*!< ADC Trigger on external
 743:Drivers/STM32G4xx_HAL_Driver/Inc/stm32g4xx_ll_hrtim.h **** #define LL_HRTIM_ADCTRIG_SRC13_EEV4           HRTIM_ADC1R_AD1EEV4      /*!< ADC Trigger on external
 744:Drivers/STM32G4xx_HAL_Driver/Inc/stm32g4xx_ll_hrtim.h **** #define LL_HRTIM_ADCTRIG_SRC13_EEV5           HRTIM_ADC1R_AD1EEV5      /*!< ADC Trigger on external
 745:Drivers/STM32G4xx_HAL_Driver/Inc/stm32g4xx_ll_hrtim.h **** #define LL_HRTIM_ADCTRIG_SRC13_TIMFCMP2       HRTIM_ADC1R_AD1TFC2      /*!< ADC Trigger on Timer F 
 746:Drivers/STM32G4xx_HAL_Driver/Inc/stm32g4xx_ll_hrtim.h **** #define LL_HRTIM_ADCTRIG_SRC13_TIMACMP3       HRTIM_ADC1R_AD1TAC3      /*!< ADC Trigger on Timer A 
 747:Drivers/STM32G4xx_HAL_Driver/Inc/stm32g4xx_ll_hrtim.h **** #define LL_HRTIM_ADCTRIG_SRC13_TIMACMP4       HRTIM_ADC1R_AD1TAC4      /*!< ADC Trigger on Timer A 
 748:Drivers/STM32G4xx_HAL_Driver/Inc/stm32g4xx_ll_hrtim.h **** #define LL_HRTIM_ADCTRIG_SRC13_TIMAPER        HRTIM_ADC1R_AD1TAPER     /*!< ADC Trigger on Timer A 
 749:Drivers/STM32G4xx_HAL_Driver/Inc/stm32g4xx_ll_hrtim.h **** #define LL_HRTIM_ADCTRIG_SRC13_TIMARST        HRTIM_ADC1R_AD1TARST     /*!< ADC Trigger on Timer A 
 750:Drivers/STM32G4xx_HAL_Driver/Inc/stm32g4xx_ll_hrtim.h **** #define LL_HRTIM_ADCTRIG_SRC13_TIMFCMP3       HRTIM_ADC1R_AD1TFC3      /*!< ADC Trigger on Timer F 
 751:Drivers/STM32G4xx_HAL_Driver/Inc/stm32g4xx_ll_hrtim.h **** #define LL_HRTIM_ADCTRIG_SRC13_TIMBCMP3       HRTIM_ADC1R_AD1TBC3      /*!< ADC Trigger on Timer B 
 752:Drivers/STM32G4xx_HAL_Driver/Inc/stm32g4xx_ll_hrtim.h **** #define LL_HRTIM_ADCTRIG_SRC13_TIMBCMP4       HRTIM_ADC1R_AD1TBC4      /*!< ADC Trigger on Timer B 
 753:Drivers/STM32G4xx_HAL_Driver/Inc/stm32g4xx_ll_hrtim.h **** #define LL_HRTIM_ADCTRIG_SRC13_TIMBPER        HRTIM_ADC1R_AD1TBPER     /*!< ADC Trigger on Timer B 
 754:Drivers/STM32G4xx_HAL_Driver/Inc/stm32g4xx_ll_hrtim.h **** #define LL_HRTIM_ADCTRIG_SRC13_TIMBRST        HRTIM_ADC1R_AD1TBRST     /*!< ADC Trigger on Timer B 
 755:Drivers/STM32G4xx_HAL_Driver/Inc/stm32g4xx_ll_hrtim.h **** #define LL_HRTIM_ADCTRIG_SRC13_TIMFCMP4       HRTIM_ADC1R_AD1TFC4      /*!< ADC Trigger on Timer F 
 756:Drivers/STM32G4xx_HAL_Driver/Inc/stm32g4xx_ll_hrtim.h **** #define LL_HRTIM_ADCTRIG_SRC13_TIMCCMP3       HRTIM_ADC1R_AD1TCC3      /*!< ADC Trigger on Timer C 
 757:Drivers/STM32G4xx_HAL_Driver/Inc/stm32g4xx_ll_hrtim.h **** #define LL_HRTIM_ADCTRIG_SRC13_TIMCCMP4       HRTIM_ADC1R_AD1TCC4      /*!< ADC Trigger on Timer C 
 758:Drivers/STM32G4xx_HAL_Driver/Inc/stm32g4xx_ll_hrtim.h **** #define LL_HRTIM_ADCTRIG_SRC13_TIMCPER        HRTIM_ADC1R_AD1TCPER     /*!< ADC Trigger on Timer C 
 759:Drivers/STM32G4xx_HAL_Driver/Inc/stm32g4xx_ll_hrtim.h **** #define LL_HRTIM_ADCTRIG_SRC13_TIMFPER        HRTIM_ADC1R_AD1TFPER     /*!< ADC Trigger on Timer F 
 760:Drivers/STM32G4xx_HAL_Driver/Inc/stm32g4xx_ll_hrtim.h **** #define LL_HRTIM_ADCTRIG_SRC13_TIMDCMP3       HRTIM_ADC1R_AD1TDC3      /*!< ADC Trigger on Timer D 
 761:Drivers/STM32G4xx_HAL_Driver/Inc/stm32g4xx_ll_hrtim.h **** #define LL_HRTIM_ADCTRIG_SRC13_TIMDCMP4       HRTIM_ADC1R_AD1TDC4      /*!< ADC Trigger on Timer D 
 762:Drivers/STM32G4xx_HAL_Driver/Inc/stm32g4xx_ll_hrtim.h **** #define LL_HRTIM_ADCTRIG_SRC13_TIMDPER        HRTIM_ADC1R_AD1TDPER     /*!< ADC Trigger on Timer D 
 763:Drivers/STM32G4xx_HAL_Driver/Inc/stm32g4xx_ll_hrtim.h **** #define LL_HRTIM_ADCTRIG_SRC13_TIMFRST        HRTIM_ADC1R_AD1TFRST     /*!< ADC Trigger on Timer F 
 764:Drivers/STM32G4xx_HAL_Driver/Inc/stm32g4xx_ll_hrtim.h **** #define LL_HRTIM_ADCTRIG_SRC13_TIMECMP3       HRTIM_ADC1R_AD1TEC3      /*!< ADC Trigger on Timer E 
 765:Drivers/STM32G4xx_HAL_Driver/Inc/stm32g4xx_ll_hrtim.h **** #define LL_HRTIM_ADCTRIG_SRC13_TIMECMP4       HRTIM_ADC1R_AD1TEC4      /*!< ADC Trigger on Timer E 
 766:Drivers/STM32G4xx_HAL_Driver/Inc/stm32g4xx_ll_hrtim.h **** #define LL_HRTIM_ADCTRIG_SRC13_TIMEPER        HRTIM_ADC1R_AD1TEPER     /*!< ADC Trigger on Timer E 
 767:Drivers/STM32G4xx_HAL_Driver/Inc/stm32g4xx_ll_hrtim.h **** /**
 768:Drivers/STM32G4xx_HAL_Driver/Inc/stm32g4xx_ll_hrtim.h ****   * @}
ARM GAS  D:\apps\VSCode\data\tmp\ccNKRXCB.s 			page 16


 769:Drivers/STM32G4xx_HAL_Driver/Inc/stm32g4xx_ll_hrtim.h ****   */
 770:Drivers/STM32G4xx_HAL_Driver/Inc/stm32g4xx_ll_hrtim.h **** 
 771:Drivers/STM32G4xx_HAL_Driver/Inc/stm32g4xx_ll_hrtim.h **** /** @defgroup HRTIM_LL_EC_ADCTRIG_SRC24  ADC TRIGGER 2/4 SOURCE
 772:Drivers/STM32G4xx_HAL_Driver/Inc/stm32g4xx_ll_hrtim.h ****   * @{
 773:Drivers/STM32G4xx_HAL_Driver/Inc/stm32g4xx_ll_hrtim.h ****   * @brief constants defining the events triggering ADC conversion for ADC Triggers 2 and 4.
 774:Drivers/STM32G4xx_HAL_Driver/Inc/stm32g4xx_ll_hrtim.h ****   */
 775:Drivers/STM32G4xx_HAL_Driver/Inc/stm32g4xx_ll_hrtim.h **** #define LL_HRTIM_ADCTRIG_SRC24_NONE           0x00000000U            /*!< No ADC trigger event */
 776:Drivers/STM32G4xx_HAL_Driver/Inc/stm32g4xx_ll_hrtim.h **** #define LL_HRTIM_ADCTRIG_SRC24_MCMP1          HRTIM_ADC2R_AD2MC1     /*!< ADC Trigger on master com
 777:Drivers/STM32G4xx_HAL_Driver/Inc/stm32g4xx_ll_hrtim.h **** #define LL_HRTIM_ADCTRIG_SRC24_MCMP2          HRTIM_ADC2R_AD2MC2     /*!< ADC Trigger on master com
 778:Drivers/STM32G4xx_HAL_Driver/Inc/stm32g4xx_ll_hrtim.h **** #define LL_HRTIM_ADCTRIG_SRC24_MCMP3          HRTIM_ADC2R_AD2MC3     /*!< ADC Trigger on master com
 779:Drivers/STM32G4xx_HAL_Driver/Inc/stm32g4xx_ll_hrtim.h **** #define LL_HRTIM_ADCTRIG_SRC24_MCMP4          HRTIM_ADC2R_AD2MC4     /*!< ADC Trigger on master com
 780:Drivers/STM32G4xx_HAL_Driver/Inc/stm32g4xx_ll_hrtim.h **** #define LL_HRTIM_ADCTRIG_SRC24_MPER           HRTIM_ADC2R_AD2MPER    /*!< ADC Trigger on master per
 781:Drivers/STM32G4xx_HAL_Driver/Inc/stm32g4xx_ll_hrtim.h **** #define LL_HRTIM_ADCTRIG_SRC24_EEV6           HRTIM_ADC2R_AD2EEV6    /*!< ADC Trigger on external e
 782:Drivers/STM32G4xx_HAL_Driver/Inc/stm32g4xx_ll_hrtim.h **** #define LL_HRTIM_ADCTRIG_SRC24_EEV7           HRTIM_ADC2R_AD2EEV7    /*!< ADC Trigger on external e
 783:Drivers/STM32G4xx_HAL_Driver/Inc/stm32g4xx_ll_hrtim.h **** #define LL_HRTIM_ADCTRIG_SRC24_EEV8           HRTIM_ADC2R_AD2EEV8    /*!< ADC Trigger on external e
 784:Drivers/STM32G4xx_HAL_Driver/Inc/stm32g4xx_ll_hrtim.h **** #define LL_HRTIM_ADCTRIG_SRC24_EEV9           HRTIM_ADC2R_AD2EEV9    /*!< ADC Trigger on external e
 785:Drivers/STM32G4xx_HAL_Driver/Inc/stm32g4xx_ll_hrtim.h **** #define LL_HRTIM_ADCTRIG_SRC24_EEV10          HRTIM_ADC2R_AD2EEV10   /*!< ADC Trigger on external e
 786:Drivers/STM32G4xx_HAL_Driver/Inc/stm32g4xx_ll_hrtim.h **** #define LL_HRTIM_ADCTRIG_SRC24_TIMACMP2       HRTIM_ADC2R_AD2TAC2    /*!< ADC Trigger on Timer A co
 787:Drivers/STM32G4xx_HAL_Driver/Inc/stm32g4xx_ll_hrtim.h **** #define LL_HRTIM_ADCTRIG_SRC24_TIMFCMP2       HRTIM_ADC2R_AD2TFC2    /*!< ADC Trigger on Timer F co
 788:Drivers/STM32G4xx_HAL_Driver/Inc/stm32g4xx_ll_hrtim.h **** #define LL_HRTIM_ADCTRIG_SRC24_TIMACMP4       HRTIM_ADC2R_AD2TAC4    /*!< ADC Trigger on Timer A co
 789:Drivers/STM32G4xx_HAL_Driver/Inc/stm32g4xx_ll_hrtim.h **** #define LL_HRTIM_ADCTRIG_SRC24_TIMAPER        HRTIM_ADC2R_AD2TAPER   /*!< ADC Trigger on Timer A pe
 790:Drivers/STM32G4xx_HAL_Driver/Inc/stm32g4xx_ll_hrtim.h **** #define LL_HRTIM_ADCTRIG_SRC24_TIMBCMP2       HRTIM_ADC2R_AD2TBC2    /*!< ADC Trigger on Timer B co
 791:Drivers/STM32G4xx_HAL_Driver/Inc/stm32g4xx_ll_hrtim.h **** #define LL_HRTIM_ADCTRIG_SRC24_TIMFCMP3       HRTIM_ADC2R_AD2TFC3    /*!< ADC Trigger on Timer F co
 792:Drivers/STM32G4xx_HAL_Driver/Inc/stm32g4xx_ll_hrtim.h **** #define LL_HRTIM_ADCTRIG_SRC24_TIMBCMP4       HRTIM_ADC2R_AD2TBC4    /*!< ADC Trigger on Timer B co
 793:Drivers/STM32G4xx_HAL_Driver/Inc/stm32g4xx_ll_hrtim.h **** #define LL_HRTIM_ADCTRIG_SRC24_TIMBPER        HRTIM_ADC2R_AD2TBPER   /*!< ADC Trigger on Timer B pe
 794:Drivers/STM32G4xx_HAL_Driver/Inc/stm32g4xx_ll_hrtim.h **** #define LL_HRTIM_ADCTRIG_SRC24_TIMCCMP2       HRTIM_ADC2R_AD2TCC2    /*!< ADC Trigger on Timer C co
 795:Drivers/STM32G4xx_HAL_Driver/Inc/stm32g4xx_ll_hrtim.h **** #define LL_HRTIM_ADCTRIG_SRC24_TIMFCMP4       HRTIM_ADC2R_AD2TFC4    /*!< ADC Trigger on Timer F co
 796:Drivers/STM32G4xx_HAL_Driver/Inc/stm32g4xx_ll_hrtim.h **** #define LL_HRTIM_ADCTRIG_SRC24_TIMCCMP4       HRTIM_ADC2R_AD2TCC4    /*!< ADC Trigger on Timer C co
 797:Drivers/STM32G4xx_HAL_Driver/Inc/stm32g4xx_ll_hrtim.h **** #define LL_HRTIM_ADCTRIG_SRC24_TIMCPER        HRTIM_ADC2R_AD2TCPER   /*!< ADC Trigger on Timer C pe
 798:Drivers/STM32G4xx_HAL_Driver/Inc/stm32g4xx_ll_hrtim.h **** #define LL_HRTIM_ADCTRIG_SRC24_TIMCRST        HRTIM_ADC2R_AD2TCRST   /*!< ADC Trigger on Timer C re
 799:Drivers/STM32G4xx_HAL_Driver/Inc/stm32g4xx_ll_hrtim.h **** #define LL_HRTIM_ADCTRIG_SRC24_TIMDCMP2       HRTIM_ADC2R_AD2TDC2    /*!< ADC Trigger on Timer D co
 800:Drivers/STM32G4xx_HAL_Driver/Inc/stm32g4xx_ll_hrtim.h **** #define LL_HRTIM_ADCTRIG_SRC24_TIMFPER        HRTIM_ADC2R_AD2TFPER   /*!< ADC Trigger on Timer F pe
 801:Drivers/STM32G4xx_HAL_Driver/Inc/stm32g4xx_ll_hrtim.h **** #define LL_HRTIM_ADCTRIG_SRC24_TIMDCMP4       HRTIM_ADC2R_AD2TDC4    /*!< ADC Trigger on Timer D co
 802:Drivers/STM32G4xx_HAL_Driver/Inc/stm32g4xx_ll_hrtim.h **** #define LL_HRTIM_ADCTRIG_SRC24_TIMDPER        HRTIM_ADC2R_AD2TDPER   /*!< ADC Trigger on Timer D pe
 803:Drivers/STM32G4xx_HAL_Driver/Inc/stm32g4xx_ll_hrtim.h **** #define LL_HRTIM_ADCTRIG_SRC24_TIMDRST        HRTIM_ADC2R_AD2TDRST   /*!< ADC Trigger on Timer D re
 804:Drivers/STM32G4xx_HAL_Driver/Inc/stm32g4xx_ll_hrtim.h **** #define LL_HRTIM_ADCTRIG_SRC24_TIMECMP2       HRTIM_ADC2R_AD2TEC2    /*!< ADC Trigger on Timer E co
 805:Drivers/STM32G4xx_HAL_Driver/Inc/stm32g4xx_ll_hrtim.h **** #define LL_HRTIM_ADCTRIG_SRC24_TIMECMP3       HRTIM_ADC2R_AD2TEC3    /*!< ADC Trigger on Timer E co
 806:Drivers/STM32G4xx_HAL_Driver/Inc/stm32g4xx_ll_hrtim.h **** #define LL_HRTIM_ADCTRIG_SRC24_TIMECMP4       HRTIM_ADC2R_AD2TEC4    /*!< ADC Trigger on Timer E co
 807:Drivers/STM32G4xx_HAL_Driver/Inc/stm32g4xx_ll_hrtim.h **** #define LL_HRTIM_ADCTRIG_SRC24_TIMERST        HRTIM_ADC2R_AD2TERST   /*!< ADC Trigger on Timer E re
 808:Drivers/STM32G4xx_HAL_Driver/Inc/stm32g4xx_ll_hrtim.h **** /**
 809:Drivers/STM32G4xx_HAL_Driver/Inc/stm32g4xx_ll_hrtim.h ****   * @}
 810:Drivers/STM32G4xx_HAL_Driver/Inc/stm32g4xx_ll_hrtim.h ****   */
 811:Drivers/STM32G4xx_HAL_Driver/Inc/stm32g4xx_ll_hrtim.h **** 
 812:Drivers/STM32G4xx_HAL_Driver/Inc/stm32g4xx_ll_hrtim.h **** /** @defgroup HRTIM_ADC_TRIG HRTIM ADC TRIGGER SELECTION
 813:Drivers/STM32G4xx_HAL_Driver/Inc/stm32g4xx_ll_hrtim.h ****   * @{
 814:Drivers/STM32G4xx_HAL_Driver/Inc/stm32g4xx_ll_hrtim.h ****   * @brief Constants defining the selection that can be used as ADC trigger source for extended ADC
 815:Drivers/STM32G4xx_HAL_Driver/Inc/stm32g4xx_ll_hrtim.h ****   */
 816:Drivers/STM32G4xx_HAL_Driver/Inc/stm32g4xx_ll_hrtim.h **** #define LL_HRTIM_ADCTRIG_SRC6810_MCMP1        (uint32_t)0x00                        /*!<  ADC exten
 817:Drivers/STM32G4xx_HAL_Driver/Inc/stm32g4xx_ll_hrtim.h **** #define LL_HRTIM_ADCTRIG_SRC6810_MCMP2        (uint32_t)0x01                        /*!<  ADC exten
 818:Drivers/STM32G4xx_HAL_Driver/Inc/stm32g4xx_ll_hrtim.h **** #define LL_HRTIM_ADCTRIG_SRC6810_MCMP3        (uint32_t)0x02                        /*!<  ADC exten
 819:Drivers/STM32G4xx_HAL_Driver/Inc/stm32g4xx_ll_hrtim.h **** #define LL_HRTIM_ADCTRIG_SRC6810_MCMP4        (uint32_t)0x03                        /*!<  ADC exten
 820:Drivers/STM32G4xx_HAL_Driver/Inc/stm32g4xx_ll_hrtim.h **** #define LL_HRTIM_ADCTRIG_SRC6810_MPER         (uint32_t)0x04                        /*!<  ADC exten
 821:Drivers/STM32G4xx_HAL_Driver/Inc/stm32g4xx_ll_hrtim.h **** #define LL_HRTIM_ADCTRIG_SRC6810_EEV6         (uint32_t)0x05                        /*!<  ADC exten
 822:Drivers/STM32G4xx_HAL_Driver/Inc/stm32g4xx_ll_hrtim.h **** #define LL_HRTIM_ADCTRIG_SRC6810_EEV7         (uint32_t)0x06                        /*!<  ADC exten
 823:Drivers/STM32G4xx_HAL_Driver/Inc/stm32g4xx_ll_hrtim.h **** #define LL_HRTIM_ADCTRIG_SRC6810_EEV8         (uint32_t)0x07                        /*!<  ADC exten
 824:Drivers/STM32G4xx_HAL_Driver/Inc/stm32g4xx_ll_hrtim.h **** #define LL_HRTIM_ADCTRIG_SRC6810_EEV9         (uint32_t)0x08                        /*!<  ADC exten
 825:Drivers/STM32G4xx_HAL_Driver/Inc/stm32g4xx_ll_hrtim.h **** #define LL_HRTIM_ADCTRIG_SRC6810_EEV10        (uint32_t)0x09                        /*!<  ADC exten
ARM GAS  D:\apps\VSCode\data\tmp\ccNKRXCB.s 			page 17


 826:Drivers/STM32G4xx_HAL_Driver/Inc/stm32g4xx_ll_hrtim.h **** #define LL_HRTIM_ADCTRIG_SRC6810_TIMA_CMP2    (uint32_t)0x0A                        /*!<  ADC exten
 827:Drivers/STM32G4xx_HAL_Driver/Inc/stm32g4xx_ll_hrtim.h **** #define LL_HRTIM_ADCTRIG_SRC6810_TIMA_CMP4    (uint32_t)0x0B                        /*!<  ADC exten
 828:Drivers/STM32G4xx_HAL_Driver/Inc/stm32g4xx_ll_hrtim.h **** #define LL_HRTIM_ADCTRIG_SRC6810_TIMA_PER     (uint32_t)0x0C                        /*!<  ADC exten
 829:Drivers/STM32G4xx_HAL_Driver/Inc/stm32g4xx_ll_hrtim.h **** #define LL_HRTIM_ADCTRIG_SRC6810_TIMB_CMP2    (uint32_t)0x0D                        /*!<  ADC exten
 830:Drivers/STM32G4xx_HAL_Driver/Inc/stm32g4xx_ll_hrtim.h **** #define LL_HRTIM_ADCTRIG_SRC6810_TIMB_CMP4    (uint32_t)0x0E                        /*!<  ADC exten
 831:Drivers/STM32G4xx_HAL_Driver/Inc/stm32g4xx_ll_hrtim.h **** #define LL_HRTIM_ADCTRIG_SRC6810_TIMB_PER     (uint32_t)0x0F                        /*!<  ADC exten
 832:Drivers/STM32G4xx_HAL_Driver/Inc/stm32g4xx_ll_hrtim.h **** #define LL_HRTIM_ADCTRIG_SRC6810_TIMC_CMP2    (uint32_t)0x10                        /*!<  ADC exten
 833:Drivers/STM32G4xx_HAL_Driver/Inc/stm32g4xx_ll_hrtim.h **** #define LL_HRTIM_ADCTRIG_SRC6810_TIMC_CMP4    (uint32_t)0x11                        /*!<  ADC exten
 834:Drivers/STM32G4xx_HAL_Driver/Inc/stm32g4xx_ll_hrtim.h **** #define LL_HRTIM_ADCTRIG_SRC6810_TIMC_PER     (uint32_t)0x12                        /*!<  ADC exten
 835:Drivers/STM32G4xx_HAL_Driver/Inc/stm32g4xx_ll_hrtim.h **** #define LL_HRTIM_ADCTRIG_SRC6810_TIMC_RST     (uint32_t)0x13                        /*!<  ADC exten
 836:Drivers/STM32G4xx_HAL_Driver/Inc/stm32g4xx_ll_hrtim.h **** #define LL_HRTIM_ADCTRIG_SRC6810_TIMD_CMP2    (uint32_t)0x14                        /*!<  ADC exten
 837:Drivers/STM32G4xx_HAL_Driver/Inc/stm32g4xx_ll_hrtim.h **** #define LL_HRTIM_ADCTRIG_SRC6810_TIMD_CMP4    (uint32_t)0x15                        /*!<  ADC exten
 838:Drivers/STM32G4xx_HAL_Driver/Inc/stm32g4xx_ll_hrtim.h **** #define LL_HRTIM_ADCTRIG_SRC6810_TIMD_PER     (uint32_t)0x16                        /*!<  ADC exten
 839:Drivers/STM32G4xx_HAL_Driver/Inc/stm32g4xx_ll_hrtim.h **** #define LL_HRTIM_ADCTRIG_SRC6810_TIMD_RST     (uint32_t)0x17                        /*!<  ADC exten
 840:Drivers/STM32G4xx_HAL_Driver/Inc/stm32g4xx_ll_hrtim.h **** #define LL_HRTIM_ADCTRIG_SRC6810_TIME_CMP2    (uint32_t)0x18                        /*!<  ADC exten
 841:Drivers/STM32G4xx_HAL_Driver/Inc/stm32g4xx_ll_hrtim.h **** #define LL_HRTIM_ADCTRIG_SRC6810_TIME_CMP3    (uint32_t)0x19                        /*!<  ADC exten
 842:Drivers/STM32G4xx_HAL_Driver/Inc/stm32g4xx_ll_hrtim.h **** #define LL_HRTIM_ADCTRIG_SRC6810_TIME_CMP4    (uint32_t)0x1A                        /*!<  ADC exten
 843:Drivers/STM32G4xx_HAL_Driver/Inc/stm32g4xx_ll_hrtim.h **** #define LL_HRTIM_ADCTRIG_SRC6810_TIME_RST     (uint32_t)0x1B                        /*!<  ADC exten
 844:Drivers/STM32G4xx_HAL_Driver/Inc/stm32g4xx_ll_hrtim.h **** #define LL_HRTIM_ADCTRIG_SRC6810_TIMF_CMP2    (uint32_t)0x1C                        /*!<  ADC exten
 845:Drivers/STM32G4xx_HAL_Driver/Inc/stm32g4xx_ll_hrtim.h **** #define LL_HRTIM_ADCTRIG_SRC6810_TIMF_CMP3    (uint32_t)0x1D                        /*!<  ADC exten
 846:Drivers/STM32G4xx_HAL_Driver/Inc/stm32g4xx_ll_hrtim.h **** #define LL_HRTIM_ADCTRIG_SRC6810_TIMF_CMP4    (uint32_t)0x1E                        /*!<  ADC exten
 847:Drivers/STM32G4xx_HAL_Driver/Inc/stm32g4xx_ll_hrtim.h **** #define LL_HRTIM_ADCTRIG_SRC6810_TIMF_PER     (uint32_t)0x1F                        /*!<  ADC exten
 848:Drivers/STM32G4xx_HAL_Driver/Inc/stm32g4xx_ll_hrtim.h **** /**
 849:Drivers/STM32G4xx_HAL_Driver/Inc/stm32g4xx_ll_hrtim.h ****   * @}
 850:Drivers/STM32G4xx_HAL_Driver/Inc/stm32g4xx_ll_hrtim.h ****   */
 851:Drivers/STM32G4xx_HAL_Driver/Inc/stm32g4xx_ll_hrtim.h **** 
 852:Drivers/STM32G4xx_HAL_Driver/Inc/stm32g4xx_ll_hrtim.h **** /** @defgroup HRTIM_ADC_TRIG HRTIM ADC TRIGGER SELECTION
 853:Drivers/STM32G4xx_HAL_Driver/Inc/stm32g4xx_ll_hrtim.h ****   * @{
 854:Drivers/STM32G4xx_HAL_Driver/Inc/stm32g4xx_ll_hrtim.h ****   * @brief Constants defining the selection that can be used as ADC trigger source for extended ADC
 855:Drivers/STM32G4xx_HAL_Driver/Inc/stm32g4xx_ll_hrtim.h ****   */
 856:Drivers/STM32G4xx_HAL_Driver/Inc/stm32g4xx_ll_hrtim.h **** #define LL_HRTIM_ADCTRIG_SRC579_MCMP1           (uint32_t)0x00                        /*!<  ADC ext
 857:Drivers/STM32G4xx_HAL_Driver/Inc/stm32g4xx_ll_hrtim.h **** #define LL_HRTIM_ADCTRIG_SRC579_MCMP2           (uint32_t)0x01                        /*!<  ADC ext
 858:Drivers/STM32G4xx_HAL_Driver/Inc/stm32g4xx_ll_hrtim.h **** #define LL_HRTIM_ADCTRIG_SRC579_MCMP3           (uint32_t)0x02                        /*!<  ADC ext
 859:Drivers/STM32G4xx_HAL_Driver/Inc/stm32g4xx_ll_hrtim.h **** #define LL_HRTIM_ADCTRIG_SRC579_MCMP4           (uint32_t)0x03                        /*!<  ADC ext
 860:Drivers/STM32G4xx_HAL_Driver/Inc/stm32g4xx_ll_hrtim.h **** #define LL_HRTIM_ADCTRIG_SRC579_MPER            (uint32_t)0x04                        /*!<  ADC ext
 861:Drivers/STM32G4xx_HAL_Driver/Inc/stm32g4xx_ll_hrtim.h **** #define LL_HRTIM_ADCTRIG_SRC579_EEV1            (uint32_t)0x05                        /*!<  ADC ext
 862:Drivers/STM32G4xx_HAL_Driver/Inc/stm32g4xx_ll_hrtim.h **** #define LL_HRTIM_ADCTRIG_SRC579_EEV2            (uint32_t)0x06                        /*!<  ADC ext
 863:Drivers/STM32G4xx_HAL_Driver/Inc/stm32g4xx_ll_hrtim.h **** #define LL_HRTIM_ADCTRIG_SRC579_EEV3            (uint32_t)0x07                        /*!<  ADC ext
 864:Drivers/STM32G4xx_HAL_Driver/Inc/stm32g4xx_ll_hrtim.h **** #define LL_HRTIM_ADCTRIG_SRC579_EEV4            (uint32_t)0x08                        /*!<  ADC ext
 865:Drivers/STM32G4xx_HAL_Driver/Inc/stm32g4xx_ll_hrtim.h **** #define LL_HRTIM_ADCTRIG_SRC579_EEV5            (uint32_t)0x09                        /*!<  ADC ext
 866:Drivers/STM32G4xx_HAL_Driver/Inc/stm32g4xx_ll_hrtim.h **** #define LL_HRTIM_ADCTRIG_SRC579_TIMA_CMP3       (uint32_t)0x0A                        /*!<  ADC ext
 867:Drivers/STM32G4xx_HAL_Driver/Inc/stm32g4xx_ll_hrtim.h **** #define LL_HRTIM_ADCTRIG_SRC579_TIMA_CMP4       (uint32_t)0x0B                        /*!<  ADC ext
 868:Drivers/STM32G4xx_HAL_Driver/Inc/stm32g4xx_ll_hrtim.h **** #define LL_HRTIM_ADCTRIG_SRC579_TIMA_PER        (uint32_t)0x0C                        /*!<  ADC ext
 869:Drivers/STM32G4xx_HAL_Driver/Inc/stm32g4xx_ll_hrtim.h **** #define LL_HRTIM_ADCTRIG_SRC579_TIMA_RST        (uint32_t)0x0D                        /*!<  ADC ext
 870:Drivers/STM32G4xx_HAL_Driver/Inc/stm32g4xx_ll_hrtim.h **** #define LL_HRTIM_ADCTRIG_SRC579_TIMB_CMP3       (uint32_t)0x0E                        /*!<  ADC ext
 871:Drivers/STM32G4xx_HAL_Driver/Inc/stm32g4xx_ll_hrtim.h **** #define LL_HRTIM_ADCTRIG_SRC579_TIMB_CMP4       (uint32_t)0x0F                        /*!<  ADC ext
 872:Drivers/STM32G4xx_HAL_Driver/Inc/stm32g4xx_ll_hrtim.h **** #define LL_HRTIM_ADCTRIG_SRC579_TIMB_PER        (uint32_t)0x10                        /*!<  ADC ext
 873:Drivers/STM32G4xx_HAL_Driver/Inc/stm32g4xx_ll_hrtim.h **** #define LL_HRTIM_ADCTRIG_SRC579_TIMB_RST        (uint32_t)0x11                        /*!<  ADC ext
 874:Drivers/STM32G4xx_HAL_Driver/Inc/stm32g4xx_ll_hrtim.h **** #define LL_HRTIM_ADCTRIG_SRC579_TIMC_CMP3       (uint32_t)0x12                        /*!<  ADC ext
 875:Drivers/STM32G4xx_HAL_Driver/Inc/stm32g4xx_ll_hrtim.h **** #define LL_HRTIM_ADCTRIG_SRC579_TIMC_CMP4       (uint32_t)0x13                        /*!<  ADC ext
 876:Drivers/STM32G4xx_HAL_Driver/Inc/stm32g4xx_ll_hrtim.h **** #define LL_HRTIM_ADCTRIG_SRC579_TIMC_PER        (uint32_t)0x14                        /*!<  ADC ext
 877:Drivers/STM32G4xx_HAL_Driver/Inc/stm32g4xx_ll_hrtim.h **** #define LL_HRTIM_ADCTRIG_SRC579_TIMD_CMP3       (uint32_t)0x15                        /*!<  ADC ext
 878:Drivers/STM32G4xx_HAL_Driver/Inc/stm32g4xx_ll_hrtim.h **** #define LL_HRTIM_ADCTRIG_SRC579_TIMD_CMP4       (uint32_t)0x16                        /*!<  ADC ext
 879:Drivers/STM32G4xx_HAL_Driver/Inc/stm32g4xx_ll_hrtim.h **** #define LL_HRTIM_ADCTRIG_SRC579_TIMD_PER        (uint32_t)0x17                        /*!<  ADC ext
 880:Drivers/STM32G4xx_HAL_Driver/Inc/stm32g4xx_ll_hrtim.h **** #define LL_HRTIM_ADCTRIG_SRC579_TIME_CMP3       (uint32_t)0x18                        /*!<  ADC ext
 881:Drivers/STM32G4xx_HAL_Driver/Inc/stm32g4xx_ll_hrtim.h **** #define LL_HRTIM_ADCTRIG_SRC579_TIME_CMP4       (uint32_t)0x19                        /*!<  ADC ext
 882:Drivers/STM32G4xx_HAL_Driver/Inc/stm32g4xx_ll_hrtim.h **** #define LL_HRTIM_ADCTRIG_SRC579_TIME_PER        (uint32_t)0x1A                        /*!<  ADC ext
ARM GAS  D:\apps\VSCode\data\tmp\ccNKRXCB.s 			page 18


 883:Drivers/STM32G4xx_HAL_Driver/Inc/stm32g4xx_ll_hrtim.h **** #define LL_HRTIM_ADCTRIG_SRC579_TIMF_CMP2       (uint32_t)0x1B                        /*!<  ADC ext
 884:Drivers/STM32G4xx_HAL_Driver/Inc/stm32g4xx_ll_hrtim.h **** #define LL_HRTIM_ADCTRIG_SRC579_TIMF_CMP3       (uint32_t)0x1C                        /*!<  ADC ext
 885:Drivers/STM32G4xx_HAL_Driver/Inc/stm32g4xx_ll_hrtim.h **** #define LL_HRTIM_ADCTRIG_SRC579_TIMF_CMP4       (uint32_t)0x1D                        /*!<  ADC ext
 886:Drivers/STM32G4xx_HAL_Driver/Inc/stm32g4xx_ll_hrtim.h **** #define LL_HRTIM_ADCTRIG_SRC579_TIMF_PER        (uint32_t)0x1E                        /*!<  ADC ext
 887:Drivers/STM32G4xx_HAL_Driver/Inc/stm32g4xx_ll_hrtim.h **** #define LL_HRTIM_ADCTRIG_SRC579_TIMF_RST        (uint32_t)0x1F                        /*!<  ADC ext
 888:Drivers/STM32G4xx_HAL_Driver/Inc/stm32g4xx_ll_hrtim.h **** /**
 889:Drivers/STM32G4xx_HAL_Driver/Inc/stm32g4xx_ll_hrtim.h ****   * @}
 890:Drivers/STM32G4xx_HAL_Driver/Inc/stm32g4xx_ll_hrtim.h ****   */
 891:Drivers/STM32G4xx_HAL_Driver/Inc/stm32g4xx_ll_hrtim.h **** 
 892:Drivers/STM32G4xx_HAL_Driver/Inc/stm32g4xx_ll_hrtim.h **** /** @defgroup HRTIM_LL_EC_DLLCALIBRATION_MODE  DLL CALIBRATION MODE
 893:Drivers/STM32G4xx_HAL_Driver/Inc/stm32g4xx_ll_hrtim.h ****   * @{
 894:Drivers/STM32G4xx_HAL_Driver/Inc/stm32g4xx_ll_hrtim.h ****   * @brief Constants defining the DLL calibration mode.
 895:Drivers/STM32G4xx_HAL_Driver/Inc/stm32g4xx_ll_hrtim.h ****   */
 896:Drivers/STM32G4xx_HAL_Driver/Inc/stm32g4xx_ll_hrtim.h **** #define LL_HRTIM_DLLCALIBRATION_MODE_SINGLESHOT   0x00000000U            /*!<Calibration is perfome
 897:Drivers/STM32G4xx_HAL_Driver/Inc/stm32g4xx_ll_hrtim.h **** #define LL_HRTIM_DLLCALIBRATION_MODE_CONTINUOUS   HRTIM_DLLCR_CALEN      /*!<Calibration is perform
 898:Drivers/STM32G4xx_HAL_Driver/Inc/stm32g4xx_ll_hrtim.h **** /**
 899:Drivers/STM32G4xx_HAL_Driver/Inc/stm32g4xx_ll_hrtim.h ****   * @}
 900:Drivers/STM32G4xx_HAL_Driver/Inc/stm32g4xx_ll_hrtim.h ****   */
 901:Drivers/STM32G4xx_HAL_Driver/Inc/stm32g4xx_ll_hrtim.h **** 
 902:Drivers/STM32G4xx_HAL_Driver/Inc/stm32g4xx_ll_hrtim.h **** /** @defgroup HRTIM_LL_EC_CALIBRATIONRATE  DLL CALIBRATION RATE
 903:Drivers/STM32G4xx_HAL_Driver/Inc/stm32g4xx_ll_hrtim.h ****   * @{
 904:Drivers/STM32G4xx_HAL_Driver/Inc/stm32g4xx_ll_hrtim.h ****   * @brief Constants defining the DLL calibration periods (in micro seconds).
 905:Drivers/STM32G4xx_HAL_Driver/Inc/stm32g4xx_ll_hrtim.h ****   */
 906:Drivers/STM32G4xx_HAL_Driver/Inc/stm32g4xx_ll_hrtim.h **** #define LL_HRTIM_DLLCALIBRATION_RATE_0         0x00000000U                                    /*!< 
 907:Drivers/STM32G4xx_HAL_Driver/Inc/stm32g4xx_ll_hrtim.h **** #define LL_HRTIM_DLLCALIBRATION_RATE_1         (HRTIM_DLLCR_CALRTE_0)                         /*!< 
 908:Drivers/STM32G4xx_HAL_Driver/Inc/stm32g4xx_ll_hrtim.h **** #define LL_HRTIM_DLLCALIBRATION_RATE_2         (HRTIM_DLLCR_CALRTE_1)                         /*!< 
 909:Drivers/STM32G4xx_HAL_Driver/Inc/stm32g4xx_ll_hrtim.h **** #define LL_HRTIM_DLLCALIBRATION_RATE_3         (HRTIM_DLLCR_CALRTE_1 | HRTIM_DLLCR_CALRTE_0)  /*!< 
 910:Drivers/STM32G4xx_HAL_Driver/Inc/stm32g4xx_ll_hrtim.h **** /**
 911:Drivers/STM32G4xx_HAL_Driver/Inc/stm32g4xx_ll_hrtim.h ****   * @}
 912:Drivers/STM32G4xx_HAL_Driver/Inc/stm32g4xx_ll_hrtim.h ****   */
 913:Drivers/STM32G4xx_HAL_Driver/Inc/stm32g4xx_ll_hrtim.h **** 
 914:Drivers/STM32G4xx_HAL_Driver/Inc/stm32g4xx_ll_hrtim.h **** /** @defgroup HRTIM_LL_EC_PRESCALERRATIO  PRESCALER RATIO
 915:Drivers/STM32G4xx_HAL_Driver/Inc/stm32g4xx_ll_hrtim.h ****   * @{
 916:Drivers/STM32G4xx_HAL_Driver/Inc/stm32g4xx_ll_hrtim.h ****   * @brief Constants defining timer high-resolution clock prescaler ratio.
 917:Drivers/STM32G4xx_HAL_Driver/Inc/stm32g4xx_ll_hrtim.h ****   */
 918:Drivers/STM32G4xx_HAL_Driver/Inc/stm32g4xx_ll_hrtim.h **** #define LL_HRTIM_PRESCALERRATIO_MUL32      0x00000000U              /*!< fHRCK: fHRTIM x 32 = 4.608
 919:Drivers/STM32G4xx_HAL_Driver/Inc/stm32g4xx_ll_hrtim.h **** #define LL_HRTIM_PRESCALERRATIO_MUL16      ((uint32_t)0x00000001U)  /*!< fHRCK: fHRTIM x 16 = 2.304
 920:Drivers/STM32G4xx_HAL_Driver/Inc/stm32g4xx_ll_hrtim.h **** #define LL_HRTIM_PRESCALERRATIO_MUL8       ((uint32_t)0x00000002U)  /*!< fHRCK: fHRTIM x 8 = 1.152 
 921:Drivers/STM32G4xx_HAL_Driver/Inc/stm32g4xx_ll_hrtim.h **** #define LL_HRTIM_PRESCALERRATIO_MUL4       ((uint32_t)0x00000003U)  /*!< fHRCK: fHRTIM x 4 = 576 MH
 922:Drivers/STM32G4xx_HAL_Driver/Inc/stm32g4xx_ll_hrtim.h **** #define LL_HRTIM_PRESCALERRATIO_MUL2       ((uint32_t)0x00000004U)  /*!< fHRCK: fHRTIM x 2 = 288 MH
 923:Drivers/STM32G4xx_HAL_Driver/Inc/stm32g4xx_ll_hrtim.h **** #define LL_HRTIM_PRESCALERRATIO_DIV1       ((uint32_t)0x00000005U)  /*!< fHRCK: fHRTIM = 144 MHz - 
 924:Drivers/STM32G4xx_HAL_Driver/Inc/stm32g4xx_ll_hrtim.h **** #define LL_HRTIM_PRESCALERRATIO_DIV2       ((uint32_t)0x00000006U)  /*!< fHRCK: fHRTIM / 2 = 72 MHz
 925:Drivers/STM32G4xx_HAL_Driver/Inc/stm32g4xx_ll_hrtim.h **** #define LL_HRTIM_PRESCALERRATIO_DIV4       ((uint32_t)0x00000007U)  /*!< fHRCK: fHRTIM / 4 = 36 MHz
 926:Drivers/STM32G4xx_HAL_Driver/Inc/stm32g4xx_ll_hrtim.h **** /**
 927:Drivers/STM32G4xx_HAL_Driver/Inc/stm32g4xx_ll_hrtim.h ****   * @}
 928:Drivers/STM32G4xx_HAL_Driver/Inc/stm32g4xx_ll_hrtim.h ****   */
 929:Drivers/STM32G4xx_HAL_Driver/Inc/stm32g4xx_ll_hrtim.h **** 
 930:Drivers/STM32G4xx_HAL_Driver/Inc/stm32g4xx_ll_hrtim.h **** /** @defgroup HRTIM_LL_EC_MODE  COUNTER MODE
 931:Drivers/STM32G4xx_HAL_Driver/Inc/stm32g4xx_ll_hrtim.h ****   * @{
 932:Drivers/STM32G4xx_HAL_Driver/Inc/stm32g4xx_ll_hrtim.h ****   * @brief Constants defining timer counter operating mode.
 933:Drivers/STM32G4xx_HAL_Driver/Inc/stm32g4xx_ll_hrtim.h ****   */
 934:Drivers/STM32G4xx_HAL_Driver/Inc/stm32g4xx_ll_hrtim.h **** #define LL_HRTIM_MODE_CONTINUOUS           ((uint32_t)0x00000008U)  /*!< The timer operates in cont
 935:Drivers/STM32G4xx_HAL_Driver/Inc/stm32g4xx_ll_hrtim.h **** #define LL_HRTIM_MODE_SINGLESHOT           0x00000000U              /*!< The timer operates in non 
 936:Drivers/STM32G4xx_HAL_Driver/Inc/stm32g4xx_ll_hrtim.h **** #define LL_HRTIM_MODE_RETRIGGERABLE        ((uint32_t)0x00000010U)  /*!< The timer operates in retr
 937:Drivers/STM32G4xx_HAL_Driver/Inc/stm32g4xx_ll_hrtim.h **** /**
 938:Drivers/STM32G4xx_HAL_Driver/Inc/stm32g4xx_ll_hrtim.h ****   * @}
 939:Drivers/STM32G4xx_HAL_Driver/Inc/stm32g4xx_ll_hrtim.h ****   */
ARM GAS  D:\apps\VSCode\data\tmp\ccNKRXCB.s 			page 19


 940:Drivers/STM32G4xx_HAL_Driver/Inc/stm32g4xx_ll_hrtim.h **** 
 941:Drivers/STM32G4xx_HAL_Driver/Inc/stm32g4xx_ll_hrtim.h **** /** @defgroup HRTIM_LL_EC_DACTRIG  DAC TRIGGER
 942:Drivers/STM32G4xx_HAL_Driver/Inc/stm32g4xx_ll_hrtim.h ****   * @{
 943:Drivers/STM32G4xx_HAL_Driver/Inc/stm32g4xx_ll_hrtim.h ****   * @brief Constants defining on which output the DAC synchronization event is sent.
 944:Drivers/STM32G4xx_HAL_Driver/Inc/stm32g4xx_ll_hrtim.h ****   */
 945:Drivers/STM32G4xx_HAL_Driver/Inc/stm32g4xx_ll_hrtim.h **** #define LL_HRTIM_DACTRIG_NONE           0x00000000U                     /*!< No DAC synchronization
 946:Drivers/STM32G4xx_HAL_Driver/Inc/stm32g4xx_ll_hrtim.h **** #define LL_HRTIM_DACTRIG_DACTRIGOUT_1   (HRTIM_MCR_DACSYNC_0)                       /*!< DAC synchr
 947:Drivers/STM32G4xx_HAL_Driver/Inc/stm32g4xx_ll_hrtim.h **** #define LL_HRTIM_DACTRIG_DACTRIGOUT_2   (HRTIM_MCR_DACSYNC_1)                       /*!< DAC synchr
 948:Drivers/STM32G4xx_HAL_Driver/Inc/stm32g4xx_ll_hrtim.h **** #define LL_HRTIM_DACTRIG_DACTRIGOUT_3   (HRTIM_MCR_DACSYNC_1 | HRTIM_MCR_DACSYNC_0) /*!< DAC synchr
 949:Drivers/STM32G4xx_HAL_Driver/Inc/stm32g4xx_ll_hrtim.h **** /**
 950:Drivers/STM32G4xx_HAL_Driver/Inc/stm32g4xx_ll_hrtim.h ****   * @}
 951:Drivers/STM32G4xx_HAL_Driver/Inc/stm32g4xx_ll_hrtim.h ****   */
 952:Drivers/STM32G4xx_HAL_Driver/Inc/stm32g4xx_ll_hrtim.h **** 
 953:Drivers/STM32G4xx_HAL_Driver/Inc/stm32g4xx_ll_hrtim.h **** /** @defgroup HRTIM_LL_EC_UPDATETRIG  UPDATE TRIGGER
 954:Drivers/STM32G4xx_HAL_Driver/Inc/stm32g4xx_ll_hrtim.h ****   * @{
 955:Drivers/STM32G4xx_HAL_Driver/Inc/stm32g4xx_ll_hrtim.h ****   * @brief Constants defining whether the registers update is done synchronously with any other tim
 956:Drivers/STM32G4xx_HAL_Driver/Inc/stm32g4xx_ll_hrtim.h ****   */
 957:Drivers/STM32G4xx_HAL_Driver/Inc/stm32g4xx_ll_hrtim.h **** #define LL_HRTIM_UPDATETRIG_NONE        0x00000000U            /*!< Register update is disabled */
 958:Drivers/STM32G4xx_HAL_Driver/Inc/stm32g4xx_ll_hrtim.h **** #define LL_HRTIM_UPDATETRIG_MASTER      HRTIM_TIMCR_MSTU       /*!< Register update is triggered by
 959:Drivers/STM32G4xx_HAL_Driver/Inc/stm32g4xx_ll_hrtim.h **** #define LL_HRTIM_UPDATETRIG_TIMER_A     HRTIM_TIMCR_TAU        /*!< Register update is triggered by
 960:Drivers/STM32G4xx_HAL_Driver/Inc/stm32g4xx_ll_hrtim.h **** #define LL_HRTIM_UPDATETRIG_TIMER_B     HRTIM_TIMCR_TBU        /*!< Register update is triggered by
 961:Drivers/STM32G4xx_HAL_Driver/Inc/stm32g4xx_ll_hrtim.h **** #define LL_HRTIM_UPDATETRIG_TIMER_C     HRTIM_TIMCR_TCU        /*!< Register update is triggered by
 962:Drivers/STM32G4xx_HAL_Driver/Inc/stm32g4xx_ll_hrtim.h **** #define LL_HRTIM_UPDATETRIG_TIMER_D     HRTIM_TIMCR_TDU        /*!< Register update is triggered by
 963:Drivers/STM32G4xx_HAL_Driver/Inc/stm32g4xx_ll_hrtim.h **** #define LL_HRTIM_UPDATETRIG_TIMER_E     HRTIM_TIMCR_TEU        /*!< Register update is triggered by
 964:Drivers/STM32G4xx_HAL_Driver/Inc/stm32g4xx_ll_hrtim.h **** #define LL_HRTIM_UPDATETRIG_TIMER_F     HRTIM_TIMCR_TFU        /*!< Register update is triggered by
 965:Drivers/STM32G4xx_HAL_Driver/Inc/stm32g4xx_ll_hrtim.h **** #define LL_HRTIM_UPDATETRIG_REPETITION  HRTIM_TIMCR_TREPU      /*!< Register update is triggered wh
 966:Drivers/STM32G4xx_HAL_Driver/Inc/stm32g4xx_ll_hrtim.h **** #define LL_HRTIM_UPDATETRIG_RESET       HRTIM_TIMCR_TRSTU      /*!< Register update is triggered by
 967:Drivers/STM32G4xx_HAL_Driver/Inc/stm32g4xx_ll_hrtim.h **** /**
 968:Drivers/STM32G4xx_HAL_Driver/Inc/stm32g4xx_ll_hrtim.h ****   * @}
 969:Drivers/STM32G4xx_HAL_Driver/Inc/stm32g4xx_ll_hrtim.h ****   */
 970:Drivers/STM32G4xx_HAL_Driver/Inc/stm32g4xx_ll_hrtim.h **** 
 971:Drivers/STM32G4xx_HAL_Driver/Inc/stm32g4xx_ll_hrtim.h **** /** @defgroup HRTIM_LL_EC_UPDATEGATING  UPDATE GATING
 972:Drivers/STM32G4xx_HAL_Driver/Inc/stm32g4xx_ll_hrtim.h ****   * @{
 973:Drivers/STM32G4xx_HAL_Driver/Inc/stm32g4xx_ll_hrtim.h ****   * @brief Constants defining how the update occurs relatively to the burst DMA transaction and the
 974:Drivers/STM32G4xx_HAL_Driver/Inc/stm32g4xx_ll_hrtim.h ****   */
 975:Drivers/STM32G4xx_HAL_Driver/Inc/stm32g4xx_ll_hrtim.h **** #define LL_HRTIM_UPDATEGATING_INDEPENDENT     0x00000000U                                          
 976:Drivers/STM32G4xx_HAL_Driver/Inc/stm32g4xx_ll_hrtim.h **** #define LL_HRTIM_UPDATEGATING_DMABURST        (HRTIM_TIMCR_UPDGAT_0)                               
 977:Drivers/STM32G4xx_HAL_Driver/Inc/stm32g4xx_ll_hrtim.h **** #define LL_HRTIM_UPDATEGATING_DMABURST_UPDATE (HRTIM_TIMCR_UPDGAT_1)                               
 978:Drivers/STM32G4xx_HAL_Driver/Inc/stm32g4xx_ll_hrtim.h **** #define LL_HRTIM_UPDATEGATING_UPDEN1          (HRTIM_TIMCR_UPDGAT_1 | HRTIM_TIMCR_UPDGAT_0)        
 979:Drivers/STM32G4xx_HAL_Driver/Inc/stm32g4xx_ll_hrtim.h **** #define LL_HRTIM_UPDATEGATING_UPDEN2          (HRTIM_TIMCR_UPDGAT_2)                               
 980:Drivers/STM32G4xx_HAL_Driver/Inc/stm32g4xx_ll_hrtim.h **** #define LL_HRTIM_UPDATEGATING_UPDEN3          (HRTIM_TIMCR_UPDGAT_2 | HRTIM_TIMCR_UPDGAT_0)        
 981:Drivers/STM32G4xx_HAL_Driver/Inc/stm32g4xx_ll_hrtim.h **** #define LL_HRTIM_UPDATEGATING_UPDEN1_UPDATE   (HRTIM_TIMCR_UPDGAT_2 | HRTIM_TIMCR_UPDGAT_1)        
 982:Drivers/STM32G4xx_HAL_Driver/Inc/stm32g4xx_ll_hrtim.h **** #define LL_HRTIM_UPDATEGATING_UPDEN2_UPDATE   (HRTIM_TIMCR_UPDGAT_2 | HRTIM_TIMCR_UPDGAT_1 | HRTIM_
 983:Drivers/STM32G4xx_HAL_Driver/Inc/stm32g4xx_ll_hrtim.h **** #define LL_HRTIM_UPDATEGATING_UPDEN3_UPDATE   (HRTIM_TIMCR_UPDGAT_3)                               
 984:Drivers/STM32G4xx_HAL_Driver/Inc/stm32g4xx_ll_hrtim.h **** /**
 985:Drivers/STM32G4xx_HAL_Driver/Inc/stm32g4xx_ll_hrtim.h ****   * @}
 986:Drivers/STM32G4xx_HAL_Driver/Inc/stm32g4xx_ll_hrtim.h ****   */
 987:Drivers/STM32G4xx_HAL_Driver/Inc/stm32g4xx_ll_hrtim.h **** 
 988:Drivers/STM32G4xx_HAL_Driver/Inc/stm32g4xx_ll_hrtim.h **** /** @defgroup HRTIM_LL_EC_COMPAREMODE  COMPARE MODE
 989:Drivers/STM32G4xx_HAL_Driver/Inc/stm32g4xx_ll_hrtim.h ****   * @{
 990:Drivers/STM32G4xx_HAL_Driver/Inc/stm32g4xx_ll_hrtim.h ****   * @brief Constants defining whether the compare register is behaving in regular mode (compare mat
 991:Drivers/STM32G4xx_HAL_Driver/Inc/stm32g4xx_ll_hrtim.h ****   */
 992:Drivers/STM32G4xx_HAL_Driver/Inc/stm32g4xx_ll_hrtim.h **** #define LL_HRTIM_COMPAREMODE_REGULAR          0x00000000U                         /*!< standard com
 993:Drivers/STM32G4xx_HAL_Driver/Inc/stm32g4xx_ll_hrtim.h **** #define LL_HRTIM_COMPAREMODE_DELAY_NOTIMEOUT  (HRTIM_TIMCR_DELCMP2_0)                         /*!< 
 994:Drivers/STM32G4xx_HAL_Driver/Inc/stm32g4xx_ll_hrtim.h **** #define LL_HRTIM_COMPAREMODE_DELAY_CMP1       (HRTIM_TIMCR_DELCMP2_1)                         /*!< 
 995:Drivers/STM32G4xx_HAL_Driver/Inc/stm32g4xx_ll_hrtim.h **** #define LL_HRTIM_COMPAREMODE_DELAY_CMP3       (HRTIM_TIMCR_DELCMP2_1 | HRTIM_TIMCR_DELCMP2_0) /*!< 
 996:Drivers/STM32G4xx_HAL_Driver/Inc/stm32g4xx_ll_hrtim.h **** /**
ARM GAS  D:\apps\VSCode\data\tmp\ccNKRXCB.s 			page 20


 997:Drivers/STM32G4xx_HAL_Driver/Inc/stm32g4xx_ll_hrtim.h ****   * @}
 998:Drivers/STM32G4xx_HAL_Driver/Inc/stm32g4xx_ll_hrtim.h ****   */
 999:Drivers/STM32G4xx_HAL_Driver/Inc/stm32g4xx_ll_hrtim.h **** 
1000:Drivers/STM32G4xx_HAL_Driver/Inc/stm32g4xx_ll_hrtim.h **** /** @defgroup HRTIM_LL_EC_RESETTRIG  RESET TRIGGER
1001:Drivers/STM32G4xx_HAL_Driver/Inc/stm32g4xx_ll_hrtim.h ****   * @{
1002:Drivers/STM32G4xx_HAL_Driver/Inc/stm32g4xx_ll_hrtim.h ****   * @brief Constants defining the events that can be selected to trigger the reset of the timer cou
1003:Drivers/STM32G4xx_HAL_Driver/Inc/stm32g4xx_ll_hrtim.h ****   */
1004:Drivers/STM32G4xx_HAL_Driver/Inc/stm32g4xx_ll_hrtim.h **** #define LL_HRTIM_RESETTRIG_NONE        0x00000000U            /*!< No counter reset trigger */
1005:Drivers/STM32G4xx_HAL_Driver/Inc/stm32g4xx_ll_hrtim.h **** #define LL_HRTIM_RESETTRIG_UPDATE      HRTIM_RSTR_UPDATE      /*!< The timer counter is reset upon 
1006:Drivers/STM32G4xx_HAL_Driver/Inc/stm32g4xx_ll_hrtim.h **** #define LL_HRTIM_RESETTRIG_CMP2        HRTIM_RSTR_CMP2        /*!< The timer counter is reset upon 
1007:Drivers/STM32G4xx_HAL_Driver/Inc/stm32g4xx_ll_hrtim.h **** #define LL_HRTIM_RESETTRIG_CMP4        HRTIM_RSTR_CMP4        /*!< The timer counter is reset upon 
1008:Drivers/STM32G4xx_HAL_Driver/Inc/stm32g4xx_ll_hrtim.h **** #define LL_HRTIM_RESETTRIG_MASTER_PER  HRTIM_RSTR_MSTPER      /*!< The timer counter is reset upon 
1009:Drivers/STM32G4xx_HAL_Driver/Inc/stm32g4xx_ll_hrtim.h **** #define LL_HRTIM_RESETTRIG_MASTER_CMP1 HRTIM_RSTR_MSTCMP1     /*!< The timer counter is reset upon 
1010:Drivers/STM32G4xx_HAL_Driver/Inc/stm32g4xx_ll_hrtim.h **** #define LL_HRTIM_RESETTRIG_MASTER_CMP2 HRTIM_RSTR_MSTCMP2     /*!< The timer counter is reset upon 
1011:Drivers/STM32G4xx_HAL_Driver/Inc/stm32g4xx_ll_hrtim.h **** #define LL_HRTIM_RESETTRIG_MASTER_CMP3 HRTIM_RSTR_MSTCMP3     /*!< The timer counter is reset upon 
1012:Drivers/STM32G4xx_HAL_Driver/Inc/stm32g4xx_ll_hrtim.h **** #define LL_HRTIM_RESETTRIG_MASTER_CMP4 HRTIM_RSTR_MSTCMP4     /*!< The timer counter is reset upon 
1013:Drivers/STM32G4xx_HAL_Driver/Inc/stm32g4xx_ll_hrtim.h **** #define LL_HRTIM_RESETTRIG_EEV_1       HRTIM_RSTR_EXTEVNT1    /*!< The timer counter is reset upon 
1014:Drivers/STM32G4xx_HAL_Driver/Inc/stm32g4xx_ll_hrtim.h **** #define LL_HRTIM_RESETTRIG_EEV_2       HRTIM_RSTR_EXTEVNT2    /*!< The timer counter is reset upon 
1015:Drivers/STM32G4xx_HAL_Driver/Inc/stm32g4xx_ll_hrtim.h **** #define LL_HRTIM_RESETTRIG_EEV_3       HRTIM_RSTR_EXTEVNT3    /*!< The timer counter is reset upon 
1016:Drivers/STM32G4xx_HAL_Driver/Inc/stm32g4xx_ll_hrtim.h **** #define LL_HRTIM_RESETTRIG_EEV_4       HRTIM_RSTR_EXTEVNT4    /*!< The timer counter is reset upon 
1017:Drivers/STM32G4xx_HAL_Driver/Inc/stm32g4xx_ll_hrtim.h **** #define LL_HRTIM_RESETTRIG_EEV_5       HRTIM_RSTR_EXTEVNT5    /*!< The timer counter is reset upon 
1018:Drivers/STM32G4xx_HAL_Driver/Inc/stm32g4xx_ll_hrtim.h **** #define LL_HRTIM_RESETTRIG_EEV_6       HRTIM_RSTR_EXTEVNT6    /*!< The timer counter is reset upon 
1019:Drivers/STM32G4xx_HAL_Driver/Inc/stm32g4xx_ll_hrtim.h **** #define LL_HRTIM_RESETTRIG_EEV_7       HRTIM_RSTR_EXTEVNT7    /*!< The timer counter is reset upon 
1020:Drivers/STM32G4xx_HAL_Driver/Inc/stm32g4xx_ll_hrtim.h **** #define LL_HRTIM_RESETTRIG_EEV_8       HRTIM_RSTR_EXTEVNT8    /*!< The timer counter is reset upon 
1021:Drivers/STM32G4xx_HAL_Driver/Inc/stm32g4xx_ll_hrtim.h **** #define LL_HRTIM_RESETTRIG_EEV_9       HRTIM_RSTR_EXTEVNT9    /*!< The timer counter is reset upon 
1022:Drivers/STM32G4xx_HAL_Driver/Inc/stm32g4xx_ll_hrtim.h **** #define LL_HRTIM_RESETTRIG_EEV_10      HRTIM_RSTR_EXTEVNT10   /*!< The timer counter is reset upon 
1023:Drivers/STM32G4xx_HAL_Driver/Inc/stm32g4xx_ll_hrtim.h **** #define LL_HRTIM_RESETTRIG_OTHER1_CMP1 HRTIM_RSTR_TIMBCMP1    /*!< The timer counter is reset upon 
1024:Drivers/STM32G4xx_HAL_Driver/Inc/stm32g4xx_ll_hrtim.h **** #define LL_HRTIM_RESETTRIG_OTHER1_CMP2 HRTIM_RSTR_TIMBCMP2    /*!< The timer counter is reset upon 
1025:Drivers/STM32G4xx_HAL_Driver/Inc/stm32g4xx_ll_hrtim.h **** #define LL_HRTIM_RESETTRIG_OTHER1_CMP4 HRTIM_RSTR_TIMBCMP4    /*!< The timer counter is reset upon 
1026:Drivers/STM32G4xx_HAL_Driver/Inc/stm32g4xx_ll_hrtim.h **** #define LL_HRTIM_RESETTRIG_OTHER2_CMP1 HRTIM_RSTR_TIMCCMP1    /*!< The timer counter is reset upon 
1027:Drivers/STM32G4xx_HAL_Driver/Inc/stm32g4xx_ll_hrtim.h **** #define LL_HRTIM_RESETTRIG_OTHER2_CMP2 HRTIM_RSTR_TIMCCMP2    /*!< The timer counter is reset upon 
1028:Drivers/STM32G4xx_HAL_Driver/Inc/stm32g4xx_ll_hrtim.h **** #define LL_HRTIM_RESETTRIG_OTHER2_CMP4 HRTIM_RSTR_TIMCCMP4    /*!< The timer counter is reset upon 
1029:Drivers/STM32G4xx_HAL_Driver/Inc/stm32g4xx_ll_hrtim.h **** #define LL_HRTIM_RESETTRIG_OTHER3_CMP1 HRTIM_RSTR_TIMDCMP1    /*!< The timer counter is reset upon 
1030:Drivers/STM32G4xx_HAL_Driver/Inc/stm32g4xx_ll_hrtim.h **** #define LL_HRTIM_RESETTRIG_OTHER3_CMP2 HRTIM_RSTR_TIMDCMP2    /*!< The timer counter is reset upon 
1031:Drivers/STM32G4xx_HAL_Driver/Inc/stm32g4xx_ll_hrtim.h **** #define LL_HRTIM_RESETTRIG_OTHER3_CMP4 HRTIM_RSTR_TIMDCMP4    /*!< The timer counter is reset upon 
1032:Drivers/STM32G4xx_HAL_Driver/Inc/stm32g4xx_ll_hrtim.h **** #define LL_HRTIM_RESETTRIG_OTHER4_CMP1 HRTIM_RSTR_TIMECMP1    /*!< The timer counter is reset upon 
1033:Drivers/STM32G4xx_HAL_Driver/Inc/stm32g4xx_ll_hrtim.h **** #define LL_HRTIM_RESETTRIG_OTHER4_CMP2 HRTIM_RSTR_TIMECMP2    /*!< The timer counter is reset upon 
1034:Drivers/STM32G4xx_HAL_Driver/Inc/stm32g4xx_ll_hrtim.h **** #define LL_HRTIM_RESETTRIG_OTHER4_CMP4 HRTIM_RSTR_TIMECMP4    /*!< The timer counter is reset upon 
1035:Drivers/STM32G4xx_HAL_Driver/Inc/stm32g4xx_ll_hrtim.h **** #define LL_HRTIM_RESETTRIG_OTHER5_CMP1 HRTIM_RSTR_TIMFCMP1    /*!< The timer counter is reset upon 
1036:Drivers/STM32G4xx_HAL_Driver/Inc/stm32g4xx_ll_hrtim.h **** #define LL_HRTIM_RESETTRIG_OTHER5_CMP2 HRTIM_RSTR_TIMFCMP2    /*!< The timer counter is reset upon 
1037:Drivers/STM32G4xx_HAL_Driver/Inc/stm32g4xx_ll_hrtim.h **** #define LL_HRTIM_RESETTRIG_OTHER5_CMP4 HRTIM_RSTR_TIMFCMP4    /*!< The timer counter is reset upon 
1038:Drivers/STM32G4xx_HAL_Driver/Inc/stm32g4xx_ll_hrtim.h **** /**
1039:Drivers/STM32G4xx_HAL_Driver/Inc/stm32g4xx_ll_hrtim.h ****   * @}
1040:Drivers/STM32G4xx_HAL_Driver/Inc/stm32g4xx_ll_hrtim.h ****   */
1041:Drivers/STM32G4xx_HAL_Driver/Inc/stm32g4xx_ll_hrtim.h **** 
1042:Drivers/STM32G4xx_HAL_Driver/Inc/stm32g4xx_ll_hrtim.h **** /** @defgroup HRTIM_LL_EC_CAPTURETRIG  CAPTURE TRIGGER
1043:Drivers/STM32G4xx_HAL_Driver/Inc/stm32g4xx_ll_hrtim.h ****   * @{
1044:Drivers/STM32G4xx_HAL_Driver/Inc/stm32g4xx_ll_hrtim.h ****   * @brief Constants defining the events that can be selected to trigger the capture of the timing 
1045:Drivers/STM32G4xx_HAL_Driver/Inc/stm32g4xx_ll_hrtim.h ****   */
1046:Drivers/STM32G4xx_HAL_Driver/Inc/stm32g4xx_ll_hrtim.h **** #define LL_HRTIM_CAPTURETRIG_NONE       (uint64_t)0                               /*!< Capture trig
1047:Drivers/STM32G4xx_HAL_Driver/Inc/stm32g4xx_ll_hrtim.h **** #define LL_HRTIM_CAPTURETRIG_SW         (uint64_t)HRTIM_CPT1CR_SWCPT              /*!< The sw event
1048:Drivers/STM32G4xx_HAL_Driver/Inc/stm32g4xx_ll_hrtim.h **** #define LL_HRTIM_CAPTURETRIG_UPDATE     (uint64_t)HRTIM_CPT1CR_UPDCPT             /*!< The update e
1049:Drivers/STM32G4xx_HAL_Driver/Inc/stm32g4xx_ll_hrtim.h **** #define LL_HRTIM_CAPTURETRIG_EEV_1      (uint64_t)HRTIM_CPT1CR_EXEV1CPT           /*!< The External
1050:Drivers/STM32G4xx_HAL_Driver/Inc/stm32g4xx_ll_hrtim.h **** #define LL_HRTIM_CAPTURETRIG_EEV_2      (uint64_t)HRTIM_CPT1CR_EXEV2CPT           /*!< The External
1051:Drivers/STM32G4xx_HAL_Driver/Inc/stm32g4xx_ll_hrtim.h **** #define LL_HRTIM_CAPTURETRIG_EEV_3      (uint64_t)HRTIM_CPT1CR_EXEV3CPT           /*!< The External
1052:Drivers/STM32G4xx_HAL_Driver/Inc/stm32g4xx_ll_hrtim.h **** #define LL_HRTIM_CAPTURETRIG_EEV_4      (uint64_t)HRTIM_CPT1CR_EXEV4CPT           /*!< The External
1053:Drivers/STM32G4xx_HAL_Driver/Inc/stm32g4xx_ll_hrtim.h **** #define LL_HRTIM_CAPTURETRIG_EEV_5      (uint64_t)HRTIM_CPT1CR_EXEV5CPT           /*!< The External
ARM GAS  D:\apps\VSCode\data\tmp\ccNKRXCB.s 			page 21


1054:Drivers/STM32G4xx_HAL_Driver/Inc/stm32g4xx_ll_hrtim.h **** #define LL_HRTIM_CAPTURETRIG_EEV_6      (uint64_t)HRTIM_CPT1CR_EXEV6CPT           /*!< The External
1055:Drivers/STM32G4xx_HAL_Driver/Inc/stm32g4xx_ll_hrtim.h **** #define LL_HRTIM_CAPTURETRIG_EEV_7      (uint64_t)HRTIM_CPT1CR_EXEV7CPT           /*!< The External
1056:Drivers/STM32G4xx_HAL_Driver/Inc/stm32g4xx_ll_hrtim.h **** #define LL_HRTIM_CAPTURETRIG_EEV_8      (uint64_t)HRTIM_CPT1CR_EXEV8CPT           /*!< The External
1057:Drivers/STM32G4xx_HAL_Driver/Inc/stm32g4xx_ll_hrtim.h **** #define LL_HRTIM_CAPTURETRIG_EEV_9      (uint64_t)HRTIM_CPT1CR_EXEV9CPT           /*!< The External
1058:Drivers/STM32G4xx_HAL_Driver/Inc/stm32g4xx_ll_hrtim.h **** #define LL_HRTIM_CAPTURETRIG_EEV_10     (uint64_t)HRTIM_CPT1CR_EXEV10CPT          /*!< The External
1059:Drivers/STM32G4xx_HAL_Driver/Inc/stm32g4xx_ll_hrtim.h **** #define LL_HRTIM_CAPTURETRIG_TA1_SET     (uint64_t)(HRTIM_CPT1CR_TA1SET   ) <<32  /*!< Capture is t
1060:Drivers/STM32G4xx_HAL_Driver/Inc/stm32g4xx_ll_hrtim.h **** #define LL_HRTIM_CAPTURETRIG_TA1_RESET   (uint64_t)(HRTIM_CPT1CR_TA1RST   ) <<32  /*!< Capture is t
1061:Drivers/STM32G4xx_HAL_Driver/Inc/stm32g4xx_ll_hrtim.h **** #define LL_HRTIM_CAPTURETRIG_TIMA_CMP1   (uint64_t)(HRTIM_CPT1CR_TIMACMP1 ) <<32  /*!< Timer A Comp
1062:Drivers/STM32G4xx_HAL_Driver/Inc/stm32g4xx_ll_hrtim.h **** #define LL_HRTIM_CAPTURETRIG_TIMA_CMP2   (uint64_t)(HRTIM_CPT1CR_TIMACMP2 ) <<32  /*!< Timer A Comp
1063:Drivers/STM32G4xx_HAL_Driver/Inc/stm32g4xx_ll_hrtim.h **** #define LL_HRTIM_CAPTURETRIG_TB1_SET     (uint64_t)(HRTIM_CPT1CR_TB1SET   ) <<32  /*!< Capture is t
1064:Drivers/STM32G4xx_HAL_Driver/Inc/stm32g4xx_ll_hrtim.h **** #define LL_HRTIM_CAPTURETRIG_TB1_RESET   (uint64_t)(HRTIM_CPT1CR_TB1RST   ) <<32  /*!< Capture is t
1065:Drivers/STM32G4xx_HAL_Driver/Inc/stm32g4xx_ll_hrtim.h **** #define LL_HRTIM_CAPTURETRIG_TIMB_CMP1   (uint64_t)(HRTIM_CPT1CR_TIMBCMP1 ) <<32  /*!< Timer B Comp
1066:Drivers/STM32G4xx_HAL_Driver/Inc/stm32g4xx_ll_hrtim.h **** #define LL_HRTIM_CAPTURETRIG_TIMB_CMP2   (uint64_t)(HRTIM_CPT1CR_TIMBCMP2 ) <<32  /*!< Timer B Comp
1067:Drivers/STM32G4xx_HAL_Driver/Inc/stm32g4xx_ll_hrtim.h **** #define LL_HRTIM_CAPTURETRIG_TC1_SET     (uint64_t)(HRTIM_CPT1CR_TC1SET   ) <<32  /*!< Capture is t
1068:Drivers/STM32G4xx_HAL_Driver/Inc/stm32g4xx_ll_hrtim.h **** #define LL_HRTIM_CAPTURETRIG_TC1_RESET   (uint64_t)(HRTIM_CPT1CR_TC1RST   ) <<32  /*!< Capture is t
1069:Drivers/STM32G4xx_HAL_Driver/Inc/stm32g4xx_ll_hrtim.h **** #define LL_HRTIM_CAPTURETRIG_TIMC_CMP1   (uint64_t)(HRTIM_CPT1CR_TIMCCMP1 ) <<32  /*!< Timer C Comp
1070:Drivers/STM32G4xx_HAL_Driver/Inc/stm32g4xx_ll_hrtim.h **** #define LL_HRTIM_CAPTURETRIG_TIMC_CMP2   (uint64_t)(HRTIM_CPT1CR_TIMCCMP2 ) <<32  /*!< Timer C Comp
1071:Drivers/STM32G4xx_HAL_Driver/Inc/stm32g4xx_ll_hrtim.h **** #define LL_HRTIM_CAPTURETRIG_TD1_SET     (uint64_t)(HRTIM_CPT1CR_TD1SET   ) <<32  /*!< Capture is t
1072:Drivers/STM32G4xx_HAL_Driver/Inc/stm32g4xx_ll_hrtim.h **** #define LL_HRTIM_CAPTURETRIG_TD1_RESET   (uint64_t)(HRTIM_CPT1CR_TD1RST   ) <<32  /*!< Capture is t
1073:Drivers/STM32G4xx_HAL_Driver/Inc/stm32g4xx_ll_hrtim.h **** #define LL_HRTIM_CAPTURETRIG_TIMD_CMP1   (uint64_t)(HRTIM_CPT1CR_TIMDCMP1 ) <<32  /*!< Timer D Comp
1074:Drivers/STM32G4xx_HAL_Driver/Inc/stm32g4xx_ll_hrtim.h **** #define LL_HRTIM_CAPTURETRIG_TIMD_CMP2   (uint64_t)(HRTIM_CPT1CR_TIMDCMP2 ) <<32  /*!< Timer D Comp
1075:Drivers/STM32G4xx_HAL_Driver/Inc/stm32g4xx_ll_hrtim.h **** #define LL_HRTIM_CAPTURETRIG_TE1_SET     (uint64_t)(HRTIM_CPT1CR_TE1SET   ) <<32  /*!< Capture is t
1076:Drivers/STM32G4xx_HAL_Driver/Inc/stm32g4xx_ll_hrtim.h **** #define LL_HRTIM_CAPTURETRIG_TE1_RESET   (uint64_t)(HRTIM_CPT1CR_TE1RST   ) <<32  /*!< Capture is t
1077:Drivers/STM32G4xx_HAL_Driver/Inc/stm32g4xx_ll_hrtim.h **** #define LL_HRTIM_CAPTURETRIG_TIME_CMP1   (uint64_t)(HRTIM_CPT1CR_TIMECMP1 ) <<32  /*!< Timer E Comp
1078:Drivers/STM32G4xx_HAL_Driver/Inc/stm32g4xx_ll_hrtim.h **** #define LL_HRTIM_CAPTURETRIG_TIME_CMP2   (uint64_t)(HRTIM_CPT1CR_TIMECMP2 ) <<32  /*!< Timer E Comp
1079:Drivers/STM32G4xx_HAL_Driver/Inc/stm32g4xx_ll_hrtim.h **** #define LL_HRTIM_CAPTURETRIG_TF1_SET     (uint64_t)(HRTIM_CPT1CR_TF1SET   ) <<32  /*!< Capture is t
1080:Drivers/STM32G4xx_HAL_Driver/Inc/stm32g4xx_ll_hrtim.h **** #define LL_HRTIM_CAPTURETRIG_TF1_RESET   (uint64_t)(HRTIM_CPT1CR_TF1RST   ) <<32  /*!< Capture is t
1081:Drivers/STM32G4xx_HAL_Driver/Inc/stm32g4xx_ll_hrtim.h **** #define LL_HRTIM_CAPTURETRIG_TIMF_CMP1   (uint64_t)(HRTIM_CPT1CR_TIMFCMP1 ) <<32  /*!< Timer F Comp
1082:Drivers/STM32G4xx_HAL_Driver/Inc/stm32g4xx_ll_hrtim.h **** #define LL_HRTIM_CAPTURETRIG_TIMF_CMP2   (uint64_t)(HRTIM_CPT1CR_TIMFCMP2 ) <<32  /*!< Timer F Comp
1083:Drivers/STM32G4xx_HAL_Driver/Inc/stm32g4xx_ll_hrtim.h **** /**
1084:Drivers/STM32G4xx_HAL_Driver/Inc/stm32g4xx_ll_hrtim.h ****   * @}
1085:Drivers/STM32G4xx_HAL_Driver/Inc/stm32g4xx_ll_hrtim.h ****   */
1086:Drivers/STM32G4xx_HAL_Driver/Inc/stm32g4xx_ll_hrtim.h **** 
1087:Drivers/STM32G4xx_HAL_Driver/Inc/stm32g4xx_ll_hrtim.h **** /** @defgroup HRTIM_LL_EC_DLYPRT  DELAYED PROTECTION (DLYPRT) MODE
1088:Drivers/STM32G4xx_HAL_Driver/Inc/stm32g4xx_ll_hrtim.h ****   * @{
1089:Drivers/STM32G4xx_HAL_Driver/Inc/stm32g4xx_ll_hrtim.h ****   * @brief Constants defining all possible delayed protection modes for a timer (also define the so
1090:Drivers/STM32G4xx_HAL_Driver/Inc/stm32g4xx_ll_hrtim.h ****   */
1091:Drivers/STM32G4xx_HAL_Driver/Inc/stm32g4xx_ll_hrtim.h **** #define LL_HRTIM_DLYPRT_DELAYOUT1_EEV6  0x00000000U                                            /*!<
1092:Drivers/STM32G4xx_HAL_Driver/Inc/stm32g4xx_ll_hrtim.h **** #define LL_HRTIM_DLYPRT_DELAYOUT2_EEV6  (HRTIM_OUTR_DLYPRT_0)                                      
1093:Drivers/STM32G4xx_HAL_Driver/Inc/stm32g4xx_ll_hrtim.h **** #define LL_HRTIM_DLYPRT_DELAYBOTH_EEV6  (HRTIM_OUTR_DLYPRT_1)                                      
1094:Drivers/STM32G4xx_HAL_Driver/Inc/stm32g4xx_ll_hrtim.h **** #define LL_HRTIM_DLYPRT_BALANCED_EEV6   (HRTIM_OUTR_DLYPRT_1 | HRTIM_OUTR_DLYPRT_0)                
1095:Drivers/STM32G4xx_HAL_Driver/Inc/stm32g4xx_ll_hrtim.h **** #define LL_HRTIM_DLYPRT_DELAYOUT1_EEV7  (HRTIM_OUTR_DLYPRT_2)                                      
1096:Drivers/STM32G4xx_HAL_Driver/Inc/stm32g4xx_ll_hrtim.h **** #define LL_HRTIM_DLYPRT_DELAYOUT2_EEV7  (HRTIM_OUTR_DLYPRT_2 | HRTIM_OUTR_DLYPRT_0)                
1097:Drivers/STM32G4xx_HAL_Driver/Inc/stm32g4xx_ll_hrtim.h **** #define LL_HRTIM_DLYPRT_DELAYBOTH_EEV7  (HRTIM_OUTR_DLYPRT_2 | HRTIM_OUTR_DLYPRT_1)                
1098:Drivers/STM32G4xx_HAL_Driver/Inc/stm32g4xx_ll_hrtim.h **** #define LL_HRTIM_DLYPRT_BALANCED_EEV7   (HRTIM_OUTR_DLYPRT_2 | HRTIM_OUTR_DLYPRT_1 | HRTIM_OUTR_DLY
1099:Drivers/STM32G4xx_HAL_Driver/Inc/stm32g4xx_ll_hrtim.h **** 
1100:Drivers/STM32G4xx_HAL_Driver/Inc/stm32g4xx_ll_hrtim.h **** #define LL_HRTIM_DLYPRT_DELAYOUT1_EEV8  0x00000000U                                             /*!
1101:Drivers/STM32G4xx_HAL_Driver/Inc/stm32g4xx_ll_hrtim.h **** #define LL_HRTIM_DLYPRT_DELAYOUT2_EEV8  (HRTIM_OUTR_DLYPRT_0)                                      
1102:Drivers/STM32G4xx_HAL_Driver/Inc/stm32g4xx_ll_hrtim.h **** #define LL_HRTIM_DLYPRT_DELAYBOTH_EEV8  (HRTIM_OUTR_DLYPRT_1)                                      
1103:Drivers/STM32G4xx_HAL_Driver/Inc/stm32g4xx_ll_hrtim.h **** #define LL_HRTIM_DLYPRT_BALANCED_EEV8   (HRTIM_OUTR_DLYPRT_1 | HRTIM_OUTR_DLYPRT_0)                
1104:Drivers/STM32G4xx_HAL_Driver/Inc/stm32g4xx_ll_hrtim.h **** #define LL_HRTIM_DLYPRT_DELAYOUT1_EEV9  (HRTIM_OUTR_DLYPRT_2)                                      
1105:Drivers/STM32G4xx_HAL_Driver/Inc/stm32g4xx_ll_hrtim.h **** #define LL_HRTIM_DLYPRT_DELAYOUT2_EEV9  (HRTIM_OUTR_DLYPRT_2 | HRTIM_OUTR_DLYPRT_0)                
1106:Drivers/STM32G4xx_HAL_Driver/Inc/stm32g4xx_ll_hrtim.h **** #define LL_HRTIM_DLYPRT_DELAYBOTH_EEV9  (HRTIM_OUTR_DLYPRT_2 | HRTIM_OUTR_DLYPRT_1)                
1107:Drivers/STM32G4xx_HAL_Driver/Inc/stm32g4xx_ll_hrtim.h **** #define LL_HRTIM_DLYPRT_BALANCED_EEV9   (HRTIM_OUTR_DLYPRT_2 | HRTIM_OUTR_DLYPRT_1 | HRTIM_OUTR_DLY
1108:Drivers/STM32G4xx_HAL_Driver/Inc/stm32g4xx_ll_hrtim.h **** /**
1109:Drivers/STM32G4xx_HAL_Driver/Inc/stm32g4xx_ll_hrtim.h ****   * @}
1110:Drivers/STM32G4xx_HAL_Driver/Inc/stm32g4xx_ll_hrtim.h ****   */
ARM GAS  D:\apps\VSCode\data\tmp\ccNKRXCB.s 			page 22


1111:Drivers/STM32G4xx_HAL_Driver/Inc/stm32g4xx_ll_hrtim.h **** 
1112:Drivers/STM32G4xx_HAL_Driver/Inc/stm32g4xx_ll_hrtim.h **** /** @defgroup HRTIM_LL_EC_BURSTMODE  BURST MODE
1113:Drivers/STM32G4xx_HAL_Driver/Inc/stm32g4xx_ll_hrtim.h ****   * @{
1114:Drivers/STM32G4xx_HAL_Driver/Inc/stm32g4xx_ll_hrtim.h ****   * @brief Constants defining how the timer behaves during a burst mode operation.
1115:Drivers/STM32G4xx_HAL_Driver/Inc/stm32g4xx_ll_hrtim.h ****   */
1116:Drivers/STM32G4xx_HAL_Driver/Inc/stm32g4xx_ll_hrtim.h **** #define LL_HRTIM_BURSTMODE_MAINTAINCLOCK (uint32_t)0x000000 /*!< Timer counter clock is maintained 
1117:Drivers/STM32G4xx_HAL_Driver/Inc/stm32g4xx_ll_hrtim.h **** #define LL_HRTIM_BURSTMODE_RESETCOUNTER  (HRTIM_BMCR_MTBM)  /*!< Timer counter clock is stopped and
1118:Drivers/STM32G4xx_HAL_Driver/Inc/stm32g4xx_ll_hrtim.h **** /**
1119:Drivers/STM32G4xx_HAL_Driver/Inc/stm32g4xx_ll_hrtim.h ****   * @}
1120:Drivers/STM32G4xx_HAL_Driver/Inc/stm32g4xx_ll_hrtim.h ****   */
1121:Drivers/STM32G4xx_HAL_Driver/Inc/stm32g4xx_ll_hrtim.h **** 
1122:Drivers/STM32G4xx_HAL_Driver/Inc/stm32g4xx_ll_hrtim.h **** /** @defgroup HRTIM_LL_EC_BURSTDMA  BURST DMA
1123:Drivers/STM32G4xx_HAL_Driver/Inc/stm32g4xx_ll_hrtim.h ****   * @{
1124:Drivers/STM32G4xx_HAL_Driver/Inc/stm32g4xx_ll_hrtim.h ****   * @brief Constants defining the registers that can be written during a burst DMA operation.
1125:Drivers/STM32G4xx_HAL_Driver/Inc/stm32g4xx_ll_hrtim.h ****   */
1126:Drivers/STM32G4xx_HAL_Driver/Inc/stm32g4xx_ll_hrtim.h **** #define LL_HRTIM_BURSTDMA_NONE     0x00000000U               /*!< No register is updated by Burst D
1127:Drivers/STM32G4xx_HAL_Driver/Inc/stm32g4xx_ll_hrtim.h **** #define LL_HRTIM_BURSTDMA_MCR      (HRTIM_BDMUPR_MCR)        /*!< MCR  register is updated by Burst
1128:Drivers/STM32G4xx_HAL_Driver/Inc/stm32g4xx_ll_hrtim.h **** #define LL_HRTIM_BURSTDMA_MICR     (HRTIM_BDMUPR_MICR)       /*!< MICR register is updated by Burst
1129:Drivers/STM32G4xx_HAL_Driver/Inc/stm32g4xx_ll_hrtim.h **** #define LL_HRTIM_BURSTDMA_MDIER    (HRTIM_BDMUPR_MDIER)      /*!< MDIER register is updated by Burs
1130:Drivers/STM32G4xx_HAL_Driver/Inc/stm32g4xx_ll_hrtim.h **** #define LL_HRTIM_BURSTDMA_MCNT     (HRTIM_BDMUPR_MCNT)       /*!< MCNTR register is updated by Burs
1131:Drivers/STM32G4xx_HAL_Driver/Inc/stm32g4xx_ll_hrtim.h **** #define LL_HRTIM_BURSTDMA_MPER     (HRTIM_BDMUPR_MPER)       /*!< MPER register is updated by Burst
1132:Drivers/STM32G4xx_HAL_Driver/Inc/stm32g4xx_ll_hrtim.h **** #define LL_HRTIM_BURSTDMA_MREP     (HRTIM_BDMUPR_MREP)       /*!< MREPR register is updated by Burs
1133:Drivers/STM32G4xx_HAL_Driver/Inc/stm32g4xx_ll_hrtim.h **** #define LL_HRTIM_BURSTDMA_MCMP1    (HRTIM_BDMUPR_MCMP1)      /*!< MCMP1R register is updated by Bur
1134:Drivers/STM32G4xx_HAL_Driver/Inc/stm32g4xx_ll_hrtim.h **** #define LL_HRTIM_BURSTDMA_MCMP2    (HRTIM_BDMUPR_MCMP2)      /*!< MCMP2R register is updated by Bur
1135:Drivers/STM32G4xx_HAL_Driver/Inc/stm32g4xx_ll_hrtim.h **** #define LL_HRTIM_BURSTDMA_MCMP3    (HRTIM_BDMUPR_MCMP3)      /*!< MCMP3R register is updated by Bur
1136:Drivers/STM32G4xx_HAL_Driver/Inc/stm32g4xx_ll_hrtim.h **** #define LL_HRTIM_BURSTDMA_MCMP4    (HRTIM_BDMUPR_MCMP4)      /*!< MCMP4R register is updated by Bur
1137:Drivers/STM32G4xx_HAL_Driver/Inc/stm32g4xx_ll_hrtim.h **** #define LL_HRTIM_BURSTDMA_TIMMCR   (HRTIM_BDTUPR_TIMCR)      /*!< TIMxCR register is updated by Bur
1138:Drivers/STM32G4xx_HAL_Driver/Inc/stm32g4xx_ll_hrtim.h **** #define LL_HRTIM_BURSTDMA_TIMICR   (HRTIM_BDTUPR_TIMICR)     /*!< TIMxICR register is updated by Bu
1139:Drivers/STM32G4xx_HAL_Driver/Inc/stm32g4xx_ll_hrtim.h **** #define LL_HRTIM_BURSTDMA_TIMDIER  (HRTIM_BDTUPR_TIMDIER)    /*!< TIMxDIER register is updated by B
1140:Drivers/STM32G4xx_HAL_Driver/Inc/stm32g4xx_ll_hrtim.h **** #define LL_HRTIM_BURSTDMA_TIMCNT   (HRTIM_BDTUPR_TIMCNT)     /*!< CNTxCR register is updated by Bur
1141:Drivers/STM32G4xx_HAL_Driver/Inc/stm32g4xx_ll_hrtim.h **** #define LL_HRTIM_BURSTDMA_TIMPER   (HRTIM_BDTUPR_TIMPER)     /*!< PERxR register is updated by Burs
1142:Drivers/STM32G4xx_HAL_Driver/Inc/stm32g4xx_ll_hrtim.h **** #define LL_HRTIM_BURSTDMA_TIMREP   (HRTIM_BDTUPR_TIMREP)     /*!< REPxR register is updated by Burs
1143:Drivers/STM32G4xx_HAL_Driver/Inc/stm32g4xx_ll_hrtim.h **** #define LL_HRTIM_BURSTDMA_TIMCMP1  (HRTIM_BDTUPR_TIMCMP1)    /*!< CMP1xR register is updated by Bur
1144:Drivers/STM32G4xx_HAL_Driver/Inc/stm32g4xx_ll_hrtim.h **** #define LL_HRTIM_BURSTDMA_TIMCMP2  (HRTIM_BDTUPR_TIMCMP2)    /*!< CMP2xR register is updated by Bur
1145:Drivers/STM32G4xx_HAL_Driver/Inc/stm32g4xx_ll_hrtim.h **** #define LL_HRTIM_BURSTDMA_TIMCMP3  (HRTIM_BDTUPR_TIMCMP3)    /*!< CMP3xR register is updated by Bur
1146:Drivers/STM32G4xx_HAL_Driver/Inc/stm32g4xx_ll_hrtim.h **** #define LL_HRTIM_BURSTDMA_TIMCMP4  (HRTIM_BDTUPR_TIMCMP4)    /*!< CMP4xR register is updated by Bur
1147:Drivers/STM32G4xx_HAL_Driver/Inc/stm32g4xx_ll_hrtim.h **** #define LL_HRTIM_BURSTDMA_TIMDTR   (HRTIM_BDTUPR_TIMDTR)     /*!< DTxR register is updated by Burst
1148:Drivers/STM32G4xx_HAL_Driver/Inc/stm32g4xx_ll_hrtim.h **** #define LL_HRTIM_BURSTDMA_TIMSET1R (HRTIM_BDTUPR_TIMSET1R)   /*!< SET1R register is updated by Burs
1149:Drivers/STM32G4xx_HAL_Driver/Inc/stm32g4xx_ll_hrtim.h **** #define LL_HRTIM_BURSTDMA_TIMRST1R (HRTIM_BDTUPR_TIMRST1R)   /*!< RST1R register is updated by Burs
1150:Drivers/STM32G4xx_HAL_Driver/Inc/stm32g4xx_ll_hrtim.h **** #define LL_HRTIM_BURSTDMA_TIMSET2R (HRTIM_BDTUPR_TIMSET2R)   /*!< SET2R register is updated by Burs
1151:Drivers/STM32G4xx_HAL_Driver/Inc/stm32g4xx_ll_hrtim.h **** #define LL_HRTIM_BURSTDMA_TIMRST2R (HRTIM_BDTUPR_TIMRST2R)   /*!< RST1R register is updated by Burs
1152:Drivers/STM32G4xx_HAL_Driver/Inc/stm32g4xx_ll_hrtim.h **** #define LL_HRTIM_BURSTDMA_TIMEEFR1 (HRTIM_BDTUPR_TIMEEFR1)   /*!< EEFxR1 register is updated by Bur
1153:Drivers/STM32G4xx_HAL_Driver/Inc/stm32g4xx_ll_hrtim.h **** #define LL_HRTIM_BURSTDMA_TIMEEFR2 (HRTIM_BDTUPR_TIMEEFR2)   /*!< EEFxR2 register is updated by Bur
1154:Drivers/STM32G4xx_HAL_Driver/Inc/stm32g4xx_ll_hrtim.h **** #define LL_HRTIM_BURSTDMA_TIMRSTR  (HRTIM_BDTUPR_TIMRSTR)    /*!< RSTxR register is updated by Burs
1155:Drivers/STM32G4xx_HAL_Driver/Inc/stm32g4xx_ll_hrtim.h **** #define LL_HRTIM_BURSTDMA_TIMCHPR  (HRTIM_BDTUPR_TIMCHPR)    /*!< CHPxR register is updated by Burs
1156:Drivers/STM32G4xx_HAL_Driver/Inc/stm32g4xx_ll_hrtim.h **** #define LL_HRTIM_BURSTDMA_TIMOUTR  (HRTIM_BDTUPR_TIMOUTR)    /*!< OUTxR register is updated by Burs
1157:Drivers/STM32G4xx_HAL_Driver/Inc/stm32g4xx_ll_hrtim.h **** #define LL_HRTIM_BURSTDMA_TIMFLTR  (HRTIM_BDTUPR_TIMFLTR)    /*!< FLTxR register is updated by Burs
1158:Drivers/STM32G4xx_HAL_Driver/Inc/stm32g4xx_ll_hrtim.h **** #define LL_HRTIM_BURSTDMA_CR2      (HRTIM_BDTUPR_TIMCR2)     /*!< TIMxCR2 register is updated by Bu
1159:Drivers/STM32G4xx_HAL_Driver/Inc/stm32g4xx_ll_hrtim.h **** #define LL_HRTIM_BURSTDMA_EEFR3    (HRTIM_BDTUPR_TIMEEFR3)   /*!< EEFxR3 register is updated by Bur
1160:Drivers/STM32G4xx_HAL_Driver/Inc/stm32g4xx_ll_hrtim.h **** /**
1161:Drivers/STM32G4xx_HAL_Driver/Inc/stm32g4xx_ll_hrtim.h ****   * @}
1162:Drivers/STM32G4xx_HAL_Driver/Inc/stm32g4xx_ll_hrtim.h ****   */
1163:Drivers/STM32G4xx_HAL_Driver/Inc/stm32g4xx_ll_hrtim.h **** 
1164:Drivers/STM32G4xx_HAL_Driver/Inc/stm32g4xx_ll_hrtim.h **** /** @defgroup HRTIM_LL_EC_CPPSTAT  CURRENT PUSH-PULL STATUS
1165:Drivers/STM32G4xx_HAL_Driver/Inc/stm32g4xx_ll_hrtim.h ****   * @{
1166:Drivers/STM32G4xx_HAL_Driver/Inc/stm32g4xx_ll_hrtim.h ****   * @brief Constants defining on which output the signal is currently applied in push-pull mode.
1167:Drivers/STM32G4xx_HAL_Driver/Inc/stm32g4xx_ll_hrtim.h ****   */
ARM GAS  D:\apps\VSCode\data\tmp\ccNKRXCB.s 			page 23


1168:Drivers/STM32G4xx_HAL_Driver/Inc/stm32g4xx_ll_hrtim.h **** #define LL_HRTIM_CPPSTAT_OUTPUT1   ((uint32_t) 0x00000000U) /*!< Signal applied on output 1 and out
1169:Drivers/STM32G4xx_HAL_Driver/Inc/stm32g4xx_ll_hrtim.h **** #define LL_HRTIM_CPPSTAT_OUTPUT2   (HRTIM_TIMISR_CPPSTAT)  /*!< Signal applied on output 2 and outp
1170:Drivers/STM32G4xx_HAL_Driver/Inc/stm32g4xx_ll_hrtim.h **** /**
1171:Drivers/STM32G4xx_HAL_Driver/Inc/stm32g4xx_ll_hrtim.h ****   * @}
1172:Drivers/STM32G4xx_HAL_Driver/Inc/stm32g4xx_ll_hrtim.h ****   */
1173:Drivers/STM32G4xx_HAL_Driver/Inc/stm32g4xx_ll_hrtim.h **** 
1174:Drivers/STM32G4xx_HAL_Driver/Inc/stm32g4xx_ll_hrtim.h **** /** @defgroup HRTIM_LL_EC_IPPSTAT  IDLE PUSH-PULL STATUS
1175:Drivers/STM32G4xx_HAL_Driver/Inc/stm32g4xx_ll_hrtim.h ****   * @{
1176:Drivers/STM32G4xx_HAL_Driver/Inc/stm32g4xx_ll_hrtim.h ****   * @brief Constants defining on which output the signal was applied, in push-pull mode balanced fa
1177:Drivers/STM32G4xx_HAL_Driver/Inc/stm32g4xx_ll_hrtim.h ****   */
1178:Drivers/STM32G4xx_HAL_Driver/Inc/stm32g4xx_ll_hrtim.h **** #define LL_HRTIM_IPPSTAT_OUTPUT1   ((uint32_t) 0x00000000U)    /*!< Protection occurred when the ou
1179:Drivers/STM32G4xx_HAL_Driver/Inc/stm32g4xx_ll_hrtim.h **** #define LL_HRTIM_IPPSTAT_OUTPUT2   (HRTIM_TIMISR_IPPSTAT)     /*!< Protection occurred when the out
1180:Drivers/STM32G4xx_HAL_Driver/Inc/stm32g4xx_ll_hrtim.h **** /**
1181:Drivers/STM32G4xx_HAL_Driver/Inc/stm32g4xx_ll_hrtim.h ****   * @}
1182:Drivers/STM32G4xx_HAL_Driver/Inc/stm32g4xx_ll_hrtim.h ****   */
1183:Drivers/STM32G4xx_HAL_Driver/Inc/stm32g4xx_ll_hrtim.h **** 
1184:Drivers/STM32G4xx_HAL_Driver/Inc/stm32g4xx_ll_hrtim.h **** /** @defgroup HRTIM_LL_EC_TIM_EEFLTR TIMER EXTERNAL EVENT FILTER
1185:Drivers/STM32G4xx_HAL_Driver/Inc/stm32g4xx_ll_hrtim.h ****   * @{
1186:Drivers/STM32G4xx_HAL_Driver/Inc/stm32g4xx_ll_hrtim.h ****   * @brief Constants defining the event filtering applied to external events by a timer.
1187:Drivers/STM32G4xx_HAL_Driver/Inc/stm32g4xx_ll_hrtim.h ****   */
1188:Drivers/STM32G4xx_HAL_Driver/Inc/stm32g4xx_ll_hrtim.h **** #define LL_HRTIM_EEFLTR_NONE                            (0x00000000U)
1189:Drivers/STM32G4xx_HAL_Driver/Inc/stm32g4xx_ll_hrtim.h **** #define LL_HRTIM_EEFLTR_BLANKINGCMP1                    (HRTIM_EEFR1_EE1FLTR_0)                    
1190:Drivers/STM32G4xx_HAL_Driver/Inc/stm32g4xx_ll_hrtim.h **** #define LL_HRTIM_EEFLTR_BLANKINGCMP2                    (HRTIM_EEFR1_EE1FLTR_1)                    
1191:Drivers/STM32G4xx_HAL_Driver/Inc/stm32g4xx_ll_hrtim.h **** #define LL_HRTIM_EEFLTR_BLANKINGCMP3                    (HRTIM_EEFR1_EE1FLTR_1 | HRTIM_EEFR1_EE1FLT
1192:Drivers/STM32G4xx_HAL_Driver/Inc/stm32g4xx_ll_hrtim.h **** #define LL_HRTIM_EEFLTR_BLANKINGCMP4                    (HRTIM_EEFR1_EE1FLTR_2)                    
1193:Drivers/STM32G4xx_HAL_Driver/Inc/stm32g4xx_ll_hrtim.h **** /* Blanking Filter for TIMER A */
1194:Drivers/STM32G4xx_HAL_Driver/Inc/stm32g4xx_ll_hrtim.h **** #define LL_HRTIM_EEFLTR_BLANKING_TIMAEEF1_TIMBCMP1      (HRTIM_EEFR1_EE1FLTR_2 | HRTIM_EEFR1_EE1FLT
1195:Drivers/STM32G4xx_HAL_Driver/Inc/stm32g4xx_ll_hrtim.h **** #define LL_HRTIM_EEFLTR_BLANKING_TIMAEEF2_TIMBCMP4      (HRTIM_EEFR1_EE1FLTR_2 | HRTIM_EEFR1_EE1FLT
1196:Drivers/STM32G4xx_HAL_Driver/Inc/stm32g4xx_ll_hrtim.h **** #define LL_HRTIM_EEFLTR_BLANKING_TIMAEEF3_TIMBOUT2      (HRTIM_EEFR1_EE1FLTR_2 | HRTIM_EEFR1_EE1FLT
1197:Drivers/STM32G4xx_HAL_Driver/Inc/stm32g4xx_ll_hrtim.h **** #define LL_HRTIM_EEFLTR_BLANKING_TIMAEEF4_TIMCCMP1      (HRTIM_EEFR1_EE1FLTR_3)                    
1198:Drivers/STM32G4xx_HAL_Driver/Inc/stm32g4xx_ll_hrtim.h **** #define LL_HRTIM_EEFLTR_BLANKING_TIMAEEF5_TIMCCMP4      (HRTIM_EEFR1_EE1FLTR_3 | HRTIM_EEFR1_EE1FLT
1199:Drivers/STM32G4xx_HAL_Driver/Inc/stm32g4xx_ll_hrtim.h **** #define LL_HRTIM_EEFLTR_BLANKING_TIMAEEF6_TIMFCMP1      (HRTIM_EEFR1_EE1FLTR_3 | HRTIM_EEFR1_EE1FLT
1200:Drivers/STM32G4xx_HAL_Driver/Inc/stm32g4xx_ll_hrtim.h **** #define LL_HRTIM_EEFLTR_BLANKING_TIMAEEF7_TIMDCMP1      (HRTIM_EEFR1_EE1FLTR_3 | HRTIM_EEFR1_EE1FLT
1201:Drivers/STM32G4xx_HAL_Driver/Inc/stm32g4xx_ll_hrtim.h **** #define LL_HRTIM_EEFLTR_BLANKING_TIMAEEF8_TIMECMP2      (HRTIM_EEFR1_EE1FLTR_3 | HRTIM_EEFR1_EE1FLT
1202:Drivers/STM32G4xx_HAL_Driver/Inc/stm32g4xx_ll_hrtim.h **** /* Blanking Filter for TIMER B */
1203:Drivers/STM32G4xx_HAL_Driver/Inc/stm32g4xx_ll_hrtim.h **** #define LL_HRTIM_EEFLTR_BLANKING_TIMBEEF1_TIMACMP1      (HRTIM_EEFR1_EE1FLTR_2 | HRTIM_EEFR1_EE1FLT
1204:Drivers/STM32G4xx_HAL_Driver/Inc/stm32g4xx_ll_hrtim.h **** #define LL_HRTIM_EEFLTR_BLANKING_TIMBEEF2_TIMACMP4      (HRTIM_EEFR1_EE1FLTR_2 | HRTIM_EEFR1_EE1FLT
1205:Drivers/STM32G4xx_HAL_Driver/Inc/stm32g4xx_ll_hrtim.h **** #define LL_HRTIM_EEFLTR_BLANKING_TIMBEEF3_TIMAOUT2      (HRTIM_EEFR1_EE1FLTR_2 | HRTIM_EEFR1_EE1FLT
1206:Drivers/STM32G4xx_HAL_Driver/Inc/stm32g4xx_ll_hrtim.h **** #define LL_HRTIM_EEFLTR_BLANKING_TIMBEEF4_TIMCCMP1      (HRTIM_EEFR1_EE1FLTR_3)                    
1207:Drivers/STM32G4xx_HAL_Driver/Inc/stm32g4xx_ll_hrtim.h **** #define LL_HRTIM_EEFLTR_BLANKING_TIMBEEF5_TIMCCMP2      (HRTIM_EEFR1_EE1FLTR_3 | HRTIM_EEFR1_EE1FLT
1208:Drivers/STM32G4xx_HAL_Driver/Inc/stm32g4xx_ll_hrtim.h **** #define LL_HRTIM_EEFLTR_BLANKING_TIMBEEF6_TIMFCMP2      (HRTIM_EEFR1_EE1FLTR_3 | HRTIM_EEFR1_EE1FLT
1209:Drivers/STM32G4xx_HAL_Driver/Inc/stm32g4xx_ll_hrtim.h **** #define LL_HRTIM_EEFLTR_BLANKING_TIMBEEF7_TIMDCMP2      (HRTIM_EEFR1_EE1FLTR_3 | HRTIM_EEFR1_EE1FLT
1210:Drivers/STM32G4xx_HAL_Driver/Inc/stm32g4xx_ll_hrtim.h **** #define LL_HRTIM_EEFLTR_BLANKING_TIMBEEF8_TIMECMP1      (HRTIM_EEFR1_EE1FLTR_3 | HRTIM_EEFR1_EE1FLT
1211:Drivers/STM32G4xx_HAL_Driver/Inc/stm32g4xx_ll_hrtim.h **** /* Blanking Filter for TIMER C */
1212:Drivers/STM32G4xx_HAL_Driver/Inc/stm32g4xx_ll_hrtim.h **** #define LL_HRTIM_EEFLTR_BLANKING_TIMCEEF1_TIMACMP2      (HRTIM_EEFR1_EE1FLTR_2 | HRTIM_EEFR1_EE1FLT
1213:Drivers/STM32G4xx_HAL_Driver/Inc/stm32g4xx_ll_hrtim.h **** #define LL_HRTIM_EEFLTR_BLANKING_TIMCEEF2_TIMBCMP1      (HRTIM_EEFR1_EE1FLTR_2 | HRTIM_EEFR1_EE1FLT
1214:Drivers/STM32G4xx_HAL_Driver/Inc/stm32g4xx_ll_hrtim.h **** #define LL_HRTIM_EEFLTR_BLANKING_TIMCEEF3_TIMBCMP4      (HRTIM_EEFR1_EE1FLTR_2 | HRTIM_EEFR1_EE1FLT
1215:Drivers/STM32G4xx_HAL_Driver/Inc/stm32g4xx_ll_hrtim.h **** #define LL_HRTIM_EEFLTR_BLANKING_TIMCEEF4_TIMFCMP1      (HRTIM_EEFR1_EE1FLTR_3)                    
1216:Drivers/STM32G4xx_HAL_Driver/Inc/stm32g4xx_ll_hrtim.h **** #define LL_HRTIM_EEFLTR_BLANKING_TIMCEEF5_TIMDCMP1      (HRTIM_EEFR1_EE1FLTR_3 | HRTIM_EEFR1_EE1FLT
1217:Drivers/STM32G4xx_HAL_Driver/Inc/stm32g4xx_ll_hrtim.h **** #define LL_HRTIM_EEFLTR_BLANKING_TIMCEEF6_TIMDCMP4      (HRTIM_EEFR1_EE1FLTR_3 | HRTIM_EEFR1_EE1FLT
1218:Drivers/STM32G4xx_HAL_Driver/Inc/stm32g4xx_ll_hrtim.h **** #define LL_HRTIM_EEFLTR_BLANKING_TIMCEEF7_TIMDOUT2      (HRTIM_EEFR1_EE1FLTR_3 | HRTIM_EEFR1_EE1FLT
1219:Drivers/STM32G4xx_HAL_Driver/Inc/stm32g4xx_ll_hrtim.h **** #define LL_HRTIM_EEFLTR_BLANKING_TIMCEEF8_TIMECMP4      (HRTIM_EEFR1_EE1FLTR_3 | HRTIM_EEFR1_EE1FLT
1220:Drivers/STM32G4xx_HAL_Driver/Inc/stm32g4xx_ll_hrtim.h **** /* Blanking Filter for TIMER D */
1221:Drivers/STM32G4xx_HAL_Driver/Inc/stm32g4xx_ll_hrtim.h **** #define LL_HRTIM_EEFLTR_BLANKING_TIMDEEF1_TIMACMP1      (HRTIM_EEFR1_EE1FLTR_2 | HRTIM_EEFR1_EE1FLT
1222:Drivers/STM32G4xx_HAL_Driver/Inc/stm32g4xx_ll_hrtim.h **** #define LL_HRTIM_EEFLTR_BLANKING_TIMDEEF2_TIMBCMP2      (HRTIM_EEFR1_EE1FLTR_2 | HRTIM_EEFR1_EE1FLT
1223:Drivers/STM32G4xx_HAL_Driver/Inc/stm32g4xx_ll_hrtim.h **** #define LL_HRTIM_EEFLTR_BLANKING_TIMDEEF3_TIMCCMP1      (HRTIM_EEFR1_EE1FLTR_2 | HRTIM_EEFR1_EE1FLT
1224:Drivers/STM32G4xx_HAL_Driver/Inc/stm32g4xx_ll_hrtim.h **** #define LL_HRTIM_EEFLTR_BLANKING_TIMDEEF4_TIMCCMP2      (HRTIM_EEFR1_EE1FLTR_3)                    
ARM GAS  D:\apps\VSCode\data\tmp\ccNKRXCB.s 			page 24


1225:Drivers/STM32G4xx_HAL_Driver/Inc/stm32g4xx_ll_hrtim.h **** #define LL_HRTIM_EEFLTR_BLANKING_TIMDEEF5_TIMCOUT2      (HRTIM_EEFR1_EE1FLTR_3 | HRTIM_EEFR1_EE1FLT
1226:Drivers/STM32G4xx_HAL_Driver/Inc/stm32g4xx_ll_hrtim.h **** #define LL_HRTIM_EEFLTR_BLANKING_TIMDEEF6_TIMECMP1      (HRTIM_EEFR1_EE1FLTR_3 | HRTIM_EEFR1_EE1FLT
1227:Drivers/STM32G4xx_HAL_Driver/Inc/stm32g4xx_ll_hrtim.h **** #define LL_HRTIM_EEFLTR_BLANKING_TIMDEEF7_TIMECMP4      (HRTIM_EEFR1_EE1FLTR_3 | HRTIM_EEFR1_EE1FLT
1228:Drivers/STM32G4xx_HAL_Driver/Inc/stm32g4xx_ll_hrtim.h **** #define LL_HRTIM_EEFLTR_BLANKING_TIMDEEF8_TIMFCMP4      (HRTIM_EEFR1_EE1FLTR_3 | HRTIM_EEFR1_EE1FLT
1229:Drivers/STM32G4xx_HAL_Driver/Inc/stm32g4xx_ll_hrtim.h **** /* Blanking Filter for TIMER E */
1230:Drivers/STM32G4xx_HAL_Driver/Inc/stm32g4xx_ll_hrtim.h **** #define LL_HRTIM_EEFLTR_BLANKING_TIMEEEF1_TIMACMP2      (HRTIM_EEFR1_EE1FLTR_2 | HRTIM_EEFR1_EE1FLT
1231:Drivers/STM32G4xx_HAL_Driver/Inc/stm32g4xx_ll_hrtim.h **** #define LL_HRTIM_EEFLTR_BLANKING_TIMEEEF2_TIMBCMP1      (HRTIM_EEFR1_EE1FLTR_2 | HRTIM_EEFR1_EE1FLT
1232:Drivers/STM32G4xx_HAL_Driver/Inc/stm32g4xx_ll_hrtim.h **** #define LL_HRTIM_EEFLTR_BLANKING_TIMEEEF3_TIMCCMP1      (HRTIM_EEFR1_EE1FLTR_2 | HRTIM_EEFR1_EE1FLT
1233:Drivers/STM32G4xx_HAL_Driver/Inc/stm32g4xx_ll_hrtim.h **** #define LL_HRTIM_EEFLTR_BLANKING_TIMEEEF4_TIMFCMP4      (HRTIM_EEFR1_EE1FLTR_3)                    
1234:Drivers/STM32G4xx_HAL_Driver/Inc/stm32g4xx_ll_hrtim.h **** #define LL_HRTIM_EEFLTR_BLANKING_TIMEEEF5_TIMFOUT2      (HRTIM_EEFR1_EE1FLTR_3 | HRTIM_EEFR1_EE1FLT
1235:Drivers/STM32G4xx_HAL_Driver/Inc/stm32g4xx_ll_hrtim.h **** #define LL_HRTIM_EEFLTR_BLANKING_TIMEEEF6_TIMDCMP1      (HRTIM_EEFR1_EE1FLTR_3 | HRTIM_EEFR1_EE1FLT
1236:Drivers/STM32G4xx_HAL_Driver/Inc/stm32g4xx_ll_hrtim.h **** #define LL_HRTIM_EEFLTR_BLANKING_TIMEEEF7_TIMDCMP4      (HRTIM_EEFR1_EE1FLTR_3 | HRTIM_EEFR1_EE1FLT
1237:Drivers/STM32G4xx_HAL_Driver/Inc/stm32g4xx_ll_hrtim.h **** #define LL_HRTIM_EEFLTR_BLANKING_TIMEEEF8_TIMDOUT2      (HRTIM_EEFR1_EE1FLTR_3 | HRTIM_EEFR1_EE1FLT
1238:Drivers/STM32G4xx_HAL_Driver/Inc/stm32g4xx_ll_hrtim.h **** /* Blanking Filter for TIMER F */
1239:Drivers/STM32G4xx_HAL_Driver/Inc/stm32g4xx_ll_hrtim.h **** #define LL_HRTIM_EEFLTR_BLANKING_TIMFEEF1_TIMACMP4      (HRTIM_EEFR1_EE1FLTR_2 | HRTIM_EEFR1_EE1FLT
1240:Drivers/STM32G4xx_HAL_Driver/Inc/stm32g4xx_ll_hrtim.h **** #define LL_HRTIM_EEFLTR_BLANKING_TIMFEEF2_TIMBCMP2      (HRTIM_EEFR1_EE1FLTR_2 | HRTIM_EEFR1_EE1FLT
1241:Drivers/STM32G4xx_HAL_Driver/Inc/stm32g4xx_ll_hrtim.h **** #define LL_HRTIM_EEFLTR_BLANKING_TIMFEEF3_TIMCCMP4      (HRTIM_EEFR1_EE1FLTR_2 | HRTIM_EEFR1_EE1FLT
1242:Drivers/STM32G4xx_HAL_Driver/Inc/stm32g4xx_ll_hrtim.h **** #define LL_HRTIM_EEFLTR_BLANKING_TIMFEEF4_TIMDCMP2      (HRTIM_EEFR1_EE1FLTR_3)                    
1243:Drivers/STM32G4xx_HAL_Driver/Inc/stm32g4xx_ll_hrtim.h **** #define LL_HRTIM_EEFLTR_BLANKING_TIMFEEF5_TIMDCMP4      (HRTIM_EEFR1_EE1FLTR_3 | HRTIM_EEFR1_EE1FLT
1244:Drivers/STM32G4xx_HAL_Driver/Inc/stm32g4xx_ll_hrtim.h **** #define LL_HRTIM_EEFLTR_BLANKING_TIMFEEF6_TIMECMP1      (HRTIM_EEFR1_EE1FLTR_3 | HRTIM_EEFR1_EE1FLT
1245:Drivers/STM32G4xx_HAL_Driver/Inc/stm32g4xx_ll_hrtim.h **** #define LL_HRTIM_EEFLTR_BLANKING_TIMFEEF7_TIMECMP4      (HRTIM_EEFR1_EE1FLTR_3 | HRTIM_EEFR1_EE1FLT
1246:Drivers/STM32G4xx_HAL_Driver/Inc/stm32g4xx_ll_hrtim.h **** #define LL_HRTIM_EEFLTR_BLANKING_TIMFEEF8_TIMEOUT2      (HRTIM_EEFR1_EE1FLTR_3 | HRTIM_EEFR1_EE1FLT
1247:Drivers/STM32G4xx_HAL_Driver/Inc/stm32g4xx_ll_hrtim.h **** 
1248:Drivers/STM32G4xx_HAL_Driver/Inc/stm32g4xx_ll_hrtim.h **** #define LL_HRTIM_EEFLTR_WINDOWINGCMP2                   (HRTIM_EEFR1_EE1FLTR_3 | HRTIM_EEFR1_EE1FLT
1249:Drivers/STM32G4xx_HAL_Driver/Inc/stm32g4xx_ll_hrtim.h **** #define LL_HRTIM_EEFLTR_WINDOWINGCMP3                   (HRTIM_EEFR1_EE1FLTR_3 | HRTIM_EEFR1_EE1FLT
1250:Drivers/STM32G4xx_HAL_Driver/Inc/stm32g4xx_ll_hrtim.h **** #define LL_HRTIM_EEFLTR_WINDOWINGTIM                    (HRTIM_EEFR1_EE1FLTR_3 | HRTIM_EEFR1_EE1FLT
1251:Drivers/STM32G4xx_HAL_Driver/Inc/stm32g4xx_ll_hrtim.h ****                                                          | HRTIM_EEFR1_EE1FLTR_0)   /*!< Windowing 
1252:Drivers/STM32G4xx_HAL_Driver/Inc/stm32g4xx_ll_hrtim.h **** /**
1253:Drivers/STM32G4xx_HAL_Driver/Inc/stm32g4xx_ll_hrtim.h ****   * @}
1254:Drivers/STM32G4xx_HAL_Driver/Inc/stm32g4xx_ll_hrtim.h ****   */
1255:Drivers/STM32G4xx_HAL_Driver/Inc/stm32g4xx_ll_hrtim.h **** 
1256:Drivers/STM32G4xx_HAL_Driver/Inc/stm32g4xx_ll_hrtim.h **** /** @defgroup HRTIM_LL_EC_TIM_LATCHSTATUS TIMER EXTERNAL EVENT LATCH STATUS
1257:Drivers/STM32G4xx_HAL_Driver/Inc/stm32g4xx_ll_hrtim.h ****   * @{
1258:Drivers/STM32G4xx_HAL_Driver/Inc/stm32g4xx_ll_hrtim.h ****   * @brief Constants defining whether or not the external event is memorized (latched) and generate
1259:Drivers/STM32G4xx_HAL_Driver/Inc/stm32g4xx_ll_hrtim.h ****   */
1260:Drivers/STM32G4xx_HAL_Driver/Inc/stm32g4xx_ll_hrtim.h **** #define LL_HRTIM_EELATCH_DISABLED    0x00000000U             /*!< Event is ignored if it happens du
1261:Drivers/STM32G4xx_HAL_Driver/Inc/stm32g4xx_ll_hrtim.h **** #define LL_HRTIM_EELATCH_ENABLED     HRTIM_EEFR1_EE1LTCH     /*!< Event is latched and delayed till
1262:Drivers/STM32G4xx_HAL_Driver/Inc/stm32g4xx_ll_hrtim.h **** /**
1263:Drivers/STM32G4xx_HAL_Driver/Inc/stm32g4xx_ll_hrtim.h ****   * @}
1264:Drivers/STM32G4xx_HAL_Driver/Inc/stm32g4xx_ll_hrtim.h ****   */
1265:Drivers/STM32G4xx_HAL_Driver/Inc/stm32g4xx_ll_hrtim.h **** 
1266:Drivers/STM32G4xx_HAL_Driver/Inc/stm32g4xx_ll_hrtim.h **** /** @defgroup HRTIM_LL_EC_DT_PRESCALER DEADTIME PRESCALER
1267:Drivers/STM32G4xx_HAL_Driver/Inc/stm32g4xx_ll_hrtim.h ****   * @{
1268:Drivers/STM32G4xx_HAL_Driver/Inc/stm32g4xx_ll_hrtim.h ****   * @brief Constants defining division ratio between the timer clock frequency (fHRTIM) and the dea
1269:Drivers/STM32G4xx_HAL_Driver/Inc/stm32g4xx_ll_hrtim.h ****   */
1270:Drivers/STM32G4xx_HAL_Driver/Inc/stm32g4xx_ll_hrtim.h **** #define LL_HRTIM_DT_PRESCALER_MUL8    0x00000000U                                         /*!< fDTG
1271:Drivers/STM32G4xx_HAL_Driver/Inc/stm32g4xx_ll_hrtim.h **** #define LL_HRTIM_DT_PRESCALER_MUL4    (HRTIM_DTR_DTPRSC_0)                                         
1272:Drivers/STM32G4xx_HAL_Driver/Inc/stm32g4xx_ll_hrtim.h **** #define LL_HRTIM_DT_PRESCALER_MUL2    (HRTIM_DTR_DTPRSC_1)                                         
1273:Drivers/STM32G4xx_HAL_Driver/Inc/stm32g4xx_ll_hrtim.h **** #define LL_HRTIM_DT_PRESCALER_DIV1    (HRTIM_DTR_DTPRSC_1 | HRTIM_DTR_DTPRSC_0)                    
1274:Drivers/STM32G4xx_HAL_Driver/Inc/stm32g4xx_ll_hrtim.h **** #define LL_HRTIM_DT_PRESCALER_DIV2    (HRTIM_DTR_DTPRSC_2)                                         
1275:Drivers/STM32G4xx_HAL_Driver/Inc/stm32g4xx_ll_hrtim.h **** #define LL_HRTIM_DT_PRESCALER_DIV4    (HRTIM_DTR_DTPRSC_2 | HRTIM_DTR_DTPRSC_0)                    
1276:Drivers/STM32G4xx_HAL_Driver/Inc/stm32g4xx_ll_hrtim.h **** #define LL_HRTIM_DT_PRESCALER_DIV8    (HRTIM_DTR_DTPRSC_2 | HRTIM_DTR_DTPRSC_1)                    
1277:Drivers/STM32G4xx_HAL_Driver/Inc/stm32g4xx_ll_hrtim.h **** #define LL_HRTIM_DT_PRESCALER_DIV16   (HRTIM_DTR_DTPRSC_2 | HRTIM_DTR_DTPRSC_1 | HRTIM_DTR_DTPRSC_0
1278:Drivers/STM32G4xx_HAL_Driver/Inc/stm32g4xx_ll_hrtim.h **** /**
1279:Drivers/STM32G4xx_HAL_Driver/Inc/stm32g4xx_ll_hrtim.h ****   * @}
1280:Drivers/STM32G4xx_HAL_Driver/Inc/stm32g4xx_ll_hrtim.h ****   */
1281:Drivers/STM32G4xx_HAL_Driver/Inc/stm32g4xx_ll_hrtim.h **** 
ARM GAS  D:\apps\VSCode\data\tmp\ccNKRXCB.s 			page 25


1282:Drivers/STM32G4xx_HAL_Driver/Inc/stm32g4xx_ll_hrtim.h **** /** @defgroup HRTIM_LL_EC_DT_RISING_SIGN DEADTIME RISING SIGN
1283:Drivers/STM32G4xx_HAL_Driver/Inc/stm32g4xx_ll_hrtim.h ****   * @{
1284:Drivers/STM32G4xx_HAL_Driver/Inc/stm32g4xx_ll_hrtim.h ****   * @brief Constants defining whether the deadtime is positive or negative (overlapping signal) on 
1285:Drivers/STM32G4xx_HAL_Driver/Inc/stm32g4xx_ll_hrtim.h ****   */
1286:Drivers/STM32G4xx_HAL_Driver/Inc/stm32g4xx_ll_hrtim.h **** #define LL_HRTIM_DT_RISING_POSITIVE    0x00000000U             /*!< Positive deadtime on rising edg
1287:Drivers/STM32G4xx_HAL_Driver/Inc/stm32g4xx_ll_hrtim.h **** #define LL_HRTIM_DT_RISING_NEGATIVE    (HRTIM_DTR_SDTR)        /*!< Negative deadtime on rising edg
1288:Drivers/STM32G4xx_HAL_Driver/Inc/stm32g4xx_ll_hrtim.h **** /**
1289:Drivers/STM32G4xx_HAL_Driver/Inc/stm32g4xx_ll_hrtim.h ****   * @}
1290:Drivers/STM32G4xx_HAL_Driver/Inc/stm32g4xx_ll_hrtim.h ****   */
1291:Drivers/STM32G4xx_HAL_Driver/Inc/stm32g4xx_ll_hrtim.h **** 
1292:Drivers/STM32G4xx_HAL_Driver/Inc/stm32g4xx_ll_hrtim.h **** /** @defgroup HRTIM_LL_EC_DT_FALLING_SIGN DEADTIME FALLING SIGN
1293:Drivers/STM32G4xx_HAL_Driver/Inc/stm32g4xx_ll_hrtim.h ****   * @{
1294:Drivers/STM32G4xx_HAL_Driver/Inc/stm32g4xx_ll_hrtim.h ****   * @brief Constants defining whether the deadtime is positive or negative (overlapping signal) on 
1295:Drivers/STM32G4xx_HAL_Driver/Inc/stm32g4xx_ll_hrtim.h ****   */
1296:Drivers/STM32G4xx_HAL_Driver/Inc/stm32g4xx_ll_hrtim.h **** #define LL_HRTIM_DT_FALLING_POSITIVE    0x00000000U             /*!< Positive deadtime on falling e
1297:Drivers/STM32G4xx_HAL_Driver/Inc/stm32g4xx_ll_hrtim.h **** #define LL_HRTIM_DT_FALLING_NEGATIVE    (HRTIM_DTR_SDTF)        /*!< Negative deadtime on falling e
1298:Drivers/STM32G4xx_HAL_Driver/Inc/stm32g4xx_ll_hrtim.h **** /**
1299:Drivers/STM32G4xx_HAL_Driver/Inc/stm32g4xx_ll_hrtim.h ****   * @}
1300:Drivers/STM32G4xx_HAL_Driver/Inc/stm32g4xx_ll_hrtim.h ****   */
1301:Drivers/STM32G4xx_HAL_Driver/Inc/stm32g4xx_ll_hrtim.h **** 
1302:Drivers/STM32G4xx_HAL_Driver/Inc/stm32g4xx_ll_hrtim.h **** /** @defgroup HRTIM_LL_EC_CHP_PRESCALER CHOPPER MODE PRESCALER
1303:Drivers/STM32G4xx_HAL_Driver/Inc/stm32g4xx_ll_hrtim.h ****   * @{
1304:Drivers/STM32G4xx_HAL_Driver/Inc/stm32g4xx_ll_hrtim.h ****   * @brief Constants defining the frequency of the generated high frequency carrier (fCHPFRQ).
1305:Drivers/STM32G4xx_HAL_Driver/Inc/stm32g4xx_ll_hrtim.h ****   */
1306:Drivers/STM32G4xx_HAL_Driver/Inc/stm32g4xx_ll_hrtim.h **** #define LL_HRTIM_CHP_PRESCALER_DIV16  0x00000000U                                                  
1307:Drivers/STM32G4xx_HAL_Driver/Inc/stm32g4xx_ll_hrtim.h **** #define LL_HRTIM_CHP_PRESCALER_DIV32  (HRTIM_CHPR_CARFRQ_0)                                        
1308:Drivers/STM32G4xx_HAL_Driver/Inc/stm32g4xx_ll_hrtim.h **** #define LL_HRTIM_CHP_PRESCALER_DIV48  (HRTIM_CHPR_CARFRQ_1)                                        
1309:Drivers/STM32G4xx_HAL_Driver/Inc/stm32g4xx_ll_hrtim.h **** #define LL_HRTIM_CHP_PRESCALER_DIV64  (HRTIM_CHPR_CARFRQ_1 | HRTIM_CHPR_CARFRQ_0)                  
1310:Drivers/STM32G4xx_HAL_Driver/Inc/stm32g4xx_ll_hrtim.h **** #define LL_HRTIM_CHP_PRESCALER_DIV80  (HRTIM_CHPR_CARFRQ_2)                                        
1311:Drivers/STM32G4xx_HAL_Driver/Inc/stm32g4xx_ll_hrtim.h **** #define LL_HRTIM_CHP_PRESCALER_DIV96  (HRTIM_CHPR_CARFRQ_2 | HRTIM_CHPR_CARFRQ_0)                  
1312:Drivers/STM32G4xx_HAL_Driver/Inc/stm32g4xx_ll_hrtim.h **** #define LL_HRTIM_CHP_PRESCALER_DIV112 (HRTIM_CHPR_CARFRQ_2 | HRTIM_CHPR_CARFRQ_1)                  
1313:Drivers/STM32G4xx_HAL_Driver/Inc/stm32g4xx_ll_hrtim.h **** #define LL_HRTIM_CHP_PRESCALER_DIV128 (HRTIM_CHPR_CARFRQ_2 | HRTIM_CHPR_CARFRQ_1 | HRTIM_CHPR_CARFR
1314:Drivers/STM32G4xx_HAL_Driver/Inc/stm32g4xx_ll_hrtim.h **** #define LL_HRTIM_CHP_PRESCALER_DIV144 (HRTIM_CHPR_CARFRQ_3)                                        
1315:Drivers/STM32G4xx_HAL_Driver/Inc/stm32g4xx_ll_hrtim.h **** #define LL_HRTIM_CHP_PRESCALER_DIV160 (HRTIM_CHPR_CARFRQ_3 | HRTIM_CHPR_CARFRQ_0)                  
1316:Drivers/STM32G4xx_HAL_Driver/Inc/stm32g4xx_ll_hrtim.h **** #define LL_HRTIM_CHP_PRESCALER_DIV176 (HRTIM_CHPR_CARFRQ_3 | HRTIM_CHPR_CARFRQ_1)                  
1317:Drivers/STM32G4xx_HAL_Driver/Inc/stm32g4xx_ll_hrtim.h **** #define LL_HRTIM_CHP_PRESCALER_DIV192 (HRTIM_CHPR_CARFRQ_3 | HRTIM_CHPR_CARFRQ_1 | HRTIM_CHPR_CARFR
1318:Drivers/STM32G4xx_HAL_Driver/Inc/stm32g4xx_ll_hrtim.h **** #define LL_HRTIM_CHP_PRESCALER_DIV208 (HRTIM_CHPR_CARFRQ_3 | HRTIM_CHPR_CARFRQ_2)                  
1319:Drivers/STM32G4xx_HAL_Driver/Inc/stm32g4xx_ll_hrtim.h **** #define LL_HRTIM_CHP_PRESCALER_DIV224 (HRTIM_CHPR_CARFRQ_3 | HRTIM_CHPR_CARFRQ_2 | HRTIM_CHPR_CARFR
1320:Drivers/STM32G4xx_HAL_Driver/Inc/stm32g4xx_ll_hrtim.h **** #define LL_HRTIM_CHP_PRESCALER_DIV240 (HRTIM_CHPR_CARFRQ_3 | HRTIM_CHPR_CARFRQ_2 | HRTIM_CHPR_CARFR
1321:Drivers/STM32G4xx_HAL_Driver/Inc/stm32g4xx_ll_hrtim.h **** #define LL_HRTIM_CHP_PRESCALER_DIV256 (HRTIM_CHPR_CARFRQ_3 | HRTIM_CHPR_CARFRQ_2 | HRTIM_CHPR_CARFR
1322:Drivers/STM32G4xx_HAL_Driver/Inc/stm32g4xx_ll_hrtim.h **** /**
1323:Drivers/STM32G4xx_HAL_Driver/Inc/stm32g4xx_ll_hrtim.h ****   * @}
1324:Drivers/STM32G4xx_HAL_Driver/Inc/stm32g4xx_ll_hrtim.h ****   */
1325:Drivers/STM32G4xx_HAL_Driver/Inc/stm32g4xx_ll_hrtim.h **** 
1326:Drivers/STM32G4xx_HAL_Driver/Inc/stm32g4xx_ll_hrtim.h **** /** @defgroup HRTIM_LL_EC_CHP_DUTYCYCLE CHOPPER MODE DUTY CYCLE
1327:Drivers/STM32G4xx_HAL_Driver/Inc/stm32g4xx_ll_hrtim.h ****   * @{
1328:Drivers/STM32G4xx_HAL_Driver/Inc/stm32g4xx_ll_hrtim.h ****   * @brief Constants defining the duty cycle of the generated high frequency carrier. Duty cycle ca
1329:Drivers/STM32G4xx_HAL_Driver/Inc/stm32g4xx_ll_hrtim.h ****   */
1330:Drivers/STM32G4xx_HAL_Driver/Inc/stm32g4xx_ll_hrtim.h **** #define LL_HRTIM_CHP_DUTYCYCLE_0    0x00000000U                                              /*!< O
1331:Drivers/STM32G4xx_HAL_Driver/Inc/stm32g4xx_ll_hrtim.h **** #define LL_HRTIM_CHP_DUTYCYCLE_125  (HRTIM_CHPR_CARDTY_0)                                          
1332:Drivers/STM32G4xx_HAL_Driver/Inc/stm32g4xx_ll_hrtim.h **** #define LL_HRTIM_CHP_DUTYCYCLE_250  (HRTIM_CHPR_CARDTY_1)                                          
1333:Drivers/STM32G4xx_HAL_Driver/Inc/stm32g4xx_ll_hrtim.h **** #define LL_HRTIM_CHP_DUTYCYCLE_375  (HRTIM_CHPR_CARDTY_1 | HRTIM_CHPR_CARDTY_0)                    
1334:Drivers/STM32G4xx_HAL_Driver/Inc/stm32g4xx_ll_hrtim.h **** #define LL_HRTIM_CHP_DUTYCYCLE_500  (HRTIM_CHPR_CARDTY_2)                                          
1335:Drivers/STM32G4xx_HAL_Driver/Inc/stm32g4xx_ll_hrtim.h **** #define LL_HRTIM_CHP_DUTYCYCLE_625  (HRTIM_CHPR_CARDTY_2 | HRTIM_CHPR_CARDTY_0)                    
1336:Drivers/STM32G4xx_HAL_Driver/Inc/stm32g4xx_ll_hrtim.h **** #define LL_HRTIM_CHP_DUTYCYCLE_750  (HRTIM_CHPR_CARDTY_2 | HRTIM_CHPR_CARDTY_1)                    
1337:Drivers/STM32G4xx_HAL_Driver/Inc/stm32g4xx_ll_hrtim.h **** #define LL_HRTIM_CHP_DUTYCYCLE_875  (HRTIM_CHPR_CARDTY_2 | HRTIM_CHPR_CARDTY_1 | HRTIM_CHPR_CARDTY_
1338:Drivers/STM32G4xx_HAL_Driver/Inc/stm32g4xx_ll_hrtim.h **** /**
ARM GAS  D:\apps\VSCode\data\tmp\ccNKRXCB.s 			page 26


1339:Drivers/STM32G4xx_HAL_Driver/Inc/stm32g4xx_ll_hrtim.h ****   * @}
1340:Drivers/STM32G4xx_HAL_Driver/Inc/stm32g4xx_ll_hrtim.h ****   */
1341:Drivers/STM32G4xx_HAL_Driver/Inc/stm32g4xx_ll_hrtim.h **** 
1342:Drivers/STM32G4xx_HAL_Driver/Inc/stm32g4xx_ll_hrtim.h **** /** @defgroup HRTIM_LL_EC_CHP_PULSEWIDTH CHOPPER MODE PULSE WIDTH
1343:Drivers/STM32G4xx_HAL_Driver/Inc/stm32g4xx_ll_hrtim.h ****   * @{
1344:Drivers/STM32G4xx_HAL_Driver/Inc/stm32g4xx_ll_hrtim.h ****   * @brief Constants defining the pulse width of the first pulse of the generated high frequency ca
1345:Drivers/STM32G4xx_HAL_Driver/Inc/stm32g4xx_ll_hrtim.h ****   */
1346:Drivers/STM32G4xx_HAL_Driver/Inc/stm32g4xx_ll_hrtim.h **** #define LL_HRTIM_CHP_PULSEWIDTH_16   0x00000000U                                                   
1347:Drivers/STM32G4xx_HAL_Driver/Inc/stm32g4xx_ll_hrtim.h **** #define LL_HRTIM_CHP_PULSEWIDTH_32   (HRTIM_CHPR_STRPW_0)                                          
1348:Drivers/STM32G4xx_HAL_Driver/Inc/stm32g4xx_ll_hrtim.h **** #define LL_HRTIM_CHP_PULSEWIDTH_48   (HRTIM_CHPR_STRPW_1)                                          
1349:Drivers/STM32G4xx_HAL_Driver/Inc/stm32g4xx_ll_hrtim.h **** #define LL_HRTIM_CHP_PULSEWIDTH_64   (HRTIM_CHPR_STRPW_1 | HRTIM_CHPR_STRPW_0)                     
1350:Drivers/STM32G4xx_HAL_Driver/Inc/stm32g4xx_ll_hrtim.h **** #define LL_HRTIM_CHP_PULSEWIDTH_80   (HRTIM_CHPR_STRPW_2)                                          
1351:Drivers/STM32G4xx_HAL_Driver/Inc/stm32g4xx_ll_hrtim.h **** #define LL_HRTIM_CHP_PULSEWIDTH_96   (HRTIM_CHPR_STRPW_2 | HRTIM_CHPR_STRPW_0)                     
1352:Drivers/STM32G4xx_HAL_Driver/Inc/stm32g4xx_ll_hrtim.h **** #define LL_HRTIM_CHP_PULSEWIDTH_112  (HRTIM_CHPR_STRPW_2 | HRTIM_CHPR_STRPW_1)                     
1353:Drivers/STM32G4xx_HAL_Driver/Inc/stm32g4xx_ll_hrtim.h **** #define LL_HRTIM_CHP_PULSEWIDTH_128  (HRTIM_CHPR_STRPW_2 | HRTIM_CHPR_STRPW_1 | HRTIM_CHPR_STRPW_0)
1354:Drivers/STM32G4xx_HAL_Driver/Inc/stm32g4xx_ll_hrtim.h **** #define LL_HRTIM_CHP_PULSEWIDTH_144  (HRTIM_CHPR_STRPW_3)                                          
1355:Drivers/STM32G4xx_HAL_Driver/Inc/stm32g4xx_ll_hrtim.h **** #define LL_HRTIM_CHP_PULSEWIDTH_160  (HRTIM_CHPR_STRPW_3 | HRTIM_CHPR_STRPW_0)                     
1356:Drivers/STM32G4xx_HAL_Driver/Inc/stm32g4xx_ll_hrtim.h **** #define LL_HRTIM_CHP_PULSEWIDTH_176  (HRTIM_CHPR_STRPW_3 | HRTIM_CHPR_STRPW_1)                     
1357:Drivers/STM32G4xx_HAL_Driver/Inc/stm32g4xx_ll_hrtim.h **** #define LL_HRTIM_CHP_PULSEWIDTH_192  (HRTIM_CHPR_STRPW_3 | HRTIM_CHPR_STRPW_1 | HRTIM_CHPR_STRPW_0)
1358:Drivers/STM32G4xx_HAL_Driver/Inc/stm32g4xx_ll_hrtim.h **** #define LL_HRTIM_CHP_PULSEWIDTH_208  (HRTIM_CHPR_STRPW_3 | HRTIM_CHPR_STRPW_2)                     
1359:Drivers/STM32G4xx_HAL_Driver/Inc/stm32g4xx_ll_hrtim.h **** #define LL_HRTIM_CHP_PULSEWIDTH_224  (HRTIM_CHPR_STRPW_3 | HRTIM_CHPR_STRPW_2 | HRTIM_CHPR_STRPW_0)
1360:Drivers/STM32G4xx_HAL_Driver/Inc/stm32g4xx_ll_hrtim.h **** #define LL_HRTIM_CHP_PULSEWIDTH_240  (HRTIM_CHPR_STRPW_3 | HRTIM_CHPR_STRPW_2 | HRTIM_CHPR_STRPW_1)
1361:Drivers/STM32G4xx_HAL_Driver/Inc/stm32g4xx_ll_hrtim.h **** #define LL_HRTIM_CHP_PULSEWIDTH_256  (HRTIM_CHPR_STRPW_3 | HRTIM_CHPR_STRPW_2 | HRTIM_CHPR_STRPW_1 
1362:Drivers/STM32G4xx_HAL_Driver/Inc/stm32g4xx_ll_hrtim.h **** /**
1363:Drivers/STM32G4xx_HAL_Driver/Inc/stm32g4xx_ll_hrtim.h ****   * @}
1364:Drivers/STM32G4xx_HAL_Driver/Inc/stm32g4xx_ll_hrtim.h ****   */
1365:Drivers/STM32G4xx_HAL_Driver/Inc/stm32g4xx_ll_hrtim.h **** 
1366:Drivers/STM32G4xx_HAL_Driver/Inc/stm32g4xx_ll_hrtim.h **** /** @defgroup HRTIM_LL_EC_OUTPUTSET_INPUT OUTPUTSET INPUT
1367:Drivers/STM32G4xx_HAL_Driver/Inc/stm32g4xx_ll_hrtim.h ****   * @{
1368:Drivers/STM32G4xx_HAL_Driver/Inc/stm32g4xx_ll_hrtim.h ****   * @brief Constants defining the events that can be selected to configure the set/reset crossbar o
1369:Drivers/STM32G4xx_HAL_Driver/Inc/stm32g4xx_ll_hrtim.h ****   */
1370:Drivers/STM32G4xx_HAL_Driver/Inc/stm32g4xx_ll_hrtim.h **** #define LL_HRTIM_OUTPUTSET_NONE                0x00000000U             /*!< Reset the output set cr
1371:Drivers/STM32G4xx_HAL_Driver/Inc/stm32g4xx_ll_hrtim.h **** #define LL_HRTIM_OUTPUTSET_RESYNC              (HRTIM_SET1R_RESYNC)    /*!< Timer reset event comin
1372:Drivers/STM32G4xx_HAL_Driver/Inc/stm32g4xx_ll_hrtim.h **** #define LL_HRTIM_OUTPUTSET_TIMPER              (HRTIM_SET1R_PER)       /*!< Timer period event forc
1373:Drivers/STM32G4xx_HAL_Driver/Inc/stm32g4xx_ll_hrtim.h **** #define LL_HRTIM_OUTPUTSET_TIMCMP1             (HRTIM_SET1R_CMP1)      /*!< Timer compare 1 event f
1374:Drivers/STM32G4xx_HAL_Driver/Inc/stm32g4xx_ll_hrtim.h **** #define LL_HRTIM_OUTPUTSET_TIMCMP2             (HRTIM_SET1R_CMP2)      /*!< Timer compare 2 event f
1375:Drivers/STM32G4xx_HAL_Driver/Inc/stm32g4xx_ll_hrtim.h **** #define LL_HRTIM_OUTPUTSET_TIMCMP3             (HRTIM_SET1R_CMP3)      /*!< Timer compare 3 event f
1376:Drivers/STM32G4xx_HAL_Driver/Inc/stm32g4xx_ll_hrtim.h **** #define LL_HRTIM_OUTPUTSET_TIMCMP4             (HRTIM_SET1R_CMP4)      /*!< Timer compare 4 event f
1377:Drivers/STM32G4xx_HAL_Driver/Inc/stm32g4xx_ll_hrtim.h **** #define LL_HRTIM_OUTPUTSET_MASTERPER           (HRTIM_SET1R_MSTPER)    /*!< The master timer period
1378:Drivers/STM32G4xx_HAL_Driver/Inc/stm32g4xx_ll_hrtim.h **** #define LL_HRTIM_OUTPUTSET_MASTERCMP1          (HRTIM_SET1R_MSTCMP1)   /*!< Master Timer compare 1 
1379:Drivers/STM32G4xx_HAL_Driver/Inc/stm32g4xx_ll_hrtim.h **** #define LL_HRTIM_OUTPUTSET_MASTERCMP2          (HRTIM_SET1R_MSTCMP2)   /*!< Master Timer compare 2 
1380:Drivers/STM32G4xx_HAL_Driver/Inc/stm32g4xx_ll_hrtim.h **** #define LL_HRTIM_OUTPUTSET_MASTERCMP3          (HRTIM_SET1R_MSTCMP3)   /*!< Master Timer compare 3 
1381:Drivers/STM32G4xx_HAL_Driver/Inc/stm32g4xx_ll_hrtim.h **** #define LL_HRTIM_OUTPUTSET_MASTERCMP4          (HRTIM_SET1R_MSTCMP4)   /*!< Master Timer compare 4 
1382:Drivers/STM32G4xx_HAL_Driver/Inc/stm32g4xx_ll_hrtim.h **** 
1383:Drivers/STM32G4xx_HAL_Driver/Inc/stm32g4xx_ll_hrtim.h **** /* Timer Events mapping for Timer A */
1384:Drivers/STM32G4xx_HAL_Driver/Inc/stm32g4xx_ll_hrtim.h **** #define LL_HRTIM_OUTPUTSET_TIMAEV1_TIMBCMP1    (HRTIM_SET1R_TIMEVNT1)  /*!< Timer event 1 forces th
1385:Drivers/STM32G4xx_HAL_Driver/Inc/stm32g4xx_ll_hrtim.h **** #define LL_HRTIM_OUTPUTSET_TIMAEV2_TIMBCMP2    (HRTIM_SET1R_TIMEVNT2)  /*!< Timer event 2 forces th
1386:Drivers/STM32G4xx_HAL_Driver/Inc/stm32g4xx_ll_hrtim.h **** #define LL_HRTIM_OUTPUTSET_TIMAEV3_TIMFCMP4    (HRTIM_SET1R_TIMEVNT3)  /*!< Timer event 3 forces th
1387:Drivers/STM32G4xx_HAL_Driver/Inc/stm32g4xx_ll_hrtim.h **** #define LL_HRTIM_OUTPUTSET_TIMAEV4_TIMCCMP2    (HRTIM_SET1R_TIMEVNT4)  /*!< Timer event 4 forces th
1388:Drivers/STM32G4xx_HAL_Driver/Inc/stm32g4xx_ll_hrtim.h **** #define LL_HRTIM_OUTPUTSET_TIMAEV5_TIMCCMP3    (HRTIM_SET1R_TIMEVNT5)  /*!< Timer event 5 forces th
1389:Drivers/STM32G4xx_HAL_Driver/Inc/stm32g4xx_ll_hrtim.h **** #define LL_HRTIM_OUTPUTSET_TIMAEV6_TIMDCMP1    (HRTIM_SET1R_TIMEVNT6)  /*!< Timer event 6 forces th
1390:Drivers/STM32G4xx_HAL_Driver/Inc/stm32g4xx_ll_hrtim.h **** #define LL_HRTIM_OUTPUTSET_TIMAEV7_TIMDCMP2    (HRTIM_SET1R_TIMEVNT7)  /*!< Timer event 7 forces th
1391:Drivers/STM32G4xx_HAL_Driver/Inc/stm32g4xx_ll_hrtim.h **** #define LL_HRTIM_OUTPUTSET_TIMAEV8_TIMECMP3    (HRTIM_SET1R_TIMEVNT8)  /*!< Timer event 8 forces th
1392:Drivers/STM32G4xx_HAL_Driver/Inc/stm32g4xx_ll_hrtim.h **** #define LL_HRTIM_OUTPUTSET_TIMAEV9_TIMECMP4    (HRTIM_SET1R_TIMEVNT9)  /*!< Timer event 9 forces th
1393:Drivers/STM32G4xx_HAL_Driver/Inc/stm32g4xx_ll_hrtim.h **** /* Timer Events mapping for Timer B */
1394:Drivers/STM32G4xx_HAL_Driver/Inc/stm32g4xx_ll_hrtim.h **** #define LL_HRTIM_OUTPUTSET_TIMBEV1_TIMACMP1    (HRTIM_SET1R_TIMEVNT1)  /*!< Timer event 1 forces th
1395:Drivers/STM32G4xx_HAL_Driver/Inc/stm32g4xx_ll_hrtim.h **** #define LL_HRTIM_OUTPUTSET_TIMBEV2_TIMACMP2    (HRTIM_SET1R_TIMEVNT2)  /*!< Timer event 2 forces th
ARM GAS  D:\apps\VSCode\data\tmp\ccNKRXCB.s 			page 27


1396:Drivers/STM32G4xx_HAL_Driver/Inc/stm32g4xx_ll_hrtim.h **** #define LL_HRTIM_OUTPUTSET_TIMBEV3_TIMFCMP3    (HRTIM_SET1R_TIMEVNT3)  /*!< Timer event 3 forces th
1397:Drivers/STM32G4xx_HAL_Driver/Inc/stm32g4xx_ll_hrtim.h **** #define LL_HRTIM_OUTPUTSET_TIMBEV4_TIMCCMP3    (HRTIM_SET1R_TIMEVNT4)  /*!< Timer event 4 forces th
1398:Drivers/STM32G4xx_HAL_Driver/Inc/stm32g4xx_ll_hrtim.h **** #define LL_HRTIM_OUTPUTSET_TIMBEV5_TIMCCMP4    (HRTIM_SET1R_TIMEVNT5)  /*!< Timer event 5 forces th
1399:Drivers/STM32G4xx_HAL_Driver/Inc/stm32g4xx_ll_hrtim.h **** #define LL_HRTIM_OUTPUTSET_TIMBEV6_TIMDCMP3    (HRTIM_SET1R_TIMEVNT6)  /*!< Timer event 6 forces th
1400:Drivers/STM32G4xx_HAL_Driver/Inc/stm32g4xx_ll_hrtim.h **** #define LL_HRTIM_OUTPUTSET_TIMBEV7_TIMDCMP4    (HRTIM_SET1R_TIMEVNT7)  /*!< Timer event 7 forces th
1401:Drivers/STM32G4xx_HAL_Driver/Inc/stm32g4xx_ll_hrtim.h **** #define LL_HRTIM_OUTPUTSET_TIMBEV8_TIMECMP1    (HRTIM_SET1R_TIMEVNT8)  /*!< Timer event 8 forces th
1402:Drivers/STM32G4xx_HAL_Driver/Inc/stm32g4xx_ll_hrtim.h **** #define LL_HRTIM_OUTPUTSET_TIMBEV9_TIMECMP2    (HRTIM_SET1R_TIMEVNT9)  /*!< Timer event 9 forces th
1403:Drivers/STM32G4xx_HAL_Driver/Inc/stm32g4xx_ll_hrtim.h **** /* Timer Events mapping for Timer C */
1404:Drivers/STM32G4xx_HAL_Driver/Inc/stm32g4xx_ll_hrtim.h **** #define LL_HRTIM_OUTPUTSET_TIMCEV1_TIMACMP2    (HRTIM_SET1R_TIMEVNT1)  /*!< Timer event 1 forces th
1405:Drivers/STM32G4xx_HAL_Driver/Inc/stm32g4xx_ll_hrtim.h **** #define LL_HRTIM_OUTPUTSET_TIMCEV2_TIMACMP3    (HRTIM_SET1R_TIMEVNT2)  /*!< Timer event 2 forces th
1406:Drivers/STM32G4xx_HAL_Driver/Inc/stm32g4xx_ll_hrtim.h **** #define LL_HRTIM_OUTPUTSET_TIMCEV3_TIMBCMP2    (HRTIM_SET1R_TIMEVNT3)  /*!< Timer event 3 forces th
1407:Drivers/STM32G4xx_HAL_Driver/Inc/stm32g4xx_ll_hrtim.h **** #define LL_HRTIM_OUTPUTSET_TIMCEV4_TIMBCMP3    (HRTIM_SET1R_TIMEVNT4)  /*!< Timer event 4 forces th
1408:Drivers/STM32G4xx_HAL_Driver/Inc/stm32g4xx_ll_hrtim.h **** #define LL_HRTIM_OUTPUTSET_TIMCEV5_TIMDCMP2    (HRTIM_SET1R_TIMEVNT5)  /*!< Timer event 5 forces th
1409:Drivers/STM32G4xx_HAL_Driver/Inc/stm32g4xx_ll_hrtim.h **** #define LL_HRTIM_OUTPUTSET_TIMCEV6_TIMDCMP4    (HRTIM_SET1R_TIMEVNT6)  /*!< Timer event 6 forces th
1410:Drivers/STM32G4xx_HAL_Driver/Inc/stm32g4xx_ll_hrtim.h **** #define LL_HRTIM_OUTPUTSET_TIMCEV7_TIMFCMP2    (HRTIM_SET1R_TIMEVNT7)  /*!< Timer event 7 forces th
1411:Drivers/STM32G4xx_HAL_Driver/Inc/stm32g4xx_ll_hrtim.h **** #define LL_HRTIM_OUTPUTSET_TIMCEV8_TIMECMP3    (HRTIM_SET1R_TIMEVNT8)  /*!< Timer event 8 forces th
1412:Drivers/STM32G4xx_HAL_Driver/Inc/stm32g4xx_ll_hrtim.h **** #define LL_HRTIM_OUTPUTSET_TIMCEV9_TIMECMP4    (HRTIM_SET1R_TIMEVNT9)  /*!< Timer event 9 forces th
1413:Drivers/STM32G4xx_HAL_Driver/Inc/stm32g4xx_ll_hrtim.h **** /* Timer Events mapping for Timer D */
1414:Drivers/STM32G4xx_HAL_Driver/Inc/stm32g4xx_ll_hrtim.h **** #define LL_HRTIM_OUTPUTSET_TIMDEV1_TIMACMP1    (HRTIM_SET1R_TIMEVNT1)  /*!< Timer event 1 forces th
1415:Drivers/STM32G4xx_HAL_Driver/Inc/stm32g4xx_ll_hrtim.h **** #define LL_HRTIM_OUTPUTSET_TIMDEV2_TIMACMP4    (HRTIM_SET1R_TIMEVNT2)  /*!< Timer event 2 forces th
1416:Drivers/STM32G4xx_HAL_Driver/Inc/stm32g4xx_ll_hrtim.h **** #define LL_HRTIM_OUTPUTSET_TIMDEV3_TIMBCMP2    (HRTIM_SET1R_TIMEVNT3)  /*!< Timer event 3 forces th
1417:Drivers/STM32G4xx_HAL_Driver/Inc/stm32g4xx_ll_hrtim.h **** #define LL_HRTIM_OUTPUTSET_TIMDEV4_TIMBCMP4    (HRTIM_SET1R_TIMEVNT4)  /*!< Timer event 4 forces th
1418:Drivers/STM32G4xx_HAL_Driver/Inc/stm32g4xx_ll_hrtim.h **** #define LL_HRTIM_OUTPUTSET_TIMDEV5_TIMFCMP1    (HRTIM_SET1R_TIMEVNT5)  /*!< Timer event 5 forces th
1419:Drivers/STM32G4xx_HAL_Driver/Inc/stm32g4xx_ll_hrtim.h **** #define LL_HRTIM_OUTPUTSET_TIMDEV6_TIMFCMP3    (HRTIM_SET1R_TIMEVNT6)  /*!< Timer event 6 forces th
1420:Drivers/STM32G4xx_HAL_Driver/Inc/stm32g4xx_ll_hrtim.h **** #define LL_HRTIM_OUTPUTSET_TIMDEV7_TIMCCMP4    (HRTIM_SET1R_TIMEVNT7)  /*!< Timer event 7 forces th
1421:Drivers/STM32G4xx_HAL_Driver/Inc/stm32g4xx_ll_hrtim.h **** #define LL_HRTIM_OUTPUTSET_TIMDEV8_TIMECMP1    (HRTIM_SET1R_TIMEVNT8)  /*!< Timer event 8 forces th
1422:Drivers/STM32G4xx_HAL_Driver/Inc/stm32g4xx_ll_hrtim.h **** #define LL_HRTIM_OUTPUTSET_TIMDEV9_TIMECMP4    (HRTIM_SET1R_TIMEVNT9)  /*!< Timer event 9 forces th
1423:Drivers/STM32G4xx_HAL_Driver/Inc/stm32g4xx_ll_hrtim.h **** /* Timer Events mapping for Timer E */
1424:Drivers/STM32G4xx_HAL_Driver/Inc/stm32g4xx_ll_hrtim.h **** #define LL_HRTIM_OUTPUTSET_TIMEEV1_TIMFCMP3    (HRTIM_SET1R_TIMEVNT1)  /*!< Timer event 1 forces th
1425:Drivers/STM32G4xx_HAL_Driver/Inc/stm32g4xx_ll_hrtim.h **** #define LL_HRTIM_OUTPUTSET_TIMEEV2_TIMACMP4    (HRTIM_SET1R_TIMEVNT2)  /*!< Timer event 2 forces th
1426:Drivers/STM32G4xx_HAL_Driver/Inc/stm32g4xx_ll_hrtim.h **** #define LL_HRTIM_OUTPUTSET_TIMEEV3_TIMBCMP3    (HRTIM_SET1R_TIMEVNT3)  /*!< Timer event 3 forces th
1427:Drivers/STM32G4xx_HAL_Driver/Inc/stm32g4xx_ll_hrtim.h **** #define LL_HRTIM_OUTPUTSET_TIMEEV4_TIMBCMP4    (HRTIM_SET1R_TIMEVNT4)  /*!< Timer event 4 forces th
1428:Drivers/STM32G4xx_HAL_Driver/Inc/stm32g4xx_ll_hrtim.h **** #define LL_HRTIM_OUTPUTSET_TIMEEV5_TIMCCMP1    (HRTIM_SET1R_TIMEVNT5)  /*!< Timer event 5 forces th
1429:Drivers/STM32G4xx_HAL_Driver/Inc/stm32g4xx_ll_hrtim.h **** #define LL_HRTIM_OUTPUTSET_TIMEEV6_TIMCCMP2    (HRTIM_SET1R_TIMEVNT6)  /*!< Timer event 6 forces th
1430:Drivers/STM32G4xx_HAL_Driver/Inc/stm32g4xx_ll_hrtim.h **** #define LL_HRTIM_OUTPUTSET_TIMEEV7_TIMDCMP1    (HRTIM_SET1R_TIMEVNT7)  /*!< Timer event 7 forces th
1431:Drivers/STM32G4xx_HAL_Driver/Inc/stm32g4xx_ll_hrtim.h **** #define LL_HRTIM_OUTPUTSET_TIMEEV8_TIMDCMP2    (HRTIM_SET1R_TIMEVNT8)  /*!< Timer event 8 forces th
1432:Drivers/STM32G4xx_HAL_Driver/Inc/stm32g4xx_ll_hrtim.h **** #define LL_HRTIM_OUTPUTSET_TIMEEV9_TIMFCMP4    (HRTIM_SET1R_TIMEVNT9)  /*!< Timer event 9 forces th
1433:Drivers/STM32G4xx_HAL_Driver/Inc/stm32g4xx_ll_hrtim.h **** /* Timer Events mapping for Timer F */
1434:Drivers/STM32G4xx_HAL_Driver/Inc/stm32g4xx_ll_hrtim.h **** #define LL_HRTIM_OUTPUTSET_TIMFEV1_TIMACMP3    (HRTIM_SET1R_TIMEVNT1)  /*!< Timer event 1 forces th
1435:Drivers/STM32G4xx_HAL_Driver/Inc/stm32g4xx_ll_hrtim.h **** #define LL_HRTIM_OUTPUTSET_TIMFEV2_TIMBCMP1    (HRTIM_SET1R_TIMEVNT2)  /*!< Timer event 2 forces th
1436:Drivers/STM32G4xx_HAL_Driver/Inc/stm32g4xx_ll_hrtim.h **** #define LL_HRTIM_OUTPUTSET_TIMFEV3_TIMBCMP4    (HRTIM_SET1R_TIMEVNT3)  /*!< Timer event 3 forces th
1437:Drivers/STM32G4xx_HAL_Driver/Inc/stm32g4xx_ll_hrtim.h **** #define LL_HRTIM_OUTPUTSET_TIMFEV4_TIMCCMP1    (HRTIM_SET1R_TIMEVNT4)  /*!< Timer event 4 forces th
1438:Drivers/STM32G4xx_HAL_Driver/Inc/stm32g4xx_ll_hrtim.h **** #define LL_HRTIM_OUTPUTSET_TIMFEV5_TIMCCMP4    (HRTIM_SET1R_TIMEVNT5)  /*!< Timer event 5 forces th
1439:Drivers/STM32G4xx_HAL_Driver/Inc/stm32g4xx_ll_hrtim.h **** #define LL_HRTIM_OUTPUTSET_TIMFEV6_TIMDCMP3    (HRTIM_SET1R_TIMEVNT6)  /*!< Timer event 6 forces th
1440:Drivers/STM32G4xx_HAL_Driver/Inc/stm32g4xx_ll_hrtim.h **** #define LL_HRTIM_OUTPUTSET_TIMFEV7_TIMDCMP4    (HRTIM_SET1R_TIMEVNT7)  /*!< Timer event 7 forces th
1441:Drivers/STM32G4xx_HAL_Driver/Inc/stm32g4xx_ll_hrtim.h **** #define LL_HRTIM_OUTPUTSET_TIMFEV8_TIMECMP2    (HRTIM_SET1R_TIMEVNT8)  /*!< Timer event 8 forces th
1442:Drivers/STM32G4xx_HAL_Driver/Inc/stm32g4xx_ll_hrtim.h **** #define LL_HRTIM_OUTPUTSET_TIMFEV9_TIMECMP3    (HRTIM_SET1R_TIMEVNT9)  /*!< Timer event 9 forces th
1443:Drivers/STM32G4xx_HAL_Driver/Inc/stm32g4xx_ll_hrtim.h **** #define LL_HRTIM_OUTPUTSET_EEV_1               (HRTIM_SET1R_EXTVNT1)   /*!< External event 1 forces
1444:Drivers/STM32G4xx_HAL_Driver/Inc/stm32g4xx_ll_hrtim.h **** #define LL_HRTIM_OUTPUTSET_EEV_2               (HRTIM_SET1R_EXTVNT2)   /*!< External event 2 forces
1445:Drivers/STM32G4xx_HAL_Driver/Inc/stm32g4xx_ll_hrtim.h **** #define LL_HRTIM_OUTPUTSET_EEV_3               (HRTIM_SET1R_EXTVNT3)   /*!< External event 3 forces
1446:Drivers/STM32G4xx_HAL_Driver/Inc/stm32g4xx_ll_hrtim.h **** #define LL_HRTIM_OUTPUTSET_EEV_4               (HRTIM_SET1R_EXTVNT4)   /*!< External event 4 forces
1447:Drivers/STM32G4xx_HAL_Driver/Inc/stm32g4xx_ll_hrtim.h **** #define LL_HRTIM_OUTPUTSET_EEV_5               (HRTIM_SET1R_EXTVNT5)   /*!< External event 5 forces
1448:Drivers/STM32G4xx_HAL_Driver/Inc/stm32g4xx_ll_hrtim.h **** #define LL_HRTIM_OUTPUTSET_EEV_6               (HRTIM_SET1R_EXTVNT6)   /*!< External event 6 forces
1449:Drivers/STM32G4xx_HAL_Driver/Inc/stm32g4xx_ll_hrtim.h **** #define LL_HRTIM_OUTPUTSET_EEV_7               (HRTIM_SET1R_EXTVNT7)   /*!< External event 7 forces
1450:Drivers/STM32G4xx_HAL_Driver/Inc/stm32g4xx_ll_hrtim.h **** #define LL_HRTIM_OUTPUTSET_EEV_8               (HRTIM_SET1R_EXTVNT8)   /*!< External event 8 forces
1451:Drivers/STM32G4xx_HAL_Driver/Inc/stm32g4xx_ll_hrtim.h **** #define LL_HRTIM_OUTPUTSET_EEV_9               (HRTIM_SET1R_EXTVNT9)   /*!< External event 9 forces
1452:Drivers/STM32G4xx_HAL_Driver/Inc/stm32g4xx_ll_hrtim.h **** #define LL_HRTIM_OUTPUTSET_EEV_10              (HRTIM_SET1R_EXTVNT10)  /*!< External event 10 force
ARM GAS  D:\apps\VSCode\data\tmp\ccNKRXCB.s 			page 28


1453:Drivers/STM32G4xx_HAL_Driver/Inc/stm32g4xx_ll_hrtim.h **** #define LL_HRTIM_OUTPUTSET_UPDATE              (HRTIM_SET1R_UPDATE)    /*!< Timer register update e
1454:Drivers/STM32G4xx_HAL_Driver/Inc/stm32g4xx_ll_hrtim.h **** /**
1455:Drivers/STM32G4xx_HAL_Driver/Inc/stm32g4xx_ll_hrtim.h ****   * @}
1456:Drivers/STM32G4xx_HAL_Driver/Inc/stm32g4xx_ll_hrtim.h ****   */
1457:Drivers/STM32G4xx_HAL_Driver/Inc/stm32g4xx_ll_hrtim.h **** 
1458:Drivers/STM32G4xx_HAL_Driver/Inc/stm32g4xx_ll_hrtim.h **** /** @defgroup HRTIM_Output_Reset_Source HRTIM Output Reset Source
1459:Drivers/STM32G4xx_HAL_Driver/Inc/stm32g4xx_ll_hrtim.h ****   * @{
1460:Drivers/STM32G4xx_HAL_Driver/Inc/stm32g4xx_ll_hrtim.h ****   * @brief Constants defining the events that can be selected to configure the
1461:Drivers/STM32G4xx_HAL_Driver/Inc/stm32g4xx_ll_hrtim.h ****   *        set crossbar of a timer output
1462:Drivers/STM32G4xx_HAL_Driver/Inc/stm32g4xx_ll_hrtim.h ****   */
1463:Drivers/STM32G4xx_HAL_Driver/Inc/stm32g4xx_ll_hrtim.h **** #define LL_HRTIM_OUTPUTRESET_NONE                0x00000000U             /*!< Reset the output rese
1464:Drivers/STM32G4xx_HAL_Driver/Inc/stm32g4xx_ll_hrtim.h **** #define LL_HRTIM_OUTPUTRESET_RESYNC              (HRTIM_RST1R_RESYNC)    /*!< Timer reset event com
1465:Drivers/STM32G4xx_HAL_Driver/Inc/stm32g4xx_ll_hrtim.h **** #define LL_HRTIM_OUTPUTRESET_TIMPER              (HRTIM_RST1R_PER)       /*!< Timer period event fo
1466:Drivers/STM32G4xx_HAL_Driver/Inc/stm32g4xx_ll_hrtim.h **** #define LL_HRTIM_OUTPUTRESET_TIMCMP1             (HRTIM_RST1R_CMP1)      /*!< Timer compare 1 event
1467:Drivers/STM32G4xx_HAL_Driver/Inc/stm32g4xx_ll_hrtim.h **** #define LL_HRTIM_OUTPUTRESET_TIMCMP2             (HRTIM_RST1R_CMP2)      /*!< Timer compare 2 event
1468:Drivers/STM32G4xx_HAL_Driver/Inc/stm32g4xx_ll_hrtim.h **** #define LL_HRTIM_OUTPUTRESET_TIMCMP3             (HRTIM_RST1R_CMP3)      /*!< Timer compare 3 event
1469:Drivers/STM32G4xx_HAL_Driver/Inc/stm32g4xx_ll_hrtim.h **** #define LL_HRTIM_OUTPUTRESET_TIMCMP4             (HRTIM_RST1R_CMP4)      /*!< Timer compare 4 event
1470:Drivers/STM32G4xx_HAL_Driver/Inc/stm32g4xx_ll_hrtim.h **** #define LL_HRTIM_OUTPUTRESET_MASTERPER           (HRTIM_RST1R_MSTPER)    /*!< The master timer peri
1471:Drivers/STM32G4xx_HAL_Driver/Inc/stm32g4xx_ll_hrtim.h **** #define LL_HRTIM_OUTPUTRESET_MASTERCMP1          (HRTIM_RST1R_MSTCMP1)   /*!< Master Timer compare 
1472:Drivers/STM32G4xx_HAL_Driver/Inc/stm32g4xx_ll_hrtim.h **** #define LL_HRTIM_OUTPUTRESET_MASTERCMP2          (HRTIM_RST1R_MSTCMP2)   /*!< Master Timer compare 
1473:Drivers/STM32G4xx_HAL_Driver/Inc/stm32g4xx_ll_hrtim.h **** #define LL_HRTIM_OUTPUTRESET_MASTERCMP3          (HRTIM_RST1R_MSTCMP3)   /*!< Master Timer compare 
1474:Drivers/STM32G4xx_HAL_Driver/Inc/stm32g4xx_ll_hrtim.h **** #define LL_HRTIM_OUTPUTRESET_MASTERCMP4          (HRTIM_RST1R_MSTCMP4)   /*!< Master Timer compare 
1475:Drivers/STM32G4xx_HAL_Driver/Inc/stm32g4xx_ll_hrtim.h **** /* Timer Events mapping for Timer A */
1476:Drivers/STM32G4xx_HAL_Driver/Inc/stm32g4xx_ll_hrtim.h **** #define LL_HRTIM_OUTPUTRESET_TIMAEV1_TIMBCMP1    (HRTIM_RST1R_TIMEVNT1)  /*!< Timer event 1 forces 
1477:Drivers/STM32G4xx_HAL_Driver/Inc/stm32g4xx_ll_hrtim.h **** #define LL_HRTIM_OUTPUTRESET_TIMAEV2_TIMBCMP2    (HRTIM_RST1R_TIMEVNT2)  /*!< Timer event 2 forces 
1478:Drivers/STM32G4xx_HAL_Driver/Inc/stm32g4xx_ll_hrtim.h **** #define LL_HRTIM_OUTPUTRESET_TIMAEV3_TIMFCMP4    (HRTIM_RST1R_TIMEVNT3)  /*!< Timer event 3 forces 
1479:Drivers/STM32G4xx_HAL_Driver/Inc/stm32g4xx_ll_hrtim.h **** #define LL_HRTIM_OUTPUTRESET_TIMAEV4_TIMCCMP2    (HRTIM_RST1R_TIMEVNT4)  /*!< Timer event 4 forces 
1480:Drivers/STM32G4xx_HAL_Driver/Inc/stm32g4xx_ll_hrtim.h **** #define LL_HRTIM_OUTPUTRESET_TIMAEV5_TIMCCMP3    (HRTIM_RST1R_TIMEVNT5)  /*!< Timer event 5 forces 
1481:Drivers/STM32G4xx_HAL_Driver/Inc/stm32g4xx_ll_hrtim.h **** #define LL_HRTIM_OUTPUTRESET_TIMAEV6_TIMDCMP1    (HRTIM_RST1R_TIMEVNT6)  /*!< Timer event 6 forces 
1482:Drivers/STM32G4xx_HAL_Driver/Inc/stm32g4xx_ll_hrtim.h **** #define LL_HRTIM_OUTPUTRESET_TIMAEV7_TIMDCMP2    (HRTIM_RST1R_TIMEVNT7)  /*!< Timer event 7 forces 
1483:Drivers/STM32G4xx_HAL_Driver/Inc/stm32g4xx_ll_hrtim.h **** #define LL_HRTIM_OUTPUTRESET_TIMAEV8_TIMECMP3    (HRTIM_RST1R_TIMEVNT8)  /*!< Timer event 8 forces 
1484:Drivers/STM32G4xx_HAL_Driver/Inc/stm32g4xx_ll_hrtim.h **** #define LL_HRTIM_OUTPUTRESET_TIMAEV9_TIMECMP4    (HRTIM_RST1R_TIMEVNT9)  /*!< Timer event 9 forces 
1485:Drivers/STM32G4xx_HAL_Driver/Inc/stm32g4xx_ll_hrtim.h **** /* Timer Events mapping for Timer B */
1486:Drivers/STM32G4xx_HAL_Driver/Inc/stm32g4xx_ll_hrtim.h **** #define LL_HRTIM_OUTPUTRESET_TIMBEV1_TIMACMP1    (HRTIM_RST1R_TIMEVNT1)  /*!< Timer event 1 forces 
1487:Drivers/STM32G4xx_HAL_Driver/Inc/stm32g4xx_ll_hrtim.h **** #define LL_HRTIM_OUTPUTRESET_TIMBEV2_TIMACMP2    (HRTIM_RST1R_TIMEVNT2)  /*!< Timer event 2 forces 
1488:Drivers/STM32G4xx_HAL_Driver/Inc/stm32g4xx_ll_hrtim.h **** #define LL_HRTIM_OUTPUTRESET_TIMBEV3_TIMFCMP3    (HRTIM_RST1R_TIMEVNT3)  /*!< Timer event 3 forces 
1489:Drivers/STM32G4xx_HAL_Driver/Inc/stm32g4xx_ll_hrtim.h **** #define LL_HRTIM_OUTPUTRESET_TIMBEV4_TIMCCMP3    (HRTIM_RST1R_TIMEVNT4)  /*!< Timer event 4 forces 
1490:Drivers/STM32G4xx_HAL_Driver/Inc/stm32g4xx_ll_hrtim.h **** #define LL_HRTIM_OUTPUTRESET_TIMBEV5_TIMCCMP4    (HRTIM_RST1R_TIMEVNT5)  /*!< Timer event 5 forces 
1491:Drivers/STM32G4xx_HAL_Driver/Inc/stm32g4xx_ll_hrtim.h **** #define LL_HRTIM_OUTPUTRESET_TIMBEV6_TIMDCMP3    (HRTIM_RST1R_TIMEVNT6)  /*!< Timer event 6 forces 
1492:Drivers/STM32G4xx_HAL_Driver/Inc/stm32g4xx_ll_hrtim.h **** #define LL_HRTIM_OUTPUTRESET_TIMBEV7_TIMDCMP4    (HRTIM_RST1R_TIMEVNT7)  /*!< Timer event 7 forces 
1493:Drivers/STM32G4xx_HAL_Driver/Inc/stm32g4xx_ll_hrtim.h **** #define LL_HRTIM_OUTPUTRESET_TIMBEV8_TIMECMP1    (HRTIM_RST1R_TIMEVNT8)  /*!< Timer event 8 forces 
1494:Drivers/STM32G4xx_HAL_Driver/Inc/stm32g4xx_ll_hrtim.h **** #define LL_HRTIM_OUTPUTRESET_TIMBEV9_TIMECMP2    (HRTIM_RST1R_TIMEVNT9)  /*!< Timer event 9 forces 
1495:Drivers/STM32G4xx_HAL_Driver/Inc/stm32g4xx_ll_hrtim.h **** /* Timer Events mapping for Timer C */
1496:Drivers/STM32G4xx_HAL_Driver/Inc/stm32g4xx_ll_hrtim.h **** #define LL_HRTIM_OUTPUTRESET_TIMCEV1_TIMACMP2    (HRTIM_RST1R_TIMEVNT1)  /*!< Timer event 1 forces 
1497:Drivers/STM32G4xx_HAL_Driver/Inc/stm32g4xx_ll_hrtim.h **** #define LL_HRTIM_OUTPUTRESET_TIMCEV2_TIMACMP3    (HRTIM_RST1R_TIMEVNT2)  /*!< Timer event 2 forces 
1498:Drivers/STM32G4xx_HAL_Driver/Inc/stm32g4xx_ll_hrtim.h **** #define LL_HRTIM_OUTPUTRESET_TIMCEV3_TIMBCMP2    (HRTIM_RST1R_TIMEVNT3)  /*!< Timer event 3 forces 
1499:Drivers/STM32G4xx_HAL_Driver/Inc/stm32g4xx_ll_hrtim.h **** #define LL_HRTIM_OUTPUTRESET_TIMCEV4_TIMBCMP3    (HRTIM_RST1R_TIMEVNT4)  /*!< Timer event 4 forces 
1500:Drivers/STM32G4xx_HAL_Driver/Inc/stm32g4xx_ll_hrtim.h **** #define LL_HRTIM_OUTPUTRESET_TIMCEV5_TIMDCMP2    (HRTIM_RST1R_TIMEVNT5)  /*!< Timer event 5 forces 
1501:Drivers/STM32G4xx_HAL_Driver/Inc/stm32g4xx_ll_hrtim.h **** #define LL_HRTIM_OUTPUTRESET_TIMCEV6_TIMDCMP4    (HRTIM_RST1R_TIMEVNT6)  /*!< Timer event 6 forces 
1502:Drivers/STM32G4xx_HAL_Driver/Inc/stm32g4xx_ll_hrtim.h **** #define LL_HRTIM_OUTPUTRESET_TIMCEV7_TIMFCMP2    (HRTIM_RST1R_TIMEVNT7)  /*!< Timer event 7 forces 
1503:Drivers/STM32G4xx_HAL_Driver/Inc/stm32g4xx_ll_hrtim.h **** #define LL_HRTIM_OUTPUTRESET_TIMCEV8_TIMECMP3    (HRTIM_RST1R_TIMEVNT8)  /*!< Timer event 8 forces 
1504:Drivers/STM32G4xx_HAL_Driver/Inc/stm32g4xx_ll_hrtim.h **** #define LL_HRTIM_OUTPUTRESET_TIMCEV9_TIMECMP4    (HRTIM_RST1R_TIMEVNT9)  /*!< Timer event 9 forces 
1505:Drivers/STM32G4xx_HAL_Driver/Inc/stm32g4xx_ll_hrtim.h **** /* Timer Events mapping for Timer D */
1506:Drivers/STM32G4xx_HAL_Driver/Inc/stm32g4xx_ll_hrtim.h **** #define LL_HRTIM_OUTPUTRESET_TIMDEV1_TIMACMP1    (HRTIM_RST1R_TIMEVNT1)  /*!< Timer event 1 forces 
1507:Drivers/STM32G4xx_HAL_Driver/Inc/stm32g4xx_ll_hrtim.h **** #define LL_HRTIM_OUTPUTRESET_TIMDEV2_TIMACMP4    (HRTIM_RST1R_TIMEVNT2)  /*!< Timer event 2 forces 
1508:Drivers/STM32G4xx_HAL_Driver/Inc/stm32g4xx_ll_hrtim.h **** #define LL_HRTIM_OUTPUTRESET_TIMDEV3_TIMBCMP2    (HRTIM_RST1R_TIMEVNT3)  /*!< Timer event 3 forces 
1509:Drivers/STM32G4xx_HAL_Driver/Inc/stm32g4xx_ll_hrtim.h **** #define LL_HRTIM_OUTPUTRESET_TIMDEV4_TIMBCMP4    (HRTIM_RST1R_TIMEVNT4)  /*!< Timer event 4 forces 
ARM GAS  D:\apps\VSCode\data\tmp\ccNKRXCB.s 			page 29


1510:Drivers/STM32G4xx_HAL_Driver/Inc/stm32g4xx_ll_hrtim.h **** #define LL_HRTIM_OUTPUTRESET_TIMDEV5_TIMFCMP1    (HRTIM_RST1R_TIMEVNT5)  /*!< Timer event 5 forces 
1511:Drivers/STM32G4xx_HAL_Driver/Inc/stm32g4xx_ll_hrtim.h **** #define LL_HRTIM_OUTPUTRESET_TIMDEV6_TIMFCMP3    (HRTIM_RST1R_TIMEVNT6)  /*!< Timer event 6 forces 
1512:Drivers/STM32G4xx_HAL_Driver/Inc/stm32g4xx_ll_hrtim.h **** #define LL_HRTIM_OUTPUTRESET_TIMDEV7_TIMCCMP4    (HRTIM_RST1R_TIMEVNT7)  /*!< Timer event 7 forces 
1513:Drivers/STM32G4xx_HAL_Driver/Inc/stm32g4xx_ll_hrtim.h **** #define LL_HRTIM_OUTPUTRESET_TIMDEV8_TIMECMP1    (HRTIM_RST1R_TIMEVNT8)  /*!< Timer event 8 forces 
1514:Drivers/STM32G4xx_HAL_Driver/Inc/stm32g4xx_ll_hrtim.h **** #define LL_HRTIM_OUTPUTRESET_TIMDEV9_TIMECMP4    (HRTIM_RST1R_TIMEVNT9)  /*!< Timer event 9 forces 
1515:Drivers/STM32G4xx_HAL_Driver/Inc/stm32g4xx_ll_hrtim.h **** /* Timer Events mapping for Timer E */
1516:Drivers/STM32G4xx_HAL_Driver/Inc/stm32g4xx_ll_hrtim.h **** #define LL_HRTIM_OUTPUTRESET_TIMEEV1_TIMFCMP3    (HRTIM_RST1R_TIMEVNT1)  /*!< Timer event 1 forces 
1517:Drivers/STM32G4xx_HAL_Driver/Inc/stm32g4xx_ll_hrtim.h **** #define LL_HRTIM_OUTPUTRESET_TIMEEV2_TIMACMP4    (HRTIM_RST1R_TIMEVNT2)  /*!< Timer event 2 forces 
1518:Drivers/STM32G4xx_HAL_Driver/Inc/stm32g4xx_ll_hrtim.h **** #define LL_HRTIM_OUTPUTRESET_TIMEEV3_TIMBCMP3    (HRTIM_RST1R_TIMEVNT3)  /*!< Timer event 3 forces 
1519:Drivers/STM32G4xx_HAL_Driver/Inc/stm32g4xx_ll_hrtim.h **** #define LL_HRTIM_OUTPUTRESET_TIMEEV4_TIMBCMP4    (HRTIM_RST1R_TIMEVNT4)  /*!< Timer event 4 forces 
1520:Drivers/STM32G4xx_HAL_Driver/Inc/stm32g4xx_ll_hrtim.h **** #define LL_HRTIM_OUTPUTRESET_TIMEEV5_TIMCCMP1    (HRTIM_RST1R_TIMEVNT5)  /*!< Timer event 5 forces 
1521:Drivers/STM32G4xx_HAL_Driver/Inc/stm32g4xx_ll_hrtim.h **** #define LL_HRTIM_OUTPUTRESET_TIMEEV6_TIMCCMP2    (HRTIM_RST1R_TIMEVNT6)  /*!< Timer event 6 forces 
1522:Drivers/STM32G4xx_HAL_Driver/Inc/stm32g4xx_ll_hrtim.h **** #define LL_HRTIM_OUTPUTRESET_TIMEEV7_TIMDCMP1    (HRTIM_RST1R_TIMEVNT7)  /*!< Timer event 7 forces 
1523:Drivers/STM32G4xx_HAL_Driver/Inc/stm32g4xx_ll_hrtim.h **** #define LL_HRTIM_OUTPUTRESET_TIMEEV8_TIMDCMP2    (HRTIM_RST1R_TIMEVNT8)  /*!< Timer event 8 forces 
1524:Drivers/STM32G4xx_HAL_Driver/Inc/stm32g4xx_ll_hrtim.h **** #define LL_HRTIM_OUTPUTRESET_TIMEEV9_TIMFCMP4    (HRTIM_RST1R_TIMEVNT9)  /*!< Timer event 9 forces 
1525:Drivers/STM32G4xx_HAL_Driver/Inc/stm32g4xx_ll_hrtim.h **** /* Timer Events mapping for Timer F */
1526:Drivers/STM32G4xx_HAL_Driver/Inc/stm32g4xx_ll_hrtim.h **** #define LL_HRTIM_OUTPUTRESET_TIMFEV1_TIMACMP3    (HRTIM_RST1R_TIMEVNT1)  /*!< Timer event 1 forces 
1527:Drivers/STM32G4xx_HAL_Driver/Inc/stm32g4xx_ll_hrtim.h **** #define LL_HRTIM_OUTPUTRESET_TIMFEV2_TIMBCMP1    (HRTIM_RST1R_TIMEVNT2)  /*!< Timer event 2 forces 
1528:Drivers/STM32G4xx_HAL_Driver/Inc/stm32g4xx_ll_hrtim.h **** #define LL_HRTIM_OUTPUTRESET_TIMFEV3_TIMBCMP4    (HRTIM_RST1R_TIMEVNT3)  /*!< Timer event 3 forces 
1529:Drivers/STM32G4xx_HAL_Driver/Inc/stm32g4xx_ll_hrtim.h **** #define LL_HRTIM_OUTPUTRESET_TIMFEV4_TIMCCMP1    (HRTIM_RST1R_TIMEVNT4)  /*!< Timer event 4 forces 
1530:Drivers/STM32G4xx_HAL_Driver/Inc/stm32g4xx_ll_hrtim.h **** #define LL_HRTIM_OUTPUTRESET_TIMFEV5_TIMCCMP4    (HRTIM_RST1R_TIMEVNT5)  /*!< Timer event 5 forces 
1531:Drivers/STM32G4xx_HAL_Driver/Inc/stm32g4xx_ll_hrtim.h **** #define LL_HRTIM_OUTPUTRESET_TIMFEV6_TIMDCMP3    (HRTIM_RST1R_TIMEVNT6)  /*!< Timer event 6 forces 
1532:Drivers/STM32G4xx_HAL_Driver/Inc/stm32g4xx_ll_hrtim.h **** #define LL_HRTIM_OUTPUTRESET_TIMFEV7_TIMDCMP4    (HRTIM_RST1R_TIMEVNT7)  /*!< Timer event 7 forces 
1533:Drivers/STM32G4xx_HAL_Driver/Inc/stm32g4xx_ll_hrtim.h **** #define LL_HRTIM_OUTPUTRESET_TIMFEV8_TIMECMP2    (HRTIM_RST1R_TIMEVNT8)  /*!< Timer event 8 forces 
1534:Drivers/STM32G4xx_HAL_Driver/Inc/stm32g4xx_ll_hrtim.h **** #define LL_HRTIM_OUTPUTRESET_TIMFEV9_TIMECMP3    (HRTIM_RST1R_TIMEVNT9)  /*!< Timer event 9 forces 
1535:Drivers/STM32G4xx_HAL_Driver/Inc/stm32g4xx_ll_hrtim.h **** #define LL_HRTIM_OUTPUTRESET_EEV_1               (HRTIM_RST1R_EXTVNT1)   /*!< External event 1 forc
1536:Drivers/STM32G4xx_HAL_Driver/Inc/stm32g4xx_ll_hrtim.h **** #define LL_HRTIM_OUTPUTRESET_EEV_2               (HRTIM_RST1R_EXTVNT2)   /*!< External event 2 forc
1537:Drivers/STM32G4xx_HAL_Driver/Inc/stm32g4xx_ll_hrtim.h **** #define LL_HRTIM_OUTPUTRESET_EEV_3               (HRTIM_RST1R_EXTVNT3)   /*!< External event 3 forc
1538:Drivers/STM32G4xx_HAL_Driver/Inc/stm32g4xx_ll_hrtim.h **** #define LL_HRTIM_OUTPUTRESET_EEV_4               (HRTIM_RST1R_EXTVNT4)   /*!< External event 4 forc
1539:Drivers/STM32G4xx_HAL_Driver/Inc/stm32g4xx_ll_hrtim.h **** #define LL_HRTIM_OUTPUTRESET_EEV_5               (HRTIM_RST1R_EXTVNT5)   /*!< External event 5 forc
1540:Drivers/STM32G4xx_HAL_Driver/Inc/stm32g4xx_ll_hrtim.h **** #define LL_HRTIM_OUTPUTRESET_EEV_6               (HRTIM_RST1R_EXTVNT6)   /*!< External event 6 forc
1541:Drivers/STM32G4xx_HAL_Driver/Inc/stm32g4xx_ll_hrtim.h **** #define LL_HRTIM_OUTPUTRESET_EEV_7               (HRTIM_RST1R_EXTVNT7)   /*!< External event 7 forc
1542:Drivers/STM32G4xx_HAL_Driver/Inc/stm32g4xx_ll_hrtim.h **** #define LL_HRTIM_OUTPUTRESET_EEV_8               (HRTIM_RST1R_EXTVNT8)   /*!< External event 8 forc
1543:Drivers/STM32G4xx_HAL_Driver/Inc/stm32g4xx_ll_hrtim.h **** #define LL_HRTIM_OUTPUTRESET_EEV_9               (HRTIM_RST1R_EXTVNT9)   /*!< External event 9 forc
1544:Drivers/STM32G4xx_HAL_Driver/Inc/stm32g4xx_ll_hrtim.h **** #define LL_HRTIM_OUTPUTRESET_EEV_10              (HRTIM_RST1R_EXTVNT10)  /*!< External event 10 for
1545:Drivers/STM32G4xx_HAL_Driver/Inc/stm32g4xx_ll_hrtim.h **** #define LL_HRTIM_OUTPUTRESET_UPDATE              (HRTIM_RST1R_UPDATE)    /*!< Timer register update
1546:Drivers/STM32G4xx_HAL_Driver/Inc/stm32g4xx_ll_hrtim.h **** /**
1547:Drivers/STM32G4xx_HAL_Driver/Inc/stm32g4xx_ll_hrtim.h ****   * @}
1548:Drivers/STM32G4xx_HAL_Driver/Inc/stm32g4xx_ll_hrtim.h ****   */
1549:Drivers/STM32G4xx_HAL_Driver/Inc/stm32g4xx_ll_hrtim.h **** 
1550:Drivers/STM32G4xx_HAL_Driver/Inc/stm32g4xx_ll_hrtim.h **** /** @defgroup HRTIM_LL_EC_OUT_POLARITY OUPUT_POLARITY
1551:Drivers/STM32G4xx_HAL_Driver/Inc/stm32g4xx_ll_hrtim.h ****   * @{
1552:Drivers/STM32G4xx_HAL_Driver/Inc/stm32g4xx_ll_hrtim.h ****   * @brief Constants defining the polarity of a timer output.
1553:Drivers/STM32G4xx_HAL_Driver/Inc/stm32g4xx_ll_hrtim.h ****   */
1554:Drivers/STM32G4xx_HAL_Driver/Inc/stm32g4xx_ll_hrtim.h **** #define LL_HRTIM_OUT_POSITIVE_POLARITY    0x00000000U             /*!< Output is acitve HIGH */
1555:Drivers/STM32G4xx_HAL_Driver/Inc/stm32g4xx_ll_hrtim.h **** #define LL_HRTIM_OUT_NEGATIVE_POLARITY    (HRTIM_OUTR_POL1)       /*!< Output is active LOW */
1556:Drivers/STM32G4xx_HAL_Driver/Inc/stm32g4xx_ll_hrtim.h **** /**
1557:Drivers/STM32G4xx_HAL_Driver/Inc/stm32g4xx_ll_hrtim.h ****   * @}
1558:Drivers/STM32G4xx_HAL_Driver/Inc/stm32g4xx_ll_hrtim.h ****   */
1559:Drivers/STM32G4xx_HAL_Driver/Inc/stm32g4xx_ll_hrtim.h **** 
1560:Drivers/STM32G4xx_HAL_Driver/Inc/stm32g4xx_ll_hrtim.h **** /** @defgroup HRTIM_LL_EC_OUT_IDLEMODE OUTPUT IDLE MODE
1561:Drivers/STM32G4xx_HAL_Driver/Inc/stm32g4xx_ll_hrtim.h ****   * @{
1562:Drivers/STM32G4xx_HAL_Driver/Inc/stm32g4xx_ll_hrtim.h ****   * @brief Constants defining whether or not the timer output transition to its IDLE state when bur
1563:Drivers/STM32G4xx_HAL_Driver/Inc/stm32g4xx_ll_hrtim.h ****   */
1564:Drivers/STM32G4xx_HAL_Driver/Inc/stm32g4xx_ll_hrtim.h **** #define LL_HRTIM_OUT_NO_IDLE             0x00000000U            /*!< The output is not affected by 
1565:Drivers/STM32G4xx_HAL_Driver/Inc/stm32g4xx_ll_hrtim.h **** #define LL_HRTIM_OUT_IDLE_WHEN_BURST     (HRTIM_OUTR_IDLM1)     /*!< The output is in idle state wh
1566:Drivers/STM32G4xx_HAL_Driver/Inc/stm32g4xx_ll_hrtim.h **** /**
ARM GAS  D:\apps\VSCode\data\tmp\ccNKRXCB.s 			page 30


1567:Drivers/STM32G4xx_HAL_Driver/Inc/stm32g4xx_ll_hrtim.h ****   * @}
1568:Drivers/STM32G4xx_HAL_Driver/Inc/stm32g4xx_ll_hrtim.h ****   */
1569:Drivers/STM32G4xx_HAL_Driver/Inc/stm32g4xx_ll_hrtim.h **** 
1570:Drivers/STM32G4xx_HAL_Driver/Inc/stm32g4xx_ll_hrtim.h **** /** @defgroup HRTIM_LL_EC_INTLVD_MODE INTLVD MODE
1571:Drivers/STM32G4xx_HAL_Driver/Inc/stm32g4xx_ll_hrtim.h ****   * @{
1572:Drivers/STM32G4xx_HAL_Driver/Inc/stm32g4xx_ll_hrtim.h ****   * @brief Constants defining the interleaved mode of an HRTIM Timer instance.
1573:Drivers/STM32G4xx_HAL_Driver/Inc/stm32g4xx_ll_hrtim.h ****   */
1574:Drivers/STM32G4xx_HAL_Driver/Inc/stm32g4xx_ll_hrtim.h **** #define LL_HRTIM_INTERLEAVED_MODE_DISABLED   0x000U              /*!< HRTIM interleaved Mode is dis
1575:Drivers/STM32G4xx_HAL_Driver/Inc/stm32g4xx_ll_hrtim.h **** #define LL_HRTIM_INTERLEAVED_MODE_DUAL       HRTIM_MCR_HALF      /*!< HRTIM interleaved Mode is Dua
1576:Drivers/STM32G4xx_HAL_Driver/Inc/stm32g4xx_ll_hrtim.h **** #define LL_HRTIM_INTERLEAVED_MODE_TRIPLE     HRTIM_MCR_INTLVD_0  /*!< HRTIM interleaved Mode is Tri
1577:Drivers/STM32G4xx_HAL_Driver/Inc/stm32g4xx_ll_hrtim.h **** #define LL_HRTIM_INTERLEAVED_MODE_QUAD       HRTIM_MCR_INTLVD_1  /*!< HRTIM interleaved Mode is Qua
1578:Drivers/STM32G4xx_HAL_Driver/Inc/stm32g4xx_ll_hrtim.h **** /**
1579:Drivers/STM32G4xx_HAL_Driver/Inc/stm32g4xx_ll_hrtim.h ****   * @}
1580:Drivers/STM32G4xx_HAL_Driver/Inc/stm32g4xx_ll_hrtim.h ****   */
1581:Drivers/STM32G4xx_HAL_Driver/Inc/stm32g4xx_ll_hrtim.h **** /** @defgroup HRTIM_LL_EC_HALF_MODE HALF MODE
1582:Drivers/STM32G4xx_HAL_Driver/Inc/stm32g4xx_ll_hrtim.h ****   * @{
1583:Drivers/STM32G4xx_HAL_Driver/Inc/stm32g4xx_ll_hrtim.h ****   * @brief Constants defining the half mode of an HRTIM Timer instance.
1584:Drivers/STM32G4xx_HAL_Driver/Inc/stm32g4xx_ll_hrtim.h ****   */
1585:Drivers/STM32G4xx_HAL_Driver/Inc/stm32g4xx_ll_hrtim.h **** #define LL_HRTIM_HALF_MODE_DISABLED          0x000U              /*!< HRTIM Half Mode is disabled *
1586:Drivers/STM32G4xx_HAL_Driver/Inc/stm32g4xx_ll_hrtim.h **** #define LL_HRTIM_HALF_MODE_ENABLE            HRTIM_MCR_HALF      /*!< HRTIM Half Mode is Half */
1587:Drivers/STM32G4xx_HAL_Driver/Inc/stm32g4xx_ll_hrtim.h **** /**
1588:Drivers/STM32G4xx_HAL_Driver/Inc/stm32g4xx_ll_hrtim.h ****   * @}
1589:Drivers/STM32G4xx_HAL_Driver/Inc/stm32g4xx_ll_hrtim.h ****   */
1590:Drivers/STM32G4xx_HAL_Driver/Inc/stm32g4xx_ll_hrtim.h **** 
1591:Drivers/STM32G4xx_HAL_Driver/Inc/stm32g4xx_ll_hrtim.h **** /** @defgroup HRTIM_LL_EC_OUT_IDLELEVEL OUTPUT IDLE LEVEL
1592:Drivers/STM32G4xx_HAL_Driver/Inc/stm32g4xx_ll_hrtim.h ****   * @{
1593:Drivers/STM32G4xx_HAL_Driver/Inc/stm32g4xx_ll_hrtim.h ****   * @brief Constants defining the output level when output is in IDLE state
1594:Drivers/STM32G4xx_HAL_Driver/Inc/stm32g4xx_ll_hrtim.h ****   */
1595:Drivers/STM32G4xx_HAL_Driver/Inc/stm32g4xx_ll_hrtim.h **** #define LL_HRTIM_OUT_IDLELEVEL_INACTIVE   0x00000000U           /*!< Output at inactive level when 
1596:Drivers/STM32G4xx_HAL_Driver/Inc/stm32g4xx_ll_hrtim.h **** #define LL_HRTIM_OUT_IDLELEVEL_ACTIVE     (HRTIM_OUTR_IDLES1)   /*!< Output at active level when in
1597:Drivers/STM32G4xx_HAL_Driver/Inc/stm32g4xx_ll_hrtim.h **** /**
1598:Drivers/STM32G4xx_HAL_Driver/Inc/stm32g4xx_ll_hrtim.h ****   * @}
1599:Drivers/STM32G4xx_HAL_Driver/Inc/stm32g4xx_ll_hrtim.h ****   */
1600:Drivers/STM32G4xx_HAL_Driver/Inc/stm32g4xx_ll_hrtim.h **** 
1601:Drivers/STM32G4xx_HAL_Driver/Inc/stm32g4xx_ll_hrtim.h **** /** @defgroup HRTIM_LL_EC_OUT_FAULTSTATE OUTPUT FAULT STATE
1602:Drivers/STM32G4xx_HAL_Driver/Inc/stm32g4xx_ll_hrtim.h ****   * @{
1603:Drivers/STM32G4xx_HAL_Driver/Inc/stm32g4xx_ll_hrtim.h ****   * @brief Constants defining the output level when output is in FAULT state.
1604:Drivers/STM32G4xx_HAL_Driver/Inc/stm32g4xx_ll_hrtim.h ****   */
1605:Drivers/STM32G4xx_HAL_Driver/Inc/stm32g4xx_ll_hrtim.h **** #define LL_HRTIM_OUT_FAULTSTATE_NO_ACTION 0x00000000U                      /*!< The output is not a
1606:Drivers/STM32G4xx_HAL_Driver/Inc/stm32g4xx_ll_hrtim.h **** #define LL_HRTIM_OUT_FAULTSTATE_ACTIVE    (HRTIM_OUTR_FAULT1_0)                        /*!< Output 
1607:Drivers/STM32G4xx_HAL_Driver/Inc/stm32g4xx_ll_hrtim.h **** #define LL_HRTIM_OUT_FAULTSTATE_INACTIVE  (HRTIM_OUTR_FAULT1_1)                        /*!< Output 
1608:Drivers/STM32G4xx_HAL_Driver/Inc/stm32g4xx_ll_hrtim.h **** #define LL_HRTIM_OUT_FAULTSTATE_HIGHZ     (HRTIM_OUTR_FAULT1_1 | HRTIM_OUTR_FAULT1_0)  /*!< Output 
1609:Drivers/STM32G4xx_HAL_Driver/Inc/stm32g4xx_ll_hrtim.h **** /**
1610:Drivers/STM32G4xx_HAL_Driver/Inc/stm32g4xx_ll_hrtim.h ****   * @}
1611:Drivers/STM32G4xx_HAL_Driver/Inc/stm32g4xx_ll_hrtim.h ****   */
1612:Drivers/STM32G4xx_HAL_Driver/Inc/stm32g4xx_ll_hrtim.h **** 
1613:Drivers/STM32G4xx_HAL_Driver/Inc/stm32g4xx_ll_hrtim.h **** /** @defgroup HRTIM_LL_EC_OUT_CHOPPERMODE OUTPUT CHOPPER MODE
1614:Drivers/STM32G4xx_HAL_Driver/Inc/stm32g4xx_ll_hrtim.h ****   * @{
1615:Drivers/STM32G4xx_HAL_Driver/Inc/stm32g4xx_ll_hrtim.h ****   * @brief Constants defining whether or not chopper mode is enabled for a timer output.
1616:Drivers/STM32G4xx_HAL_Driver/Inc/stm32g4xx_ll_hrtim.h ****   */
1617:Drivers/STM32G4xx_HAL_Driver/Inc/stm32g4xx_ll_hrtim.h **** #define LL_HRTIM_OUT_CHOPPERMODE_DISABLED   0x00000000U             /*!< Output signal is not alter
1618:Drivers/STM32G4xx_HAL_Driver/Inc/stm32g4xx_ll_hrtim.h **** #define LL_HRTIM_OUT_CHOPPERMODE_ENABLED    (HRTIM_OUTR_CHP1)       /*!< Output signal is chopped b
1619:Drivers/STM32G4xx_HAL_Driver/Inc/stm32g4xx_ll_hrtim.h **** /**
1620:Drivers/STM32G4xx_HAL_Driver/Inc/stm32g4xx_ll_hrtim.h ****   * @}
1621:Drivers/STM32G4xx_HAL_Driver/Inc/stm32g4xx_ll_hrtim.h ****   */
1622:Drivers/STM32G4xx_HAL_Driver/Inc/stm32g4xx_ll_hrtim.h **** 
1623:Drivers/STM32G4xx_HAL_Driver/Inc/stm32g4xx_ll_hrtim.h **** /** @defgroup HRTIM_LL_EC_OUT_BM_ENTRYMODE OUTPUT BURST MODE ENTRY MODE
ARM GAS  D:\apps\VSCode\data\tmp\ccNKRXCB.s 			page 31


1624:Drivers/STM32G4xx_HAL_Driver/Inc/stm32g4xx_ll_hrtim.h ****   * @{
1625:Drivers/STM32G4xx_HAL_Driver/Inc/stm32g4xx_ll_hrtim.h ****   * @brief Constants defining the idle state entry mode during a burst mode operation. It is possib
1626:Drivers/STM32G4xx_HAL_Driver/Inc/stm32g4xx_ll_hrtim.h **** during a programmable period before the output takes its idle state.
1627:Drivers/STM32G4xx_HAL_Driver/Inc/stm32g4xx_ll_hrtim.h ****   */
1628:Drivers/STM32G4xx_HAL_Driver/Inc/stm32g4xx_ll_hrtim.h **** #define LL_HRTIM_OUT_BM_ENTRYMODE_REGULAR   0x00000000U            /*!< The programmed Idle state i
1629:Drivers/STM32G4xx_HAL_Driver/Inc/stm32g4xx_ll_hrtim.h **** #define LL_HRTIM_OUT_BM_ENTRYMODE_DELAYED   (HRTIM_OUTR_DIDL1)     /*!< Deadtime is inserted on out
1630:Drivers/STM32G4xx_HAL_Driver/Inc/stm32g4xx_ll_hrtim.h **** /**
1631:Drivers/STM32G4xx_HAL_Driver/Inc/stm32g4xx_ll_hrtim.h ****   * @}
1632:Drivers/STM32G4xx_HAL_Driver/Inc/stm32g4xx_ll_hrtim.h ****   */
1633:Drivers/STM32G4xx_HAL_Driver/Inc/stm32g4xx_ll_hrtim.h **** /** @defgroup HRTIM_LL_EC_OUT_LEVEL OUTPUT LEVEL
1634:Drivers/STM32G4xx_HAL_Driver/Inc/stm32g4xx_ll_hrtim.h ****   * @{
1635:Drivers/STM32G4xx_HAL_Driver/Inc/stm32g4xx_ll_hrtim.h ****   * @brief Constants defining the level of a timer output.
1636:Drivers/STM32G4xx_HAL_Driver/Inc/stm32g4xx_ll_hrtim.h ****   */
1637:Drivers/STM32G4xx_HAL_Driver/Inc/stm32g4xx_ll_hrtim.h **** #define LL_HRTIM_OUT_LEVEL_INACTIVE   0x00000000U            /*!< Corresponds to a logic level 0 fo
1638:Drivers/STM32G4xx_HAL_Driver/Inc/stm32g4xx_ll_hrtim.h **** #define LL_HRTIM_OUT_LEVEL_ACTIVE     ((uint32_t)0x00000001) /*!< Corresponds to a logic level 1 fo
1639:Drivers/STM32G4xx_HAL_Driver/Inc/stm32g4xx_ll_hrtim.h **** /**
1640:Drivers/STM32G4xx_HAL_Driver/Inc/stm32g4xx_ll_hrtim.h ****   * @}
1641:Drivers/STM32G4xx_HAL_Driver/Inc/stm32g4xx_ll_hrtim.h ****   */
1642:Drivers/STM32G4xx_HAL_Driver/Inc/stm32g4xx_ll_hrtim.h **** 
1643:Drivers/STM32G4xx_HAL_Driver/Inc/stm32g4xx_ll_hrtim.h **** /** @defgroup HRTIM_LL_EC_EE_SRC EXTERNAL EVENT SOURCE
1644:Drivers/STM32G4xx_HAL_Driver/Inc/stm32g4xx_ll_hrtim.h ****   * @{
1645:Drivers/STM32G4xx_HAL_Driver/Inc/stm32g4xx_ll_hrtim.h ****   * @brief Constants defining available sources associated to external events.
1646:Drivers/STM32G4xx_HAL_Driver/Inc/stm32g4xx_ll_hrtim.h ****   */
1647:Drivers/STM32G4xx_HAL_Driver/Inc/stm32g4xx_ll_hrtim.h **** #define LL_HRTIM_EEV1SRC_GPIO        0x00000000U                                   /*!< External ev
1648:Drivers/STM32G4xx_HAL_Driver/Inc/stm32g4xx_ll_hrtim.h **** #define LL_HRTIM_EEV2SRC_GPIO        0x00000000U                                   /*!< External ev
1649:Drivers/STM32G4xx_HAL_Driver/Inc/stm32g4xx_ll_hrtim.h **** #define LL_HRTIM_EEV3SRC_GPIO        0x00000000U                                   /*!< External ev
1650:Drivers/STM32G4xx_HAL_Driver/Inc/stm32g4xx_ll_hrtim.h **** #define LL_HRTIM_EEV4SRC_GPIO        0x00000000U                                   /*!< External ev
1651:Drivers/STM32G4xx_HAL_Driver/Inc/stm32g4xx_ll_hrtim.h **** #define LL_HRTIM_EEV5SRC_GPIO        0x00000000U                                   /*!< External ev
1652:Drivers/STM32G4xx_HAL_Driver/Inc/stm32g4xx_ll_hrtim.h **** #define LL_HRTIM_EEV6SRC_GPIO        0x00000000U                                   /*!< External ev
1653:Drivers/STM32G4xx_HAL_Driver/Inc/stm32g4xx_ll_hrtim.h **** #define LL_HRTIM_EEV7SRC_GPIO        0x00000000U                                   /*!< External ev
1654:Drivers/STM32G4xx_HAL_Driver/Inc/stm32g4xx_ll_hrtim.h **** #define LL_HRTIM_EEV8SRC_GPIO        0x00000000U                                   /*!< External ev
1655:Drivers/STM32G4xx_HAL_Driver/Inc/stm32g4xx_ll_hrtim.h **** #define LL_HRTIM_EEV9SRC_GPIO        0x00000000U                                   /*!< External ev
1656:Drivers/STM32G4xx_HAL_Driver/Inc/stm32g4xx_ll_hrtim.h **** #define LL_HRTIM_EEV10SRC_GPIO       0x00000000U                                   /*!< External ev
1657:Drivers/STM32G4xx_HAL_Driver/Inc/stm32g4xx_ll_hrtim.h **** #define LL_HRTIM_EEV1SRC_COMP2_OUT   (HRTIM_EECR1_EE1SRC_0)                        /*!< External ev
1658:Drivers/STM32G4xx_HAL_Driver/Inc/stm32g4xx_ll_hrtim.h **** #define LL_HRTIM_EEV2SRC_COMP4_OUT   (HRTIM_EECR1_EE1SRC_0)                        /*!< External ev
1659:Drivers/STM32G4xx_HAL_Driver/Inc/stm32g4xx_ll_hrtim.h **** #define LL_HRTIM_EEV3SRC_COMP6_OUT   (HRTIM_EECR1_EE1SRC_0)                        /*!< External ev
1660:Drivers/STM32G4xx_HAL_Driver/Inc/stm32g4xx_ll_hrtim.h **** #define LL_HRTIM_EEV4SRC_COMP1_OUT   (HRTIM_EECR1_EE1SRC_0)                        /*!< External ev
1661:Drivers/STM32G4xx_HAL_Driver/Inc/stm32g4xx_ll_hrtim.h **** #define LL_HRTIM_EEV5SRC_COMP3_OUT   (HRTIM_EECR1_EE1SRC_0)                        /*!< External ev
1662:Drivers/STM32G4xx_HAL_Driver/Inc/stm32g4xx_ll_hrtim.h **** #define LL_HRTIM_EEV6SRC_COMP2_OUT   (HRTIM_EECR1_EE1SRC_0)                        /*!< External ev
1663:Drivers/STM32G4xx_HAL_Driver/Inc/stm32g4xx_ll_hrtim.h **** #define LL_HRTIM_EEV7SRC_COMP4_OUT   (HRTIM_EECR1_EE1SRC_0)                        /*!< External ev
1664:Drivers/STM32G4xx_HAL_Driver/Inc/stm32g4xx_ll_hrtim.h **** #define LL_HRTIM_EEV8SRC_COMP6_OUT   (HRTIM_EECR1_EE1SRC_0)                        /*!< External ev
1665:Drivers/STM32G4xx_HAL_Driver/Inc/stm32g4xx_ll_hrtim.h **** #define LL_HRTIM_EEV9SRC_COMP5_OUT   (HRTIM_EECR1_EE1SRC_0)                        /*!< External ev
1666:Drivers/STM32G4xx_HAL_Driver/Inc/stm32g4xx_ll_hrtim.h **** #define LL_HRTIM_EEV10SRC_COMP7_OUT  (HRTIM_EECR1_EE1SRC_0)                        /*!< External ev
1667:Drivers/STM32G4xx_HAL_Driver/Inc/stm32g4xx_ll_hrtim.h **** #define LL_HRTIM_EEV1SRC_TIM1_TRGO   (HRTIM_EECR1_EE1SRC_1)                        /*!< External ev
1668:Drivers/STM32G4xx_HAL_Driver/Inc/stm32g4xx_ll_hrtim.h **** #define LL_HRTIM_EEV2SRC_TIM2_TRGO   (HRTIM_EECR1_EE1SRC_1)                        /*!< External ev
1669:Drivers/STM32G4xx_HAL_Driver/Inc/stm32g4xx_ll_hrtim.h **** #define LL_HRTIM_EEV3SRC_TIM3_TRGO   (HRTIM_EECR1_EE1SRC_1)                        /*!< External ev
1670:Drivers/STM32G4xx_HAL_Driver/Inc/stm32g4xx_ll_hrtim.h **** #define LL_HRTIM_EEV4SRC_COMP5_OUT   (HRTIM_EECR1_EE1SRC_1)                        /*!< External ev
1671:Drivers/STM32G4xx_HAL_Driver/Inc/stm32g4xx_ll_hrtim.h **** #define LL_HRTIM_EEV5SRC_COMP7_OUT   (HRTIM_EECR1_EE1SRC_1)                        /*!< External ev
1672:Drivers/STM32G4xx_HAL_Driver/Inc/stm32g4xx_ll_hrtim.h **** #define LL_HRTIM_EEV6SRC_COMP1_OUT   (HRTIM_EECR1_EE1SRC_1)                        /*!< External ev
1673:Drivers/STM32G4xx_HAL_Driver/Inc/stm32g4xx_ll_hrtim.h **** #define LL_HRTIM_EEV7SRC_TIM7_TRGO   (HRTIM_EECR1_EE1SRC_1)                        /*!< External ev
1674:Drivers/STM32G4xx_HAL_Driver/Inc/stm32g4xx_ll_hrtim.h **** #define LL_HRTIM_EEV8SRC_COMP3_OUT   (HRTIM_EECR1_EE1SRC_1)                        /*!< External ev
1675:Drivers/STM32G4xx_HAL_Driver/Inc/stm32g4xx_ll_hrtim.h **** #define LL_HRTIM_EEV9SRC_TIM15_TRGO  (HRTIM_EECR1_EE1SRC_1)                        /*!< External ev
1676:Drivers/STM32G4xx_HAL_Driver/Inc/stm32g4xx_ll_hrtim.h **** #define LL_HRTIM_EEV10SRC_TIM6_TRGO  (HRTIM_EECR1_EE1SRC_1)                        /*!< External ev
1677:Drivers/STM32G4xx_HAL_Driver/Inc/stm32g4xx_ll_hrtim.h **** #define LL_HRTIM_EEV1SRC_ADC1_AWD1   (HRTIM_EECR1_EE1SRC_1 | HRTIM_EECR1_EE1SRC_0) /*!< External ev
1678:Drivers/STM32G4xx_HAL_Driver/Inc/stm32g4xx_ll_hrtim.h **** #define LL_HRTIM_EEV2SRC_ADC1_AWD2   (HRTIM_EECR1_EE1SRC_1 | HRTIM_EECR1_EE1SRC_0) /*!< External ev
1679:Drivers/STM32G4xx_HAL_Driver/Inc/stm32g4xx_ll_hrtim.h **** #define LL_HRTIM_EEV3SRC_ADC1_AWD3   (HRTIM_EECR1_EE1SRC_1 | HRTIM_EECR1_EE1SRC_0) /*!< External ev
1680:Drivers/STM32G4xx_HAL_Driver/Inc/stm32g4xx_ll_hrtim.h **** #define LL_HRTIM_EEV4SRC_ADC2_AWD1   (HRTIM_EECR1_EE1SRC_1 | HRTIM_EECR1_EE1SRC_0) /*!< External ev
ARM GAS  D:\apps\VSCode\data\tmp\ccNKRXCB.s 			page 32


1681:Drivers/STM32G4xx_HAL_Driver/Inc/stm32g4xx_ll_hrtim.h **** #define LL_HRTIM_EEV5SRC_ADC2_AWD2   (HRTIM_EECR1_EE1SRC_1 | HRTIM_EECR1_EE1SRC_0) /*!< External ev
1682:Drivers/STM32G4xx_HAL_Driver/Inc/stm32g4xx_ll_hrtim.h **** #define LL_HRTIM_EEV6SRC_ADC2_AWD3   (HRTIM_EECR1_EE1SRC_1 | HRTIM_EECR1_EE1SRC_0) /*!< External ev
1683:Drivers/STM32G4xx_HAL_Driver/Inc/stm32g4xx_ll_hrtim.h **** #define LL_HRTIM_EEV7SRC_ADC3_AWD1   (HRTIM_EECR1_EE1SRC_1 | HRTIM_EECR1_EE1SRC_0) /*!< External ev
1684:Drivers/STM32G4xx_HAL_Driver/Inc/stm32g4xx_ll_hrtim.h **** #define LL_HRTIM_EEV8SRC_ADC4_AWD1   (HRTIM_EECR1_EE1SRC_1 | HRTIM_EECR1_EE1SRC_0) /*!< External ev
1685:Drivers/STM32G4xx_HAL_Driver/Inc/stm32g4xx_ll_hrtim.h **** #define LL_HRTIM_EEV9SRC_COMP4_OUT   (HRTIM_EECR1_EE1SRC_1 | HRTIM_EECR1_EE1SRC_0) /*!< External ev
1686:Drivers/STM32G4xx_HAL_Driver/Inc/stm32g4xx_ll_hrtim.h **** #define LL_HRTIM_EEV10SRC_ADC5_AWD1  (HRTIM_EECR1_EE1SRC_1 | HRTIM_EECR1_EE1SRC_0) /*!< External ev
1687:Drivers/STM32G4xx_HAL_Driver/Inc/stm32g4xx_ll_hrtim.h **** /**
1688:Drivers/STM32G4xx_HAL_Driver/Inc/stm32g4xx_ll_hrtim.h ****   * @}
1689:Drivers/STM32G4xx_HAL_Driver/Inc/stm32g4xx_ll_hrtim.h ****   */
1690:Drivers/STM32G4xx_HAL_Driver/Inc/stm32g4xx_ll_hrtim.h **** /** @defgroup HRTIM_LL_EC_EE_POLARITY EXTERNAL EVENT POLARITY
1691:Drivers/STM32G4xx_HAL_Driver/Inc/stm32g4xx_ll_hrtim.h ****   * @{
1692:Drivers/STM32G4xx_HAL_Driver/Inc/stm32g4xx_ll_hrtim.h ****   * @brief Constants defining the polarity of an external event.
1693:Drivers/STM32G4xx_HAL_Driver/Inc/stm32g4xx_ll_hrtim.h ****   */
1694:Drivers/STM32G4xx_HAL_Driver/Inc/stm32g4xx_ll_hrtim.h **** #define LL_HRTIM_EE_POLARITY_HIGH    0x00000000U             /*!< External event is active high */
1695:Drivers/STM32G4xx_HAL_Driver/Inc/stm32g4xx_ll_hrtim.h **** #define LL_HRTIM_EE_POLARITY_LOW     (HRTIM_EECR1_EE1POL)    /*!< External event is active low */
1696:Drivers/STM32G4xx_HAL_Driver/Inc/stm32g4xx_ll_hrtim.h **** /**
1697:Drivers/STM32G4xx_HAL_Driver/Inc/stm32g4xx_ll_hrtim.h ****   * @}
1698:Drivers/STM32G4xx_HAL_Driver/Inc/stm32g4xx_ll_hrtim.h ****   */
1699:Drivers/STM32G4xx_HAL_Driver/Inc/stm32g4xx_ll_hrtim.h **** 
1700:Drivers/STM32G4xx_HAL_Driver/Inc/stm32g4xx_ll_hrtim.h **** /** @defgroup HRTIM_LL_EC_EE_SENSITIVITY EXTERNAL EVENT SENSITIVITY
1701:Drivers/STM32G4xx_HAL_Driver/Inc/stm32g4xx_ll_hrtim.h ****   * @{
1702:Drivers/STM32G4xx_HAL_Driver/Inc/stm32g4xx_ll_hrtim.h ****   * @brief Constants defining the sensitivity (level-sensitive or edge-sensitive) of an external ev
1703:Drivers/STM32G4xx_HAL_Driver/Inc/stm32g4xx_ll_hrtim.h ****   */
1704:Drivers/STM32G4xx_HAL_Driver/Inc/stm32g4xx_ll_hrtim.h **** #define LL_HRTIM_EE_SENSITIVITY_LEVEL          0x00000000U                        /*!< External eve
1705:Drivers/STM32G4xx_HAL_Driver/Inc/stm32g4xx_ll_hrtim.h **** #define LL_HRTIM_EE_SENSITIVITY_RISINGEDGE     (HRTIM_EECR1_EE1SNS_0)                         /*!< 
1706:Drivers/STM32G4xx_HAL_Driver/Inc/stm32g4xx_ll_hrtim.h **** #define LL_HRTIM_EE_SENSITIVITY_FALLINGEDGE    (HRTIM_EECR1_EE1SNS_1)                         /*!< 
1707:Drivers/STM32G4xx_HAL_Driver/Inc/stm32g4xx_ll_hrtim.h **** #define LL_HRTIM_EE_SENSITIVITY_BOTHEDGES      (HRTIM_EECR1_EE1SNS_1 | HRTIM_EECR1_EE1SNS_0)  /*!< 
1708:Drivers/STM32G4xx_HAL_Driver/Inc/stm32g4xx_ll_hrtim.h **** /**
1709:Drivers/STM32G4xx_HAL_Driver/Inc/stm32g4xx_ll_hrtim.h ****   * @}
1710:Drivers/STM32G4xx_HAL_Driver/Inc/stm32g4xx_ll_hrtim.h ****   */
1711:Drivers/STM32G4xx_HAL_Driver/Inc/stm32g4xx_ll_hrtim.h **** 
1712:Drivers/STM32G4xx_HAL_Driver/Inc/stm32g4xx_ll_hrtim.h **** /** @defgroup HRTIM_LL_EC_EE_FASTMODE EXTERNAL EVENT FAST MODE
1713:Drivers/STM32G4xx_HAL_Driver/Inc/stm32g4xx_ll_hrtim.h ****   * @{
1714:Drivers/STM32G4xx_HAL_Driver/Inc/stm32g4xx_ll_hrtim.h ****   * @brief Constants defining whether or not an external event is programmed in fast mode.
1715:Drivers/STM32G4xx_HAL_Driver/Inc/stm32g4xx_ll_hrtim.h ****   */
1716:Drivers/STM32G4xx_HAL_Driver/Inc/stm32g4xx_ll_hrtim.h **** #define LL_HRTIM_EE_FASTMODE_DISABLE         0x00000000U              /*!< External Event is re-syn
1717:Drivers/STM32G4xx_HAL_Driver/Inc/stm32g4xx_ll_hrtim.h **** #define LL_HRTIM_EE_FASTMODE_ENABLE          (HRTIM_EECR1_EE1FAST)    /*!< External Event is acting
1718:Drivers/STM32G4xx_HAL_Driver/Inc/stm32g4xx_ll_hrtim.h **** /**
1719:Drivers/STM32G4xx_HAL_Driver/Inc/stm32g4xx_ll_hrtim.h ****   * @}
1720:Drivers/STM32G4xx_HAL_Driver/Inc/stm32g4xx_ll_hrtim.h ****   */
1721:Drivers/STM32G4xx_HAL_Driver/Inc/stm32g4xx_ll_hrtim.h **** 
1722:Drivers/STM32G4xx_HAL_Driver/Inc/stm32g4xx_ll_hrtim.h **** /** @defgroup HRTIM_LL_EC_EE_FILTER EXTERNAL EVENT DIGITAL FILTER
1723:Drivers/STM32G4xx_HAL_Driver/Inc/stm32g4xx_ll_hrtim.h ****   * @{
1724:Drivers/STM32G4xx_HAL_Driver/Inc/stm32g4xx_ll_hrtim.h ****   * @brief Constants defining the frequency used to sample an external event input (fSAMPLING) and 
1725:Drivers/STM32G4xx_HAL_Driver/Inc/stm32g4xx_ll_hrtim.h ****   */
1726:Drivers/STM32G4xx_HAL_Driver/Inc/stm32g4xx_ll_hrtim.h **** #define LL_HRTIM_EE_FILTER_NONE      0x00000000U                                                   
1727:Drivers/STM32G4xx_HAL_Driver/Inc/stm32g4xx_ll_hrtim.h **** #define LL_HRTIM_EE_FILTER_1         (HRTIM_EECR3_EE6F_0)                                          
1728:Drivers/STM32G4xx_HAL_Driver/Inc/stm32g4xx_ll_hrtim.h **** #define LL_HRTIM_EE_FILTER_2         (HRTIM_EECR3_EE6F_1)                                          
1729:Drivers/STM32G4xx_HAL_Driver/Inc/stm32g4xx_ll_hrtim.h **** #define LL_HRTIM_EE_FILTER_3         (HRTIM_EECR3_EE6F_1 | HRTIM_EECR3_EE6F_0)                     
1730:Drivers/STM32G4xx_HAL_Driver/Inc/stm32g4xx_ll_hrtim.h **** #define LL_HRTIM_EE_FILTER_4         (HRTIM_EECR3_EE6F_2)                                          
1731:Drivers/STM32G4xx_HAL_Driver/Inc/stm32g4xx_ll_hrtim.h **** #define LL_HRTIM_EE_FILTER_5         (HRTIM_EECR3_EE6F_2 | HRTIM_EECR3_EE6F_0)                     
1732:Drivers/STM32G4xx_HAL_Driver/Inc/stm32g4xx_ll_hrtim.h **** #define LL_HRTIM_EE_FILTER_6         (HRTIM_EECR3_EE6F_2 | HRTIM_EECR3_EE6F_1)                     
1733:Drivers/STM32G4xx_HAL_Driver/Inc/stm32g4xx_ll_hrtim.h **** #define LL_HRTIM_EE_FILTER_7         (HRTIM_EECR3_EE6F_2 | HRTIM_EECR3_EE6F_1 | HRTIM_EECR3_EE6F_0)
1734:Drivers/STM32G4xx_HAL_Driver/Inc/stm32g4xx_ll_hrtim.h **** #define LL_HRTIM_EE_FILTER_8         (HRTIM_EECR3_EE6F_3)                                          
1735:Drivers/STM32G4xx_HAL_Driver/Inc/stm32g4xx_ll_hrtim.h **** #define LL_HRTIM_EE_FILTER_9         (HRTIM_EECR3_EE6F_3 | HRTIM_EECR3_EE6F_0)                     
1736:Drivers/STM32G4xx_HAL_Driver/Inc/stm32g4xx_ll_hrtim.h **** #define LL_HRTIM_EE_FILTER_10        (HRTIM_EECR3_EE6F_3 | HRTIM_EECR3_EE6F_1)                     
1737:Drivers/STM32G4xx_HAL_Driver/Inc/stm32g4xx_ll_hrtim.h **** #define LL_HRTIM_EE_FILTER_11        (HRTIM_EECR3_EE6F_3 | HRTIM_EECR3_EE6F_1 | HRTIM_EECR3_EE6F_0)
ARM GAS  D:\apps\VSCode\data\tmp\ccNKRXCB.s 			page 33


1738:Drivers/STM32G4xx_HAL_Driver/Inc/stm32g4xx_ll_hrtim.h **** #define LL_HRTIM_EE_FILTER_12        (HRTIM_EECR3_EE6F_3 | HRTIM_EECR3_EE6F_2)                     
1739:Drivers/STM32G4xx_HAL_Driver/Inc/stm32g4xx_ll_hrtim.h **** #define LL_HRTIM_EE_FILTER_13        (HRTIM_EECR3_EE6F_3 | HRTIM_EECR3_EE6F_2  | HRTIM_EECR3_EE6F_0
1740:Drivers/STM32G4xx_HAL_Driver/Inc/stm32g4xx_ll_hrtim.h **** #define LL_HRTIM_EE_FILTER_14        (HRTIM_EECR3_EE6F_3 | HRTIM_EECR3_EE6F_2  | HRTIM_EECR3_EE6F_1
1741:Drivers/STM32G4xx_HAL_Driver/Inc/stm32g4xx_ll_hrtim.h **** #define LL_HRTIM_EE_FILTER_15        (HRTIM_EECR3_EE6F_3 | HRTIM_EECR3_EE6F_2  | HRTIM_EECR3_EE6F_1
1742:Drivers/STM32G4xx_HAL_Driver/Inc/stm32g4xx_ll_hrtim.h **** /**
1743:Drivers/STM32G4xx_HAL_Driver/Inc/stm32g4xx_ll_hrtim.h ****   * @}
1744:Drivers/STM32G4xx_HAL_Driver/Inc/stm32g4xx_ll_hrtim.h ****   */
1745:Drivers/STM32G4xx_HAL_Driver/Inc/stm32g4xx_ll_hrtim.h **** 
1746:Drivers/STM32G4xx_HAL_Driver/Inc/stm32g4xx_ll_hrtim.h **** /** @defgroup HRTIM_LL_EC_EE_PRESCALER EXTERNAL EVENT PRESCALER
1747:Drivers/STM32G4xx_HAL_Driver/Inc/stm32g4xx_ll_hrtim.h ****   * @{
1748:Drivers/STM32G4xx_HAL_Driver/Inc/stm32g4xx_ll_hrtim.h ****   * @brief Constants defining division ratio between the timer clock frequency (fHRTIM) and the ext
1749:Drivers/STM32G4xx_HAL_Driver/Inc/stm32g4xx_ll_hrtim.h ****   */
1750:Drivers/STM32G4xx_HAL_Driver/Inc/stm32g4xx_ll_hrtim.h **** #define LL_HRTIM_EE_PRESCALER_DIV1    0x00000000U                     /*!< fEEVS = fHRTIM */
1751:Drivers/STM32G4xx_HAL_Driver/Inc/stm32g4xx_ll_hrtim.h **** #define LL_HRTIM_EE_PRESCALER_DIV2    (HRTIM_EECR3_EEVSD_0)                       /*!< fEEVS = fHRT
1752:Drivers/STM32G4xx_HAL_Driver/Inc/stm32g4xx_ll_hrtim.h **** #define LL_HRTIM_EE_PRESCALER_DIV4    (HRTIM_EECR3_EEVSD_1)                       /*!< fEEVS = fHRT
1753:Drivers/STM32G4xx_HAL_Driver/Inc/stm32g4xx_ll_hrtim.h **** #define LL_HRTIM_EE_PRESCALER_DIV8    (HRTIM_EECR3_EEVSD_1 | HRTIM_EECR3_EEVSD_0) /*!< fEEVS = fHRT
1754:Drivers/STM32G4xx_HAL_Driver/Inc/stm32g4xx_ll_hrtim.h **** /**
1755:Drivers/STM32G4xx_HAL_Driver/Inc/stm32g4xx_ll_hrtim.h ****   * @}
1756:Drivers/STM32G4xx_HAL_Driver/Inc/stm32g4xx_ll_hrtim.h ****   */
1757:Drivers/STM32G4xx_HAL_Driver/Inc/stm32g4xx_ll_hrtim.h **** 
1758:Drivers/STM32G4xx_HAL_Driver/Inc/stm32g4xx_ll_hrtim.h **** /** @defgroup HRTIM_LL_EC_EE_COUNTER EXTERNAL EVENT A or B COUNTER
1759:Drivers/STM32G4xx_HAL_Driver/Inc/stm32g4xx_ll_hrtim.h ****   * @{
1760:Drivers/STM32G4xx_HAL_Driver/Inc/stm32g4xx_ll_hrtim.h ****   * @brief Constants defining the external event counter.
1761:Drivers/STM32G4xx_HAL_Driver/Inc/stm32g4xx_ll_hrtim.h ****   */
1762:Drivers/STM32G4xx_HAL_Driver/Inc/stm32g4xx_ll_hrtim.h **** #define LL_HRTIM_EVENT_COUNTER_A    ((uint32_t)0U)                     /*!< External Event A Counte
1763:Drivers/STM32G4xx_HAL_Driver/Inc/stm32g4xx_ll_hrtim.h **** #define LL_HRTIM_EVENT_COUNTER_B    ((uint32_t)16U)                    /*!< External Event B Counte
1764:Drivers/STM32G4xx_HAL_Driver/Inc/stm32g4xx_ll_hrtim.h **** /**
1765:Drivers/STM32G4xx_HAL_Driver/Inc/stm32g4xx_ll_hrtim.h ****   * @}
1766:Drivers/STM32G4xx_HAL_Driver/Inc/stm32g4xx_ll_hrtim.h ****   */
1767:Drivers/STM32G4xx_HAL_Driver/Inc/stm32g4xx_ll_hrtim.h **** 
1768:Drivers/STM32G4xx_HAL_Driver/Inc/stm32g4xx_ll_hrtim.h **** /** @defgroup HRTIM_LL_EC_EE_COUNTERRSTMODE EXTERNAL EVENT A or B RESET MODE
1769:Drivers/STM32G4xx_HAL_Driver/Inc/stm32g4xx_ll_hrtim.h ****   * @{
1770:Drivers/STM32G4xx_HAL_Driver/Inc/stm32g4xx_ll_hrtim.h ****   * @brief Constants defining the external event reset mode.
1771:Drivers/STM32G4xx_HAL_Driver/Inc/stm32g4xx_ll_hrtim.h ****   */
1772:Drivers/STM32G4xx_HAL_Driver/Inc/stm32g4xx_ll_hrtim.h **** #define LL_HRTIM_EVENT_COUNTERRSTMODE_UNCONDITIONAL   ((uint32_t)0U)                     /*!< Exter
1773:Drivers/STM32G4xx_HAL_Driver/Inc/stm32g4xx_ll_hrtim.h **** #define LL_HRTIM_EVENT_COUNTERRSTMODE_CONDITIONAL     ((uint32_t)HRTIM_EEFR3_EEVARSTM)   /*!< Exter
1774:Drivers/STM32G4xx_HAL_Driver/Inc/stm32g4xx_ll_hrtim.h **** /**
1775:Drivers/STM32G4xx_HAL_Driver/Inc/stm32g4xx_ll_hrtim.h ****   * @}
1776:Drivers/STM32G4xx_HAL_Driver/Inc/stm32g4xx_ll_hrtim.h ****   */
1777:Drivers/STM32G4xx_HAL_Driver/Inc/stm32g4xx_ll_hrtim.h **** 
1778:Drivers/STM32G4xx_HAL_Driver/Inc/stm32g4xx_ll_hrtim.h **** /** @defgroup HRTIM_LL_EC_FLT_SRC FAULT SOURCE
1779:Drivers/STM32G4xx_HAL_Driver/Inc/stm32g4xx_ll_hrtim.h ****   * @{
1780:Drivers/STM32G4xx_HAL_Driver/Inc/stm32g4xx_ll_hrtim.h ****   * @brief Constants defining whether a faults is be triggered by any external or internal fault so
1781:Drivers/STM32G4xx_HAL_Driver/Inc/stm32g4xx_ll_hrtim.h ****   */
1782:Drivers/STM32G4xx_HAL_Driver/Inc/stm32g4xx_ll_hrtim.h **** #define LL_HRTIM_FLT_SRC_DIGITALINPUT         0x00000000U                /*!< Fault input is FLT in
1783:Drivers/STM32G4xx_HAL_Driver/Inc/stm32g4xx_ll_hrtim.h **** #define LL_HRTIM_FLT_SRC_INTERNAL             HRTIM_FLTINR1_FLT1SRC_0    /*!< Fault input is FLT_In
1784:Drivers/STM32G4xx_HAL_Driver/Inc/stm32g4xx_ll_hrtim.h **** #define LL_HRTIM_FLT_SRC_EEVINPUT             HRTIM_FLTINR2_FLT1SRC_1    /*!< Fault input is extern
1785:Drivers/STM32G4xx_HAL_Driver/Inc/stm32g4xx_ll_hrtim.h **** /**
1786:Drivers/STM32G4xx_HAL_Driver/Inc/stm32g4xx_ll_hrtim.h ****   * @}
1787:Drivers/STM32G4xx_HAL_Driver/Inc/stm32g4xx_ll_hrtim.h ****   */
1788:Drivers/STM32G4xx_HAL_Driver/Inc/stm32g4xx_ll_hrtim.h **** 
1789:Drivers/STM32G4xx_HAL_Driver/Inc/stm32g4xx_ll_hrtim.h **** /** @defgroup HRTIM_LL_EC_FLT_POLARITY FAULT POLARITY
1790:Drivers/STM32G4xx_HAL_Driver/Inc/stm32g4xx_ll_hrtim.h ****   * @{
1791:Drivers/STM32G4xx_HAL_Driver/Inc/stm32g4xx_ll_hrtim.h ****   * @brief Constants defining the polarity of a fault event.
1792:Drivers/STM32G4xx_HAL_Driver/Inc/stm32g4xx_ll_hrtim.h ****   */
1793:Drivers/STM32G4xx_HAL_Driver/Inc/stm32g4xx_ll_hrtim.h **** #define LL_HRTIM_FLT_POLARITY_LOW     0x00000000U                /*!< Fault input is active low */
1794:Drivers/STM32G4xx_HAL_Driver/Inc/stm32g4xx_ll_hrtim.h **** #define LL_HRTIM_FLT_POLARITY_HIGH    (HRTIM_FLTINR1_FLT1P)      /*!< Fault input is active high */
ARM GAS  D:\apps\VSCode\data\tmp\ccNKRXCB.s 			page 34


1795:Drivers/STM32G4xx_HAL_Driver/Inc/stm32g4xx_ll_hrtim.h **** /**
1796:Drivers/STM32G4xx_HAL_Driver/Inc/stm32g4xx_ll_hrtim.h ****   * @}
1797:Drivers/STM32G4xx_HAL_Driver/Inc/stm32g4xx_ll_hrtim.h ****   */
1798:Drivers/STM32G4xx_HAL_Driver/Inc/stm32g4xx_ll_hrtim.h **** 
1799:Drivers/STM32G4xx_HAL_Driver/Inc/stm32g4xx_ll_hrtim.h **** /** @defgroup HRTIM_LL_EC_FLT_FILTER FAULT DIGITAL FILTER
1800:Drivers/STM32G4xx_HAL_Driver/Inc/stm32g4xx_ll_hrtim.h ****   * @{
1801:Drivers/STM32G4xx_HAL_Driver/Inc/stm32g4xx_ll_hrtim.h ****   * @brief Constants defining the frequency used to sample the fault input (fSAMPLING) and the leng
1802:Drivers/STM32G4xx_HAL_Driver/Inc/stm32g4xx_ll_hrtim.h ****   */
1803:Drivers/STM32G4xx_HAL_Driver/Inc/stm32g4xx_ll_hrtim.h **** #define LL_HRTIM_FLT_FILTER_NONE      0x00000000U                                                  
1804:Drivers/STM32G4xx_HAL_Driver/Inc/stm32g4xx_ll_hrtim.h **** #define LL_HRTIM_FLT_FILTER_1         (HRTIM_FLTINR1_FLT1F_0)                                      
1805:Drivers/STM32G4xx_HAL_Driver/Inc/stm32g4xx_ll_hrtim.h **** #define LL_HRTIM_FLT_FILTER_2         (HRTIM_FLTINR1_FLT1F_1)                                      
1806:Drivers/STM32G4xx_HAL_Driver/Inc/stm32g4xx_ll_hrtim.h **** #define LL_HRTIM_FLT_FILTER_3         (HRTIM_FLTINR1_FLT1F_1 | HRTIM_FLTINR1_FLT1F_0)              
1807:Drivers/STM32G4xx_HAL_Driver/Inc/stm32g4xx_ll_hrtim.h **** #define LL_HRTIM_FLT_FILTER_4         (HRTIM_FLTINR1_FLT1F_2)                                      
1808:Drivers/STM32G4xx_HAL_Driver/Inc/stm32g4xx_ll_hrtim.h **** #define LL_HRTIM_FLT_FILTER_5         (HRTIM_FLTINR1_FLT1F_2 | HRTIM_FLTINR1_FLT1F_0)              
1809:Drivers/STM32G4xx_HAL_Driver/Inc/stm32g4xx_ll_hrtim.h **** #define LL_HRTIM_FLT_FILTER_6         (HRTIM_FLTINR1_FLT1F_2 | HRTIM_FLTINR1_FLT1F_1)              
1810:Drivers/STM32G4xx_HAL_Driver/Inc/stm32g4xx_ll_hrtim.h **** #define LL_HRTIM_FLT_FILTER_7         (HRTIM_FLTINR1_FLT1F_2 | HRTIM_FLTINR1_FLT1F_1 | HRTIM_FLTINR
1811:Drivers/STM32G4xx_HAL_Driver/Inc/stm32g4xx_ll_hrtim.h **** #define LL_HRTIM_FLT_FILTER_8         (HRTIM_FLTINR1_FLT1F_3)                                      
1812:Drivers/STM32G4xx_HAL_Driver/Inc/stm32g4xx_ll_hrtim.h **** #define LL_HRTIM_FLT_FILTER_9         (HRTIM_FLTINR1_FLT1F_3 | HRTIM_FLTINR1_FLT1F_0)              
1813:Drivers/STM32G4xx_HAL_Driver/Inc/stm32g4xx_ll_hrtim.h **** #define LL_HRTIM_FLT_FILTER_10        (HRTIM_FLTINR1_FLT1F_3 | HRTIM_FLTINR1_FLT1F_1)              
1814:Drivers/STM32G4xx_HAL_Driver/Inc/stm32g4xx_ll_hrtim.h **** #define LL_HRTIM_FLT_FILTER_11        (HRTIM_FLTINR1_FLT1F_3 | HRTIM_FLTINR1_FLT1F_1 | HRTIM_FLTINR
1815:Drivers/STM32G4xx_HAL_Driver/Inc/stm32g4xx_ll_hrtim.h **** #define LL_HRTIM_FLT_FILTER_12        (HRTIM_FLTINR1_FLT1F_3 | HRTIM_FLTINR1_FLT1F_2)              
1816:Drivers/STM32G4xx_HAL_Driver/Inc/stm32g4xx_ll_hrtim.h **** #define LL_HRTIM_FLT_FILTER_13        (HRTIM_FLTINR1_FLT1F_3 | HRTIM_FLTINR1_FLT1F_2 | HRTIM_FLTINR
1817:Drivers/STM32G4xx_HAL_Driver/Inc/stm32g4xx_ll_hrtim.h **** #define LL_HRTIM_FLT_FILTER_14        (HRTIM_FLTINR1_FLT1F_3 | HRTIM_FLTINR1_FLT1F_2 | HRTIM_FLTINR
1818:Drivers/STM32G4xx_HAL_Driver/Inc/stm32g4xx_ll_hrtim.h **** #define LL_HRTIM_FLT_FILTER_15        (HRTIM_FLTINR1_FLT1F_3 | HRTIM_FLTINR1_FLT1F_2 | HRTIM_FLTINR
1819:Drivers/STM32G4xx_HAL_Driver/Inc/stm32g4xx_ll_hrtim.h **** /**
1820:Drivers/STM32G4xx_HAL_Driver/Inc/stm32g4xx_ll_hrtim.h ****   * @}
1821:Drivers/STM32G4xx_HAL_Driver/Inc/stm32g4xx_ll_hrtim.h ****   */
1822:Drivers/STM32G4xx_HAL_Driver/Inc/stm32g4xx_ll_hrtim.h **** 
1823:Drivers/STM32G4xx_HAL_Driver/Inc/stm32g4xx_ll_hrtim.h **** /** @defgroup HRTIM_LL_EC_FLT_PRESCALER BURST FAULT PRESCALER
1824:Drivers/STM32G4xx_HAL_Driver/Inc/stm32g4xx_ll_hrtim.h ****   * @{
1825:Drivers/STM32G4xx_HAL_Driver/Inc/stm32g4xx_ll_hrtim.h ****   * @brief Constants defining the division ratio between the timer clock frequency (fHRTIM) and the
1826:Drivers/STM32G4xx_HAL_Driver/Inc/stm32g4xx_ll_hrtim.h ****   */
1827:Drivers/STM32G4xx_HAL_Driver/Inc/stm32g4xx_ll_hrtim.h **** #define LL_HRTIM_FLT_PRESCALER_DIV1    0x00000000U                                     /*!< fFLTS =
1828:Drivers/STM32G4xx_HAL_Driver/Inc/stm32g4xx_ll_hrtim.h **** #define LL_HRTIM_FLT_PRESCALER_DIV2    (HRTIM_FLTINR2_FLTSD_0)                         /*!< fFLTS =
1829:Drivers/STM32G4xx_HAL_Driver/Inc/stm32g4xx_ll_hrtim.h **** #define LL_HRTIM_FLT_PRESCALER_DIV4    (HRTIM_FLTINR2_FLTSD_1)                         /*!< fFLTS =
1830:Drivers/STM32G4xx_HAL_Driver/Inc/stm32g4xx_ll_hrtim.h **** #define LL_HRTIM_FLT_PRESCALER_DIV8    (HRTIM_FLTINR2_FLTSD_1 | HRTIM_FLTINR2_FLTSD_0) /*!< fFLTS =
1831:Drivers/STM32G4xx_HAL_Driver/Inc/stm32g4xx_ll_hrtim.h **** /**
1832:Drivers/STM32G4xx_HAL_Driver/Inc/stm32g4xx_ll_hrtim.h ****   * @}
1833:Drivers/STM32G4xx_HAL_Driver/Inc/stm32g4xx_ll_hrtim.h ****   */
1834:Drivers/STM32G4xx_HAL_Driver/Inc/stm32g4xx_ll_hrtim.h **** 
1835:Drivers/STM32G4xx_HAL_Driver/Inc/stm32g4xx_ll_hrtim.h **** /** @defgroup HRTIM_LL_EC_FLT_BLKS FAULT BLANKING Source
1836:Drivers/STM32G4xx_HAL_Driver/Inc/stm32g4xx_ll_hrtim.h ****   * @{
1837:Drivers/STM32G4xx_HAL_Driver/Inc/stm32g4xx_ll_hrtim.h ****   * @brief Constants defining the Blanking Source of a fault event.
1838:Drivers/STM32G4xx_HAL_Driver/Inc/stm32g4xx_ll_hrtim.h ****   */
1839:Drivers/STM32G4xx_HAL_Driver/Inc/stm32g4xx_ll_hrtim.h **** #define LL_HRTIM_FLT_BLANKING_RSTALIGNED            0x00000000U                /*!< Fault blanking 
1840:Drivers/STM32G4xx_HAL_Driver/Inc/stm32g4xx_ll_hrtim.h **** #define LL_HRTIM_FLT_BLANKING_MOVING                (HRTIM_FLTINR3_FLT1BLKS)   /*!< Fault blanking 
1841:Drivers/STM32G4xx_HAL_Driver/Inc/stm32g4xx_ll_hrtim.h **** /**
1842:Drivers/STM32G4xx_HAL_Driver/Inc/stm32g4xx_ll_hrtim.h ****   * @}
1843:Drivers/STM32G4xx_HAL_Driver/Inc/stm32g4xx_ll_hrtim.h ****   */
1844:Drivers/STM32G4xx_HAL_Driver/Inc/stm32g4xx_ll_hrtim.h **** 
1845:Drivers/STM32G4xx_HAL_Driver/Inc/stm32g4xx_ll_hrtim.h **** /** @defgroup HRTIM_LL_EC_FLT_RSTM FAULT Counter RESET Mode
1846:Drivers/STM32G4xx_HAL_Driver/Inc/stm32g4xx_ll_hrtim.h ****   * @{
1847:Drivers/STM32G4xx_HAL_Driver/Inc/stm32g4xx_ll_hrtim.h ****   * @brief Constants defining the Counter RESet Mode of a fault event.
1848:Drivers/STM32G4xx_HAL_Driver/Inc/stm32g4xx_ll_hrtim.h ****   */
1849:Drivers/STM32G4xx_HAL_Driver/Inc/stm32g4xx_ll_hrtim.h **** #define LL_HRTIM_FLT_COUNTERRST_UNCONDITIONAL    0x00000000U                    /*!< Fault counter 
1850:Drivers/STM32G4xx_HAL_Driver/Inc/stm32g4xx_ll_hrtim.h **** #define LL_HRTIM_FLT_COUNTERRST_CONDITIONAL      (HRTIM_FLTINR3_FLT1RSTM)       /*!< Fault counter 
1851:Drivers/STM32G4xx_HAL_Driver/Inc/stm32g4xx_ll_hrtim.h **** period. */
ARM GAS  D:\apps\VSCode\data\tmp\ccNKRXCB.s 			page 35


1852:Drivers/STM32G4xx_HAL_Driver/Inc/stm32g4xx_ll_hrtim.h **** /**
1853:Drivers/STM32G4xx_HAL_Driver/Inc/stm32g4xx_ll_hrtim.h ****   * @}
1854:Drivers/STM32G4xx_HAL_Driver/Inc/stm32g4xx_ll_hrtim.h ****   */
1855:Drivers/STM32G4xx_HAL_Driver/Inc/stm32g4xx_ll_hrtim.h **** 
1856:Drivers/STM32G4xx_HAL_Driver/Inc/stm32g4xx_ll_hrtim.h **** /** @defgroup HRTIM_LL_EC_BM_MODE BURST MODE OPERATING MODE
1857:Drivers/STM32G4xx_HAL_Driver/Inc/stm32g4xx_ll_hrtim.h ****   * @{
1858:Drivers/STM32G4xx_HAL_Driver/Inc/stm32g4xx_ll_hrtim.h ****   * @brief Constants defining if the burst mode is entered once or if it is continuously operating.
1859:Drivers/STM32G4xx_HAL_Driver/Inc/stm32g4xx_ll_hrtim.h ****   */
1860:Drivers/STM32G4xx_HAL_Driver/Inc/stm32g4xx_ll_hrtim.h **** #define LL_HRTIM_BM_MODE_SINGLESHOT  0x00000000U            /*!< Burst mode operates in single shot
1861:Drivers/STM32G4xx_HAL_Driver/Inc/stm32g4xx_ll_hrtim.h **** #define LL_HRTIM_BM_MODE_CONTINOUS   (HRTIM_BMCR_BMOM)      /*!< Burst mode operates in continuous 
1862:Drivers/STM32G4xx_HAL_Driver/Inc/stm32g4xx_ll_hrtim.h **** /**
1863:Drivers/STM32G4xx_HAL_Driver/Inc/stm32g4xx_ll_hrtim.h ****   * @}
1864:Drivers/STM32G4xx_HAL_Driver/Inc/stm32g4xx_ll_hrtim.h ****   */
1865:Drivers/STM32G4xx_HAL_Driver/Inc/stm32g4xx_ll_hrtim.h **** 
1866:Drivers/STM32G4xx_HAL_Driver/Inc/stm32g4xx_ll_hrtim.h **** /** @defgroup HRTIM_LL_EC_BM_CLKSRC BURST MODE CLOCK SOURCE
1867:Drivers/STM32G4xx_HAL_Driver/Inc/stm32g4xx_ll_hrtim.h ****   * @{
1868:Drivers/STM32G4xx_HAL_Driver/Inc/stm32g4xx_ll_hrtim.h ****   * @brief Constants defining the clock source for the burst mode counter.
1869:Drivers/STM32G4xx_HAL_Driver/Inc/stm32g4xx_ll_hrtim.h ****   */
1870:Drivers/STM32G4xx_HAL_Driver/Inc/stm32g4xx_ll_hrtim.h **** #define LL_HRTIM_BM_CLKSRC_MASTER     0x00000000U                                         /*!< Mast
1871:Drivers/STM32G4xx_HAL_Driver/Inc/stm32g4xx_ll_hrtim.h **** #define LL_HRTIM_BM_CLKSRC_TIMER_A    (HRTIM_BMCR_BMCLK_0)                                         
1872:Drivers/STM32G4xx_HAL_Driver/Inc/stm32g4xx_ll_hrtim.h **** #define LL_HRTIM_BM_CLKSRC_TIMER_B    (HRTIM_BMCR_BMCLK_1)                                         
1873:Drivers/STM32G4xx_HAL_Driver/Inc/stm32g4xx_ll_hrtim.h **** #define LL_HRTIM_BM_CLKSRC_TIMER_C    (HRTIM_BMCR_BMCLK_1 | HRTIM_BMCR_BMCLK_0)                    
1874:Drivers/STM32G4xx_HAL_Driver/Inc/stm32g4xx_ll_hrtim.h **** #define LL_HRTIM_BM_CLKSRC_TIMER_D    (HRTIM_BMCR_BMCLK_2)                                         
1875:Drivers/STM32G4xx_HAL_Driver/Inc/stm32g4xx_ll_hrtim.h **** #define LL_HRTIM_BM_CLKSRC_TIMER_E    (HRTIM_BMCR_BMCLK_2 | HRTIM_BMCR_BMCLK_0)                    
1876:Drivers/STM32G4xx_HAL_Driver/Inc/stm32g4xx_ll_hrtim.h **** #define LL_HRTIM_BM_CLKSRC_TIMER_F    (HRTIM_BMCR_BMCLK_3 | HRTIM_BMCR_BMCLK_1 | HRTIM_BMCR_BMCLK_0
1877:Drivers/STM32G4xx_HAL_Driver/Inc/stm32g4xx_ll_hrtim.h **** #define LL_HRTIM_BM_CLKSRC_TIM16_OC   (HRTIM_BMCR_BMCLK_2 | HRTIM_BMCR_BMCLK_1)                    
1878:Drivers/STM32G4xx_HAL_Driver/Inc/stm32g4xx_ll_hrtim.h **** #define LL_HRTIM_BM_CLKSRC_TIM17_OC   (HRTIM_BMCR_BMCLK_2 | HRTIM_BMCR_BMCLK_1 | HRTIM_BMCR_BMCLK_0
1879:Drivers/STM32G4xx_HAL_Driver/Inc/stm32g4xx_ll_hrtim.h **** #define LL_HRTIM_BM_CLKSRC_TIM7_TRGO  (HRTIM_BMCR_BMCLK_3)                                         
1880:Drivers/STM32G4xx_HAL_Driver/Inc/stm32g4xx_ll_hrtim.h **** #define LL_HRTIM_BM_CLKSRC_FHRTIM     (HRTIM_BMCR_BMCLK_3 | HRTIM_BMCR_BMCLK_1)                    
1881:Drivers/STM32G4xx_HAL_Driver/Inc/stm32g4xx_ll_hrtim.h **** /**
1882:Drivers/STM32G4xx_HAL_Driver/Inc/stm32g4xx_ll_hrtim.h ****   * @}
1883:Drivers/STM32G4xx_HAL_Driver/Inc/stm32g4xx_ll_hrtim.h ****   */
1884:Drivers/STM32G4xx_HAL_Driver/Inc/stm32g4xx_ll_hrtim.h **** 
1885:Drivers/STM32G4xx_HAL_Driver/Inc/stm32g4xx_ll_hrtim.h **** /** @defgroup HRTIM_LL_EC_BM_PRESCALER BURST MODE PRESCALER
1886:Drivers/STM32G4xx_HAL_Driver/Inc/stm32g4xx_ll_hrtim.h ****   * @{
1887:Drivers/STM32G4xx_HAL_Driver/Inc/stm32g4xx_ll_hrtim.h ****   * @brief Constants defining the prescaling ratio of the fHRTIM clock for the burst mode controlle
1888:Drivers/STM32G4xx_HAL_Driver/Inc/stm32g4xx_ll_hrtim.h ****   */
1889:Drivers/STM32G4xx_HAL_Driver/Inc/stm32g4xx_ll_hrtim.h **** #define LL_HRTIM_BM_PRESCALER_DIV1     0x00000000U                                                 
1890:Drivers/STM32G4xx_HAL_Driver/Inc/stm32g4xx_ll_hrtim.h **** #define LL_HRTIM_BM_PRESCALER_DIV2     (HRTIM_BMCR_BMPRSC_0)                                       
1891:Drivers/STM32G4xx_HAL_Driver/Inc/stm32g4xx_ll_hrtim.h **** #define LL_HRTIM_BM_PRESCALER_DIV4     (HRTIM_BMCR_BMPRSC_1)                                       
1892:Drivers/STM32G4xx_HAL_Driver/Inc/stm32g4xx_ll_hrtim.h **** #define LL_HRTIM_BM_PRESCALER_DIV8     (HRTIM_BMCR_BMPRSC_1 | HRTIM_BMCR_BMPRSC_0)                 
1893:Drivers/STM32G4xx_HAL_Driver/Inc/stm32g4xx_ll_hrtim.h **** #define LL_HRTIM_BM_PRESCALER_DIV16    (HRTIM_BMCR_BMPRSC_2)                                       
1894:Drivers/STM32G4xx_HAL_Driver/Inc/stm32g4xx_ll_hrtim.h **** #define LL_HRTIM_BM_PRESCALER_DIV32    (HRTIM_BMCR_BMPRSC_2 | HRTIM_BMCR_BMPRSC_0)                 
1895:Drivers/STM32G4xx_HAL_Driver/Inc/stm32g4xx_ll_hrtim.h **** #define LL_HRTIM_BM_PRESCALER_DIV64    (HRTIM_BMCR_BMPRSC_2 | HRTIM_BMCR_BMPRSC_1)                 
1896:Drivers/STM32G4xx_HAL_Driver/Inc/stm32g4xx_ll_hrtim.h **** #define LL_HRTIM_BM_PRESCALER_DIV128   (HRTIM_BMCR_BMPRSC_2 | HRTIM_BMCR_BMPRSC_1 | HRTIM_BMCR_BMPR
1897:Drivers/STM32G4xx_HAL_Driver/Inc/stm32g4xx_ll_hrtim.h **** #define LL_HRTIM_BM_PRESCALER_DIV256   (HRTIM_BMCR_BMPRSC_3)                                       
1898:Drivers/STM32G4xx_HAL_Driver/Inc/stm32g4xx_ll_hrtim.h **** #define LL_HRTIM_BM_PRESCALER_DIV512   (HRTIM_BMCR_BMPRSC_3 | HRTIM_BMCR_BMPRSC_0)                 
1899:Drivers/STM32G4xx_HAL_Driver/Inc/stm32g4xx_ll_hrtim.h **** #define LL_HRTIM_BM_PRESCALER_DIV1024  (HRTIM_BMCR_BMPRSC_3 | HRTIM_BMCR_BMPRSC_1)                 
1900:Drivers/STM32G4xx_HAL_Driver/Inc/stm32g4xx_ll_hrtim.h **** #define LL_HRTIM_BM_PRESCALER_DIV2048  (HRTIM_BMCR_BMPRSC_3 | HRTIM_BMCR_BMPRSC_1 | HRTIM_BMCR_BMPR
1901:Drivers/STM32G4xx_HAL_Driver/Inc/stm32g4xx_ll_hrtim.h **** #define LL_HRTIM_BM_PRESCALER_DIV4096  (HRTIM_BMCR_BMPRSC_3 | HRTIM_BMCR_BMPRSC_2)                 
1902:Drivers/STM32G4xx_HAL_Driver/Inc/stm32g4xx_ll_hrtim.h **** #define LL_HRTIM_BM_PRESCALER_DIV8192  (HRTIM_BMCR_BMPRSC_3 | HRTIM_BMCR_BMPRSC_2 | HRTIM_BMCR_BMPR
1903:Drivers/STM32G4xx_HAL_Driver/Inc/stm32g4xx_ll_hrtim.h **** #define LL_HRTIM_BM_PRESCALER_DIV16384 (HRTIM_BMCR_BMPRSC_3 | HRTIM_BMCR_BMPRSC_2 | HRTIM_BMCR_BMPR
1904:Drivers/STM32G4xx_HAL_Driver/Inc/stm32g4xx_ll_hrtim.h **** #define LL_HRTIM_BM_PRESCALER_DIV32768 (HRTIM_BMCR_BMPRSC_3 | HRTIM_BMCR_BMPRSC_2 | HRTIM_BMCR_BMPR
1905:Drivers/STM32G4xx_HAL_Driver/Inc/stm32g4xx_ll_hrtim.h **** /**
1906:Drivers/STM32G4xx_HAL_Driver/Inc/stm32g4xx_ll_hrtim.h ****   * @}
1907:Drivers/STM32G4xx_HAL_Driver/Inc/stm32g4xx_ll_hrtim.h ****   */
1908:Drivers/STM32G4xx_HAL_Driver/Inc/stm32g4xx_ll_hrtim.h **** 
ARM GAS  D:\apps\VSCode\data\tmp\ccNKRXCB.s 			page 36


1909:Drivers/STM32G4xx_HAL_Driver/Inc/stm32g4xx_ll_hrtim.h **** /** @defgroup HRTIM_LL_EC_BM_TRIG HRTIM BURST MODE TRIGGER
1910:Drivers/STM32G4xx_HAL_Driver/Inc/stm32g4xx_ll_hrtim.h ****   * @{
1911:Drivers/STM32G4xx_HAL_Driver/Inc/stm32g4xx_ll_hrtim.h ****   * @brief Constants defining the events that can be used to trig the burst mode operation.
1912:Drivers/STM32G4xx_HAL_Driver/Inc/stm32g4xx_ll_hrtim.h ****   */
1913:Drivers/STM32G4xx_HAL_Driver/Inc/stm32g4xx_ll_hrtim.h **** #define LL_HRTIM_BM_TRIG_NONE               0x00000000U             /*!<  No trigger */
1914:Drivers/STM32G4xx_HAL_Driver/Inc/stm32g4xx_ll_hrtim.h **** #define LL_HRTIM_BM_TRIG_MASTER_RESET       (HRTIM_BMTRGR_MSTRST)   /*!<  Master timer reset event 
1915:Drivers/STM32G4xx_HAL_Driver/Inc/stm32g4xx_ll_hrtim.h **** #define LL_HRTIM_BM_TRIG_MASTER_REPETITION  (HRTIM_BMTRGR_MSTREP)   /*!<  Master timer repetition e
1916:Drivers/STM32G4xx_HAL_Driver/Inc/stm32g4xx_ll_hrtim.h **** #define LL_HRTIM_BM_TRIG_MASTER_CMP1        (HRTIM_BMTRGR_MSTCMP1)  /*!<  Master timer compare 1 ev
1917:Drivers/STM32G4xx_HAL_Driver/Inc/stm32g4xx_ll_hrtim.h **** #define LL_HRTIM_BM_TRIG_MASTER_CMP2        (HRTIM_BMTRGR_MSTCMP2)  /*!<  Master timer compare 2 ev
1918:Drivers/STM32G4xx_HAL_Driver/Inc/stm32g4xx_ll_hrtim.h **** #define LL_HRTIM_BM_TRIG_MASTER_CMP3        (HRTIM_BMTRGR_MSTCMP3)  /*!<  Master timer compare 3 ev
1919:Drivers/STM32G4xx_HAL_Driver/Inc/stm32g4xx_ll_hrtim.h **** #define LL_HRTIM_BM_TRIG_MASTER_CMP4        (HRTIM_BMTRGR_MSTCMP4)  /*!<  Master timer compare 4 ev
1920:Drivers/STM32G4xx_HAL_Driver/Inc/stm32g4xx_ll_hrtim.h **** #define LL_HRTIM_BM_TRIG_TIMA_RESET         (HRTIM_BMTRGR_TARST)    /*!< Timer A reset event is sta
1921:Drivers/STM32G4xx_HAL_Driver/Inc/stm32g4xx_ll_hrtim.h **** #define LL_HRTIM_BM_TRIG_TIMA_REPETITION    (HRTIM_BMTRGR_TAREP)    /*!< Timer A repetition event i
1922:Drivers/STM32G4xx_HAL_Driver/Inc/stm32g4xx_ll_hrtim.h **** #define LL_HRTIM_BM_TRIG_TIMA_CMP1          (HRTIM_BMTRGR_TACMP1)   /*!< Timer A compare 1 event is
1923:Drivers/STM32G4xx_HAL_Driver/Inc/stm32g4xx_ll_hrtim.h **** #define LL_HRTIM_BM_TRIG_TIMA_CMP2          (HRTIM_BMTRGR_TACMP2)   /*!< Timer A compare 2 event is
1924:Drivers/STM32G4xx_HAL_Driver/Inc/stm32g4xx_ll_hrtim.h **** #define LL_HRTIM_BM_TRIG_TIMB_RESET         (HRTIM_BMTRGR_TBRST)    /*!< Timer B reset event is sta
1925:Drivers/STM32G4xx_HAL_Driver/Inc/stm32g4xx_ll_hrtim.h **** #define LL_HRTIM_BM_TRIG_TIMB_REPETITION    (HRTIM_BMTRGR_TBREP)    /*!< Timer B repetition event i
1926:Drivers/STM32G4xx_HAL_Driver/Inc/stm32g4xx_ll_hrtim.h **** #define LL_HRTIM_BM_TRIG_TIMB_CMP1          (HRTIM_BMTRGR_TBCMP1)   /*!< Timer B compare 1 event is
1927:Drivers/STM32G4xx_HAL_Driver/Inc/stm32g4xx_ll_hrtim.h **** #define LL_HRTIM_BM_TRIG_TIMB_CMP2          (HRTIM_BMTRGR_TBCMP2)   /*!< Timer B compare 2 event is
1928:Drivers/STM32G4xx_HAL_Driver/Inc/stm32g4xx_ll_hrtim.h **** #define LL_HRTIM_BM_TRIG_TIMC_RESET         (HRTIM_BMTRGR_TCRST)    /*!< Timer C resetevent is star
1929:Drivers/STM32G4xx_HAL_Driver/Inc/stm32g4xx_ll_hrtim.h **** #define LL_HRTIM_BM_TRIG_TIMC_REPETITION    (HRTIM_BMTRGR_TCREP)    /*!< Timer C repetition event i
1930:Drivers/STM32G4xx_HAL_Driver/Inc/stm32g4xx_ll_hrtim.h **** #define LL_HRTIM_BM_TRIG_TIMC_CMP1          (HRTIM_BMTRGR_TCCMP1)   /*!< Timer C compare 1 event is
1931:Drivers/STM32G4xx_HAL_Driver/Inc/stm32g4xx_ll_hrtim.h **** #define LL_HRTIM_BM_TRIG_TIMC_CMP2          (HRTIM_BMTRGR_TCCMP2)   /*!< Timer C compare 2 event is
1932:Drivers/STM32G4xx_HAL_Driver/Inc/stm32g4xx_ll_hrtim.h **** #define LL_HRTIM_BM_TRIG_TIMD_RESET         (HRTIM_BMTRGR_TDRST)    /*!< Timer D reset event is sta
1933:Drivers/STM32G4xx_HAL_Driver/Inc/stm32g4xx_ll_hrtim.h **** #define LL_HRTIM_BM_TRIG_TIMD_REPETITION    (HRTIM_BMTRGR_TDREP)    /*!< Timer D repetition event i
1934:Drivers/STM32G4xx_HAL_Driver/Inc/stm32g4xx_ll_hrtim.h **** #define LL_HRTIM_BM_TRIG_TIMD_CMP1          (HRTIM_BMTRGR_TDCMP1)   /*!< Timer D compare 1 event is
1935:Drivers/STM32G4xx_HAL_Driver/Inc/stm32g4xx_ll_hrtim.h **** #define LL_HRTIM_BM_TRIG_TIMD_CMP2          (HRTIM_BMTRGR_TDCMP2)   /*!< Timer D compare 2 event is
1936:Drivers/STM32G4xx_HAL_Driver/Inc/stm32g4xx_ll_hrtim.h **** #define LL_HRTIM_BM_TRIG_TIME_RESET         (HRTIM_BMTRGR_TERST)    /*!< Timer E reset event is sta
1937:Drivers/STM32G4xx_HAL_Driver/Inc/stm32g4xx_ll_hrtim.h **** #define LL_HRTIM_BM_TRIG_TIME_REPETITION    (HRTIM_BMTRGR_TEREP)    /*!< Timer E repetition event i
1938:Drivers/STM32G4xx_HAL_Driver/Inc/stm32g4xx_ll_hrtim.h **** #define LL_HRTIM_BM_TRIG_TIME_CMP1          (HRTIM_BMTRGR_TECMP1)   /*!< Timer E compare 1 event is
1939:Drivers/STM32G4xx_HAL_Driver/Inc/stm32g4xx_ll_hrtim.h **** #define LL_HRTIM_BM_TRIG_TIME_CMP2          (HRTIM_BMTRGR_TECMP2)   /*!< Timer E compare 2 event is
1940:Drivers/STM32G4xx_HAL_Driver/Inc/stm32g4xx_ll_hrtim.h **** #define LL_HRTIM_BM_TRIG_TIMF_RESET         (HRTIM_BMTRGR_TFRST)    /*!< Timer F reset event is sta
1941:Drivers/STM32G4xx_HAL_Driver/Inc/stm32g4xx_ll_hrtim.h **** #define LL_HRTIM_BM_TRIG_TIMF_REPETITION    (HRTIM_BMTRGR_TFREP)    /*!< Timer F repetition event i
1942:Drivers/STM32G4xx_HAL_Driver/Inc/stm32g4xx_ll_hrtim.h **** #define LL_HRTIM_BM_TRIG_TIMF_CMP1          (HRTIM_BMTRGR_TFCMP1)   /*!< Timer F compare 1 event is
1943:Drivers/STM32G4xx_HAL_Driver/Inc/stm32g4xx_ll_hrtim.h **** #define LL_HRTIM_BM_TRIG_TIMF_CMP2          (HRTIM_BMTRGR_TFCMP2)   /*!< Timer F compare 2 event is
1944:Drivers/STM32G4xx_HAL_Driver/Inc/stm32g4xx_ll_hrtim.h **** #define LL_HRTIM_BM_TRIG_TIMA_EVENT7        (HRTIM_BMTRGR_TAEEV7)   /*!< Timer A period following a
1945:Drivers/STM32G4xx_HAL_Driver/Inc/stm32g4xx_ll_hrtim.h **** #define LL_HRTIM_BM_TRIG_TIMD_EVENT8        (HRTIM_BMTRGR_TDEEV8)   /*!< Timer D period following a
1946:Drivers/STM32G4xx_HAL_Driver/Inc/stm32g4xx_ll_hrtim.h **** #define LL_HRTIM_BM_TRIG_EVENT_7            (HRTIM_BMTRGR_EEV7)     /*!< External event 7 condition
1947:Drivers/STM32G4xx_HAL_Driver/Inc/stm32g4xx_ll_hrtim.h **** #define LL_HRTIM_BM_TRIG_EVENT_8            (HRTIM_BMTRGR_EEV8)     /*!< External event 8 condition
1948:Drivers/STM32G4xx_HAL_Driver/Inc/stm32g4xx_ll_hrtim.h **** #define LL_HRTIM_BM_TRIG_EVENT_ONCHIP       (HRTIM_BMTRGR_OCHPEV)   /*!< A rising edge on an on-chi
1949:Drivers/STM32G4xx_HAL_Driver/Inc/stm32g4xx_ll_hrtim.h **** /**
1950:Drivers/STM32G4xx_HAL_Driver/Inc/stm32g4xx_ll_hrtim.h ****   * @}
1951:Drivers/STM32G4xx_HAL_Driver/Inc/stm32g4xx_ll_hrtim.h ****   */
1952:Drivers/STM32G4xx_HAL_Driver/Inc/stm32g4xx_ll_hrtim.h **** 
1953:Drivers/STM32G4xx_HAL_Driver/Inc/stm32g4xx_ll_hrtim.h **** /** @defgroup HRTIM_LL_EC_BM_STATUS HRTIM BURST MODE STATUS
1954:Drivers/STM32G4xx_HAL_Driver/Inc/stm32g4xx_ll_hrtim.h ****   * @{
1955:Drivers/STM32G4xx_HAL_Driver/Inc/stm32g4xx_ll_hrtim.h ****   * @brief Constants defining the operating state of the burst mode controller.
1956:Drivers/STM32G4xx_HAL_Driver/Inc/stm32g4xx_ll_hrtim.h ****   */
1957:Drivers/STM32G4xx_HAL_Driver/Inc/stm32g4xx_ll_hrtim.h **** #define LL_HRTIM_BM_STATUS_NORMAL             0x00000000U           /*!< Normal operation */
1958:Drivers/STM32G4xx_HAL_Driver/Inc/stm32g4xx_ll_hrtim.h **** #define LL_HRTIM_BM_STATUS_BURST_ONGOING      HRTIM_BMCR_BMSTAT     /*!< Burst operation on-going *
1959:Drivers/STM32G4xx_HAL_Driver/Inc/stm32g4xx_ll_hrtim.h **** /**
1960:Drivers/STM32G4xx_HAL_Driver/Inc/stm32g4xx_ll_hrtim.h ****   * @}
1961:Drivers/STM32G4xx_HAL_Driver/Inc/stm32g4xx_ll_hrtim.h ****   */
1962:Drivers/STM32G4xx_HAL_Driver/Inc/stm32g4xx_ll_hrtim.h **** 
1963:Drivers/STM32G4xx_HAL_Driver/Inc/stm32g4xx_ll_hrtim.h **** /** @defgroup HRTIM_LL_COUNTER_MODE Counter Mode
1964:Drivers/STM32G4xx_HAL_Driver/Inc/stm32g4xx_ll_hrtim.h ****   * @{
1965:Drivers/STM32G4xx_HAL_Driver/Inc/stm32g4xx_ll_hrtim.h ****   * @brief Constants defining the Counter Up Down Mode.
ARM GAS  D:\apps\VSCode\data\tmp\ccNKRXCB.s 			page 37


1966:Drivers/STM32G4xx_HAL_Driver/Inc/stm32g4xx_ll_hrtim.h ****   */
1967:Drivers/STM32G4xx_HAL_Driver/Inc/stm32g4xx_ll_hrtim.h **** #define LL_HRTIM_COUNTING_MODE_UP                    0x00000000U           /*!< counter is operatin
1968:Drivers/STM32G4xx_HAL_Driver/Inc/stm32g4xx_ll_hrtim.h **** #define LL_HRTIM_COUNTING_MODE_UP_DOWN               HRTIM_TIMCR2_UDM      /*!< counter is operatin
1969:Drivers/STM32G4xx_HAL_Driver/Inc/stm32g4xx_ll_hrtim.h **** /**
1970:Drivers/STM32G4xx_HAL_Driver/Inc/stm32g4xx_ll_hrtim.h ****   * @}
1971:Drivers/STM32G4xx_HAL_Driver/Inc/stm32g4xx_ll_hrtim.h ****   */
1972:Drivers/STM32G4xx_HAL_Driver/Inc/stm32g4xx_ll_hrtim.h **** 
1973:Drivers/STM32G4xx_HAL_Driver/Inc/stm32g4xx_ll_hrtim.h **** /** @defgroup HRTIM_LL_COUNTER_Roll-Over counter Mode
1974:Drivers/STM32G4xx_HAL_Driver/Inc/stm32g4xx_ll_hrtim.h ****   * @{
1975:Drivers/STM32G4xx_HAL_Driver/Inc/stm32g4xx_ll_hrtim.h ****   * @brief Constants defining the Roll-Over counter Mode.
1976:Drivers/STM32G4xx_HAL_Driver/Inc/stm32g4xx_ll_hrtim.h ****   */
1977:Drivers/STM32G4xx_HAL_Driver/Inc/stm32g4xx_ll_hrtim.h **** #define LL_HRTIM_ROLLOVER_MODE_PER            2U                        /*!< Event generated when c
1978:Drivers/STM32G4xx_HAL_Driver/Inc/stm32g4xx_ll_hrtim.h **** #define LL_HRTIM_ROLLOVER_MODE_RST            1U                        /*!< Event generated when c
1979:Drivers/STM32G4xx_HAL_Driver/Inc/stm32g4xx_ll_hrtim.h **** #define LL_HRTIM_ROLLOVER_MODE_BOTH           0U                        /*!< Event generated when c
1980:Drivers/STM32G4xx_HAL_Driver/Inc/stm32g4xx_ll_hrtim.h **** /**
1981:Drivers/STM32G4xx_HAL_Driver/Inc/stm32g4xx_ll_hrtim.h ****   * @}
1982:Drivers/STM32G4xx_HAL_Driver/Inc/stm32g4xx_ll_hrtim.h ****   */
1983:Drivers/STM32G4xx_HAL_Driver/Inc/stm32g4xx_ll_hrtim.h **** 
1984:Drivers/STM32G4xx_HAL_Driver/Inc/stm32g4xx_ll_hrtim.h **** /** @defgroup HRTIM_Timer_TrigHalf_Mode HRTIM Timer Triggered-Half Mode
1985:Drivers/STM32G4xx_HAL_Driver/Inc/stm32g4xx_ll_hrtim.h ****   * @{
1986:Drivers/STM32G4xx_HAL_Driver/Inc/stm32g4xx_ll_hrtim.h ****   * @brief Constants defining how the timer counter operates.
1987:Drivers/STM32G4xx_HAL_Driver/Inc/stm32g4xx_ll_hrtim.h ****   */
1988:Drivers/STM32G4xx_HAL_Driver/Inc/stm32g4xx_ll_hrtim.h **** #define LL_HRTIM_TRIGHALF_DISABLED        0x00000000U            /*!< Timer Compare 2 register is b
1989:Drivers/STM32G4xx_HAL_Driver/Inc/stm32g4xx_ll_hrtim.h **** #define LL_HRTIM_TRIGHALF_ENABLED         HRTIM_TIMCR2_TRGHLF    /*!< Timer Compare 2 register is b
1990:Drivers/STM32G4xx_HAL_Driver/Inc/stm32g4xx_ll_hrtim.h **** /**
1991:Drivers/STM32G4xx_HAL_Driver/Inc/stm32g4xx_ll_hrtim.h ****   * @}
1992:Drivers/STM32G4xx_HAL_Driver/Inc/stm32g4xx_ll_hrtim.h ****   */
1993:Drivers/STM32G4xx_HAL_Driver/Inc/stm32g4xx_ll_hrtim.h **** 
1994:Drivers/STM32G4xx_HAL_Driver/Inc/stm32g4xx_ll_hrtim.h **** /** @defgroup HRTIM_LL_COUNTER_Compare Greater than compare PWM Mode
1995:Drivers/STM32G4xx_HAL_Driver/Inc/stm32g4xx_ll_hrtim.h ****   * @{
1996:Drivers/STM32G4xx_HAL_Driver/Inc/stm32g4xx_ll_hrtim.h ****   * @brief Constants defining the greater than compare 1 or 3 PWM Mode.
1997:Drivers/STM32G4xx_HAL_Driver/Inc/stm32g4xx_ll_hrtim.h ****   */
1998:Drivers/STM32G4xx_HAL_Driver/Inc/stm32g4xx_ll_hrtim.h **** #define LL_HRTIM_GTCMP1_EQUAL             0x00000000U            /*!< event is generated when count
1999:Drivers/STM32G4xx_HAL_Driver/Inc/stm32g4xx_ll_hrtim.h **** #define LL_HRTIM_GTCMP1_GREATER           HRTIM_TIMCR2_GTCMP1    /*!< event is generated when count
