ARM GAS  D:\apps\VSCode\data\tmp\cclbo69C.s 			page 1


   1              		.cpu cortex-m4
   2              		.eabi_attribute 27, 1
   3              		.eabi_attribute 28, 1
   4              		.eabi_attribute 20, 1
   5              		.eabi_attribute 21, 1
   6              		.eabi_attribute 23, 3
   7              		.eabi_attribute 24, 1
   8              		.eabi_attribute 25, 1
   9              		.eabi_attribute 26, 1
  10              		.eabi_attribute 30, 1
  11              		.eabi_attribute 34, 1
  12              		.eabi_attribute 18, 4
  13              		.file	"stm32g4xx_ll_exti.c"
  14              		.text
  15              	.Ltext0:
  16              		.cfi_sections	.debug_frame
  17              		.section	.text.LL_EXTI_DeInit,"ax",%progbits
  18              		.align	1
  19              		.global	LL_EXTI_DeInit
  20              		.arch armv7e-m
  21              		.syntax unified
  22              		.thumb
  23              		.thumb_func
  24              		.fpu fpv4-sp-d16
  26              	LL_EXTI_DeInit:
  27              	.LFB162:
  28              		.file 1 "Drivers/STM32G4xx_HAL_Driver/Src/stm32g4xx_ll_exti.c"
   1:Drivers/STM32G4xx_HAL_Driver/Src/stm32g4xx_ll_exti.c **** /**
   2:Drivers/STM32G4xx_HAL_Driver/Src/stm32g4xx_ll_exti.c ****   ******************************************************************************
   3:Drivers/STM32G4xx_HAL_Driver/Src/stm32g4xx_ll_exti.c ****   * @file    stm32g4xx_ll_exti.c
   4:Drivers/STM32G4xx_HAL_Driver/Src/stm32g4xx_ll_exti.c ****   * @author  MCD Application Team
   5:Drivers/STM32G4xx_HAL_Driver/Src/stm32g4xx_ll_exti.c ****   * @brief   EXTI LL module driver.
   6:Drivers/STM32G4xx_HAL_Driver/Src/stm32g4xx_ll_exti.c ****   ******************************************************************************
   7:Drivers/STM32G4xx_HAL_Driver/Src/stm32g4xx_ll_exti.c ****   * @attention
   8:Drivers/STM32G4xx_HAL_Driver/Src/stm32g4xx_ll_exti.c ****   *
   9:Drivers/STM32G4xx_HAL_Driver/Src/stm32g4xx_ll_exti.c ****   * <h2><center>&copy; Copyright (c) 2019 STMicroelectronics.
  10:Drivers/STM32G4xx_HAL_Driver/Src/stm32g4xx_ll_exti.c ****   * All rights reserved.</center></h2>
  11:Drivers/STM32G4xx_HAL_Driver/Src/stm32g4xx_ll_exti.c ****   *
  12:Drivers/STM32G4xx_HAL_Driver/Src/stm32g4xx_ll_exti.c ****   * This software component is licensed by ST under BSD 3-Clause license,
  13:Drivers/STM32G4xx_HAL_Driver/Src/stm32g4xx_ll_exti.c ****   * the "License"; You may not use this file except in compliance with the
  14:Drivers/STM32G4xx_HAL_Driver/Src/stm32g4xx_ll_exti.c ****   * License. You may obtain a copy of the License at:
  15:Drivers/STM32G4xx_HAL_Driver/Src/stm32g4xx_ll_exti.c ****   *                        opensource.org/licenses/BSD-3-Clause
  16:Drivers/STM32G4xx_HAL_Driver/Src/stm32g4xx_ll_exti.c ****   *
  17:Drivers/STM32G4xx_HAL_Driver/Src/stm32g4xx_ll_exti.c ****   ******************************************************************************
  18:Drivers/STM32G4xx_HAL_Driver/Src/stm32g4xx_ll_exti.c ****   */
  19:Drivers/STM32G4xx_HAL_Driver/Src/stm32g4xx_ll_exti.c **** #if defined(USE_FULL_LL_DRIVER)
  20:Drivers/STM32G4xx_HAL_Driver/Src/stm32g4xx_ll_exti.c **** 
  21:Drivers/STM32G4xx_HAL_Driver/Src/stm32g4xx_ll_exti.c **** /* Includes ------------------------------------------------------------------*/
  22:Drivers/STM32G4xx_HAL_Driver/Src/stm32g4xx_ll_exti.c **** #include "stm32g4xx_ll_exti.h"
  23:Drivers/STM32G4xx_HAL_Driver/Src/stm32g4xx_ll_exti.c **** #ifdef  USE_FULL_ASSERT
  24:Drivers/STM32G4xx_HAL_Driver/Src/stm32g4xx_ll_exti.c **** #include "stm32_assert.h"
  25:Drivers/STM32G4xx_HAL_Driver/Src/stm32g4xx_ll_exti.c **** #else
  26:Drivers/STM32G4xx_HAL_Driver/Src/stm32g4xx_ll_exti.c **** #define assert_param(expr) ((void)0U)
  27:Drivers/STM32G4xx_HAL_Driver/Src/stm32g4xx_ll_exti.c **** #endif /* USE_FULL_ASSERT */
  28:Drivers/STM32G4xx_HAL_Driver/Src/stm32g4xx_ll_exti.c **** 
  29:Drivers/STM32G4xx_HAL_Driver/Src/stm32g4xx_ll_exti.c **** /** @addtogroup STM32G4xx_LL_Driver
  30:Drivers/STM32G4xx_HAL_Driver/Src/stm32g4xx_ll_exti.c ****   * @{
ARM GAS  D:\apps\VSCode\data\tmp\cclbo69C.s 			page 2


  31:Drivers/STM32G4xx_HAL_Driver/Src/stm32g4xx_ll_exti.c ****   */
  32:Drivers/STM32G4xx_HAL_Driver/Src/stm32g4xx_ll_exti.c **** 
  33:Drivers/STM32G4xx_HAL_Driver/Src/stm32g4xx_ll_exti.c **** #if defined (EXTI)
  34:Drivers/STM32G4xx_HAL_Driver/Src/stm32g4xx_ll_exti.c **** 
  35:Drivers/STM32G4xx_HAL_Driver/Src/stm32g4xx_ll_exti.c **** /** @defgroup EXTI_LL EXTI
  36:Drivers/STM32G4xx_HAL_Driver/Src/stm32g4xx_ll_exti.c ****   * @{
  37:Drivers/STM32G4xx_HAL_Driver/Src/stm32g4xx_ll_exti.c ****   */
  38:Drivers/STM32G4xx_HAL_Driver/Src/stm32g4xx_ll_exti.c **** 
  39:Drivers/STM32G4xx_HAL_Driver/Src/stm32g4xx_ll_exti.c **** /* Private types -------------------------------------------------------------*/
  40:Drivers/STM32G4xx_HAL_Driver/Src/stm32g4xx_ll_exti.c **** /* Private variables ---------------------------------------------------------*/
  41:Drivers/STM32G4xx_HAL_Driver/Src/stm32g4xx_ll_exti.c **** /* Private constants ---------------------------------------------------------*/
  42:Drivers/STM32G4xx_HAL_Driver/Src/stm32g4xx_ll_exti.c **** /* Private macros ------------------------------------------------------------*/
  43:Drivers/STM32G4xx_HAL_Driver/Src/stm32g4xx_ll_exti.c **** /** @addtogroup EXTI_LL_Private_Macros
  44:Drivers/STM32G4xx_HAL_Driver/Src/stm32g4xx_ll_exti.c ****   * @{
  45:Drivers/STM32G4xx_HAL_Driver/Src/stm32g4xx_ll_exti.c ****   */
  46:Drivers/STM32G4xx_HAL_Driver/Src/stm32g4xx_ll_exti.c **** 
  47:Drivers/STM32G4xx_HAL_Driver/Src/stm32g4xx_ll_exti.c **** #define IS_LL_EXTI_LINE_0_31(__VALUE__)              (((__VALUE__) & ~LL_EXTI_LINE_ALL_0_31) == 0x0
  48:Drivers/STM32G4xx_HAL_Driver/Src/stm32g4xx_ll_exti.c **** #define IS_LL_EXTI_LINE_32_63(__VALUE__)             (((__VALUE__) & ~LL_EXTI_LINE_ALL_32_63) == 0x
  49:Drivers/STM32G4xx_HAL_Driver/Src/stm32g4xx_ll_exti.c **** 
  50:Drivers/STM32G4xx_HAL_Driver/Src/stm32g4xx_ll_exti.c **** #define IS_LL_EXTI_MODE(__VALUE__)                   (((__VALUE__) == LL_EXTI_MODE_IT)            \
  51:Drivers/STM32G4xx_HAL_Driver/Src/stm32g4xx_ll_exti.c ****                                                       || ((__VALUE__) == LL_EXTI_MODE_EVENT)       
  52:Drivers/STM32G4xx_HAL_Driver/Src/stm32g4xx_ll_exti.c ****                                                       || ((__VALUE__) == LL_EXTI_MODE_IT_EVENT))
  53:Drivers/STM32G4xx_HAL_Driver/Src/stm32g4xx_ll_exti.c **** 
  54:Drivers/STM32G4xx_HAL_Driver/Src/stm32g4xx_ll_exti.c **** 
  55:Drivers/STM32G4xx_HAL_Driver/Src/stm32g4xx_ll_exti.c **** #define IS_LL_EXTI_TRIGGER(__VALUE__)                (((__VALUE__) == LL_EXTI_TRIGGER_NONE)       \
  56:Drivers/STM32G4xx_HAL_Driver/Src/stm32g4xx_ll_exti.c ****                                                       || ((__VALUE__) == LL_EXTI_TRIGGER_RISING)   
  57:Drivers/STM32G4xx_HAL_Driver/Src/stm32g4xx_ll_exti.c ****                                                       || ((__VALUE__) == LL_EXTI_TRIGGER_FALLING)  
  58:Drivers/STM32G4xx_HAL_Driver/Src/stm32g4xx_ll_exti.c ****                                                       || ((__VALUE__) == LL_EXTI_TRIGGER_RISING_FAL
  59:Drivers/STM32G4xx_HAL_Driver/Src/stm32g4xx_ll_exti.c **** 
  60:Drivers/STM32G4xx_HAL_Driver/Src/stm32g4xx_ll_exti.c **** /**
  61:Drivers/STM32G4xx_HAL_Driver/Src/stm32g4xx_ll_exti.c ****   * @}
  62:Drivers/STM32G4xx_HAL_Driver/Src/stm32g4xx_ll_exti.c ****   */
  63:Drivers/STM32G4xx_HAL_Driver/Src/stm32g4xx_ll_exti.c **** 
  64:Drivers/STM32G4xx_HAL_Driver/Src/stm32g4xx_ll_exti.c **** /* Private function prototypes -----------------------------------------------*/
  65:Drivers/STM32G4xx_HAL_Driver/Src/stm32g4xx_ll_exti.c **** 
  66:Drivers/STM32G4xx_HAL_Driver/Src/stm32g4xx_ll_exti.c **** /* Exported functions --------------------------------------------------------*/
  67:Drivers/STM32G4xx_HAL_Driver/Src/stm32g4xx_ll_exti.c **** /** @addtogroup EXTI_LL_Exported_Functions
  68:Drivers/STM32G4xx_HAL_Driver/Src/stm32g4xx_ll_exti.c ****   * @{
  69:Drivers/STM32G4xx_HAL_Driver/Src/stm32g4xx_ll_exti.c ****   */
  70:Drivers/STM32G4xx_HAL_Driver/Src/stm32g4xx_ll_exti.c **** 
  71:Drivers/STM32G4xx_HAL_Driver/Src/stm32g4xx_ll_exti.c **** /** @addtogroup EXTI_LL_EF_Init
  72:Drivers/STM32G4xx_HAL_Driver/Src/stm32g4xx_ll_exti.c ****   * @{
  73:Drivers/STM32G4xx_HAL_Driver/Src/stm32g4xx_ll_exti.c ****   */
  74:Drivers/STM32G4xx_HAL_Driver/Src/stm32g4xx_ll_exti.c **** 
  75:Drivers/STM32G4xx_HAL_Driver/Src/stm32g4xx_ll_exti.c **** /**
  76:Drivers/STM32G4xx_HAL_Driver/Src/stm32g4xx_ll_exti.c ****   * @brief  De-initialize the EXTI registers to their default reset values.
  77:Drivers/STM32G4xx_HAL_Driver/Src/stm32g4xx_ll_exti.c ****   * @retval An ErrorStatus enumeration value:
  78:Drivers/STM32G4xx_HAL_Driver/Src/stm32g4xx_ll_exti.c ****   *          - 0x00: EXTI registers are de-initialized
  79:Drivers/STM32G4xx_HAL_Driver/Src/stm32g4xx_ll_exti.c ****   */
  80:Drivers/STM32G4xx_HAL_Driver/Src/stm32g4xx_ll_exti.c **** uint32_t LL_EXTI_DeInit(void)
  81:Drivers/STM32G4xx_HAL_Driver/Src/stm32g4xx_ll_exti.c **** {
  29              		.loc 1 81 1 view -0
  30              		.cfi_startproc
  31              		@ args = 0, pretend = 0, frame = 0
  32              		@ frame_needed = 0, uses_anonymous_args = 0
  33              		@ link register save eliminated.
  82:Drivers/STM32G4xx_HAL_Driver/Src/stm32g4xx_ll_exti.c ****   /* Interrupt mask register set to default reset values */
ARM GAS  D:\apps\VSCode\data\tmp\cclbo69C.s 			page 3


  83:Drivers/STM32G4xx_HAL_Driver/Src/stm32g4xx_ll_exti.c ****   LL_EXTI_WriteReg(IMR1,   0x1F840000U);
  34              		.loc 1 83 3 view .LVU1
  35 0000 094B     		ldr	r3, .L2
  36 0002 0A4A     		ldr	r2, .L2+4
  37 0004 1A60     		str	r2, [r3]
  84:Drivers/STM32G4xx_HAL_Driver/Src/stm32g4xx_ll_exti.c ****   /* Event mask register set to default reset values */
  85:Drivers/STM32G4xx_HAL_Driver/Src/stm32g4xx_ll_exti.c ****   LL_EXTI_WriteReg(EMR1,   0x00000000U);
  38              		.loc 1 85 3 view .LVU2
  39 0006 0020     		movs	r0, #0
  40 0008 5860     		str	r0, [r3, #4]
  86:Drivers/STM32G4xx_HAL_Driver/Src/stm32g4xx_ll_exti.c ****   /* Rising Trigger selection register set to default reset values */
  87:Drivers/STM32G4xx_HAL_Driver/Src/stm32g4xx_ll_exti.c ****   LL_EXTI_WriteReg(RTSR1,  0x00000000U);
  41              		.loc 1 87 3 view .LVU3
  42 000a 9860     		str	r0, [r3, #8]
  88:Drivers/STM32G4xx_HAL_Driver/Src/stm32g4xx_ll_exti.c ****   /* Falling Trigger selection register set to default reset values */
  89:Drivers/STM32G4xx_HAL_Driver/Src/stm32g4xx_ll_exti.c ****   LL_EXTI_WriteReg(FTSR1,  0x00000000U);
  43              		.loc 1 89 3 view .LVU4
  44 000c D860     		str	r0, [r3, #12]
  90:Drivers/STM32G4xx_HAL_Driver/Src/stm32g4xx_ll_exti.c ****   /* Software interrupt event register set to default reset values */
  91:Drivers/STM32G4xx_HAL_Driver/Src/stm32g4xx_ll_exti.c ****   LL_EXTI_WriteReg(SWIER1, 0x00000000U);
  45              		.loc 1 91 3 view .LVU5
  46 000e 1861     		str	r0, [r3, #16]
  92:Drivers/STM32G4xx_HAL_Driver/Src/stm32g4xx_ll_exti.c ****   /* Pending register clear */
  93:Drivers/STM32G4xx_HAL_Driver/Src/stm32g4xx_ll_exti.c ****   LL_EXTI_WriteReg(PR1,    0x007DFFFFU);
  47              		.loc 1 93 3 view .LVU6
  48 0010 074A     		ldr	r2, .L2+8
  49 0012 5A61     		str	r2, [r3, #20]
  94:Drivers/STM32G4xx_HAL_Driver/Src/stm32g4xx_ll_exti.c **** 
  95:Drivers/STM32G4xx_HAL_Driver/Src/stm32g4xx_ll_exti.c ****   /* Interrupt mask register 2 set to default reset values */
  96:Drivers/STM32G4xx_HAL_Driver/Src/stm32g4xx_ll_exti.c **** #if defined(LL_EXTI_LINE_32) && defined(LL_EXTI_LINE_33) && defined(LL_EXTI_LINE_35) && defined(LL_
  97:Drivers/STM32G4xx_HAL_Driver/Src/stm32g4xx_ll_exti.c ****   LL_EXTI_WriteReg(IMR2,        0x0000043CU);
  50              		.loc 1 97 3 view .LVU7
  51 0014 40F23C42 		movw	r2, #1084
  52 0018 1A62     		str	r2, [r3, #32]
  98:Drivers/STM32G4xx_HAL_Driver/Src/stm32g4xx_ll_exti.c **** #else
  99:Drivers/STM32G4xx_HAL_Driver/Src/stm32g4xx_ll_exti.c ****   LL_EXTI_WriteReg(IMR2,        0x00000034U);
 100:Drivers/STM32G4xx_HAL_Driver/Src/stm32g4xx_ll_exti.c **** #endif /* LL_EXTI_LINE_xx */
 101:Drivers/STM32G4xx_HAL_Driver/Src/stm32g4xx_ll_exti.c ****   /* Event mask register 2 set to default reset values */
 102:Drivers/STM32G4xx_HAL_Driver/Src/stm32g4xx_ll_exti.c ****   LL_EXTI_WriteReg(EMR2,        0x00000000U);
  53              		.loc 1 102 3 view .LVU8
  54 001a 5862     		str	r0, [r3, #36]
 103:Drivers/STM32G4xx_HAL_Driver/Src/stm32g4xx_ll_exti.c ****   /* Rising Trigger selection register 2 set to default reset values */
 104:Drivers/STM32G4xx_HAL_Driver/Src/stm32g4xx_ll_exti.c ****   LL_EXTI_WriteReg(RTSR2,       0x00000000U);
  55              		.loc 1 104 3 view .LVU9
  56 001c 9862     		str	r0, [r3, #40]
 105:Drivers/STM32G4xx_HAL_Driver/Src/stm32g4xx_ll_exti.c ****   /* Falling Trigger selection register 2 set to default reset values */
 106:Drivers/STM32G4xx_HAL_Driver/Src/stm32g4xx_ll_exti.c ****   LL_EXTI_WriteReg(FTSR2,       0x00000000U);
  57              		.loc 1 106 3 view .LVU10
  58 001e D862     		str	r0, [r3, #44]
 107:Drivers/STM32G4xx_HAL_Driver/Src/stm32g4xx_ll_exti.c ****   /* Software interrupt event register 2 set to default reset values */
 108:Drivers/STM32G4xx_HAL_Driver/Src/stm32g4xx_ll_exti.c ****   LL_EXTI_WriteReg(SWIER2,      0x00000000U);
  59              		.loc 1 108 3 view .LVU11
  60 0020 1863     		str	r0, [r3, #48]
 109:Drivers/STM32G4xx_HAL_Driver/Src/stm32g4xx_ll_exti.c ****   /* Pending register 2 clear */
 110:Drivers/STM32G4xx_HAL_Driver/Src/stm32g4xx_ll_exti.c ****   LL_EXTI_WriteReg(PR2,         0x00000078U);
  61              		.loc 1 110 3 view .LVU12
  62 0022 7822     		movs	r2, #120
ARM GAS  D:\apps\VSCode\data\tmp\cclbo69C.s 			page 4


  63 0024 5A63     		str	r2, [r3, #52]
 111:Drivers/STM32G4xx_HAL_Driver/Src/stm32g4xx_ll_exti.c **** 
 112:Drivers/STM32G4xx_HAL_Driver/Src/stm32g4xx_ll_exti.c ****   return 0x00u;
  64              		.loc 1 112 3 view .LVU13
 113:Drivers/STM32G4xx_HAL_Driver/Src/stm32g4xx_ll_exti.c **** }
  65              		.loc 1 113 1 is_stmt 0 view .LVU14
  66 0026 7047     		bx	lr
  67              	.L3:
  68              		.align	2
  69              	.L2:
  70 0028 00040140 		.word	1073808384
  71 002c 0000841F 		.word	528744448
  72 0030 FFFF7D00 		.word	8257535
  73              		.cfi_endproc
  74              	.LFE162:
  76              		.section	.text.LL_EXTI_Init,"ax",%progbits
  77              		.align	1
  78              		.global	LL_EXTI_Init
  79              		.syntax unified
  80              		.thumb
  81              		.thumb_func
  82              		.fpu fpv4-sp-d16
  84              	LL_EXTI_Init:
  85              	.LVL0:
  86              	.LFB163:
 114:Drivers/STM32G4xx_HAL_Driver/Src/stm32g4xx_ll_exti.c **** 
 115:Drivers/STM32G4xx_HAL_Driver/Src/stm32g4xx_ll_exti.c **** /**
 116:Drivers/STM32G4xx_HAL_Driver/Src/stm32g4xx_ll_exti.c ****   * @brief  Initialize the EXTI registers according to the specified parameters in EXTI_InitStruct.
 117:Drivers/STM32G4xx_HAL_Driver/Src/stm32g4xx_ll_exti.c ****   * @param  EXTI_InitStruct pointer to a @ref LL_EXTI_InitTypeDef structure.
 118:Drivers/STM32G4xx_HAL_Driver/Src/stm32g4xx_ll_exti.c ****   * @retval An ErrorStatus enumeration value:
 119:Drivers/STM32G4xx_HAL_Driver/Src/stm32g4xx_ll_exti.c ****   *          - 0x00: EXTI registers are initialized
 120:Drivers/STM32G4xx_HAL_Driver/Src/stm32g4xx_ll_exti.c ****   *          - any other calue : wrong configuration
 121:Drivers/STM32G4xx_HAL_Driver/Src/stm32g4xx_ll_exti.c ****   */
 122:Drivers/STM32G4xx_HAL_Driver/Src/stm32g4xx_ll_exti.c **** uint32_t LL_EXTI_Init(LL_EXTI_InitTypeDef *EXTI_InitStruct)
 123:Drivers/STM32G4xx_HAL_Driver/Src/stm32g4xx_ll_exti.c **** {
  87              		.loc 1 123 1 is_stmt 1 view -0
  88              		.cfi_startproc
  89              		@ args = 0, pretend = 0, frame = 0
  90              		@ frame_needed = 0, uses_anonymous_args = 0
  91              		@ link register save eliminated.
  92              		.loc 1 123 1 is_stmt 0 view .LVU16
  93 0000 0346     		mov	r3, r0
 124:Drivers/STM32G4xx_HAL_Driver/Src/stm32g4xx_ll_exti.c ****   uint32_t status = 0x00u;
  94              		.loc 1 124 3 is_stmt 1 view .LVU17
  95              	.LVL1:
 125:Drivers/STM32G4xx_HAL_Driver/Src/stm32g4xx_ll_exti.c **** 
 126:Drivers/STM32G4xx_HAL_Driver/Src/stm32g4xx_ll_exti.c ****   /* Check the parameters */
 127:Drivers/STM32G4xx_HAL_Driver/Src/stm32g4xx_ll_exti.c ****   assert_param(IS_LL_EXTI_LINE_0_31(EXTI_InitStruct->Line_0_31));
  96              		.loc 1 127 3 view .LVU18
 128:Drivers/STM32G4xx_HAL_Driver/Src/stm32g4xx_ll_exti.c ****   assert_param(IS_LL_EXTI_LINE_32_63(EXTI_InitStruct->Line_32_63));
  97              		.loc 1 128 3 view .LVU19
 129:Drivers/STM32G4xx_HAL_Driver/Src/stm32g4xx_ll_exti.c ****   assert_param(IS_FUNCTIONAL_STATE(EXTI_InitStruct->LineCommand));
  98              		.loc 1 129 3 view .LVU20
 130:Drivers/STM32G4xx_HAL_Driver/Src/stm32g4xx_ll_exti.c ****   assert_param(IS_LL_EXTI_MODE(EXTI_InitStruct->Mode));
  99              		.loc 1 130 3 view .LVU21
 131:Drivers/STM32G4xx_HAL_Driver/Src/stm32g4xx_ll_exti.c **** 
 132:Drivers/STM32G4xx_HAL_Driver/Src/stm32g4xx_ll_exti.c ****   /* ENABLE LineCommand */
ARM GAS  D:\apps\VSCode\data\tmp\cclbo69C.s 			page 5


 133:Drivers/STM32G4xx_HAL_Driver/Src/stm32g4xx_ll_exti.c ****   if (EXTI_InitStruct->LineCommand != DISABLE)
 100              		.loc 1 133 3 view .LVU22
 101              		.loc 1 133 22 is_stmt 0 view .LVU23
 102 0002 027A     		ldrb	r2, [r0, #8]	@ zero_extendqisi2
 103              		.loc 1 133 6 view .LVU24
 104 0004 002A     		cmp	r2, #0
 105 0006 00F0AD80 		beq	.L5
 123:Drivers/STM32G4xx_HAL_Driver/Src/stm32g4xx_ll_exti.c ****   uint32_t status = 0x00u;
 106              		.loc 1 123 1 view .LVU25
 107 000a 10B4     		push	{r4}
 108              	.LCFI0:
 109              		.cfi_def_cfa_offset 4
 110              		.cfi_offset 4, -4
 134:Drivers/STM32G4xx_HAL_Driver/Src/stm32g4xx_ll_exti.c ****   {
 135:Drivers/STM32G4xx_HAL_Driver/Src/stm32g4xx_ll_exti.c ****     assert_param(IS_LL_EXTI_TRIGGER(EXTI_InitStruct->Trigger));
 111              		.loc 1 135 5 is_stmt 1 view .LVU26
 136:Drivers/STM32G4xx_HAL_Driver/Src/stm32g4xx_ll_exti.c **** 
 137:Drivers/STM32G4xx_HAL_Driver/Src/stm32g4xx_ll_exti.c ****     /* Configure EXTI Lines in range from 0 to 31 */
 138:Drivers/STM32G4xx_HAL_Driver/Src/stm32g4xx_ll_exti.c ****     if (EXTI_InitStruct->Line_0_31 != LL_EXTI_LINE_NONE)
 112              		.loc 1 138 5 view .LVU27
 113              		.loc 1 138 24 is_stmt 0 view .LVU28
 114 000c 0068     		ldr	r0, [r0]
 115              	.LVL2:
 116              		.loc 1 138 8 view .LVU29
 117 000e 0028     		cmp	r0, #0
 118 0010 3DD0     		beq	.L6
 139:Drivers/STM32G4xx_HAL_Driver/Src/stm32g4xx_ll_exti.c ****     {
 140:Drivers/STM32G4xx_HAL_Driver/Src/stm32g4xx_ll_exti.c ****       switch (EXTI_InitStruct->Mode)
 119              		.loc 1 140 7 is_stmt 1 view .LVU30
 120              		.loc 1 140 30 is_stmt 0 view .LVU31
 121 0012 5A7A     		ldrb	r2, [r3, #9]	@ zero_extendqisi2
 122              		.loc 1 140 7 view .LVU32
 123 0014 012A     		cmp	r2, #1
 124 0016 1BD0     		beq	.L7
 125 0018 51B2     		sxtb	r1, r2
 126 001a 71B1     		cbz	r1, .L8
 127 001c 022A     		cmp	r2, #2
 128 001e 22D0     		beq	.L9
 141:Drivers/STM32G4xx_HAL_Driver/Src/stm32g4xx_ll_exti.c ****       {
 142:Drivers/STM32G4xx_HAL_Driver/Src/stm32g4xx_ll_exti.c ****         case LL_EXTI_MODE_IT:
 143:Drivers/STM32G4xx_HAL_Driver/Src/stm32g4xx_ll_exti.c ****           /* First Disable Event on provided Lines */
 144:Drivers/STM32G4xx_HAL_Driver/Src/stm32g4xx_ll_exti.c ****           LL_EXTI_DisableEvent_0_31(EXTI_InitStruct->Line_0_31);
 145:Drivers/STM32G4xx_HAL_Driver/Src/stm32g4xx_ll_exti.c ****           /* Then Enable IT on provided Lines */
 146:Drivers/STM32G4xx_HAL_Driver/Src/stm32g4xx_ll_exti.c ****           LL_EXTI_EnableIT_0_31(EXTI_InitStruct->Line_0_31);
 147:Drivers/STM32G4xx_HAL_Driver/Src/stm32g4xx_ll_exti.c ****           break;
 148:Drivers/STM32G4xx_HAL_Driver/Src/stm32g4xx_ll_exti.c ****         case LL_EXTI_MODE_EVENT:
 149:Drivers/STM32G4xx_HAL_Driver/Src/stm32g4xx_ll_exti.c ****           /* First Disable IT on provided Lines */
 150:Drivers/STM32G4xx_HAL_Driver/Src/stm32g4xx_ll_exti.c ****           LL_EXTI_DisableIT_0_31(EXTI_InitStruct->Line_0_31);
 151:Drivers/STM32G4xx_HAL_Driver/Src/stm32g4xx_ll_exti.c ****           /* Then Enable Event on provided Lines */
 152:Drivers/STM32G4xx_HAL_Driver/Src/stm32g4xx_ll_exti.c ****           LL_EXTI_EnableEvent_0_31(EXTI_InitStruct->Line_0_31);
 153:Drivers/STM32G4xx_HAL_Driver/Src/stm32g4xx_ll_exti.c ****           break;
 154:Drivers/STM32G4xx_HAL_Driver/Src/stm32g4xx_ll_exti.c ****         case LL_EXTI_MODE_IT_EVENT:
 155:Drivers/STM32G4xx_HAL_Driver/Src/stm32g4xx_ll_exti.c ****           /* Directly Enable IT on provided Lines */
 156:Drivers/STM32G4xx_HAL_Driver/Src/stm32g4xx_ll_exti.c ****           LL_EXTI_EnableIT_0_31(EXTI_InitStruct->Line_0_31);
 157:Drivers/STM32G4xx_HAL_Driver/Src/stm32g4xx_ll_exti.c ****           /* Directly Enable Event on provided Lines */
 158:Drivers/STM32G4xx_HAL_Driver/Src/stm32g4xx_ll_exti.c ****           LL_EXTI_EnableEvent_0_31(EXTI_InitStruct->Line_0_31);
 159:Drivers/STM32G4xx_HAL_Driver/Src/stm32g4xx_ll_exti.c ****           break;
ARM GAS  D:\apps\VSCode\data\tmp\cclbo69C.s 			page 6


 160:Drivers/STM32G4xx_HAL_Driver/Src/stm32g4xx_ll_exti.c ****         default:
 161:Drivers/STM32G4xx_HAL_Driver/Src/stm32g4xx_ll_exti.c ****           status = 0x01u;
 129              		.loc 1 161 18 view .LVU33
 130 0020 0120     		movs	r0, #1
 131              	.L10:
 132              	.LVL3:
 162:Drivers/STM32G4xx_HAL_Driver/Src/stm32g4xx_ll_exti.c ****           break;
 163:Drivers/STM32G4xx_HAL_Driver/Src/stm32g4xx_ll_exti.c ****       }
 164:Drivers/STM32G4xx_HAL_Driver/Src/stm32g4xx_ll_exti.c ****       if (EXTI_InitStruct->Trigger != LL_EXTI_TRIGGER_NONE)
 133              		.loc 1 164 7 is_stmt 1 view .LVU34
 134              		.loc 1 164 26 is_stmt 0 view .LVU35
 135 0022 9A7A     		ldrb	r2, [r3, #10]	@ zero_extendqisi2
 136              		.loc 1 164 10 view .LVU36
 137 0024 002A     		cmp	r2, #0
 138 0026 32D0     		beq	.L6
 165:Drivers/STM32G4xx_HAL_Driver/Src/stm32g4xx_ll_exti.c ****       {
 166:Drivers/STM32G4xx_HAL_Driver/Src/stm32g4xx_ll_exti.c ****         switch (EXTI_InitStruct->Trigger)
 139              		.loc 1 166 9 is_stmt 1 view .LVU37
 140 0028 022A     		cmp	r2, #2
 141 002a 3DD0     		beq	.L11
 142 002c 032A     		cmp	r2, #3
 143 002e 46D0     		beq	.L12
 144 0030 012A     		cmp	r2, #1
 145 0032 22D0     		beq	.L28
 167:Drivers/STM32G4xx_HAL_Driver/Src/stm32g4xx_ll_exti.c ****         {
 168:Drivers/STM32G4xx_HAL_Driver/Src/stm32g4xx_ll_exti.c ****           case LL_EXTI_TRIGGER_RISING:
 169:Drivers/STM32G4xx_HAL_Driver/Src/stm32g4xx_ll_exti.c ****             /* First Disable Falling Trigger on provided Lines */
 170:Drivers/STM32G4xx_HAL_Driver/Src/stm32g4xx_ll_exti.c ****             LL_EXTI_DisableFallingTrig_0_31(EXTI_InitStruct->Line_0_31);
 171:Drivers/STM32G4xx_HAL_Driver/Src/stm32g4xx_ll_exti.c ****             /* Then Enable Rising Trigger on provided Lines */
 172:Drivers/STM32G4xx_HAL_Driver/Src/stm32g4xx_ll_exti.c ****             LL_EXTI_EnableRisingTrig_0_31(EXTI_InitStruct->Line_0_31);
 173:Drivers/STM32G4xx_HAL_Driver/Src/stm32g4xx_ll_exti.c ****             break;
 174:Drivers/STM32G4xx_HAL_Driver/Src/stm32g4xx_ll_exti.c ****           case LL_EXTI_TRIGGER_FALLING:
 175:Drivers/STM32G4xx_HAL_Driver/Src/stm32g4xx_ll_exti.c ****             /* First Disable Rising Trigger on provided Lines */
 176:Drivers/STM32G4xx_HAL_Driver/Src/stm32g4xx_ll_exti.c ****             LL_EXTI_DisableRisingTrig_0_31(EXTI_InitStruct->Line_0_31);
 177:Drivers/STM32G4xx_HAL_Driver/Src/stm32g4xx_ll_exti.c ****             /* Then Enable Falling Trigger on provided Lines */
 178:Drivers/STM32G4xx_HAL_Driver/Src/stm32g4xx_ll_exti.c ****             LL_EXTI_EnableFallingTrig_0_31(EXTI_InitStruct->Line_0_31);
 179:Drivers/STM32G4xx_HAL_Driver/Src/stm32g4xx_ll_exti.c ****             break;
 180:Drivers/STM32G4xx_HAL_Driver/Src/stm32g4xx_ll_exti.c ****           case LL_EXTI_TRIGGER_RISING_FALLING:
 181:Drivers/STM32G4xx_HAL_Driver/Src/stm32g4xx_ll_exti.c ****             /* Enable Rising Trigger on provided Lines */
 182:Drivers/STM32G4xx_HAL_Driver/Src/stm32g4xx_ll_exti.c ****             LL_EXTI_EnableRisingTrig_0_31(EXTI_InitStruct->Line_0_31);
 183:Drivers/STM32G4xx_HAL_Driver/Src/stm32g4xx_ll_exti.c ****             /* Enable Falling Trigger on provided Lines */
 184:Drivers/STM32G4xx_HAL_Driver/Src/stm32g4xx_ll_exti.c ****             LL_EXTI_EnableFallingTrig_0_31(EXTI_InitStruct->Line_0_31);
 185:Drivers/STM32G4xx_HAL_Driver/Src/stm32g4xx_ll_exti.c ****             break;
 186:Drivers/STM32G4xx_HAL_Driver/Src/stm32g4xx_ll_exti.c ****           default:
 187:Drivers/STM32G4xx_HAL_Driver/Src/stm32g4xx_ll_exti.c ****             status |= 0x02u;
 146              		.loc 1 187 13 view .LVU38
 147              		.loc 1 187 20 is_stmt 0 view .LVU39
 148 0034 40F00200 		orr	r0, r0, #2
 149              	.LVL4:
 188:Drivers/STM32G4xx_HAL_Driver/Src/stm32g4xx_ll_exti.c ****             break;
 150              		.loc 1 188 13 is_stmt 1 view .LVU40
 151 0038 29E0     		b	.L6
 152              	.LVL5:
 153              	.L8:
 144:Drivers/STM32G4xx_HAL_Driver/Src/stm32g4xx_ll_exti.c ****           /* Then Enable IT on provided Lines */
 154              		.loc 1 144 11 view .LVU41
 155              	.LBB58:
ARM GAS  D:\apps\VSCode\data\tmp\cclbo69C.s 			page 7


 156              	.LBI58:
 157              		.file 2 "Drivers/STM32G4xx_HAL_Driver/Inc/stm32g4xx_ll_exti.h"
   1:Drivers/STM32G4xx_HAL_Driver/Inc/stm32g4xx_ll_exti.h **** /**
   2:Drivers/STM32G4xx_HAL_Driver/Inc/stm32g4xx_ll_exti.h ****   ******************************************************************************
   3:Drivers/STM32G4xx_HAL_Driver/Inc/stm32g4xx_ll_exti.h ****   * @file    stm32g4xx_ll_exti.h
   4:Drivers/STM32G4xx_HAL_Driver/Inc/stm32g4xx_ll_exti.h ****   * @author  MCD Application Team
   5:Drivers/STM32G4xx_HAL_Driver/Inc/stm32g4xx_ll_exti.h ****   * @brief   Header file of EXTI LL module.
   6:Drivers/STM32G4xx_HAL_Driver/Inc/stm32g4xx_ll_exti.h ****   ******************************************************************************
   7:Drivers/STM32G4xx_HAL_Driver/Inc/stm32g4xx_ll_exti.h ****   * @attention
   8:Drivers/STM32G4xx_HAL_Driver/Inc/stm32g4xx_ll_exti.h ****   *
   9:Drivers/STM32G4xx_HAL_Driver/Inc/stm32g4xx_ll_exti.h ****   * <h2><center>&copy; Copyright (c) 2019 STMicroelectronics.
  10:Drivers/STM32G4xx_HAL_Driver/Inc/stm32g4xx_ll_exti.h ****   * All rights reserved.</center></h2>
  11:Drivers/STM32G4xx_HAL_Driver/Inc/stm32g4xx_ll_exti.h ****   *
  12:Drivers/STM32G4xx_HAL_Driver/Inc/stm32g4xx_ll_exti.h ****   * This software component is licensed by ST under BSD 3-Clause license,
  13:Drivers/STM32G4xx_HAL_Driver/Inc/stm32g4xx_ll_exti.h ****   * the "License"; You may not use this file except in compliance with the
  14:Drivers/STM32G4xx_HAL_Driver/Inc/stm32g4xx_ll_exti.h ****   * License. You may obtain a copy of the License at:
  15:Drivers/STM32G4xx_HAL_Driver/Inc/stm32g4xx_ll_exti.h ****   *                        opensource.org/licenses/BSD-3-Clause
  16:Drivers/STM32G4xx_HAL_Driver/Inc/stm32g4xx_ll_exti.h ****   *
  17:Drivers/STM32G4xx_HAL_Driver/Inc/stm32g4xx_ll_exti.h ****   ******************************************************************************
  18:Drivers/STM32G4xx_HAL_Driver/Inc/stm32g4xx_ll_exti.h ****   */
  19:Drivers/STM32G4xx_HAL_Driver/Inc/stm32g4xx_ll_exti.h **** 
  20:Drivers/STM32G4xx_HAL_Driver/Inc/stm32g4xx_ll_exti.h **** /* Define to prevent recursive inclusion -------------------------------------*/
  21:Drivers/STM32G4xx_HAL_Driver/Inc/stm32g4xx_ll_exti.h **** #ifndef __STM32G4xx_LL_EXTI_H
  22:Drivers/STM32G4xx_HAL_Driver/Inc/stm32g4xx_ll_exti.h **** #define __STM32G4xx_LL_EXTI_H
  23:Drivers/STM32G4xx_HAL_Driver/Inc/stm32g4xx_ll_exti.h **** 
  24:Drivers/STM32G4xx_HAL_Driver/Inc/stm32g4xx_ll_exti.h **** #ifdef __cplusplus
  25:Drivers/STM32G4xx_HAL_Driver/Inc/stm32g4xx_ll_exti.h **** extern "C" {
  26:Drivers/STM32G4xx_HAL_Driver/Inc/stm32g4xx_ll_exti.h **** #endif
  27:Drivers/STM32G4xx_HAL_Driver/Inc/stm32g4xx_ll_exti.h **** 
  28:Drivers/STM32G4xx_HAL_Driver/Inc/stm32g4xx_ll_exti.h **** /* Includes ------------------------------------------------------------------*/
  29:Drivers/STM32G4xx_HAL_Driver/Inc/stm32g4xx_ll_exti.h **** #include "stm32g4xx.h"
  30:Drivers/STM32G4xx_HAL_Driver/Inc/stm32g4xx_ll_exti.h **** 
  31:Drivers/STM32G4xx_HAL_Driver/Inc/stm32g4xx_ll_exti.h **** /** @addtogroup STM32G4xx_LL_Driver
  32:Drivers/STM32G4xx_HAL_Driver/Inc/stm32g4xx_ll_exti.h ****   * @{
  33:Drivers/STM32G4xx_HAL_Driver/Inc/stm32g4xx_ll_exti.h ****   */
  34:Drivers/STM32G4xx_HAL_Driver/Inc/stm32g4xx_ll_exti.h **** 
  35:Drivers/STM32G4xx_HAL_Driver/Inc/stm32g4xx_ll_exti.h **** #if defined (EXTI)
  36:Drivers/STM32G4xx_HAL_Driver/Inc/stm32g4xx_ll_exti.h **** 
  37:Drivers/STM32G4xx_HAL_Driver/Inc/stm32g4xx_ll_exti.h **** /** @defgroup EXTI_LL EXTI
  38:Drivers/STM32G4xx_HAL_Driver/Inc/stm32g4xx_ll_exti.h ****   * @{
  39:Drivers/STM32G4xx_HAL_Driver/Inc/stm32g4xx_ll_exti.h ****   */
  40:Drivers/STM32G4xx_HAL_Driver/Inc/stm32g4xx_ll_exti.h **** 
  41:Drivers/STM32G4xx_HAL_Driver/Inc/stm32g4xx_ll_exti.h **** /* Private types -------------------------------------------------------------*/
  42:Drivers/STM32G4xx_HAL_Driver/Inc/stm32g4xx_ll_exti.h **** /* Private variables ---------------------------------------------------------*/
  43:Drivers/STM32G4xx_HAL_Driver/Inc/stm32g4xx_ll_exti.h **** /* Private constants ---------------------------------------------------------*/
  44:Drivers/STM32G4xx_HAL_Driver/Inc/stm32g4xx_ll_exti.h **** /* Private Macros ------------------------------------------------------------*/
  45:Drivers/STM32G4xx_HAL_Driver/Inc/stm32g4xx_ll_exti.h **** #if defined(USE_FULL_LL_DRIVER)
  46:Drivers/STM32G4xx_HAL_Driver/Inc/stm32g4xx_ll_exti.h **** /** @defgroup EXTI_LL_Private_Macros EXTI Private Macros
  47:Drivers/STM32G4xx_HAL_Driver/Inc/stm32g4xx_ll_exti.h ****   * @{
  48:Drivers/STM32G4xx_HAL_Driver/Inc/stm32g4xx_ll_exti.h ****   */
  49:Drivers/STM32G4xx_HAL_Driver/Inc/stm32g4xx_ll_exti.h **** /**
  50:Drivers/STM32G4xx_HAL_Driver/Inc/stm32g4xx_ll_exti.h ****   * @}
  51:Drivers/STM32G4xx_HAL_Driver/Inc/stm32g4xx_ll_exti.h ****   */
  52:Drivers/STM32G4xx_HAL_Driver/Inc/stm32g4xx_ll_exti.h **** #endif /*USE_FULL_LL_DRIVER*/
  53:Drivers/STM32G4xx_HAL_Driver/Inc/stm32g4xx_ll_exti.h **** /* Exported types ------------------------------------------------------------*/
  54:Drivers/STM32G4xx_HAL_Driver/Inc/stm32g4xx_ll_exti.h **** #if defined(USE_FULL_LL_DRIVER)
  55:Drivers/STM32G4xx_HAL_Driver/Inc/stm32g4xx_ll_exti.h **** /** @defgroup EXTI_LL_ES_INIT EXTI Exported Init structure
ARM GAS  D:\apps\VSCode\data\tmp\cclbo69C.s 			page 8


  56:Drivers/STM32G4xx_HAL_Driver/Inc/stm32g4xx_ll_exti.h ****   * @{
  57:Drivers/STM32G4xx_HAL_Driver/Inc/stm32g4xx_ll_exti.h ****   */
  58:Drivers/STM32G4xx_HAL_Driver/Inc/stm32g4xx_ll_exti.h **** typedef struct
  59:Drivers/STM32G4xx_HAL_Driver/Inc/stm32g4xx_ll_exti.h **** {
  60:Drivers/STM32G4xx_HAL_Driver/Inc/stm32g4xx_ll_exti.h **** 
  61:Drivers/STM32G4xx_HAL_Driver/Inc/stm32g4xx_ll_exti.h ****   uint32_t Line_0_31;           /*!< Specifies the EXTI lines to be enabled or disabled for Lines i
  62:Drivers/STM32G4xx_HAL_Driver/Inc/stm32g4xx_ll_exti.h ****                                      This parameter can be any combination of @ref EXTI_LL_EC_LINE 
  63:Drivers/STM32G4xx_HAL_Driver/Inc/stm32g4xx_ll_exti.h **** 
  64:Drivers/STM32G4xx_HAL_Driver/Inc/stm32g4xx_ll_exti.h ****   uint32_t Line_32_63;          /*!< Specifies the EXTI lines to be enabled or disabled for Lines i
  65:Drivers/STM32G4xx_HAL_Driver/Inc/stm32g4xx_ll_exti.h ****                                      This parameter can be any combination of @ref EXTI_LL_EC_LINE 
  66:Drivers/STM32G4xx_HAL_Driver/Inc/stm32g4xx_ll_exti.h **** 
  67:Drivers/STM32G4xx_HAL_Driver/Inc/stm32g4xx_ll_exti.h ****   FunctionalState LineCommand;  /*!< Specifies the new state of the selected EXTI lines.
  68:Drivers/STM32G4xx_HAL_Driver/Inc/stm32g4xx_ll_exti.h ****                                      This parameter can be set either to ENABLE or DISABLE */
  69:Drivers/STM32G4xx_HAL_Driver/Inc/stm32g4xx_ll_exti.h **** 
  70:Drivers/STM32G4xx_HAL_Driver/Inc/stm32g4xx_ll_exti.h ****   uint8_t Mode;                 /*!< Specifies the mode for the EXTI lines.
  71:Drivers/STM32G4xx_HAL_Driver/Inc/stm32g4xx_ll_exti.h ****                                      This parameter can be a value of @ref EXTI_LL_EC_MODE. */
  72:Drivers/STM32G4xx_HAL_Driver/Inc/stm32g4xx_ll_exti.h **** 
  73:Drivers/STM32G4xx_HAL_Driver/Inc/stm32g4xx_ll_exti.h ****   uint8_t Trigger;              /*!< Specifies the trigger signal active edge for the EXTI lines.
  74:Drivers/STM32G4xx_HAL_Driver/Inc/stm32g4xx_ll_exti.h ****                                      This parameter can be a value of @ref EXTI_LL_EC_TRIGGER. */
  75:Drivers/STM32G4xx_HAL_Driver/Inc/stm32g4xx_ll_exti.h **** } LL_EXTI_InitTypeDef;
  76:Drivers/STM32G4xx_HAL_Driver/Inc/stm32g4xx_ll_exti.h **** 
  77:Drivers/STM32G4xx_HAL_Driver/Inc/stm32g4xx_ll_exti.h **** /**
  78:Drivers/STM32G4xx_HAL_Driver/Inc/stm32g4xx_ll_exti.h ****   * @}
  79:Drivers/STM32G4xx_HAL_Driver/Inc/stm32g4xx_ll_exti.h ****   */
  80:Drivers/STM32G4xx_HAL_Driver/Inc/stm32g4xx_ll_exti.h **** #endif /*USE_FULL_LL_DRIVER*/
  81:Drivers/STM32G4xx_HAL_Driver/Inc/stm32g4xx_ll_exti.h **** 
  82:Drivers/STM32G4xx_HAL_Driver/Inc/stm32g4xx_ll_exti.h **** /* Exported constants --------------------------------------------------------*/
  83:Drivers/STM32G4xx_HAL_Driver/Inc/stm32g4xx_ll_exti.h **** /** @defgroup EXTI_LL_Exported_Constants EXTI Exported Constants
  84:Drivers/STM32G4xx_HAL_Driver/Inc/stm32g4xx_ll_exti.h ****   * @{
  85:Drivers/STM32G4xx_HAL_Driver/Inc/stm32g4xx_ll_exti.h ****   */
  86:Drivers/STM32G4xx_HAL_Driver/Inc/stm32g4xx_ll_exti.h **** 
  87:Drivers/STM32G4xx_HAL_Driver/Inc/stm32g4xx_ll_exti.h **** /** @defgroup EXTI_LL_EC_LINE LINE
  88:Drivers/STM32G4xx_HAL_Driver/Inc/stm32g4xx_ll_exti.h ****   * @{
  89:Drivers/STM32G4xx_HAL_Driver/Inc/stm32g4xx_ll_exti.h ****   */
  90:Drivers/STM32G4xx_HAL_Driver/Inc/stm32g4xx_ll_exti.h **** #define LL_EXTI_LINE_0                 EXTI_IMR1_IM0           /*!< Extended line 0 */
  91:Drivers/STM32G4xx_HAL_Driver/Inc/stm32g4xx_ll_exti.h **** #define LL_EXTI_LINE_1                 EXTI_IMR1_IM1           /*!< Extended line 1 */
  92:Drivers/STM32G4xx_HAL_Driver/Inc/stm32g4xx_ll_exti.h **** #define LL_EXTI_LINE_2                 EXTI_IMR1_IM2           /*!< Extended line 2 */
  93:Drivers/STM32G4xx_HAL_Driver/Inc/stm32g4xx_ll_exti.h **** #define LL_EXTI_LINE_3                 EXTI_IMR1_IM3           /*!< Extended line 3 */
  94:Drivers/STM32G4xx_HAL_Driver/Inc/stm32g4xx_ll_exti.h **** #define LL_EXTI_LINE_4                 EXTI_IMR1_IM4           /*!< Extended line 4 */
  95:Drivers/STM32G4xx_HAL_Driver/Inc/stm32g4xx_ll_exti.h **** #define LL_EXTI_LINE_5                 EXTI_IMR1_IM5           /*!< Extended line 5 */
  96:Drivers/STM32G4xx_HAL_Driver/Inc/stm32g4xx_ll_exti.h **** #define LL_EXTI_LINE_6                 EXTI_IMR1_IM6           /*!< Extended line 6 */
  97:Drivers/STM32G4xx_HAL_Driver/Inc/stm32g4xx_ll_exti.h **** #define LL_EXTI_LINE_7                 EXTI_IMR1_IM7           /*!< Extended line 7 */
  98:Drivers/STM32G4xx_HAL_Driver/Inc/stm32g4xx_ll_exti.h **** #define LL_EXTI_LINE_8                 EXTI_IMR1_IM8           /*!< Extended line 8 */
  99:Drivers/STM32G4xx_HAL_Driver/Inc/stm32g4xx_ll_exti.h **** #define LL_EXTI_LINE_9                 EXTI_IMR1_IM9           /*!< Extended line 9 */
 100:Drivers/STM32G4xx_HAL_Driver/Inc/stm32g4xx_ll_exti.h **** #define LL_EXTI_LINE_10                EXTI_IMR1_IM10          /*!< Extended line 10 */
 101:Drivers/STM32G4xx_HAL_Driver/Inc/stm32g4xx_ll_exti.h **** #define LL_EXTI_LINE_11                EXTI_IMR1_IM11          /*!< Extended line 11 */
 102:Drivers/STM32G4xx_HAL_Driver/Inc/stm32g4xx_ll_exti.h **** #define LL_EXTI_LINE_12                EXTI_IMR1_IM12          /*!< Extended line 12 */
 103:Drivers/STM32G4xx_HAL_Driver/Inc/stm32g4xx_ll_exti.h **** #define LL_EXTI_LINE_13                EXTI_IMR1_IM13          /*!< Extended line 13 */
 104:Drivers/STM32G4xx_HAL_Driver/Inc/stm32g4xx_ll_exti.h **** #define LL_EXTI_LINE_14                EXTI_IMR1_IM14          /*!< Extended line 14 */
 105:Drivers/STM32G4xx_HAL_Driver/Inc/stm32g4xx_ll_exti.h **** #define LL_EXTI_LINE_15                EXTI_IMR1_IM15          /*!< Extended line 15 */
 106:Drivers/STM32G4xx_HAL_Driver/Inc/stm32g4xx_ll_exti.h **** #if defined(EXTI_IMR1_IM16)
 107:Drivers/STM32G4xx_HAL_Driver/Inc/stm32g4xx_ll_exti.h **** #define LL_EXTI_LINE_16                EXTI_IMR1_IM16          /*!< Extended line 16 */
 108:Drivers/STM32G4xx_HAL_Driver/Inc/stm32g4xx_ll_exti.h **** #endif /* EXTI_IMR1_IM16 */
 109:Drivers/STM32G4xx_HAL_Driver/Inc/stm32g4xx_ll_exti.h **** #define LL_EXTI_LINE_17                EXTI_IMR1_IM17          /*!< Extended line 17 */
 110:Drivers/STM32G4xx_HAL_Driver/Inc/stm32g4xx_ll_exti.h **** #if defined(EXTI_IMR1_IM18)
 111:Drivers/STM32G4xx_HAL_Driver/Inc/stm32g4xx_ll_exti.h **** #define LL_EXTI_LINE_18                EXTI_IMR1_IM18          /*!< Extended line 18 */
 112:Drivers/STM32G4xx_HAL_Driver/Inc/stm32g4xx_ll_exti.h **** #endif /* EXTI_IMR1_IM18 */
ARM GAS  D:\apps\VSCode\data\tmp\cclbo69C.s 			page 9


 113:Drivers/STM32G4xx_HAL_Driver/Inc/stm32g4xx_ll_exti.h **** #define LL_EXTI_LINE_19                EXTI_IMR1_IM19          /*!< Extended line 19 */
 114:Drivers/STM32G4xx_HAL_Driver/Inc/stm32g4xx_ll_exti.h **** #if defined(EXTI_IMR1_IM20)
 115:Drivers/STM32G4xx_HAL_Driver/Inc/stm32g4xx_ll_exti.h **** #define LL_EXTI_LINE_20                EXTI_IMR1_IM20          /*!< Extended line 20 */
 116:Drivers/STM32G4xx_HAL_Driver/Inc/stm32g4xx_ll_exti.h **** #endif /* EXTI_IMR1_IM20 */
 117:Drivers/STM32G4xx_HAL_Driver/Inc/stm32g4xx_ll_exti.h **** #if defined(EXTI_IMR1_IM21)
 118:Drivers/STM32G4xx_HAL_Driver/Inc/stm32g4xx_ll_exti.h **** #define LL_EXTI_LINE_21                EXTI_IMR1_IM21          /*!< Extended line 21 */
 119:Drivers/STM32G4xx_HAL_Driver/Inc/stm32g4xx_ll_exti.h **** #endif /* EXTI_IMR1_IM21 */
 120:Drivers/STM32G4xx_HAL_Driver/Inc/stm32g4xx_ll_exti.h **** #if defined(EXTI_IMR1_IM22)
 121:Drivers/STM32G4xx_HAL_Driver/Inc/stm32g4xx_ll_exti.h **** #define LL_EXTI_LINE_22                EXTI_IMR1_IM22          /*!< Extended line 22 */
 122:Drivers/STM32G4xx_HAL_Driver/Inc/stm32g4xx_ll_exti.h **** #endif /* EXTI_IMR1_IM22 */
 123:Drivers/STM32G4xx_HAL_Driver/Inc/stm32g4xx_ll_exti.h **** #define LL_EXTI_LINE_23                EXTI_IMR1_IM23          /*!< Extended line 23 */
 124:Drivers/STM32G4xx_HAL_Driver/Inc/stm32g4xx_ll_exti.h **** #if defined(EXTI_IMR1_IM24)
 125:Drivers/STM32G4xx_HAL_Driver/Inc/stm32g4xx_ll_exti.h **** #define LL_EXTI_LINE_24                EXTI_IMR1_IM24          /*!< Extended line 24 */
 126:Drivers/STM32G4xx_HAL_Driver/Inc/stm32g4xx_ll_exti.h **** #endif /* EXTI_IMR1_IM24 */
 127:Drivers/STM32G4xx_HAL_Driver/Inc/stm32g4xx_ll_exti.h **** #if defined(EXTI_IMR1_IM25)
 128:Drivers/STM32G4xx_HAL_Driver/Inc/stm32g4xx_ll_exti.h **** #define LL_EXTI_LINE_25                EXTI_IMR1_IM25          /*!< Extended line 25 */
 129:Drivers/STM32G4xx_HAL_Driver/Inc/stm32g4xx_ll_exti.h **** #endif /* EXTI_IMR1_IM25 */
 130:Drivers/STM32G4xx_HAL_Driver/Inc/stm32g4xx_ll_exti.h **** #if defined(EXTI_IMR1_IM26)
 131:Drivers/STM32G4xx_HAL_Driver/Inc/stm32g4xx_ll_exti.h **** #define LL_EXTI_LINE_26                EXTI_IMR1_IM26          /*!< Extended line 26 */
 132:Drivers/STM32G4xx_HAL_Driver/Inc/stm32g4xx_ll_exti.h **** #endif /* EXTI_IMR1_IM26 */
 133:Drivers/STM32G4xx_HAL_Driver/Inc/stm32g4xx_ll_exti.h **** #if defined(EXTI_IMR1_IM27)
 134:Drivers/STM32G4xx_HAL_Driver/Inc/stm32g4xx_ll_exti.h **** #define LL_EXTI_LINE_27                EXTI_IMR1_IM27          /*!< Extended line 27 */
 135:Drivers/STM32G4xx_HAL_Driver/Inc/stm32g4xx_ll_exti.h **** #endif /* EXTI_IMR1_IM27 */
 136:Drivers/STM32G4xx_HAL_Driver/Inc/stm32g4xx_ll_exti.h **** #if defined(EXTI_IMR1_IM28)
 137:Drivers/STM32G4xx_HAL_Driver/Inc/stm32g4xx_ll_exti.h **** #define LL_EXTI_LINE_28                EXTI_IMR1_IM28          /*!< Extended line 28 */
 138:Drivers/STM32G4xx_HAL_Driver/Inc/stm32g4xx_ll_exti.h **** #endif /* EXTI_IMR1_IM28 */
 139:Drivers/STM32G4xx_HAL_Driver/Inc/stm32g4xx_ll_exti.h **** #if defined(EXTI_IMR1_IM29)
 140:Drivers/STM32G4xx_HAL_Driver/Inc/stm32g4xx_ll_exti.h **** #define LL_EXTI_LINE_29                EXTI_IMR1_IM29          /*!< Extended line 29 */
 141:Drivers/STM32G4xx_HAL_Driver/Inc/stm32g4xx_ll_exti.h **** #endif /* EXTI_IMR1_IM29 */
 142:Drivers/STM32G4xx_HAL_Driver/Inc/stm32g4xx_ll_exti.h **** #if defined(EXTI_IMR1_IM30)
 143:Drivers/STM32G4xx_HAL_Driver/Inc/stm32g4xx_ll_exti.h **** #define LL_EXTI_LINE_30                EXTI_IMR1_IM30          /*!< Extended line 30 */
 144:Drivers/STM32G4xx_HAL_Driver/Inc/stm32g4xx_ll_exti.h **** #endif /* EXTI_IMR1_IM30 */
 145:Drivers/STM32G4xx_HAL_Driver/Inc/stm32g4xx_ll_exti.h **** #if defined(EXTI_IMR1_IM31)
 146:Drivers/STM32G4xx_HAL_Driver/Inc/stm32g4xx_ll_exti.h **** #define LL_EXTI_LINE_31                EXTI_IMR1_IM31          /*!< Extended line 31 */
 147:Drivers/STM32G4xx_HAL_Driver/Inc/stm32g4xx_ll_exti.h **** #endif /* EXTI_IMR1_IM31 */
 148:Drivers/STM32G4xx_HAL_Driver/Inc/stm32g4xx_ll_exti.h **** #define LL_EXTI_LINE_ALL_0_31          EXTI_IMR1_IM            /*!< All Extended line not reserved*
 149:Drivers/STM32G4xx_HAL_Driver/Inc/stm32g4xx_ll_exti.h **** 
 150:Drivers/STM32G4xx_HAL_Driver/Inc/stm32g4xx_ll_exti.h **** #if defined(EXTI_IMR2_IM32)
 151:Drivers/STM32G4xx_HAL_Driver/Inc/stm32g4xx_ll_exti.h **** #define LL_EXTI_LINE_32                EXTI_IMR2_IM32          /*!< Extended line 32 */
 152:Drivers/STM32G4xx_HAL_Driver/Inc/stm32g4xx_ll_exti.h **** #endif /* EXTI_IMR2_IM32 */
 153:Drivers/STM32G4xx_HAL_Driver/Inc/stm32g4xx_ll_exti.h **** #if defined(EXTI_IMR2_IM33)
 154:Drivers/STM32G4xx_HAL_Driver/Inc/stm32g4xx_ll_exti.h **** #define LL_EXTI_LINE_33                EXTI_IMR2_IM33          /*!< Extended line 33 */
 155:Drivers/STM32G4xx_HAL_Driver/Inc/stm32g4xx_ll_exti.h **** #endif /* EXTI_IMR2_IM33 */
 156:Drivers/STM32G4xx_HAL_Driver/Inc/stm32g4xx_ll_exti.h **** #if defined(EXTI_IMR2_IM34)
 157:Drivers/STM32G4xx_HAL_Driver/Inc/stm32g4xx_ll_exti.h **** #define LL_EXTI_LINE_34                EXTI_IMR2_IM34          /*!< Extended line 34 */
 158:Drivers/STM32G4xx_HAL_Driver/Inc/stm32g4xx_ll_exti.h **** #endif /* EXTI_IMR2_IM34 */
 159:Drivers/STM32G4xx_HAL_Driver/Inc/stm32g4xx_ll_exti.h **** #if defined(EXTI_IMR2_IM35)
 160:Drivers/STM32G4xx_HAL_Driver/Inc/stm32g4xx_ll_exti.h **** #define LL_EXTI_LINE_35                EXTI_IMR2_IM35          /*!< Extended line 35 */
 161:Drivers/STM32G4xx_HAL_Driver/Inc/stm32g4xx_ll_exti.h **** #endif /* EXTI_IMR2_IM35 */
 162:Drivers/STM32G4xx_HAL_Driver/Inc/stm32g4xx_ll_exti.h **** #if defined(EXTI_IMR2_IM36)
 163:Drivers/STM32G4xx_HAL_Driver/Inc/stm32g4xx_ll_exti.h **** #define LL_EXTI_LINE_36                EXTI_IMR2_IM36          /*!< Extended line 36 */
 164:Drivers/STM32G4xx_HAL_Driver/Inc/stm32g4xx_ll_exti.h **** #endif /* EXTI_IMR2_IM36 */
 165:Drivers/STM32G4xx_HAL_Driver/Inc/stm32g4xx_ll_exti.h **** #if defined(EXTI_IMR2_IM37)
 166:Drivers/STM32G4xx_HAL_Driver/Inc/stm32g4xx_ll_exti.h **** #define LL_EXTI_LINE_37                EXTI_IMR2_IM37          /*!< Extended line 37 */
 167:Drivers/STM32G4xx_HAL_Driver/Inc/stm32g4xx_ll_exti.h **** #endif /* EXTI_IMR2_IM37 */
 168:Drivers/STM32G4xx_HAL_Driver/Inc/stm32g4xx_ll_exti.h **** #if defined(EXTI_IMR2_IM38)
 169:Drivers/STM32G4xx_HAL_Driver/Inc/stm32g4xx_ll_exti.h **** #define LL_EXTI_LINE_38                EXTI_IMR2_IM38          /*!< Extended line 38 */
ARM GAS  D:\apps\VSCode\data\tmp\cclbo69C.s 			page 10


 170:Drivers/STM32G4xx_HAL_Driver/Inc/stm32g4xx_ll_exti.h **** #endif /* EXTI_IMR2_IM38 */
 171:Drivers/STM32G4xx_HAL_Driver/Inc/stm32g4xx_ll_exti.h **** #if defined(EXTI_IMR2_IM39)
 172:Drivers/STM32G4xx_HAL_Driver/Inc/stm32g4xx_ll_exti.h **** #define LL_EXTI_LINE_39                EXTI_IMR2_IM39          /*!< Extended line 39 */
 173:Drivers/STM32G4xx_HAL_Driver/Inc/stm32g4xx_ll_exti.h **** #endif /* EXTI_IMR2_IM39 */
 174:Drivers/STM32G4xx_HAL_Driver/Inc/stm32g4xx_ll_exti.h **** #if defined(EXTI_IMR2_IM40)
 175:Drivers/STM32G4xx_HAL_Driver/Inc/stm32g4xx_ll_exti.h **** #define LL_EXTI_LINE_40                EXTI_IMR2_IM40          /*!< Extended line 40 */
 176:Drivers/STM32G4xx_HAL_Driver/Inc/stm32g4xx_ll_exti.h **** #endif /* EXTI_IMR2_IM40 */
 177:Drivers/STM32G4xx_HAL_Driver/Inc/stm32g4xx_ll_exti.h **** #if defined(EXTI_IMR2_IM41)
 178:Drivers/STM32G4xx_HAL_Driver/Inc/stm32g4xx_ll_exti.h **** #define LL_EXTI_LINE_41                EXTI_IMR2_IM41          /*!< Extended line 41 */
 179:Drivers/STM32G4xx_HAL_Driver/Inc/stm32g4xx_ll_exti.h **** #endif /* EXTI_IMR2_IM41 */
 180:Drivers/STM32G4xx_HAL_Driver/Inc/stm32g4xx_ll_exti.h **** #if defined(EXTI_IMR2_IM42)
 181:Drivers/STM32G4xx_HAL_Driver/Inc/stm32g4xx_ll_exti.h **** #define LL_EXTI_LINE_42                EXTI_IMR2_IM42          /*!< Extended line 42 */
 182:Drivers/STM32G4xx_HAL_Driver/Inc/stm32g4xx_ll_exti.h **** #endif /* EXTI_IMR2_IM42 */
 183:Drivers/STM32G4xx_HAL_Driver/Inc/stm32g4xx_ll_exti.h **** #define LL_EXTI_LINE_ALL_32_63         EXTI_IMR2_IM            /*!< All Extended line not reserved*
 184:Drivers/STM32G4xx_HAL_Driver/Inc/stm32g4xx_ll_exti.h **** 
 185:Drivers/STM32G4xx_HAL_Driver/Inc/stm32g4xx_ll_exti.h **** 
 186:Drivers/STM32G4xx_HAL_Driver/Inc/stm32g4xx_ll_exti.h **** #define LL_EXTI_LINE_ALL               (0xFFFFFFFFU)  /*!< All Extended line */
 187:Drivers/STM32G4xx_HAL_Driver/Inc/stm32g4xx_ll_exti.h **** 
 188:Drivers/STM32G4xx_HAL_Driver/Inc/stm32g4xx_ll_exti.h **** #if defined(USE_FULL_LL_DRIVER)
 189:Drivers/STM32G4xx_HAL_Driver/Inc/stm32g4xx_ll_exti.h **** #define LL_EXTI_LINE_NONE              0x00000000U             /*!< None Extended line */
 190:Drivers/STM32G4xx_HAL_Driver/Inc/stm32g4xx_ll_exti.h **** #endif /*USE_FULL_LL_DRIVER*/
 191:Drivers/STM32G4xx_HAL_Driver/Inc/stm32g4xx_ll_exti.h **** 
 192:Drivers/STM32G4xx_HAL_Driver/Inc/stm32g4xx_ll_exti.h **** /**
 193:Drivers/STM32G4xx_HAL_Driver/Inc/stm32g4xx_ll_exti.h ****   * @}
 194:Drivers/STM32G4xx_HAL_Driver/Inc/stm32g4xx_ll_exti.h ****   */
 195:Drivers/STM32G4xx_HAL_Driver/Inc/stm32g4xx_ll_exti.h **** #if defined(USE_FULL_LL_DRIVER)
 196:Drivers/STM32G4xx_HAL_Driver/Inc/stm32g4xx_ll_exti.h **** 
 197:Drivers/STM32G4xx_HAL_Driver/Inc/stm32g4xx_ll_exti.h **** /** @defgroup EXTI_LL_EC_MODE Mode
 198:Drivers/STM32G4xx_HAL_Driver/Inc/stm32g4xx_ll_exti.h ****   * @{
 199:Drivers/STM32G4xx_HAL_Driver/Inc/stm32g4xx_ll_exti.h ****   */
 200:Drivers/STM32G4xx_HAL_Driver/Inc/stm32g4xx_ll_exti.h **** #define LL_EXTI_MODE_IT                 ((uint8_t)0x00U) /*!< Interrupt Mode */
 201:Drivers/STM32G4xx_HAL_Driver/Inc/stm32g4xx_ll_exti.h **** #define LL_EXTI_MODE_EVENT              ((uint8_t)0x01U) /*!< Event Mode */
 202:Drivers/STM32G4xx_HAL_Driver/Inc/stm32g4xx_ll_exti.h **** #define LL_EXTI_MODE_IT_EVENT           ((uint8_t)0x02U) /*!< Interrupt & Event Mode */
 203:Drivers/STM32G4xx_HAL_Driver/Inc/stm32g4xx_ll_exti.h **** /**
 204:Drivers/STM32G4xx_HAL_Driver/Inc/stm32g4xx_ll_exti.h ****   * @}
 205:Drivers/STM32G4xx_HAL_Driver/Inc/stm32g4xx_ll_exti.h ****   */
 206:Drivers/STM32G4xx_HAL_Driver/Inc/stm32g4xx_ll_exti.h **** 
 207:Drivers/STM32G4xx_HAL_Driver/Inc/stm32g4xx_ll_exti.h **** /** @defgroup EXTI_LL_EC_TRIGGER Edge Trigger
 208:Drivers/STM32G4xx_HAL_Driver/Inc/stm32g4xx_ll_exti.h ****   * @{
 209:Drivers/STM32G4xx_HAL_Driver/Inc/stm32g4xx_ll_exti.h ****   */
 210:Drivers/STM32G4xx_HAL_Driver/Inc/stm32g4xx_ll_exti.h **** #define LL_EXTI_TRIGGER_NONE            ((uint8_t)0x00U) /*!< No Trigger Mode */
 211:Drivers/STM32G4xx_HAL_Driver/Inc/stm32g4xx_ll_exti.h **** #define LL_EXTI_TRIGGER_RISING          ((uint8_t)0x01U) /*!< Trigger Rising Mode */
 212:Drivers/STM32G4xx_HAL_Driver/Inc/stm32g4xx_ll_exti.h **** #define LL_EXTI_TRIGGER_FALLING         ((uint8_t)0x02U) /*!< Trigger Falling Mode */
 213:Drivers/STM32G4xx_HAL_Driver/Inc/stm32g4xx_ll_exti.h **** #define LL_EXTI_TRIGGER_RISING_FALLING  ((uint8_t)0x03U) /*!< Trigger Rising & Falling Mode */
 214:Drivers/STM32G4xx_HAL_Driver/Inc/stm32g4xx_ll_exti.h **** 
 215:Drivers/STM32G4xx_HAL_Driver/Inc/stm32g4xx_ll_exti.h **** /**
 216:Drivers/STM32G4xx_HAL_Driver/Inc/stm32g4xx_ll_exti.h ****   * @}
 217:Drivers/STM32G4xx_HAL_Driver/Inc/stm32g4xx_ll_exti.h ****   */
 218:Drivers/STM32G4xx_HAL_Driver/Inc/stm32g4xx_ll_exti.h **** 
 219:Drivers/STM32G4xx_HAL_Driver/Inc/stm32g4xx_ll_exti.h **** 
 220:Drivers/STM32G4xx_HAL_Driver/Inc/stm32g4xx_ll_exti.h **** #endif /*USE_FULL_LL_DRIVER*/
 221:Drivers/STM32G4xx_HAL_Driver/Inc/stm32g4xx_ll_exti.h **** 
 222:Drivers/STM32G4xx_HAL_Driver/Inc/stm32g4xx_ll_exti.h **** 
 223:Drivers/STM32G4xx_HAL_Driver/Inc/stm32g4xx_ll_exti.h **** /**
 224:Drivers/STM32G4xx_HAL_Driver/Inc/stm32g4xx_ll_exti.h ****   * @}
 225:Drivers/STM32G4xx_HAL_Driver/Inc/stm32g4xx_ll_exti.h ****   */
 226:Drivers/STM32G4xx_HAL_Driver/Inc/stm32g4xx_ll_exti.h **** 
ARM GAS  D:\apps\VSCode\data\tmp\cclbo69C.s 			page 11


 227:Drivers/STM32G4xx_HAL_Driver/Inc/stm32g4xx_ll_exti.h **** /* Exported macro ------------------------------------------------------------*/
 228:Drivers/STM32G4xx_HAL_Driver/Inc/stm32g4xx_ll_exti.h **** /** @defgroup EXTI_LL_Exported_Macros EXTI Exported Macros
 229:Drivers/STM32G4xx_HAL_Driver/Inc/stm32g4xx_ll_exti.h ****   * @{
 230:Drivers/STM32G4xx_HAL_Driver/Inc/stm32g4xx_ll_exti.h ****   */
 231:Drivers/STM32G4xx_HAL_Driver/Inc/stm32g4xx_ll_exti.h **** 
 232:Drivers/STM32G4xx_HAL_Driver/Inc/stm32g4xx_ll_exti.h **** /** @defgroup EXTI_LL_EM_WRITE_READ Common Write and read registers Macros
 233:Drivers/STM32G4xx_HAL_Driver/Inc/stm32g4xx_ll_exti.h ****   * @{
 234:Drivers/STM32G4xx_HAL_Driver/Inc/stm32g4xx_ll_exti.h ****   */
 235:Drivers/STM32G4xx_HAL_Driver/Inc/stm32g4xx_ll_exti.h **** 
 236:Drivers/STM32G4xx_HAL_Driver/Inc/stm32g4xx_ll_exti.h **** /**
 237:Drivers/STM32G4xx_HAL_Driver/Inc/stm32g4xx_ll_exti.h ****   * @brief  Write a value in EXTI register
 238:Drivers/STM32G4xx_HAL_Driver/Inc/stm32g4xx_ll_exti.h ****   * @param  __REG__ Register to be written
 239:Drivers/STM32G4xx_HAL_Driver/Inc/stm32g4xx_ll_exti.h ****   * @param  __VALUE__ Value to be written in the register
 240:Drivers/STM32G4xx_HAL_Driver/Inc/stm32g4xx_ll_exti.h ****   * @retval None
 241:Drivers/STM32G4xx_HAL_Driver/Inc/stm32g4xx_ll_exti.h ****   */
 242:Drivers/STM32G4xx_HAL_Driver/Inc/stm32g4xx_ll_exti.h **** #define LL_EXTI_WriteReg(__REG__, __VALUE__) WRITE_REG(EXTI->__REG__, (__VALUE__))
 243:Drivers/STM32G4xx_HAL_Driver/Inc/stm32g4xx_ll_exti.h **** 
 244:Drivers/STM32G4xx_HAL_Driver/Inc/stm32g4xx_ll_exti.h **** /**
 245:Drivers/STM32G4xx_HAL_Driver/Inc/stm32g4xx_ll_exti.h ****   * @brief  Read a value in EXTI register
 246:Drivers/STM32G4xx_HAL_Driver/Inc/stm32g4xx_ll_exti.h ****   * @param  __REG__ Register to be read
 247:Drivers/STM32G4xx_HAL_Driver/Inc/stm32g4xx_ll_exti.h ****   * @retval Register value
 248:Drivers/STM32G4xx_HAL_Driver/Inc/stm32g4xx_ll_exti.h ****   */
 249:Drivers/STM32G4xx_HAL_Driver/Inc/stm32g4xx_ll_exti.h **** #define LL_EXTI_ReadReg(__REG__) READ_REG(EXTI->__REG__)
 250:Drivers/STM32G4xx_HAL_Driver/Inc/stm32g4xx_ll_exti.h **** /**
 251:Drivers/STM32G4xx_HAL_Driver/Inc/stm32g4xx_ll_exti.h ****   * @}
 252:Drivers/STM32G4xx_HAL_Driver/Inc/stm32g4xx_ll_exti.h ****   */
 253:Drivers/STM32G4xx_HAL_Driver/Inc/stm32g4xx_ll_exti.h **** 
 254:Drivers/STM32G4xx_HAL_Driver/Inc/stm32g4xx_ll_exti.h **** 
 255:Drivers/STM32G4xx_HAL_Driver/Inc/stm32g4xx_ll_exti.h **** /**
 256:Drivers/STM32G4xx_HAL_Driver/Inc/stm32g4xx_ll_exti.h ****   * @}
 257:Drivers/STM32G4xx_HAL_Driver/Inc/stm32g4xx_ll_exti.h ****   */
 258:Drivers/STM32G4xx_HAL_Driver/Inc/stm32g4xx_ll_exti.h **** 
 259:Drivers/STM32G4xx_HAL_Driver/Inc/stm32g4xx_ll_exti.h **** 
 260:Drivers/STM32G4xx_HAL_Driver/Inc/stm32g4xx_ll_exti.h **** 
 261:Drivers/STM32G4xx_HAL_Driver/Inc/stm32g4xx_ll_exti.h **** /* Exported functions --------------------------------------------------------*/
 262:Drivers/STM32G4xx_HAL_Driver/Inc/stm32g4xx_ll_exti.h **** /** @defgroup EXTI_LL_Exported_Functions EXTI Exported Functions
 263:Drivers/STM32G4xx_HAL_Driver/Inc/stm32g4xx_ll_exti.h ****   * @{
 264:Drivers/STM32G4xx_HAL_Driver/Inc/stm32g4xx_ll_exti.h ****   */
 265:Drivers/STM32G4xx_HAL_Driver/Inc/stm32g4xx_ll_exti.h **** /** @defgroup EXTI_LL_EF_IT_Management IT_Management
 266:Drivers/STM32G4xx_HAL_Driver/Inc/stm32g4xx_ll_exti.h ****   * @{
 267:Drivers/STM32G4xx_HAL_Driver/Inc/stm32g4xx_ll_exti.h ****   */
 268:Drivers/STM32G4xx_HAL_Driver/Inc/stm32g4xx_ll_exti.h **** 
 269:Drivers/STM32G4xx_HAL_Driver/Inc/stm32g4xx_ll_exti.h **** /**
 270:Drivers/STM32G4xx_HAL_Driver/Inc/stm32g4xx_ll_exti.h ****   * @brief  Enable ExtiLine Interrupt request for Lines in range 0 to 31
 271:Drivers/STM32G4xx_HAL_Driver/Inc/stm32g4xx_ll_exti.h ****   * @note The reset value for the direct or internal lines (see RM)
 272:Drivers/STM32G4xx_HAL_Driver/Inc/stm32g4xx_ll_exti.h ****   *       is set to 1 in order to enable the interrupt by default.
 273:Drivers/STM32G4xx_HAL_Driver/Inc/stm32g4xx_ll_exti.h ****   *       Bits are set automatically at Power on.
 274:Drivers/STM32G4xx_HAL_Driver/Inc/stm32g4xx_ll_exti.h ****   * @rmtoll IMR1         IMx           LL_EXTI_EnableIT_0_31
 275:Drivers/STM32G4xx_HAL_Driver/Inc/stm32g4xx_ll_exti.h ****   * @param  ExtiLine This parameter can be one of the following values:
 276:Drivers/STM32G4xx_HAL_Driver/Inc/stm32g4xx_ll_exti.h ****   *         @arg @ref LL_EXTI_LINE_0
 277:Drivers/STM32G4xx_HAL_Driver/Inc/stm32g4xx_ll_exti.h ****   *         @arg @ref LL_EXTI_LINE_1
 278:Drivers/STM32G4xx_HAL_Driver/Inc/stm32g4xx_ll_exti.h ****   *         @arg @ref LL_EXTI_LINE_2
 279:Drivers/STM32G4xx_HAL_Driver/Inc/stm32g4xx_ll_exti.h ****   *         @arg @ref LL_EXTI_LINE_3
 280:Drivers/STM32G4xx_HAL_Driver/Inc/stm32g4xx_ll_exti.h ****   *         @arg @ref LL_EXTI_LINE_4
 281:Drivers/STM32G4xx_HAL_Driver/Inc/stm32g4xx_ll_exti.h ****   *         @arg @ref LL_EXTI_LINE_5
 282:Drivers/STM32G4xx_HAL_Driver/Inc/stm32g4xx_ll_exti.h ****   *         @arg @ref LL_EXTI_LINE_6
 283:Drivers/STM32G4xx_HAL_Driver/Inc/stm32g4xx_ll_exti.h ****   *         @arg @ref LL_EXTI_LINE_7
ARM GAS  D:\apps\VSCode\data\tmp\cclbo69C.s 			page 12


 284:Drivers/STM32G4xx_HAL_Driver/Inc/stm32g4xx_ll_exti.h ****   *         @arg @ref LL_EXTI_LINE_8
 285:Drivers/STM32G4xx_HAL_Driver/Inc/stm32g4xx_ll_exti.h ****   *         @arg @ref LL_EXTI_LINE_9
 286:Drivers/STM32G4xx_HAL_Driver/Inc/stm32g4xx_ll_exti.h ****   *         @arg @ref LL_EXTI_LINE_10
 287:Drivers/STM32G4xx_HAL_Driver/Inc/stm32g4xx_ll_exti.h ****   *         @arg @ref LL_EXTI_LINE_11
 288:Drivers/STM32G4xx_HAL_Driver/Inc/stm32g4xx_ll_exti.h ****   *         @arg @ref LL_EXTI_LINE_12
 289:Drivers/STM32G4xx_HAL_Driver/Inc/stm32g4xx_ll_exti.h ****   *         @arg @ref LL_EXTI_LINE_13
 290:Drivers/STM32G4xx_HAL_Driver/Inc/stm32g4xx_ll_exti.h ****   *         @arg @ref LL_EXTI_LINE_14
 291:Drivers/STM32G4xx_HAL_Driver/Inc/stm32g4xx_ll_exti.h ****   *         @arg @ref LL_EXTI_LINE_15
 292:Drivers/STM32G4xx_HAL_Driver/Inc/stm32g4xx_ll_exti.h ****   *         @arg @ref LL_EXTI_LINE_16
 293:Drivers/STM32G4xx_HAL_Driver/Inc/stm32g4xx_ll_exti.h ****   *         @arg @ref LL_EXTI_LINE_17
 294:Drivers/STM32G4xx_HAL_Driver/Inc/stm32g4xx_ll_exti.h ****   *         @arg @ref LL_EXTI_LINE_18
 295:Drivers/STM32G4xx_HAL_Driver/Inc/stm32g4xx_ll_exti.h ****   *         @arg @ref LL_EXTI_LINE_19
 296:Drivers/STM32G4xx_HAL_Driver/Inc/stm32g4xx_ll_exti.h ****   *         @arg @ref LL_EXTI_LINE_20
 297:Drivers/STM32G4xx_HAL_Driver/Inc/stm32g4xx_ll_exti.h ****   *         @arg @ref LL_EXTI_LINE_21
 298:Drivers/STM32G4xx_HAL_Driver/Inc/stm32g4xx_ll_exti.h ****   *         @arg @ref LL_EXTI_LINE_22
 299:Drivers/STM32G4xx_HAL_Driver/Inc/stm32g4xx_ll_exti.h ****   *         @arg @ref LL_EXTI_LINE_23
 300:Drivers/STM32G4xx_HAL_Driver/Inc/stm32g4xx_ll_exti.h ****   *         @arg @ref LL_EXTI_LINE_24
 301:Drivers/STM32G4xx_HAL_Driver/Inc/stm32g4xx_ll_exti.h ****   *         @arg @ref LL_EXTI_LINE_25
 302:Drivers/STM32G4xx_HAL_Driver/Inc/stm32g4xx_ll_exti.h ****   *         @arg @ref LL_EXTI_LINE_26
 303:Drivers/STM32G4xx_HAL_Driver/Inc/stm32g4xx_ll_exti.h ****   *         @arg @ref LL_EXTI_LINE_27
 304:Drivers/STM32G4xx_HAL_Driver/Inc/stm32g4xx_ll_exti.h ****   *         @arg @ref LL_EXTI_LINE_28
 305:Drivers/STM32G4xx_HAL_Driver/Inc/stm32g4xx_ll_exti.h ****   *         @arg @ref LL_EXTI_LINE_29
 306:Drivers/STM32G4xx_HAL_Driver/Inc/stm32g4xx_ll_exti.h ****   *         @arg @ref LL_EXTI_LINE_30
 307:Drivers/STM32G4xx_HAL_Driver/Inc/stm32g4xx_ll_exti.h ****   *         @arg @ref LL_EXTI_LINE_31 (*)
 308:Drivers/STM32G4xx_HAL_Driver/Inc/stm32g4xx_ll_exti.h ****   *         @arg @ref LL_EXTI_LINE_ALL_0_31
 309:Drivers/STM32G4xx_HAL_Driver/Inc/stm32g4xx_ll_exti.h ****   * @note   (*): Available in some devices
 310:Drivers/STM32G4xx_HAL_Driver/Inc/stm32g4xx_ll_exti.h ****   * @note   Please check each device line mapping for EXTI Line availability
 311:Drivers/STM32G4xx_HAL_Driver/Inc/stm32g4xx_ll_exti.h ****   * @retval None
 312:Drivers/STM32G4xx_HAL_Driver/Inc/stm32g4xx_ll_exti.h ****   */
 313:Drivers/STM32G4xx_HAL_Driver/Inc/stm32g4xx_ll_exti.h **** __STATIC_INLINE void LL_EXTI_EnableIT_0_31(uint32_t ExtiLine)
 314:Drivers/STM32G4xx_HAL_Driver/Inc/stm32g4xx_ll_exti.h **** {
 315:Drivers/STM32G4xx_HAL_Driver/Inc/stm32g4xx_ll_exti.h ****   SET_BIT(EXTI->IMR1, ExtiLine);
 316:Drivers/STM32G4xx_HAL_Driver/Inc/stm32g4xx_ll_exti.h **** }
 317:Drivers/STM32G4xx_HAL_Driver/Inc/stm32g4xx_ll_exti.h **** /**
 318:Drivers/STM32G4xx_HAL_Driver/Inc/stm32g4xx_ll_exti.h ****   * @brief  Enable ExtiLine Interrupt request for Lines in range 32 to 63
 319:Drivers/STM32G4xx_HAL_Driver/Inc/stm32g4xx_ll_exti.h ****   * @note The reset value for the direct lines (lines from 32 to 34, line
 320:Drivers/STM32G4xx_HAL_Driver/Inc/stm32g4xx_ll_exti.h ****   *       39) is set to 1 in order to enable the interrupt by default.
 321:Drivers/STM32G4xx_HAL_Driver/Inc/stm32g4xx_ll_exti.h ****   *       Bits are set automatically at Power on.
 322:Drivers/STM32G4xx_HAL_Driver/Inc/stm32g4xx_ll_exti.h ****   * @rmtoll IMR2         IMx           LL_EXTI_EnableIT_32_63
 323:Drivers/STM32G4xx_HAL_Driver/Inc/stm32g4xx_ll_exti.h ****   * @param  ExtiLine This parameter can be one of the following values:
 324:Drivers/STM32G4xx_HAL_Driver/Inc/stm32g4xx_ll_exti.h ****   *         @arg @ref LL_EXTI_LINE_32 (*)
 325:Drivers/STM32G4xx_HAL_Driver/Inc/stm32g4xx_ll_exti.h ****   *         @arg @ref LL_EXTI_LINE_33 (*)
 326:Drivers/STM32G4xx_HAL_Driver/Inc/stm32g4xx_ll_exti.h ****   *         @arg @ref LL_EXTI_LINE_34
 327:Drivers/STM32G4xx_HAL_Driver/Inc/stm32g4xx_ll_exti.h ****   *         @arg @ref LL_EXTI_LINE_35 (*)
 328:Drivers/STM32G4xx_HAL_Driver/Inc/stm32g4xx_ll_exti.h ****   *         @arg @ref LL_EXTI_LINE_36
 329:Drivers/STM32G4xx_HAL_Driver/Inc/stm32g4xx_ll_exti.h ****   *         @arg @ref LL_EXTI_LINE_37
 330:Drivers/STM32G4xx_HAL_Driver/Inc/stm32g4xx_ll_exti.h ****   *         @arg @ref LL_EXTI_LINE_38
 331:Drivers/STM32G4xx_HAL_Driver/Inc/stm32g4xx_ll_exti.h ****   *         @arg @ref LL_EXTI_LINE_39
 332:Drivers/STM32G4xx_HAL_Driver/Inc/stm32g4xx_ll_exti.h ****   *         @arg @ref LL_EXTI_LINE_40
 333:Drivers/STM32G4xx_HAL_Driver/Inc/stm32g4xx_ll_exti.h ****   *         @arg @ref LL_EXTI_LINE_41
 334:Drivers/STM32G4xx_HAL_Driver/Inc/stm32g4xx_ll_exti.h ****   *         @arg @ref LL_EXTI_LINE_42(*)
 335:Drivers/STM32G4xx_HAL_Driver/Inc/stm32g4xx_ll_exti.h ****   *         @arg @ref LL_EXTI_LINE_ALL_32_63
 336:Drivers/STM32G4xx_HAL_Driver/Inc/stm32g4xx_ll_exti.h ****   * @note   (*): Available in some devices
 337:Drivers/STM32G4xx_HAL_Driver/Inc/stm32g4xx_ll_exti.h ****   * @retval None
 338:Drivers/STM32G4xx_HAL_Driver/Inc/stm32g4xx_ll_exti.h ****   */
 339:Drivers/STM32G4xx_HAL_Driver/Inc/stm32g4xx_ll_exti.h **** __STATIC_INLINE void LL_EXTI_EnableIT_32_63(uint32_t ExtiLine)
 340:Drivers/STM32G4xx_HAL_Driver/Inc/stm32g4xx_ll_exti.h **** {
ARM GAS  D:\apps\VSCode\data\tmp\cclbo69C.s 			page 13


 341:Drivers/STM32G4xx_HAL_Driver/Inc/stm32g4xx_ll_exti.h ****   SET_BIT(EXTI->IMR2, ExtiLine);
 342:Drivers/STM32G4xx_HAL_Driver/Inc/stm32g4xx_ll_exti.h **** }
 343:Drivers/STM32G4xx_HAL_Driver/Inc/stm32g4xx_ll_exti.h **** 
 344:Drivers/STM32G4xx_HAL_Driver/Inc/stm32g4xx_ll_exti.h **** /**
 345:Drivers/STM32G4xx_HAL_Driver/Inc/stm32g4xx_ll_exti.h ****   * @brief  Disable ExtiLine Interrupt request for Lines in range 0 to 31
 346:Drivers/STM32G4xx_HAL_Driver/Inc/stm32g4xx_ll_exti.h ****   * @note The reset value for the direct or internal lines (see RM)
 347:Drivers/STM32G4xx_HAL_Driver/Inc/stm32g4xx_ll_exti.h ****   *       is set to 1 in order to enable the interrupt by default.
 348:Drivers/STM32G4xx_HAL_Driver/Inc/stm32g4xx_ll_exti.h ****   *       Bits are set automatically at Power on.
 349:Drivers/STM32G4xx_HAL_Driver/Inc/stm32g4xx_ll_exti.h ****   * @rmtoll IMR1         IMx           LL_EXTI_DisableIT_0_31
 350:Drivers/STM32G4xx_HAL_Driver/Inc/stm32g4xx_ll_exti.h ****   * @param  ExtiLine This parameter can be one of the following values:
 351:Drivers/STM32G4xx_HAL_Driver/Inc/stm32g4xx_ll_exti.h ****   *         @arg @ref LL_EXTI_LINE_0
 352:Drivers/STM32G4xx_HAL_Driver/Inc/stm32g4xx_ll_exti.h ****   *         @arg @ref LL_EXTI_LINE_1
 353:Drivers/STM32G4xx_HAL_Driver/Inc/stm32g4xx_ll_exti.h ****   *         @arg @ref LL_EXTI_LINE_2
 354:Drivers/STM32G4xx_HAL_Driver/Inc/stm32g4xx_ll_exti.h ****   *         @arg @ref LL_EXTI_LINE_3
 355:Drivers/STM32G4xx_HAL_Driver/Inc/stm32g4xx_ll_exti.h ****   *         @arg @ref LL_EXTI_LINE_4
 356:Drivers/STM32G4xx_HAL_Driver/Inc/stm32g4xx_ll_exti.h ****   *         @arg @ref LL_EXTI_LINE_5
 357:Drivers/STM32G4xx_HAL_Driver/Inc/stm32g4xx_ll_exti.h ****   *         @arg @ref LL_EXTI_LINE_6
 358:Drivers/STM32G4xx_HAL_Driver/Inc/stm32g4xx_ll_exti.h ****   *         @arg @ref LL_EXTI_LINE_7
 359:Drivers/STM32G4xx_HAL_Driver/Inc/stm32g4xx_ll_exti.h ****   *         @arg @ref LL_EXTI_LINE_8
 360:Drivers/STM32G4xx_HAL_Driver/Inc/stm32g4xx_ll_exti.h ****   *         @arg @ref LL_EXTI_LINE_9
 361:Drivers/STM32G4xx_HAL_Driver/Inc/stm32g4xx_ll_exti.h ****   *         @arg @ref LL_EXTI_LINE_10
 362:Drivers/STM32G4xx_HAL_Driver/Inc/stm32g4xx_ll_exti.h ****   *         @arg @ref LL_EXTI_LINE_11
 363:Drivers/STM32G4xx_HAL_Driver/Inc/stm32g4xx_ll_exti.h ****   *         @arg @ref LL_EXTI_LINE_12
 364:Drivers/STM32G4xx_HAL_Driver/Inc/stm32g4xx_ll_exti.h ****   *         @arg @ref LL_EXTI_LINE_13
 365:Drivers/STM32G4xx_HAL_Driver/Inc/stm32g4xx_ll_exti.h ****   *         @arg @ref LL_EXTI_LINE_14
 366:Drivers/STM32G4xx_HAL_Driver/Inc/stm32g4xx_ll_exti.h ****   *         @arg @ref LL_EXTI_LINE_15
 367:Drivers/STM32G4xx_HAL_Driver/Inc/stm32g4xx_ll_exti.h ****   *         @arg @ref LL_EXTI_LINE_16
 368:Drivers/STM32G4xx_HAL_Driver/Inc/stm32g4xx_ll_exti.h ****   *         @arg @ref LL_EXTI_LINE_17
 369:Drivers/STM32G4xx_HAL_Driver/Inc/stm32g4xx_ll_exti.h ****   *         @arg @ref LL_EXTI_LINE_18
 370:Drivers/STM32G4xx_HAL_Driver/Inc/stm32g4xx_ll_exti.h ****   *         @arg @ref LL_EXTI_LINE_19
 371:Drivers/STM32G4xx_HAL_Driver/Inc/stm32g4xx_ll_exti.h ****   *         @arg @ref LL_EXTI_LINE_20
 372:Drivers/STM32G4xx_HAL_Driver/Inc/stm32g4xx_ll_exti.h ****   *         @arg @ref LL_EXTI_LINE_21
 373:Drivers/STM32G4xx_HAL_Driver/Inc/stm32g4xx_ll_exti.h ****   *         @arg @ref LL_EXTI_LINE_22
 374:Drivers/STM32G4xx_HAL_Driver/Inc/stm32g4xx_ll_exti.h ****   *         @arg @ref LL_EXTI_LINE_23
 375:Drivers/STM32G4xx_HAL_Driver/Inc/stm32g4xx_ll_exti.h ****   *         @arg @ref LL_EXTI_LINE_24
 376:Drivers/STM32G4xx_HAL_Driver/Inc/stm32g4xx_ll_exti.h ****   *         @arg @ref LL_EXTI_LINE_25
 377:Drivers/STM32G4xx_HAL_Driver/Inc/stm32g4xx_ll_exti.h ****   *         @arg @ref LL_EXTI_LINE_26
 378:Drivers/STM32G4xx_HAL_Driver/Inc/stm32g4xx_ll_exti.h ****   *         @arg @ref LL_EXTI_LINE_27
 379:Drivers/STM32G4xx_HAL_Driver/Inc/stm32g4xx_ll_exti.h ****   *         @arg @ref LL_EXTI_LINE_28
 380:Drivers/STM32G4xx_HAL_Driver/Inc/stm32g4xx_ll_exti.h ****   *         @arg @ref LL_EXTI_LINE_29
 381:Drivers/STM32G4xx_HAL_Driver/Inc/stm32g4xx_ll_exti.h ****   *         @arg @ref LL_EXTI_LINE_30
 382:Drivers/STM32G4xx_HAL_Driver/Inc/stm32g4xx_ll_exti.h ****   *         @arg @ref LL_EXTI_LINE_31
 383:Drivers/STM32G4xx_HAL_Driver/Inc/stm32g4xx_ll_exti.h ****   *         @arg @ref LL_EXTI_LINE_ALL_0_31 (*)
 384:Drivers/STM32G4xx_HAL_Driver/Inc/stm32g4xx_ll_exti.h ****   * @note   (*): Available in some devices
 385:Drivers/STM32G4xx_HAL_Driver/Inc/stm32g4xx_ll_exti.h ****   * @note   Please check each device line mapping for EXTI Line availability
 386:Drivers/STM32G4xx_HAL_Driver/Inc/stm32g4xx_ll_exti.h ****   * @retval None
 387:Drivers/STM32G4xx_HAL_Driver/Inc/stm32g4xx_ll_exti.h ****   */
 388:Drivers/STM32G4xx_HAL_Driver/Inc/stm32g4xx_ll_exti.h **** __STATIC_INLINE void LL_EXTI_DisableIT_0_31(uint32_t ExtiLine)
 389:Drivers/STM32G4xx_HAL_Driver/Inc/stm32g4xx_ll_exti.h **** {
 390:Drivers/STM32G4xx_HAL_Driver/Inc/stm32g4xx_ll_exti.h ****   CLEAR_BIT(EXTI->IMR1, ExtiLine);
 391:Drivers/STM32G4xx_HAL_Driver/Inc/stm32g4xx_ll_exti.h **** }
 392:Drivers/STM32G4xx_HAL_Driver/Inc/stm32g4xx_ll_exti.h **** 
 393:Drivers/STM32G4xx_HAL_Driver/Inc/stm32g4xx_ll_exti.h **** /**
 394:Drivers/STM32G4xx_HAL_Driver/Inc/stm32g4xx_ll_exti.h ****   * @brief  Disable ExtiLine Interrupt request for Lines in range 32 to 63
 395:Drivers/STM32G4xx_HAL_Driver/Inc/stm32g4xx_ll_exti.h ****   * @note The reset value for the direct lines (lines from 32 to 34, line
 396:Drivers/STM32G4xx_HAL_Driver/Inc/stm32g4xx_ll_exti.h ****   *       39) is set to 1 in order to enable the interrupt by default.
 397:Drivers/STM32G4xx_HAL_Driver/Inc/stm32g4xx_ll_exti.h ****   *       Bits are set automatically at Power on.
ARM GAS  D:\apps\VSCode\data\tmp\cclbo69C.s 			page 14


 398:Drivers/STM32G4xx_HAL_Driver/Inc/stm32g4xx_ll_exti.h ****   * @rmtoll IMR2         IMx           LL_EXTI_DisableIT_32_63
 399:Drivers/STM32G4xx_HAL_Driver/Inc/stm32g4xx_ll_exti.h ****   * @param  ExtiLine This parameter can be one of the following values:
 400:Drivers/STM32G4xx_HAL_Driver/Inc/stm32g4xx_ll_exti.h ****   *         @arg @ref LL_EXTI_LINE_32 (*)
 401:Drivers/STM32G4xx_HAL_Driver/Inc/stm32g4xx_ll_exti.h ****   *         @arg @ref LL_EXTI_LINE_33 (*)
 402:Drivers/STM32G4xx_HAL_Driver/Inc/stm32g4xx_ll_exti.h ****   *         @arg @ref LL_EXTI_LINE_34
 403:Drivers/STM32G4xx_HAL_Driver/Inc/stm32g4xx_ll_exti.h ****   *         @arg @ref LL_EXTI_LINE_35 (*)
 404:Drivers/STM32G4xx_HAL_Driver/Inc/stm32g4xx_ll_exti.h ****   *         @arg @ref LL_EXTI_LINE_36
 405:Drivers/STM32G4xx_HAL_Driver/Inc/stm32g4xx_ll_exti.h ****   *         @arg @ref LL_EXTI_LINE_37
 406:Drivers/STM32G4xx_HAL_Driver/Inc/stm32g4xx_ll_exti.h ****   *         @arg @ref LL_EXTI_LINE_38
 407:Drivers/STM32G4xx_HAL_Driver/Inc/stm32g4xx_ll_exti.h ****   *         @arg @ref LL_EXTI_LINE_39
 408:Drivers/STM32G4xx_HAL_Driver/Inc/stm32g4xx_ll_exti.h ****   *         @arg @ref LL_EXTI_LINE_40
 409:Drivers/STM32G4xx_HAL_Driver/Inc/stm32g4xx_ll_exti.h ****   *         @arg @ref LL_EXTI_LINE_41
 410:Drivers/STM32G4xx_HAL_Driver/Inc/stm32g4xx_ll_exti.h ****   *         @arg @ref LL_EXTI_LINE_42(*)
 411:Drivers/STM32G4xx_HAL_Driver/Inc/stm32g4xx_ll_exti.h ****   *         @arg @ref LL_EXTI_LINE_ALL_32_63
 412:Drivers/STM32G4xx_HAL_Driver/Inc/stm32g4xx_ll_exti.h ****   * @note   (*): Available in some devices
 413:Drivers/STM32G4xx_HAL_Driver/Inc/stm32g4xx_ll_exti.h ****   * @retval None
 414:Drivers/STM32G4xx_HAL_Driver/Inc/stm32g4xx_ll_exti.h ****   */
 415:Drivers/STM32G4xx_HAL_Driver/Inc/stm32g4xx_ll_exti.h **** __STATIC_INLINE void LL_EXTI_DisableIT_32_63(uint32_t ExtiLine)
 416:Drivers/STM32G4xx_HAL_Driver/Inc/stm32g4xx_ll_exti.h **** {
 417:Drivers/STM32G4xx_HAL_Driver/Inc/stm32g4xx_ll_exti.h ****   CLEAR_BIT(EXTI->IMR2, ExtiLine);
 418:Drivers/STM32G4xx_HAL_Driver/Inc/stm32g4xx_ll_exti.h **** }
 419:Drivers/STM32G4xx_HAL_Driver/Inc/stm32g4xx_ll_exti.h **** 
 420:Drivers/STM32G4xx_HAL_Driver/Inc/stm32g4xx_ll_exti.h **** /**
 421:Drivers/STM32G4xx_HAL_Driver/Inc/stm32g4xx_ll_exti.h ****   * @brief  Indicate if ExtiLine Interrupt request is enabled for Lines in range 0 to 31
 422:Drivers/STM32G4xx_HAL_Driver/Inc/stm32g4xx_ll_exti.h ****   * @note The reset value for the direct or internal lines (see RM)
 423:Drivers/STM32G4xx_HAL_Driver/Inc/stm32g4xx_ll_exti.h ****   *       is set to 1 in order to enable the interrupt by default.
 424:Drivers/STM32G4xx_HAL_Driver/Inc/stm32g4xx_ll_exti.h ****   *       Bits are set automatically at Power on.
 425:Drivers/STM32G4xx_HAL_Driver/Inc/stm32g4xx_ll_exti.h ****   * @rmtoll IMR1         IMx           LL_EXTI_IsEnabledIT_0_31
 426:Drivers/STM32G4xx_HAL_Driver/Inc/stm32g4xx_ll_exti.h ****   * @param  ExtiLine This parameter can be one of the following values:
 427:Drivers/STM32G4xx_HAL_Driver/Inc/stm32g4xx_ll_exti.h ****   *         @arg @ref LL_EXTI_LINE_0
 428:Drivers/STM32G4xx_HAL_Driver/Inc/stm32g4xx_ll_exti.h ****   *         @arg @ref LL_EXTI_LINE_1
 429:Drivers/STM32G4xx_HAL_Driver/Inc/stm32g4xx_ll_exti.h ****   *         @arg @ref LL_EXTI_LINE_2
 430:Drivers/STM32G4xx_HAL_Driver/Inc/stm32g4xx_ll_exti.h ****   *         @arg @ref LL_EXTI_LINE_3
 431:Drivers/STM32G4xx_HAL_Driver/Inc/stm32g4xx_ll_exti.h ****   *         @arg @ref LL_EXTI_LINE_4
 432:Drivers/STM32G4xx_HAL_Driver/Inc/stm32g4xx_ll_exti.h ****   *         @arg @ref LL_EXTI_LINE_5
 433:Drivers/STM32G4xx_HAL_Driver/Inc/stm32g4xx_ll_exti.h ****   *         @arg @ref LL_EXTI_LINE_6
 434:Drivers/STM32G4xx_HAL_Driver/Inc/stm32g4xx_ll_exti.h ****   *         @arg @ref LL_EXTI_LINE_7
 435:Drivers/STM32G4xx_HAL_Driver/Inc/stm32g4xx_ll_exti.h ****   *         @arg @ref LL_EXTI_LINE_8
 436:Drivers/STM32G4xx_HAL_Driver/Inc/stm32g4xx_ll_exti.h ****   *         @arg @ref LL_EXTI_LINE_9
 437:Drivers/STM32G4xx_HAL_Driver/Inc/stm32g4xx_ll_exti.h ****   *         @arg @ref LL_EXTI_LINE_10
 438:Drivers/STM32G4xx_HAL_Driver/Inc/stm32g4xx_ll_exti.h ****   *         @arg @ref LL_EXTI_LINE_11
 439:Drivers/STM32G4xx_HAL_Driver/Inc/stm32g4xx_ll_exti.h ****   *         @arg @ref LL_EXTI_LINE_12
 440:Drivers/STM32G4xx_HAL_Driver/Inc/stm32g4xx_ll_exti.h ****   *         @arg @ref LL_EXTI_LINE_13
 441:Drivers/STM32G4xx_HAL_Driver/Inc/stm32g4xx_ll_exti.h ****   *         @arg @ref LL_EXTI_LINE_14
 442:Drivers/STM32G4xx_HAL_Driver/Inc/stm32g4xx_ll_exti.h ****   *         @arg @ref LL_EXTI_LINE_15
 443:Drivers/STM32G4xx_HAL_Driver/Inc/stm32g4xx_ll_exti.h ****   *         @arg @ref LL_EXTI_LINE_16
 444:Drivers/STM32G4xx_HAL_Driver/Inc/stm32g4xx_ll_exti.h ****   *         @arg @ref LL_EXTI_LINE_17
 445:Drivers/STM32G4xx_HAL_Driver/Inc/stm32g4xx_ll_exti.h ****   *         @arg @ref LL_EXTI_LINE_18
 446:Drivers/STM32G4xx_HAL_Driver/Inc/stm32g4xx_ll_exti.h ****   *         @arg @ref LL_EXTI_LINE_19
 447:Drivers/STM32G4xx_HAL_Driver/Inc/stm32g4xx_ll_exti.h ****   *         @arg @ref LL_EXTI_LINE_20
 448:Drivers/STM32G4xx_HAL_Driver/Inc/stm32g4xx_ll_exti.h ****   *         @arg @ref LL_EXTI_LINE_21
 449:Drivers/STM32G4xx_HAL_Driver/Inc/stm32g4xx_ll_exti.h ****   *         @arg @ref LL_EXTI_LINE_22
 450:Drivers/STM32G4xx_HAL_Driver/Inc/stm32g4xx_ll_exti.h ****   *         @arg @ref LL_EXTI_LINE_23
 451:Drivers/STM32G4xx_HAL_Driver/Inc/stm32g4xx_ll_exti.h ****   *         @arg @ref LL_EXTI_LINE_24
 452:Drivers/STM32G4xx_HAL_Driver/Inc/stm32g4xx_ll_exti.h ****   *         @arg @ref LL_EXTI_LINE_25
 453:Drivers/STM32G4xx_HAL_Driver/Inc/stm32g4xx_ll_exti.h ****   *         @arg @ref LL_EXTI_LINE_26
 454:Drivers/STM32G4xx_HAL_Driver/Inc/stm32g4xx_ll_exti.h ****   *         @arg @ref LL_EXTI_LINE_27
ARM GAS  D:\apps\VSCode\data\tmp\cclbo69C.s 			page 15


 455:Drivers/STM32G4xx_HAL_Driver/Inc/stm32g4xx_ll_exti.h ****   *         @arg @ref LL_EXTI_LINE_28
 456:Drivers/STM32G4xx_HAL_Driver/Inc/stm32g4xx_ll_exti.h ****   *         @arg @ref LL_EXTI_LINE_29
 457:Drivers/STM32G4xx_HAL_Driver/Inc/stm32g4xx_ll_exti.h ****   *         @arg @ref LL_EXTI_LINE_30
 458:Drivers/STM32G4xx_HAL_Driver/Inc/stm32g4xx_ll_exti.h ****   *         @arg @ref LL_EXTI_LINE_31 (*)
 459:Drivers/STM32G4xx_HAL_Driver/Inc/stm32g4xx_ll_exti.h ****   *         @arg @ref LL_EXTI_LINE_ALL_0_31
 460:Drivers/STM32G4xx_HAL_Driver/Inc/stm32g4xx_ll_exti.h ****   * @note   (*): Available in some devices
 461:Drivers/STM32G4xx_HAL_Driver/Inc/stm32g4xx_ll_exti.h ****   * @note   Please check each device line mapping for EXTI Line availability
 462:Drivers/STM32G4xx_HAL_Driver/Inc/stm32g4xx_ll_exti.h ****   * @retval State of bit (1 or 0).
 463:Drivers/STM32G4xx_HAL_Driver/Inc/stm32g4xx_ll_exti.h ****   */
 464:Drivers/STM32G4xx_HAL_Driver/Inc/stm32g4xx_ll_exti.h **** __STATIC_INLINE uint32_t LL_EXTI_IsEnabledIT_0_31(uint32_t ExtiLine)
 465:Drivers/STM32G4xx_HAL_Driver/Inc/stm32g4xx_ll_exti.h **** {
 466:Drivers/STM32G4xx_HAL_Driver/Inc/stm32g4xx_ll_exti.h ****   return ((READ_BIT(EXTI->IMR1, ExtiLine) == (ExtiLine)) ? 1UL : 0UL);
 467:Drivers/STM32G4xx_HAL_Driver/Inc/stm32g4xx_ll_exti.h **** }
 468:Drivers/STM32G4xx_HAL_Driver/Inc/stm32g4xx_ll_exti.h **** 
 469:Drivers/STM32G4xx_HAL_Driver/Inc/stm32g4xx_ll_exti.h **** /**
 470:Drivers/STM32G4xx_HAL_Driver/Inc/stm32g4xx_ll_exti.h ****   * @brief  Indicate if ExtiLine Interrupt request is enabled for Lines in range 32 to 63
 471:Drivers/STM32G4xx_HAL_Driver/Inc/stm32g4xx_ll_exti.h ****   * @note The reset value for the direct lines (lines from 32 to 34, line
 472:Drivers/STM32G4xx_HAL_Driver/Inc/stm32g4xx_ll_exti.h ****   *       39) is set to 1 in order to enable the interrupt by default.
 473:Drivers/STM32G4xx_HAL_Driver/Inc/stm32g4xx_ll_exti.h ****   *       Bits are set automatically at Power on.
 474:Drivers/STM32G4xx_HAL_Driver/Inc/stm32g4xx_ll_exti.h ****   * @rmtoll IMR2         IMx           LL_EXTI_IsEnabledIT_32_63
 475:Drivers/STM32G4xx_HAL_Driver/Inc/stm32g4xx_ll_exti.h ****   * @param  ExtiLine This parameter can be one of the following values:
 476:Drivers/STM32G4xx_HAL_Driver/Inc/stm32g4xx_ll_exti.h ****   *         @arg @ref LL_EXTI_LINE_32 (*)
 477:Drivers/STM32G4xx_HAL_Driver/Inc/stm32g4xx_ll_exti.h ****   *         @arg @ref LL_EXTI_LINE_33 (*)
 478:Drivers/STM32G4xx_HAL_Driver/Inc/stm32g4xx_ll_exti.h ****   *         @arg @ref LL_EXTI_LINE_34
 479:Drivers/STM32G4xx_HAL_Driver/Inc/stm32g4xx_ll_exti.h ****   *         @arg @ref LL_EXTI_LINE_35 (*)
 480:Drivers/STM32G4xx_HAL_Driver/Inc/stm32g4xx_ll_exti.h ****   *         @arg @ref LL_EXTI_LINE_36
 481:Drivers/STM32G4xx_HAL_Driver/Inc/stm32g4xx_ll_exti.h ****   *         @arg @ref LL_EXTI_LINE_37
 482:Drivers/STM32G4xx_HAL_Driver/Inc/stm32g4xx_ll_exti.h ****   *         @arg @ref LL_EXTI_LINE_38
 483:Drivers/STM32G4xx_HAL_Driver/Inc/stm32g4xx_ll_exti.h ****   *         @arg @ref LL_EXTI_LINE_39
 484:Drivers/STM32G4xx_HAL_Driver/Inc/stm32g4xx_ll_exti.h ****   *         @arg @ref LL_EXTI_LINE_40
 485:Drivers/STM32G4xx_HAL_Driver/Inc/stm32g4xx_ll_exti.h ****   *         @arg @ref LL_EXTI_LINE_41
 486:Drivers/STM32G4xx_HAL_Driver/Inc/stm32g4xx_ll_exti.h ****   *         @arg @ref LL_EXTI_LINE_42(*)
 487:Drivers/STM32G4xx_HAL_Driver/Inc/stm32g4xx_ll_exti.h ****   *         @arg @ref LL_EXTI_LINE_ALL_32_63
 488:Drivers/STM32G4xx_HAL_Driver/Inc/stm32g4xx_ll_exti.h ****   * @note   (*): Available in some devices
 489:Drivers/STM32G4xx_HAL_Driver/Inc/stm32g4xx_ll_exti.h ****   * @retval State of bit (1 or 0).
 490:Drivers/STM32G4xx_HAL_Driver/Inc/stm32g4xx_ll_exti.h ****   */
 491:Drivers/STM32G4xx_HAL_Driver/Inc/stm32g4xx_ll_exti.h **** __STATIC_INLINE uint32_t LL_EXTI_IsEnabledIT_32_63(uint32_t ExtiLine)
 492:Drivers/STM32G4xx_HAL_Driver/Inc/stm32g4xx_ll_exti.h **** {
 493:Drivers/STM32G4xx_HAL_Driver/Inc/stm32g4xx_ll_exti.h ****   return ((READ_BIT(EXTI->IMR2, ExtiLine) == (ExtiLine)) ? 1UL : 0UL);
 494:Drivers/STM32G4xx_HAL_Driver/Inc/stm32g4xx_ll_exti.h **** }
 495:Drivers/STM32G4xx_HAL_Driver/Inc/stm32g4xx_ll_exti.h **** 
 496:Drivers/STM32G4xx_HAL_Driver/Inc/stm32g4xx_ll_exti.h **** /**
 497:Drivers/STM32G4xx_HAL_Driver/Inc/stm32g4xx_ll_exti.h ****   * @}
 498:Drivers/STM32G4xx_HAL_Driver/Inc/stm32g4xx_ll_exti.h ****   */
 499:Drivers/STM32G4xx_HAL_Driver/Inc/stm32g4xx_ll_exti.h **** 
 500:Drivers/STM32G4xx_HAL_Driver/Inc/stm32g4xx_ll_exti.h **** /** @defgroup EXTI_LL_EF_Event_Management Event_Management
 501:Drivers/STM32G4xx_HAL_Driver/Inc/stm32g4xx_ll_exti.h ****   * @{
 502:Drivers/STM32G4xx_HAL_Driver/Inc/stm32g4xx_ll_exti.h ****   */
 503:Drivers/STM32G4xx_HAL_Driver/Inc/stm32g4xx_ll_exti.h **** 
 504:Drivers/STM32G4xx_HAL_Driver/Inc/stm32g4xx_ll_exti.h **** /**
 505:Drivers/STM32G4xx_HAL_Driver/Inc/stm32g4xx_ll_exti.h ****   * @brief  Enable ExtiLine Event request for Lines in range 0 to 31
 506:Drivers/STM32G4xx_HAL_Driver/Inc/stm32g4xx_ll_exti.h ****   * @rmtoll EMR1         EMx           LL_EXTI_EnableEvent_0_31
 507:Drivers/STM32G4xx_HAL_Driver/Inc/stm32g4xx_ll_exti.h ****   * @param  ExtiLine This parameter can be one of the following values:
 508:Drivers/STM32G4xx_HAL_Driver/Inc/stm32g4xx_ll_exti.h ****   *         @arg @ref LL_EXTI_LINE_0
 509:Drivers/STM32G4xx_HAL_Driver/Inc/stm32g4xx_ll_exti.h ****   *         @arg @ref LL_EXTI_LINE_1
 510:Drivers/STM32G4xx_HAL_Driver/Inc/stm32g4xx_ll_exti.h ****   *         @arg @ref LL_EXTI_LINE_2
 511:Drivers/STM32G4xx_HAL_Driver/Inc/stm32g4xx_ll_exti.h ****   *         @arg @ref LL_EXTI_LINE_3
ARM GAS  D:\apps\VSCode\data\tmp\cclbo69C.s 			page 16


 512:Drivers/STM32G4xx_HAL_Driver/Inc/stm32g4xx_ll_exti.h ****   *         @arg @ref LL_EXTI_LINE_4
 513:Drivers/STM32G4xx_HAL_Driver/Inc/stm32g4xx_ll_exti.h ****   *         @arg @ref LL_EXTI_LINE_5
 514:Drivers/STM32G4xx_HAL_Driver/Inc/stm32g4xx_ll_exti.h ****   *         @arg @ref LL_EXTI_LINE_6
 515:Drivers/STM32G4xx_HAL_Driver/Inc/stm32g4xx_ll_exti.h ****   *         @arg @ref LL_EXTI_LINE_7
 516:Drivers/STM32G4xx_HAL_Driver/Inc/stm32g4xx_ll_exti.h ****   *         @arg @ref LL_EXTI_LINE_8
 517:Drivers/STM32G4xx_HAL_Driver/Inc/stm32g4xx_ll_exti.h ****   *         @arg @ref LL_EXTI_LINE_9
 518:Drivers/STM32G4xx_HAL_Driver/Inc/stm32g4xx_ll_exti.h ****   *         @arg @ref LL_EXTI_LINE_10
 519:Drivers/STM32G4xx_HAL_Driver/Inc/stm32g4xx_ll_exti.h ****   *         @arg @ref LL_EXTI_LINE_11
 520:Drivers/STM32G4xx_HAL_Driver/Inc/stm32g4xx_ll_exti.h ****   *         @arg @ref LL_EXTI_LINE_12
 521:Drivers/STM32G4xx_HAL_Driver/Inc/stm32g4xx_ll_exti.h ****   *         @arg @ref LL_EXTI_LINE_13
 522:Drivers/STM32G4xx_HAL_Driver/Inc/stm32g4xx_ll_exti.h ****   *         @arg @ref LL_EXTI_LINE_14
 523:Drivers/STM32G4xx_HAL_Driver/Inc/stm32g4xx_ll_exti.h ****   *         @arg @ref LL_EXTI_LINE_15
 524:Drivers/STM32G4xx_HAL_Driver/Inc/stm32g4xx_ll_exti.h ****   *         @arg @ref LL_EXTI_LINE_16
 525:Drivers/STM32G4xx_HAL_Driver/Inc/stm32g4xx_ll_exti.h ****   *         @arg @ref LL_EXTI_LINE_17
 526:Drivers/STM32G4xx_HAL_Driver/Inc/stm32g4xx_ll_exti.h ****   *         @arg @ref LL_EXTI_LINE_18
 527:Drivers/STM32G4xx_HAL_Driver/Inc/stm32g4xx_ll_exti.h ****   *         @arg @ref LL_EXTI_LINE_19
 528:Drivers/STM32G4xx_HAL_Driver/Inc/stm32g4xx_ll_exti.h ****   *         @arg @ref LL_EXTI_LINE_20
 529:Drivers/STM32G4xx_HAL_Driver/Inc/stm32g4xx_ll_exti.h ****   *         @arg @ref LL_EXTI_LINE_21
 530:Drivers/STM32G4xx_HAL_Driver/Inc/stm32g4xx_ll_exti.h ****   *         @arg @ref LL_EXTI_LINE_22
 531:Drivers/STM32G4xx_HAL_Driver/Inc/stm32g4xx_ll_exti.h ****   *         @arg @ref LL_EXTI_LINE_23
 532:Drivers/STM32G4xx_HAL_Driver/Inc/stm32g4xx_ll_exti.h ****   *         @arg @ref LL_EXTI_LINE_24
 533:Drivers/STM32G4xx_HAL_Driver/Inc/stm32g4xx_ll_exti.h ****   *         @arg @ref LL_EXTI_LINE_25
 534:Drivers/STM32G4xx_HAL_Driver/Inc/stm32g4xx_ll_exti.h ****   *         @arg @ref LL_EXTI_LINE_26
 535:Drivers/STM32G4xx_HAL_Driver/Inc/stm32g4xx_ll_exti.h ****   *         @arg @ref LL_EXTI_LINE_27
 536:Drivers/STM32G4xx_HAL_Driver/Inc/stm32g4xx_ll_exti.h ****   *         @arg @ref LL_EXTI_LINE_28
 537:Drivers/STM32G4xx_HAL_Driver/Inc/stm32g4xx_ll_exti.h ****   *         @arg @ref LL_EXTI_LINE_29
 538:Drivers/STM32G4xx_HAL_Driver/Inc/stm32g4xx_ll_exti.h ****   *         @arg @ref LL_EXTI_LINE_30
 539:Drivers/STM32G4xx_HAL_Driver/Inc/stm32g4xx_ll_exti.h ****   *         @arg @ref LL_EXTI_LINE_31
 540:Drivers/STM32G4xx_HAL_Driver/Inc/stm32g4xx_ll_exti.h ****   *         @arg @ref LL_EXTI_LINE_ALL_0_31 (*)
 541:Drivers/STM32G4xx_HAL_Driver/Inc/stm32g4xx_ll_exti.h ****   * @note   (*): Available in some devices
 542:Drivers/STM32G4xx_HAL_Driver/Inc/stm32g4xx_ll_exti.h ****   * @note   Please check each device line mapping for EXTI Line availability
 543:Drivers/STM32G4xx_HAL_Driver/Inc/stm32g4xx_ll_exti.h ****   * @retval None
 544:Drivers/STM32G4xx_HAL_Driver/Inc/stm32g4xx_ll_exti.h ****   */
 545:Drivers/STM32G4xx_HAL_Driver/Inc/stm32g4xx_ll_exti.h **** __STATIC_INLINE void LL_EXTI_EnableEvent_0_31(uint32_t ExtiLine)
 546:Drivers/STM32G4xx_HAL_Driver/Inc/stm32g4xx_ll_exti.h **** {
 547:Drivers/STM32G4xx_HAL_Driver/Inc/stm32g4xx_ll_exti.h ****   SET_BIT(EXTI->EMR1, ExtiLine);
 548:Drivers/STM32G4xx_HAL_Driver/Inc/stm32g4xx_ll_exti.h **** 
 549:Drivers/STM32G4xx_HAL_Driver/Inc/stm32g4xx_ll_exti.h **** }
 550:Drivers/STM32G4xx_HAL_Driver/Inc/stm32g4xx_ll_exti.h **** 
 551:Drivers/STM32G4xx_HAL_Driver/Inc/stm32g4xx_ll_exti.h **** /**
 552:Drivers/STM32G4xx_HAL_Driver/Inc/stm32g4xx_ll_exti.h ****   * @brief  Enable ExtiLine Event request for Lines in range 32 to 63
 553:Drivers/STM32G4xx_HAL_Driver/Inc/stm32g4xx_ll_exti.h ****   * @rmtoll EMR2         EMx           LL_EXTI_EnableEvent_32_63
 554:Drivers/STM32G4xx_HAL_Driver/Inc/stm32g4xx_ll_exti.h ****   * @param  ExtiLine This parameter can be a combination of the following values:
 555:Drivers/STM32G4xx_HAL_Driver/Inc/stm32g4xx_ll_exti.h ****   *         @arg @ref LL_EXTI_LINE_32 (*)
 556:Drivers/STM32G4xx_HAL_Driver/Inc/stm32g4xx_ll_exti.h ****   *         @arg @ref LL_EXTI_LINE_33 (*)
 557:Drivers/STM32G4xx_HAL_Driver/Inc/stm32g4xx_ll_exti.h ****   *         @arg @ref LL_EXTI_LINE_34
 558:Drivers/STM32G4xx_HAL_Driver/Inc/stm32g4xx_ll_exti.h ****   *         @arg @ref LL_EXTI_LINE_35 (*)
 559:Drivers/STM32G4xx_HAL_Driver/Inc/stm32g4xx_ll_exti.h ****   *         @arg @ref LL_EXTI_LINE_36
 560:Drivers/STM32G4xx_HAL_Driver/Inc/stm32g4xx_ll_exti.h ****   *         @arg @ref LL_EXTI_LINE_37
 561:Drivers/STM32G4xx_HAL_Driver/Inc/stm32g4xx_ll_exti.h ****   *         @arg @ref LL_EXTI_LINE_38
 562:Drivers/STM32G4xx_HAL_Driver/Inc/stm32g4xx_ll_exti.h ****   *         @arg @ref LL_EXTI_LINE_39
 563:Drivers/STM32G4xx_HAL_Driver/Inc/stm32g4xx_ll_exti.h ****   *         @arg @ref LL_EXTI_LINE_40
 564:Drivers/STM32G4xx_HAL_Driver/Inc/stm32g4xx_ll_exti.h ****   *         @arg @ref LL_EXTI_LINE_41
 565:Drivers/STM32G4xx_HAL_Driver/Inc/stm32g4xx_ll_exti.h ****   *         @arg @ref LL_EXTI_LINE_42(*)
 566:Drivers/STM32G4xx_HAL_Driver/Inc/stm32g4xx_ll_exti.h ****   *         @arg @ref LL_EXTI_LINE_ALL_32_63
 567:Drivers/STM32G4xx_HAL_Driver/Inc/stm32g4xx_ll_exti.h ****   * @note   (*): Available in some devices
 568:Drivers/STM32G4xx_HAL_Driver/Inc/stm32g4xx_ll_exti.h ****   * @retval None
ARM GAS  D:\apps\VSCode\data\tmp\cclbo69C.s 			page 17


 569:Drivers/STM32G4xx_HAL_Driver/Inc/stm32g4xx_ll_exti.h ****   */
 570:Drivers/STM32G4xx_HAL_Driver/Inc/stm32g4xx_ll_exti.h **** __STATIC_INLINE void LL_EXTI_EnableEvent_32_63(uint32_t ExtiLine)
 571:Drivers/STM32G4xx_HAL_Driver/Inc/stm32g4xx_ll_exti.h **** {
 572:Drivers/STM32G4xx_HAL_Driver/Inc/stm32g4xx_ll_exti.h ****   SET_BIT(EXTI->EMR2, ExtiLine);
 573:Drivers/STM32G4xx_HAL_Driver/Inc/stm32g4xx_ll_exti.h **** }
 574:Drivers/STM32G4xx_HAL_Driver/Inc/stm32g4xx_ll_exti.h **** 
 575:Drivers/STM32G4xx_HAL_Driver/Inc/stm32g4xx_ll_exti.h **** /**
 576:Drivers/STM32G4xx_HAL_Driver/Inc/stm32g4xx_ll_exti.h ****   * @brief  Disable ExtiLine Event request for Lines in range 0 to 31
 577:Drivers/STM32G4xx_HAL_Driver/Inc/stm32g4xx_ll_exti.h ****   * @rmtoll EMR1         EMx           LL_EXTI_DisableEvent_0_31
 578:Drivers/STM32G4xx_HAL_Driver/Inc/stm32g4xx_ll_exti.h ****   * @param  ExtiLine This parameter can be one of the following values:
 579:Drivers/STM32G4xx_HAL_Driver/Inc/stm32g4xx_ll_exti.h ****   *         @arg @ref LL_EXTI_LINE_0
 580:Drivers/STM32G4xx_HAL_Driver/Inc/stm32g4xx_ll_exti.h ****   *         @arg @ref LL_EXTI_LINE_1
 581:Drivers/STM32G4xx_HAL_Driver/Inc/stm32g4xx_ll_exti.h ****   *         @arg @ref LL_EXTI_LINE_2
 582:Drivers/STM32G4xx_HAL_Driver/Inc/stm32g4xx_ll_exti.h ****   *         @arg @ref LL_EXTI_LINE_3
 583:Drivers/STM32G4xx_HAL_Driver/Inc/stm32g4xx_ll_exti.h ****   *         @arg @ref LL_EXTI_LINE_4
 584:Drivers/STM32G4xx_HAL_Driver/Inc/stm32g4xx_ll_exti.h ****   *         @arg @ref LL_EXTI_LINE_5
 585:Drivers/STM32G4xx_HAL_Driver/Inc/stm32g4xx_ll_exti.h ****   *         @arg @ref LL_EXTI_LINE_6
 586:Drivers/STM32G4xx_HAL_Driver/Inc/stm32g4xx_ll_exti.h ****   *         @arg @ref LL_EXTI_LINE_7
 587:Drivers/STM32G4xx_HAL_Driver/Inc/stm32g4xx_ll_exti.h ****   *         @arg @ref LL_EXTI_LINE_8
 588:Drivers/STM32G4xx_HAL_Driver/Inc/stm32g4xx_ll_exti.h ****   *         @arg @ref LL_EXTI_LINE_9
 589:Drivers/STM32G4xx_HAL_Driver/Inc/stm32g4xx_ll_exti.h ****   *         @arg @ref LL_EXTI_LINE_10
 590:Drivers/STM32G4xx_HAL_Driver/Inc/stm32g4xx_ll_exti.h ****   *         @arg @ref LL_EXTI_LINE_11
 591:Drivers/STM32G4xx_HAL_Driver/Inc/stm32g4xx_ll_exti.h ****   *         @arg @ref LL_EXTI_LINE_12
 592:Drivers/STM32G4xx_HAL_Driver/Inc/stm32g4xx_ll_exti.h ****   *         @arg @ref LL_EXTI_LINE_13
 593:Drivers/STM32G4xx_HAL_Driver/Inc/stm32g4xx_ll_exti.h ****   *         @arg @ref LL_EXTI_LINE_14
 594:Drivers/STM32G4xx_HAL_Driver/Inc/stm32g4xx_ll_exti.h ****   *         @arg @ref LL_EXTI_LINE_15
 595:Drivers/STM32G4xx_HAL_Driver/Inc/stm32g4xx_ll_exti.h ****   *         @arg @ref LL_EXTI_LINE_16
 596:Drivers/STM32G4xx_HAL_Driver/Inc/stm32g4xx_ll_exti.h ****   *         @arg @ref LL_EXTI_LINE_17
 597:Drivers/STM32G4xx_HAL_Driver/Inc/stm32g4xx_ll_exti.h ****   *         @arg @ref LL_EXTI_LINE_18
 598:Drivers/STM32G4xx_HAL_Driver/Inc/stm32g4xx_ll_exti.h ****   *         @arg @ref LL_EXTI_LINE_19
 599:Drivers/STM32G4xx_HAL_Driver/Inc/stm32g4xx_ll_exti.h ****   *         @arg @ref LL_EXTI_LINE_20
 600:Drivers/STM32G4xx_HAL_Driver/Inc/stm32g4xx_ll_exti.h ****   *         @arg @ref LL_EXTI_LINE_21
 601:Drivers/STM32G4xx_HAL_Driver/Inc/stm32g4xx_ll_exti.h ****   *         @arg @ref LL_EXTI_LINE_22
 602:Drivers/STM32G4xx_HAL_Driver/Inc/stm32g4xx_ll_exti.h ****   *         @arg @ref LL_EXTI_LINE_23
 603:Drivers/STM32G4xx_HAL_Driver/Inc/stm32g4xx_ll_exti.h ****   *         @arg @ref LL_EXTI_LINE_24
 604:Drivers/STM32G4xx_HAL_Driver/Inc/stm32g4xx_ll_exti.h ****   *         @arg @ref LL_EXTI_LINE_25
 605:Drivers/STM32G4xx_HAL_Driver/Inc/stm32g4xx_ll_exti.h ****   *         @arg @ref LL_EXTI_LINE_26
 606:Drivers/STM32G4xx_HAL_Driver/Inc/stm32g4xx_ll_exti.h ****   *         @arg @ref LL_EXTI_LINE_27
 607:Drivers/STM32G4xx_HAL_Driver/Inc/stm32g4xx_ll_exti.h ****   *         @arg @ref LL_EXTI_LINE_28
 608:Drivers/STM32G4xx_HAL_Driver/Inc/stm32g4xx_ll_exti.h ****   *         @arg @ref LL_EXTI_LINE_29
 609:Drivers/STM32G4xx_HAL_Driver/Inc/stm32g4xx_ll_exti.h ****   *         @arg @ref LL_EXTI_LINE_30
 610:Drivers/STM32G4xx_HAL_Driver/Inc/stm32g4xx_ll_exti.h ****   *         @arg @ref LL_EXTI_LINE_31 (*)
 611:Drivers/STM32G4xx_HAL_Driver/Inc/stm32g4xx_ll_exti.h ****   *         @arg @ref LL_EXTI_LINE_ALL_0_31
 612:Drivers/STM32G4xx_HAL_Driver/Inc/stm32g4xx_ll_exti.h ****   * @note   (*): Available in some devices
 613:Drivers/STM32G4xx_HAL_Driver/Inc/stm32g4xx_ll_exti.h ****   * @note   Please check each device line mapping for EXTI Line availability
 614:Drivers/STM32G4xx_HAL_Driver/Inc/stm32g4xx_ll_exti.h ****   * @retval None
 615:Drivers/STM32G4xx_HAL_Driver/Inc/stm32g4xx_ll_exti.h ****   */
 616:Drivers/STM32G4xx_HAL_Driver/Inc/stm32g4xx_ll_exti.h **** __STATIC_INLINE void LL_EXTI_DisableEvent_0_31(uint32_t ExtiLine)
 158              		.loc 2 616 22 view .LVU42
 159              	.LBB59:
 617:Drivers/STM32G4xx_HAL_Driver/Inc/stm32g4xx_ll_exti.h **** {
 618:Drivers/STM32G4xx_HAL_Driver/Inc/stm32g4xx_ll_exti.h ****   CLEAR_BIT(EXTI->EMR1, ExtiLine);
 160              		.loc 2 618 3 view .LVU43
 161 003a 564A     		ldr	r2, .L30
 162 003c 5168     		ldr	r1, [r2, #4]
 163 003e 21EA0000 		bic	r0, r1, r0
 164              	.LVL6:
ARM GAS  D:\apps\VSCode\data\tmp\cclbo69C.s 			page 18


 165              		.loc 2 618 3 is_stmt 0 view .LVU44
 166 0042 5060     		str	r0, [r2, #4]
 167              	.LVL7:
 168              		.loc 2 618 3 view .LVU45
 169              	.LBE59:
 170              	.LBE58:
 146:Drivers/STM32G4xx_HAL_Driver/Src/stm32g4xx_ll_exti.c ****           break;
 171              		.loc 1 146 11 is_stmt 1 view .LVU46
 172 0044 1968     		ldr	r1, [r3]
 173              	.LVL8:
 174              	.LBB60:
 175              	.LBI60:
 313:Drivers/STM32G4xx_HAL_Driver/Inc/stm32g4xx_ll_exti.h **** {
 176              		.loc 2 313 22 view .LVU47
 177              	.LBB61:
 315:Drivers/STM32G4xx_HAL_Driver/Inc/stm32g4xx_ll_exti.h **** }
 178              		.loc 2 315 3 view .LVU48
 179 0046 1068     		ldr	r0, [r2]
 180 0048 0143     		orrs	r1, r1, r0
 181              	.LVL9:
 315:Drivers/STM32G4xx_HAL_Driver/Inc/stm32g4xx_ll_exti.h **** }
 182              		.loc 2 315 3 is_stmt 0 view .LVU49
 183 004a 1160     		str	r1, [r2]
 184              	.LVL10:
 315:Drivers/STM32G4xx_HAL_Driver/Inc/stm32g4xx_ll_exti.h **** }
 185              		.loc 2 315 3 view .LVU50
 186              	.LBE61:
 187              	.LBE60:
 124:Drivers/STM32G4xx_HAL_Driver/Src/stm32g4xx_ll_exti.c **** 
 188              		.loc 1 124 12 view .LVU51
 189 004c 0020     		movs	r0, #0
 190 004e E8E7     		b	.L10
 191              	.L7:
 150:Drivers/STM32G4xx_HAL_Driver/Src/stm32g4xx_ll_exti.c ****           /* Then Enable Event on provided Lines */
 192              		.loc 1 150 11 is_stmt 1 view .LVU52
 193              	.LVL11:
 194              	.LBB62:
 195              	.LBI62:
 388:Drivers/STM32G4xx_HAL_Driver/Inc/stm32g4xx_ll_exti.h **** {
 196              		.loc 2 388 22 view .LVU53
 197              	.LBB63:
 390:Drivers/STM32G4xx_HAL_Driver/Inc/stm32g4xx_ll_exti.h **** }
 198              		.loc 2 390 3 view .LVU54
 199 0050 504A     		ldr	r2, .L30
 200 0052 1168     		ldr	r1, [r2]
 201 0054 21EA0000 		bic	r0, r1, r0
 202              	.LVL12:
 390:Drivers/STM32G4xx_HAL_Driver/Inc/stm32g4xx_ll_exti.h **** }
 203              		.loc 2 390 3 is_stmt 0 view .LVU55
 204 0058 1060     		str	r0, [r2]
 205              	.LVL13:
 390:Drivers/STM32G4xx_HAL_Driver/Inc/stm32g4xx_ll_exti.h **** }
 206              		.loc 2 390 3 view .LVU56
 207              	.LBE63:
 208              	.LBE62:
 152:Drivers/STM32G4xx_HAL_Driver/Src/stm32g4xx_ll_exti.c ****           break;
 209              		.loc 1 152 11 is_stmt 1 view .LVU57
ARM GAS  D:\apps\VSCode\data\tmp\cclbo69C.s 			page 19


 210 005a 1968     		ldr	r1, [r3]
 211              	.LVL14:
 212              	.LBB64:
 213              	.LBI64:
 545:Drivers/STM32G4xx_HAL_Driver/Inc/stm32g4xx_ll_exti.h **** {
 214              		.loc 2 545 22 view .LVU58
 215              	.LBB65:
 547:Drivers/STM32G4xx_HAL_Driver/Inc/stm32g4xx_ll_exti.h **** 
 216              		.loc 2 547 3 view .LVU59
 217 005c 5068     		ldr	r0, [r2, #4]
 218 005e 0143     		orrs	r1, r1, r0
 219              	.LVL15:
 547:Drivers/STM32G4xx_HAL_Driver/Inc/stm32g4xx_ll_exti.h **** 
 220              		.loc 2 547 3 is_stmt 0 view .LVU60
 221 0060 5160     		str	r1, [r2, #4]
 222              	.LVL16:
 547:Drivers/STM32G4xx_HAL_Driver/Inc/stm32g4xx_ll_exti.h **** 
 223              		.loc 2 547 3 view .LVU61
 224              	.LBE65:
 225              	.LBE64:
 124:Drivers/STM32G4xx_HAL_Driver/Src/stm32g4xx_ll_exti.c **** 
 226              		.loc 1 124 12 view .LVU62
 227 0062 0020     		movs	r0, #0
 228 0064 DDE7     		b	.L10
 229              	.L9:
 156:Drivers/STM32G4xx_HAL_Driver/Src/stm32g4xx_ll_exti.c ****           /* Directly Enable Event on provided Lines */
 230              		.loc 1 156 11 is_stmt 1 view .LVU63
 231              	.LVL17:
 232              	.LBB66:
 233              	.LBI66:
 313:Drivers/STM32G4xx_HAL_Driver/Inc/stm32g4xx_ll_exti.h **** {
 234              		.loc 2 313 22 view .LVU64
 235              	.LBB67:
 315:Drivers/STM32G4xx_HAL_Driver/Inc/stm32g4xx_ll_exti.h **** }
 236              		.loc 2 315 3 view .LVU65
 237 0066 4B4A     		ldr	r2, .L30
 238 0068 1168     		ldr	r1, [r2]
 239 006a 0843     		orrs	r0, r0, r1
 240              	.LVL18:
 315:Drivers/STM32G4xx_HAL_Driver/Inc/stm32g4xx_ll_exti.h **** }
 241              		.loc 2 315 3 is_stmt 0 view .LVU66
 242 006c 1060     		str	r0, [r2]
 243              	.LVL19:
 315:Drivers/STM32G4xx_HAL_Driver/Inc/stm32g4xx_ll_exti.h **** }
 244              		.loc 2 315 3 view .LVU67
 245              	.LBE67:
 246              	.LBE66:
 158:Drivers/STM32G4xx_HAL_Driver/Src/stm32g4xx_ll_exti.c ****           break;
 247              		.loc 1 158 11 is_stmt 1 view .LVU68
 248 006e 1968     		ldr	r1, [r3]
 249              	.LVL20:
 250              	.LBB68:
 251              	.LBI68:
 545:Drivers/STM32G4xx_HAL_Driver/Inc/stm32g4xx_ll_exti.h **** {
 252              		.loc 2 545 22 view .LVU69
 253              	.LBB69:
 547:Drivers/STM32G4xx_HAL_Driver/Inc/stm32g4xx_ll_exti.h **** 
ARM GAS  D:\apps\VSCode\data\tmp\cclbo69C.s 			page 20


 254              		.loc 2 547 3 view .LVU70
 255 0070 5068     		ldr	r0, [r2, #4]
 256 0072 0143     		orrs	r1, r1, r0
 257              	.LVL21:
 547:Drivers/STM32G4xx_HAL_Driver/Inc/stm32g4xx_ll_exti.h **** 
 258              		.loc 2 547 3 is_stmt 0 view .LVU71
 259 0074 5160     		str	r1, [r2, #4]
 260              	.LVL22:
 547:Drivers/STM32G4xx_HAL_Driver/Inc/stm32g4xx_ll_exti.h **** 
 261              		.loc 2 547 3 view .LVU72
 262              	.LBE69:
 263              	.LBE68:
 124:Drivers/STM32G4xx_HAL_Driver/Src/stm32g4xx_ll_exti.c **** 
 264              		.loc 1 124 12 view .LVU73
 265 0076 0020     		movs	r0, #0
 266 0078 D3E7     		b	.L10
 267              	.LVL23:
 268              	.L28:
 170:Drivers/STM32G4xx_HAL_Driver/Src/stm32g4xx_ll_exti.c ****             /* Then Enable Rising Trigger on provided Lines */
 269              		.loc 1 170 13 is_stmt 1 view .LVU74
 270 007a 1C68     		ldr	r4, [r3]
 271              	.LVL24:
 272              	.LBB70:
 273              	.LBI70:
 619:Drivers/STM32G4xx_HAL_Driver/Inc/stm32g4xx_ll_exti.h **** }
 620:Drivers/STM32G4xx_HAL_Driver/Inc/stm32g4xx_ll_exti.h **** 
 621:Drivers/STM32G4xx_HAL_Driver/Inc/stm32g4xx_ll_exti.h **** /**
 622:Drivers/STM32G4xx_HAL_Driver/Inc/stm32g4xx_ll_exti.h ****   * @brief  Disable ExtiLine Event request for Lines in range 32 to 63
 623:Drivers/STM32G4xx_HAL_Driver/Inc/stm32g4xx_ll_exti.h ****   * @rmtoll EMR2         EMx           LL_EXTI_DisableEvent_32_63
 624:Drivers/STM32G4xx_HAL_Driver/Inc/stm32g4xx_ll_exti.h ****   * @param  ExtiLine This parameter can be a combination of the following values:
 625:Drivers/STM32G4xx_HAL_Driver/Inc/stm32g4xx_ll_exti.h ****   *         @arg @ref LL_EXTI_LINE_32 (*)
 626:Drivers/STM32G4xx_HAL_Driver/Inc/stm32g4xx_ll_exti.h ****   *         @arg @ref LL_EXTI_LINE_33 (*)
 627:Drivers/STM32G4xx_HAL_Driver/Inc/stm32g4xx_ll_exti.h ****   *         @arg @ref LL_EXTI_LINE_34
 628:Drivers/STM32G4xx_HAL_Driver/Inc/stm32g4xx_ll_exti.h ****   *         @arg @ref LL_EXTI_LINE_35 (*)
 629:Drivers/STM32G4xx_HAL_Driver/Inc/stm32g4xx_ll_exti.h ****   *         @arg @ref LL_EXTI_LINE_36
 630:Drivers/STM32G4xx_HAL_Driver/Inc/stm32g4xx_ll_exti.h ****   *         @arg @ref LL_EXTI_LINE_37
 631:Drivers/STM32G4xx_HAL_Driver/Inc/stm32g4xx_ll_exti.h ****   *         @arg @ref LL_EXTI_LINE_38
 632:Drivers/STM32G4xx_HAL_Driver/Inc/stm32g4xx_ll_exti.h ****   *         @arg @ref LL_EXTI_LINE_39
 633:Drivers/STM32G4xx_HAL_Driver/Inc/stm32g4xx_ll_exti.h ****   *         @arg @ref LL_EXTI_LINE_40
 634:Drivers/STM32G4xx_HAL_Driver/Inc/stm32g4xx_ll_exti.h ****   *         @arg @ref LL_EXTI_LINE_41
 635:Drivers/STM32G4xx_HAL_Driver/Inc/stm32g4xx_ll_exti.h ****   *         @arg @ref LL_EXTI_LINE_42(*)
 636:Drivers/STM32G4xx_HAL_Driver/Inc/stm32g4xx_ll_exti.h ****   *         @arg @ref LL_EXTI_LINE_ALL_32_63
 637:Drivers/STM32G4xx_HAL_Driver/Inc/stm32g4xx_ll_exti.h ****   * @note   (*): Available in some devices
 638:Drivers/STM32G4xx_HAL_Driver/Inc/stm32g4xx_ll_exti.h ****   * @retval None
 639:Drivers/STM32G4xx_HAL_Driver/Inc/stm32g4xx_ll_exti.h ****   */
 640:Drivers/STM32G4xx_HAL_Driver/Inc/stm32g4xx_ll_exti.h **** __STATIC_INLINE void LL_EXTI_DisableEvent_32_63(uint32_t ExtiLine)
 641:Drivers/STM32G4xx_HAL_Driver/Inc/stm32g4xx_ll_exti.h **** {
 642:Drivers/STM32G4xx_HAL_Driver/Inc/stm32g4xx_ll_exti.h ****   CLEAR_BIT(EXTI->EMR2, ExtiLine);
 643:Drivers/STM32G4xx_HAL_Driver/Inc/stm32g4xx_ll_exti.h **** }
 644:Drivers/STM32G4xx_HAL_Driver/Inc/stm32g4xx_ll_exti.h **** 
 645:Drivers/STM32G4xx_HAL_Driver/Inc/stm32g4xx_ll_exti.h **** /**
 646:Drivers/STM32G4xx_HAL_Driver/Inc/stm32g4xx_ll_exti.h ****   * @brief  Indicate if ExtiLine Event request is enabled for Lines in range 0 to 31
 647:Drivers/STM32G4xx_HAL_Driver/Inc/stm32g4xx_ll_exti.h ****   * @rmtoll EMR1         EMx           LL_EXTI_IsEnabledEvent_0_31
 648:Drivers/STM32G4xx_HAL_Driver/Inc/stm32g4xx_ll_exti.h ****   * @param  ExtiLine This parameter can be one of the following values:
 649:Drivers/STM32G4xx_HAL_Driver/Inc/stm32g4xx_ll_exti.h ****   *         @arg @ref LL_EXTI_LINE_0
 650:Drivers/STM32G4xx_HAL_Driver/Inc/stm32g4xx_ll_exti.h ****   *         @arg @ref LL_EXTI_LINE_1
 651:Drivers/STM32G4xx_HAL_Driver/Inc/stm32g4xx_ll_exti.h ****   *         @arg @ref LL_EXTI_LINE_2
ARM GAS  D:\apps\VSCode\data\tmp\cclbo69C.s 			page 21


 652:Drivers/STM32G4xx_HAL_Driver/Inc/stm32g4xx_ll_exti.h ****   *         @arg @ref LL_EXTI_LINE_3
 653:Drivers/STM32G4xx_HAL_Driver/Inc/stm32g4xx_ll_exti.h ****   *         @arg @ref LL_EXTI_LINE_4
 654:Drivers/STM32G4xx_HAL_Driver/Inc/stm32g4xx_ll_exti.h ****   *         @arg @ref LL_EXTI_LINE_5
 655:Drivers/STM32G4xx_HAL_Driver/Inc/stm32g4xx_ll_exti.h ****   *         @arg @ref LL_EXTI_LINE_6
 656:Drivers/STM32G4xx_HAL_Driver/Inc/stm32g4xx_ll_exti.h ****   *         @arg @ref LL_EXTI_LINE_7
 657:Drivers/STM32G4xx_HAL_Driver/Inc/stm32g4xx_ll_exti.h ****   *         @arg @ref LL_EXTI_LINE_8
 658:Drivers/STM32G4xx_HAL_Driver/Inc/stm32g4xx_ll_exti.h ****   *         @arg @ref LL_EXTI_LINE_9
 659:Drivers/STM32G4xx_HAL_Driver/Inc/stm32g4xx_ll_exti.h ****   *         @arg @ref LL_EXTI_LINE_10
 660:Drivers/STM32G4xx_HAL_Driver/Inc/stm32g4xx_ll_exti.h ****   *         @arg @ref LL_EXTI_LINE_11
 661:Drivers/STM32G4xx_HAL_Driver/Inc/stm32g4xx_ll_exti.h ****   *         @arg @ref LL_EXTI_LINE_12
 662:Drivers/STM32G4xx_HAL_Driver/Inc/stm32g4xx_ll_exti.h ****   *         @arg @ref LL_EXTI_LINE_13
 663:Drivers/STM32G4xx_HAL_Driver/Inc/stm32g4xx_ll_exti.h ****   *         @arg @ref LL_EXTI_LINE_14
 664:Drivers/STM32G4xx_HAL_Driver/Inc/stm32g4xx_ll_exti.h ****   *         @arg @ref LL_EXTI_LINE_15
 665:Drivers/STM32G4xx_HAL_Driver/Inc/stm32g4xx_ll_exti.h ****   *         @arg @ref LL_EXTI_LINE_16
 666:Drivers/STM32G4xx_HAL_Driver/Inc/stm32g4xx_ll_exti.h ****   *         @arg @ref LL_EXTI_LINE_17
 667:Drivers/STM32G4xx_HAL_Driver/Inc/stm32g4xx_ll_exti.h ****   *         @arg @ref LL_EXTI_LINE_18
 668:Drivers/STM32G4xx_HAL_Driver/Inc/stm32g4xx_ll_exti.h ****   *         @arg @ref LL_EXTI_LINE_19
 669:Drivers/STM32G4xx_HAL_Driver/Inc/stm32g4xx_ll_exti.h ****   *         @arg @ref LL_EXTI_LINE_20
 670:Drivers/STM32G4xx_HAL_Driver/Inc/stm32g4xx_ll_exti.h ****   *         @arg @ref LL_EXTI_LINE_21
 671:Drivers/STM32G4xx_HAL_Driver/Inc/stm32g4xx_ll_exti.h ****   *         @arg @ref LL_EXTI_LINE_22
 672:Drivers/STM32G4xx_HAL_Driver/Inc/stm32g4xx_ll_exti.h ****   *         @arg @ref LL_EXTI_LINE_23
 673:Drivers/STM32G4xx_HAL_Driver/Inc/stm32g4xx_ll_exti.h ****   *         @arg @ref LL_EXTI_LINE_24
 674:Drivers/STM32G4xx_HAL_Driver/Inc/stm32g4xx_ll_exti.h ****   *         @arg @ref LL_EXTI_LINE_25
 675:Drivers/STM32G4xx_HAL_Driver/Inc/stm32g4xx_ll_exti.h ****   *         @arg @ref LL_EXTI_LINE_26
 676:Drivers/STM32G4xx_HAL_Driver/Inc/stm32g4xx_ll_exti.h ****   *         @arg @ref LL_EXTI_LINE_27
 677:Drivers/STM32G4xx_HAL_Driver/Inc/stm32g4xx_ll_exti.h ****   *         @arg @ref LL_EXTI_LINE_28
 678:Drivers/STM32G4xx_HAL_Driver/Inc/stm32g4xx_ll_exti.h ****   *         @arg @ref LL_EXTI_LINE_29
 679:Drivers/STM32G4xx_HAL_Driver/Inc/stm32g4xx_ll_exti.h ****   *         @arg @ref LL_EXTI_LINE_30
 680:Drivers/STM32G4xx_HAL_Driver/Inc/stm32g4xx_ll_exti.h ****   *         @arg @ref LL_EXTI_LINE_31
 681:Drivers/STM32G4xx_HAL_Driver/Inc/stm32g4xx_ll_exti.h ****   *         @arg @ref LL_EXTI_LINE_ALL_0_31 (*)
 682:Drivers/STM32G4xx_HAL_Driver/Inc/stm32g4xx_ll_exti.h ****   * @note   (*): Available in some devices
 683:Drivers/STM32G4xx_HAL_Driver/Inc/stm32g4xx_ll_exti.h ****   * @note   Please check each device line mapping for EXTI Line availability
 684:Drivers/STM32G4xx_HAL_Driver/Inc/stm32g4xx_ll_exti.h ****   * @retval State of bit (1 or 0).
 685:Drivers/STM32G4xx_HAL_Driver/Inc/stm32g4xx_ll_exti.h ****   */
 686:Drivers/STM32G4xx_HAL_Driver/Inc/stm32g4xx_ll_exti.h **** __STATIC_INLINE uint32_t LL_EXTI_IsEnabledEvent_0_31(uint32_t ExtiLine)
 687:Drivers/STM32G4xx_HAL_Driver/Inc/stm32g4xx_ll_exti.h **** {
 688:Drivers/STM32G4xx_HAL_Driver/Inc/stm32g4xx_ll_exti.h ****   return ((READ_BIT(EXTI->EMR1, ExtiLine) == (ExtiLine)) ? 1UL : 0UL);
 689:Drivers/STM32G4xx_HAL_Driver/Inc/stm32g4xx_ll_exti.h **** 
 690:Drivers/STM32G4xx_HAL_Driver/Inc/stm32g4xx_ll_exti.h **** }
 691:Drivers/STM32G4xx_HAL_Driver/Inc/stm32g4xx_ll_exti.h **** 
 692:Drivers/STM32G4xx_HAL_Driver/Inc/stm32g4xx_ll_exti.h **** /**
 693:Drivers/STM32G4xx_HAL_Driver/Inc/stm32g4xx_ll_exti.h ****   * @brief  Indicate if ExtiLine Event request is enabled for Lines in range 32 to 63
 694:Drivers/STM32G4xx_HAL_Driver/Inc/stm32g4xx_ll_exti.h ****   * @rmtoll EMR2         EMx           LL_EXTI_IsEnabledEvent_32_63
 695:Drivers/STM32G4xx_HAL_Driver/Inc/stm32g4xx_ll_exti.h ****   * @param  ExtiLine This parameter can be a combination of the following values:
 696:Drivers/STM32G4xx_HAL_Driver/Inc/stm32g4xx_ll_exti.h ****   *         @arg @ref LL_EXTI_LINE_32 (*)
 697:Drivers/STM32G4xx_HAL_Driver/Inc/stm32g4xx_ll_exti.h ****   *         @arg @ref LL_EXTI_LINE_33 (*)
 698:Drivers/STM32G4xx_HAL_Driver/Inc/stm32g4xx_ll_exti.h ****   *         @arg @ref LL_EXTI_LINE_34
 699:Drivers/STM32G4xx_HAL_Driver/Inc/stm32g4xx_ll_exti.h ****   *         @arg @ref LL_EXTI_LINE_35 (*)
 700:Drivers/STM32G4xx_HAL_Driver/Inc/stm32g4xx_ll_exti.h ****   *         @arg @ref LL_EXTI_LINE_36
 701:Drivers/STM32G4xx_HAL_Driver/Inc/stm32g4xx_ll_exti.h ****   *         @arg @ref LL_EXTI_LINE_37
 702:Drivers/STM32G4xx_HAL_Driver/Inc/stm32g4xx_ll_exti.h ****   *         @arg @ref LL_EXTI_LINE_38
 703:Drivers/STM32G4xx_HAL_Driver/Inc/stm32g4xx_ll_exti.h ****   *         @arg @ref LL_EXTI_LINE_39
 704:Drivers/STM32G4xx_HAL_Driver/Inc/stm32g4xx_ll_exti.h ****   *         @arg @ref LL_EXTI_LINE_40
 705:Drivers/STM32G4xx_HAL_Driver/Inc/stm32g4xx_ll_exti.h ****   *         @arg @ref LL_EXTI_LINE_41
 706:Drivers/STM32G4xx_HAL_Driver/Inc/stm32g4xx_ll_exti.h ****   *         @arg @ref LL_EXTI_LINE_42(*)
 707:Drivers/STM32G4xx_HAL_Driver/Inc/stm32g4xx_ll_exti.h ****   *         @arg @ref LL_EXTI_LINE_ALL_32_63
 708:Drivers/STM32G4xx_HAL_Driver/Inc/stm32g4xx_ll_exti.h ****   * @note   (*): Available in some devices
ARM GAS  D:\apps\VSCode\data\tmp\cclbo69C.s 			page 22


 709:Drivers/STM32G4xx_HAL_Driver/Inc/stm32g4xx_ll_exti.h ****   * @retval State of bit (1 or 0).
 710:Drivers/STM32G4xx_HAL_Driver/Inc/stm32g4xx_ll_exti.h ****   */
 711:Drivers/STM32G4xx_HAL_Driver/Inc/stm32g4xx_ll_exti.h **** __STATIC_INLINE uint32_t LL_EXTI_IsEnabledEvent_32_63(uint32_t ExtiLine)
 712:Drivers/STM32G4xx_HAL_Driver/Inc/stm32g4xx_ll_exti.h **** {
 713:Drivers/STM32G4xx_HAL_Driver/Inc/stm32g4xx_ll_exti.h ****   return ((READ_BIT(EXTI->EMR2, ExtiLine) == (ExtiLine)) ? 1UL : 0UL);
 714:Drivers/STM32G4xx_HAL_Driver/Inc/stm32g4xx_ll_exti.h **** }
 715:Drivers/STM32G4xx_HAL_Driver/Inc/stm32g4xx_ll_exti.h **** 
 716:Drivers/STM32G4xx_HAL_Driver/Inc/stm32g4xx_ll_exti.h **** /**
 717:Drivers/STM32G4xx_HAL_Driver/Inc/stm32g4xx_ll_exti.h ****   * @}
 718:Drivers/STM32G4xx_HAL_Driver/Inc/stm32g4xx_ll_exti.h ****   */
 719:Drivers/STM32G4xx_HAL_Driver/Inc/stm32g4xx_ll_exti.h **** 
 720:Drivers/STM32G4xx_HAL_Driver/Inc/stm32g4xx_ll_exti.h **** /** @defgroup EXTI_LL_EF_Rising_Trigger_Management Rising_Trigger_Management
 721:Drivers/STM32G4xx_HAL_Driver/Inc/stm32g4xx_ll_exti.h ****   * @{
 722:Drivers/STM32G4xx_HAL_Driver/Inc/stm32g4xx_ll_exti.h ****   */
 723:Drivers/STM32G4xx_HAL_Driver/Inc/stm32g4xx_ll_exti.h **** 
 724:Drivers/STM32G4xx_HAL_Driver/Inc/stm32g4xx_ll_exti.h **** /**
 725:Drivers/STM32G4xx_HAL_Driver/Inc/stm32g4xx_ll_exti.h ****   * @brief  Enable ExtiLine Rising Edge Trigger for Lines in range 0 to 31
 726:Drivers/STM32G4xx_HAL_Driver/Inc/stm32g4xx_ll_exti.h ****   * @note The configurable wakeup lines are edge-triggered. No glitch must be
 727:Drivers/STM32G4xx_HAL_Driver/Inc/stm32g4xx_ll_exti.h ****   *       generated on these lines. If a rising edge on a configurable interrupt
 728:Drivers/STM32G4xx_HAL_Driver/Inc/stm32g4xx_ll_exti.h ****   *       line occurs during a write operation in the EXTI_RTSR register, the
 729:Drivers/STM32G4xx_HAL_Driver/Inc/stm32g4xx_ll_exti.h ****   *       pending bit is not set.
 730:Drivers/STM32G4xx_HAL_Driver/Inc/stm32g4xx_ll_exti.h ****   *       Rising and falling edge triggers can be set for
 731:Drivers/STM32G4xx_HAL_Driver/Inc/stm32g4xx_ll_exti.h ****   *       the same interrupt line. In this case, both generate a trigger
 732:Drivers/STM32G4xx_HAL_Driver/Inc/stm32g4xx_ll_exti.h ****   *       condition.
 733:Drivers/STM32G4xx_HAL_Driver/Inc/stm32g4xx_ll_exti.h ****   * @rmtoll RTSR1        RTx           LL_EXTI_EnableRisingTrig_0_31
 734:Drivers/STM32G4xx_HAL_Driver/Inc/stm32g4xx_ll_exti.h ****   * @param  ExtiLine This parameter can be a combination of the following values:
 735:Drivers/STM32G4xx_HAL_Driver/Inc/stm32g4xx_ll_exti.h ****   *         @arg @ref LL_EXTI_LINE_0
 736:Drivers/STM32G4xx_HAL_Driver/Inc/stm32g4xx_ll_exti.h ****   *         @arg @ref LL_EXTI_LINE_1
 737:Drivers/STM32G4xx_HAL_Driver/Inc/stm32g4xx_ll_exti.h ****   *         @arg @ref LL_EXTI_LINE_2
 738:Drivers/STM32G4xx_HAL_Driver/Inc/stm32g4xx_ll_exti.h ****   *         @arg @ref LL_EXTI_LINE_3
 739:Drivers/STM32G4xx_HAL_Driver/Inc/stm32g4xx_ll_exti.h ****   *         @arg @ref LL_EXTI_LINE_4
 740:Drivers/STM32G4xx_HAL_Driver/Inc/stm32g4xx_ll_exti.h ****   *         @arg @ref LL_EXTI_LINE_5
 741:Drivers/STM32G4xx_HAL_Driver/Inc/stm32g4xx_ll_exti.h ****   *         @arg @ref LL_EXTI_LINE_6
 742:Drivers/STM32G4xx_HAL_Driver/Inc/stm32g4xx_ll_exti.h ****   *         @arg @ref LL_EXTI_LINE_7
 743:Drivers/STM32G4xx_HAL_Driver/Inc/stm32g4xx_ll_exti.h ****   *         @arg @ref LL_EXTI_LINE_8
 744:Drivers/STM32G4xx_HAL_Driver/Inc/stm32g4xx_ll_exti.h ****   *         @arg @ref LL_EXTI_LINE_9
 745:Drivers/STM32G4xx_HAL_Driver/Inc/stm32g4xx_ll_exti.h ****   *         @arg @ref LL_EXTI_LINE_10
 746:Drivers/STM32G4xx_HAL_Driver/Inc/stm32g4xx_ll_exti.h ****   *         @arg @ref LL_EXTI_LINE_11
 747:Drivers/STM32G4xx_HAL_Driver/Inc/stm32g4xx_ll_exti.h ****   *         @arg @ref LL_EXTI_LINE_12
 748:Drivers/STM32G4xx_HAL_Driver/Inc/stm32g4xx_ll_exti.h ****   *         @arg @ref LL_EXTI_LINE_13
 749:Drivers/STM32G4xx_HAL_Driver/Inc/stm32g4xx_ll_exti.h ****   *         @arg @ref LL_EXTI_LINE_14
 750:Drivers/STM32G4xx_HAL_Driver/Inc/stm32g4xx_ll_exti.h ****   *         @arg @ref LL_EXTI_LINE_15
 751:Drivers/STM32G4xx_HAL_Driver/Inc/stm32g4xx_ll_exti.h ****   *         @arg @ref LL_EXTI_LINE_16
 752:Drivers/STM32G4xx_HAL_Driver/Inc/stm32g4xx_ll_exti.h ****   *         @arg @ref LL_EXTI_LINE_18
 753:Drivers/STM32G4xx_HAL_Driver/Inc/stm32g4xx_ll_exti.h ****   *         @arg @ref LL_EXTI_LINE_19
 754:Drivers/STM32G4xx_HAL_Driver/Inc/stm32g4xx_ll_exti.h ****   *         @arg @ref LL_EXTI_LINE_20
 755:Drivers/STM32G4xx_HAL_Driver/Inc/stm32g4xx_ll_exti.h ****   *         @arg @ref LL_EXTI_LINE_21
 756:Drivers/STM32G4xx_HAL_Driver/Inc/stm32g4xx_ll_exti.h ****   *         @arg @ref LL_EXTI_LINE_22
 757:Drivers/STM32G4xx_HAL_Driver/Inc/stm32g4xx_ll_exti.h ****   *         @arg @ref LL_EXTI_LINE_29
 758:Drivers/STM32G4xx_HAL_Driver/Inc/stm32g4xx_ll_exti.h ****   *         @arg @ref LL_EXTI_LINE_30
 759:Drivers/STM32G4xx_HAL_Driver/Inc/stm32g4xx_ll_exti.h ****   *         @arg @ref LL_EXTI_LINE_31 (*)
 760:Drivers/STM32G4xx_HAL_Driver/Inc/stm32g4xx_ll_exti.h ****   * @note   (*): Available in some devices
 761:Drivers/STM32G4xx_HAL_Driver/Inc/stm32g4xx_ll_exti.h ****   * @note   Please check each device line mapping for EXTI Line availability
 762:Drivers/STM32G4xx_HAL_Driver/Inc/stm32g4xx_ll_exti.h ****   * @retval None
 763:Drivers/STM32G4xx_HAL_Driver/Inc/stm32g4xx_ll_exti.h ****   */
 764:Drivers/STM32G4xx_HAL_Driver/Inc/stm32g4xx_ll_exti.h **** __STATIC_INLINE void LL_EXTI_EnableRisingTrig_0_31(uint32_t ExtiLine)
 765:Drivers/STM32G4xx_HAL_Driver/Inc/stm32g4xx_ll_exti.h **** {
ARM GAS  D:\apps\VSCode\data\tmp\cclbo69C.s 			page 23


 766:Drivers/STM32G4xx_HAL_Driver/Inc/stm32g4xx_ll_exti.h ****   SET_BIT(EXTI->RTSR1, ExtiLine);
 767:Drivers/STM32G4xx_HAL_Driver/Inc/stm32g4xx_ll_exti.h **** 
 768:Drivers/STM32G4xx_HAL_Driver/Inc/stm32g4xx_ll_exti.h **** }
 769:Drivers/STM32G4xx_HAL_Driver/Inc/stm32g4xx_ll_exti.h **** 
 770:Drivers/STM32G4xx_HAL_Driver/Inc/stm32g4xx_ll_exti.h **** /**
 771:Drivers/STM32G4xx_HAL_Driver/Inc/stm32g4xx_ll_exti.h ****   * @brief  Enable ExtiLine Rising Edge Trigger for Lines in range 32 to 63
 772:Drivers/STM32G4xx_HAL_Driver/Inc/stm32g4xx_ll_exti.h ****   * @note The configurable wakeup lines are edge-triggered. No glitch must be
 773:Drivers/STM32G4xx_HAL_Driver/Inc/stm32g4xx_ll_exti.h ****   *       generated on these lines. If a rising edge on a configurable interrupt
 774:Drivers/STM32G4xx_HAL_Driver/Inc/stm32g4xx_ll_exti.h ****   *       line occurs during a write operation in the EXTI_RTSR register, the
 775:Drivers/STM32G4xx_HAL_Driver/Inc/stm32g4xx_ll_exti.h ****   *       pending bit is not set.Rising and falling edge triggers can be set for
 776:Drivers/STM32G4xx_HAL_Driver/Inc/stm32g4xx_ll_exti.h ****   *       the same interrupt line. In this case, both generate a trigger
 777:Drivers/STM32G4xx_HAL_Driver/Inc/stm32g4xx_ll_exti.h ****   *       condition.
 778:Drivers/STM32G4xx_HAL_Driver/Inc/stm32g4xx_ll_exti.h ****   * @rmtoll RTSR2        RTx           LL_EXTI_EnableRisingTrig_32_63
 779:Drivers/STM32G4xx_HAL_Driver/Inc/stm32g4xx_ll_exti.h ****   * @param  ExtiLine This parameter can be a combination of the following values:
 780:Drivers/STM32G4xx_HAL_Driver/Inc/stm32g4xx_ll_exti.h ****   *         @arg @ref LL_EXTI_LINE_32 (*)
 781:Drivers/STM32G4xx_HAL_Driver/Inc/stm32g4xx_ll_exti.h ****   *         @arg @ref LL_EXTI_LINE_33 (*)
 782:Drivers/STM32G4xx_HAL_Driver/Inc/stm32g4xx_ll_exti.h ****   *         @arg @ref LL_EXTI_LINE_38
 783:Drivers/STM32G4xx_HAL_Driver/Inc/stm32g4xx_ll_exti.h ****   *         @arg @ref LL_EXTI_LINE_39
 784:Drivers/STM32G4xx_HAL_Driver/Inc/stm32g4xx_ll_exti.h ****   *         @arg @ref LL_EXTI_LINE_40
 785:Drivers/STM32G4xx_HAL_Driver/Inc/stm32g4xx_ll_exti.h ****   *         @arg @ref LL_EXTI_LINE_41
 786:Drivers/STM32G4xx_HAL_Driver/Inc/stm32g4xx_ll_exti.h ****   * @note   (*): Available in some devices
 787:Drivers/STM32G4xx_HAL_Driver/Inc/stm32g4xx_ll_exti.h ****   * @retval None
 788:Drivers/STM32G4xx_HAL_Driver/Inc/stm32g4xx_ll_exti.h ****   */
 789:Drivers/STM32G4xx_HAL_Driver/Inc/stm32g4xx_ll_exti.h **** __STATIC_INLINE void LL_EXTI_EnableRisingTrig_32_63(uint32_t ExtiLine)
 790:Drivers/STM32G4xx_HAL_Driver/Inc/stm32g4xx_ll_exti.h **** {
 791:Drivers/STM32G4xx_HAL_Driver/Inc/stm32g4xx_ll_exti.h ****   SET_BIT(EXTI->RTSR2, ExtiLine);
 792:Drivers/STM32G4xx_HAL_Driver/Inc/stm32g4xx_ll_exti.h **** }
 793:Drivers/STM32G4xx_HAL_Driver/Inc/stm32g4xx_ll_exti.h **** 
 794:Drivers/STM32G4xx_HAL_Driver/Inc/stm32g4xx_ll_exti.h **** /**
 795:Drivers/STM32G4xx_HAL_Driver/Inc/stm32g4xx_ll_exti.h ****   * @brief  Disable ExtiLine Rising Edge Trigger for Lines in range 0 to 31
 796:Drivers/STM32G4xx_HAL_Driver/Inc/stm32g4xx_ll_exti.h ****   * @note The configurable wakeup lines are edge-triggered. No glitch must be
 797:Drivers/STM32G4xx_HAL_Driver/Inc/stm32g4xx_ll_exti.h ****   *       generated on these lines. If a rising edge on a configurable interrupt
 798:Drivers/STM32G4xx_HAL_Driver/Inc/stm32g4xx_ll_exti.h ****   *       line occurs during a write operation in the EXTI_RTSR register, the
 799:Drivers/STM32G4xx_HAL_Driver/Inc/stm32g4xx_ll_exti.h ****   *       pending bit is not set.
 800:Drivers/STM32G4xx_HAL_Driver/Inc/stm32g4xx_ll_exti.h ****   *       Rising and falling edge triggers can be set for
 801:Drivers/STM32G4xx_HAL_Driver/Inc/stm32g4xx_ll_exti.h ****   *       the same interrupt line. In this case, both generate a trigger
 802:Drivers/STM32G4xx_HAL_Driver/Inc/stm32g4xx_ll_exti.h ****   *       condition.
 803:Drivers/STM32G4xx_HAL_Driver/Inc/stm32g4xx_ll_exti.h ****   * @rmtoll RTSR1        RTx           LL_EXTI_DisableRisingTrig_0_31
 804:Drivers/STM32G4xx_HAL_Driver/Inc/stm32g4xx_ll_exti.h ****   * @param  ExtiLine This parameter can be a combination of the following values:
 805:Drivers/STM32G4xx_HAL_Driver/Inc/stm32g4xx_ll_exti.h ****   *         @arg @ref LL_EXTI_LINE_0
 806:Drivers/STM32G4xx_HAL_Driver/Inc/stm32g4xx_ll_exti.h ****   *         @arg @ref LL_EXTI_LINE_1
 807:Drivers/STM32G4xx_HAL_Driver/Inc/stm32g4xx_ll_exti.h ****   *         @arg @ref LL_EXTI_LINE_2
 808:Drivers/STM32G4xx_HAL_Driver/Inc/stm32g4xx_ll_exti.h ****   *         @arg @ref LL_EXTI_LINE_3
 809:Drivers/STM32G4xx_HAL_Driver/Inc/stm32g4xx_ll_exti.h ****   *         @arg @ref LL_EXTI_LINE_4
 810:Drivers/STM32G4xx_HAL_Driver/Inc/stm32g4xx_ll_exti.h ****   *         @arg @ref LL_EXTI_LINE_5
 811:Drivers/STM32G4xx_HAL_Driver/Inc/stm32g4xx_ll_exti.h ****   *         @arg @ref LL_EXTI_LINE_6
 812:Drivers/STM32G4xx_HAL_Driver/Inc/stm32g4xx_ll_exti.h ****   *         @arg @ref LL_EXTI_LINE_7
 813:Drivers/STM32G4xx_HAL_Driver/Inc/stm32g4xx_ll_exti.h ****   *         @arg @ref LL_EXTI_LINE_8
 814:Drivers/STM32G4xx_HAL_Driver/Inc/stm32g4xx_ll_exti.h ****   *         @arg @ref LL_EXTI_LINE_9
 815:Drivers/STM32G4xx_HAL_Driver/Inc/stm32g4xx_ll_exti.h ****   *         @arg @ref LL_EXTI_LINE_10
 816:Drivers/STM32G4xx_HAL_Driver/Inc/stm32g4xx_ll_exti.h ****   *         @arg @ref LL_EXTI_LINE_11
 817:Drivers/STM32G4xx_HAL_Driver/Inc/stm32g4xx_ll_exti.h ****   *         @arg @ref LL_EXTI_LINE_12
 818:Drivers/STM32G4xx_HAL_Driver/Inc/stm32g4xx_ll_exti.h ****   *         @arg @ref LL_EXTI_LINE_13
 819:Drivers/STM32G4xx_HAL_Driver/Inc/stm32g4xx_ll_exti.h ****   *         @arg @ref LL_EXTI_LINE_14
 820:Drivers/STM32G4xx_HAL_Driver/Inc/stm32g4xx_ll_exti.h ****   *         @arg @ref LL_EXTI_LINE_15
 821:Drivers/STM32G4xx_HAL_Driver/Inc/stm32g4xx_ll_exti.h ****   *         @arg @ref LL_EXTI_LINE_16
 822:Drivers/STM32G4xx_HAL_Driver/Inc/stm32g4xx_ll_exti.h ****   *         @arg @ref LL_EXTI_LINE_18
ARM GAS  D:\apps\VSCode\data\tmp\cclbo69C.s 			page 24


 823:Drivers/STM32G4xx_HAL_Driver/Inc/stm32g4xx_ll_exti.h ****   *         @arg @ref LL_EXTI_LINE_19
 824:Drivers/STM32G4xx_HAL_Driver/Inc/stm32g4xx_ll_exti.h ****   *         @arg @ref LL_EXTI_LINE_20
 825:Drivers/STM32G4xx_HAL_Driver/Inc/stm32g4xx_ll_exti.h ****   *         @arg @ref LL_EXTI_LINE_21
 826:Drivers/STM32G4xx_HAL_Driver/Inc/stm32g4xx_ll_exti.h ****   *         @arg @ref LL_EXTI_LINE_22
 827:Drivers/STM32G4xx_HAL_Driver/Inc/stm32g4xx_ll_exti.h ****   *         @arg @ref LL_EXTI_LINE_29
 828:Drivers/STM32G4xx_HAL_Driver/Inc/stm32g4xx_ll_exti.h ****   *         @arg @ref LL_EXTI_LINE_30
 829:Drivers/STM32G4xx_HAL_Driver/Inc/stm32g4xx_ll_exti.h ****   *         @arg @ref LL_EXTI_LINE_31 (*)
 830:Drivers/STM32G4xx_HAL_Driver/Inc/stm32g4xx_ll_exti.h ****   * @note   (*): Available in some devices
 831:Drivers/STM32G4xx_HAL_Driver/Inc/stm32g4xx_ll_exti.h ****   * @note   Please check each device line mapping for EXTI Line availability
 832:Drivers/STM32G4xx_HAL_Driver/Inc/stm32g4xx_ll_exti.h ****   * @retval None
 833:Drivers/STM32G4xx_HAL_Driver/Inc/stm32g4xx_ll_exti.h ****   */
 834:Drivers/STM32G4xx_HAL_Driver/Inc/stm32g4xx_ll_exti.h **** __STATIC_INLINE void LL_EXTI_DisableRisingTrig_0_31(uint32_t ExtiLine)
 835:Drivers/STM32G4xx_HAL_Driver/Inc/stm32g4xx_ll_exti.h **** {
 836:Drivers/STM32G4xx_HAL_Driver/Inc/stm32g4xx_ll_exti.h ****   CLEAR_BIT(EXTI->RTSR1, ExtiLine);
 837:Drivers/STM32G4xx_HAL_Driver/Inc/stm32g4xx_ll_exti.h **** 
 838:Drivers/STM32G4xx_HAL_Driver/Inc/stm32g4xx_ll_exti.h **** }
 839:Drivers/STM32G4xx_HAL_Driver/Inc/stm32g4xx_ll_exti.h **** 
 840:Drivers/STM32G4xx_HAL_Driver/Inc/stm32g4xx_ll_exti.h **** /**
 841:Drivers/STM32G4xx_HAL_Driver/Inc/stm32g4xx_ll_exti.h ****   * @brief  Disable ExtiLine Rising Edge Trigger for Lines in range 32 to 63
 842:Drivers/STM32G4xx_HAL_Driver/Inc/stm32g4xx_ll_exti.h ****   * @note The configurable wakeup lines are edge-triggered. No glitch must be
 843:Drivers/STM32G4xx_HAL_Driver/Inc/stm32g4xx_ll_exti.h ****   *       generated on these lines. If a rising edge on a configurable interrupt
 844:Drivers/STM32G4xx_HAL_Driver/Inc/stm32g4xx_ll_exti.h ****   *       line occurs during a write operation in the EXTI_RTSR register, the
 845:Drivers/STM32G4xx_HAL_Driver/Inc/stm32g4xx_ll_exti.h ****   *       pending bit is not set.
 846:Drivers/STM32G4xx_HAL_Driver/Inc/stm32g4xx_ll_exti.h ****   *       Rising and falling edge triggers can be set for
 847:Drivers/STM32G4xx_HAL_Driver/Inc/stm32g4xx_ll_exti.h ****   *       the same interrupt line. In this case, both generate a trigger
 848:Drivers/STM32G4xx_HAL_Driver/Inc/stm32g4xx_ll_exti.h ****   *       condition.
 849:Drivers/STM32G4xx_HAL_Driver/Inc/stm32g4xx_ll_exti.h ****   * @rmtoll RTSR2        RTx           LL_EXTI_DisableRisingTrig_32_63
 850:Drivers/STM32G4xx_HAL_Driver/Inc/stm32g4xx_ll_exti.h ****   * @param  ExtiLine This parameter can be a combination of the following values:
 851:Drivers/STM32G4xx_HAL_Driver/Inc/stm32g4xx_ll_exti.h ****   *         @arg @ref LL_EXTI_LINE_32 (*)
 852:Drivers/STM32G4xx_HAL_Driver/Inc/stm32g4xx_ll_exti.h ****   *         @arg @ref LL_EXTI_LINE_33 (*)
 853:Drivers/STM32G4xx_HAL_Driver/Inc/stm32g4xx_ll_exti.h ****   *         @arg @ref LL_EXTI_LINE_38
 854:Drivers/STM32G4xx_HAL_Driver/Inc/stm32g4xx_ll_exti.h ****   *         @arg @ref LL_EXTI_LINE_39
 855:Drivers/STM32G4xx_HAL_Driver/Inc/stm32g4xx_ll_exti.h ****   *         @arg @ref LL_EXTI_LINE_40
 856:Drivers/STM32G4xx_HAL_Driver/Inc/stm32g4xx_ll_exti.h ****   *         @arg @ref LL_EXTI_LINE_41
 857:Drivers/STM32G4xx_HAL_Driver/Inc/stm32g4xx_ll_exti.h ****   * @note   (*): Available in some devices
 858:Drivers/STM32G4xx_HAL_Driver/Inc/stm32g4xx_ll_exti.h ****   * @retval None
 859:Drivers/STM32G4xx_HAL_Driver/Inc/stm32g4xx_ll_exti.h ****   */
 860:Drivers/STM32G4xx_HAL_Driver/Inc/stm32g4xx_ll_exti.h **** __STATIC_INLINE void LL_EXTI_DisableRisingTrig_32_63(uint32_t ExtiLine)
 861:Drivers/STM32G4xx_HAL_Driver/Inc/stm32g4xx_ll_exti.h **** {
 862:Drivers/STM32G4xx_HAL_Driver/Inc/stm32g4xx_ll_exti.h ****   CLEAR_BIT(EXTI->RTSR2, ExtiLine);
 863:Drivers/STM32G4xx_HAL_Driver/Inc/stm32g4xx_ll_exti.h **** }
 864:Drivers/STM32G4xx_HAL_Driver/Inc/stm32g4xx_ll_exti.h **** 
 865:Drivers/STM32G4xx_HAL_Driver/Inc/stm32g4xx_ll_exti.h **** /**
 866:Drivers/STM32G4xx_HAL_Driver/Inc/stm32g4xx_ll_exti.h ****   * @brief  Check if rising edge trigger is enabled for Lines in range 0 to 31
 867:Drivers/STM32G4xx_HAL_Driver/Inc/stm32g4xx_ll_exti.h ****   * @rmtoll RTSR1        RTx           LL_EXTI_IsEnabledRisingTrig_0_31
 868:Drivers/STM32G4xx_HAL_Driver/Inc/stm32g4xx_ll_exti.h ****   * @param  ExtiLine This parameter can be a combination of the following values:
 869:Drivers/STM32G4xx_HAL_Driver/Inc/stm32g4xx_ll_exti.h ****   *         @arg @ref LL_EXTI_LINE_0
 870:Drivers/STM32G4xx_HAL_Driver/Inc/stm32g4xx_ll_exti.h ****   *         @arg @ref LL_EXTI_LINE_1
 871:Drivers/STM32G4xx_HAL_Driver/Inc/stm32g4xx_ll_exti.h ****   *         @arg @ref LL_EXTI_LINE_2
 872:Drivers/STM32G4xx_HAL_Driver/Inc/stm32g4xx_ll_exti.h ****   *         @arg @ref LL_EXTI_LINE_3
 873:Drivers/STM32G4xx_HAL_Driver/Inc/stm32g4xx_ll_exti.h ****   *         @arg @ref LL_EXTI_LINE_4
 874:Drivers/STM32G4xx_HAL_Driver/Inc/stm32g4xx_ll_exti.h ****   *         @arg @ref LL_EXTI_LINE_5
 875:Drivers/STM32G4xx_HAL_Driver/Inc/stm32g4xx_ll_exti.h ****   *         @arg @ref LL_EXTI_LINE_6
 876:Drivers/STM32G4xx_HAL_Driver/Inc/stm32g4xx_ll_exti.h ****   *         @arg @ref LL_EXTI_LINE_7
 877:Drivers/STM32G4xx_HAL_Driver/Inc/stm32g4xx_ll_exti.h ****   *         @arg @ref LL_EXTI_LINE_8
 878:Drivers/STM32G4xx_HAL_Driver/Inc/stm32g4xx_ll_exti.h ****   *         @arg @ref LL_EXTI_LINE_9
 879:Drivers/STM32G4xx_HAL_Driver/Inc/stm32g4xx_ll_exti.h ****   *         @arg @ref LL_EXTI_LINE_10
ARM GAS  D:\apps\VSCode\data\tmp\cclbo69C.s 			page 25


 880:Drivers/STM32G4xx_HAL_Driver/Inc/stm32g4xx_ll_exti.h ****   *         @arg @ref LL_EXTI_LINE_11
 881:Drivers/STM32G4xx_HAL_Driver/Inc/stm32g4xx_ll_exti.h ****   *         @arg @ref LL_EXTI_LINE_12
 882:Drivers/STM32G4xx_HAL_Driver/Inc/stm32g4xx_ll_exti.h ****   *         @arg @ref LL_EXTI_LINE_13
 883:Drivers/STM32G4xx_HAL_Driver/Inc/stm32g4xx_ll_exti.h ****   *         @arg @ref LL_EXTI_LINE_14
 884:Drivers/STM32G4xx_HAL_Driver/Inc/stm32g4xx_ll_exti.h ****   *         @arg @ref LL_EXTI_LINE_15
 885:Drivers/STM32G4xx_HAL_Driver/Inc/stm32g4xx_ll_exti.h ****   *         @arg @ref LL_EXTI_LINE_16
 886:Drivers/STM32G4xx_HAL_Driver/Inc/stm32g4xx_ll_exti.h ****   *         @arg @ref LL_EXTI_LINE_18
 887:Drivers/STM32G4xx_HAL_Driver/Inc/stm32g4xx_ll_exti.h ****   *         @arg @ref LL_EXTI_LINE_19
 888:Drivers/STM32G4xx_HAL_Driver/Inc/stm32g4xx_ll_exti.h ****   *         @arg @ref LL_EXTI_LINE_20
 889:Drivers/STM32G4xx_HAL_Driver/Inc/stm32g4xx_ll_exti.h ****   *         @arg @ref LL_EXTI_LINE_21
 890:Drivers/STM32G4xx_HAL_Driver/Inc/stm32g4xx_ll_exti.h ****   *         @arg @ref LL_EXTI_LINE_22
 891:Drivers/STM32G4xx_HAL_Driver/Inc/stm32g4xx_ll_exti.h ****   *         @arg @ref LL_EXTI_LINE_29
 892:Drivers/STM32G4xx_HAL_Driver/Inc/stm32g4xx_ll_exti.h ****   *         @arg @ref LL_EXTI_LINE_30
 893:Drivers/STM32G4xx_HAL_Driver/Inc/stm32g4xx_ll_exti.h ****   *         @arg @ref LL_EXTI_LINE_31 (*)
 894:Drivers/STM32G4xx_HAL_Driver/Inc/stm32g4xx_ll_exti.h ****   * @note   (*): Available in some devices
 895:Drivers/STM32G4xx_HAL_Driver/Inc/stm32g4xx_ll_exti.h ****   * @note   Please check each device line mapping for EXTI Line availability
 896:Drivers/STM32G4xx_HAL_Driver/Inc/stm32g4xx_ll_exti.h ****   * @retval State of bit (1 or 0).
 897:Drivers/STM32G4xx_HAL_Driver/Inc/stm32g4xx_ll_exti.h ****   */
 898:Drivers/STM32G4xx_HAL_Driver/Inc/stm32g4xx_ll_exti.h **** __STATIC_INLINE uint32_t LL_EXTI_IsEnabledRisingTrig_0_31(uint32_t ExtiLine)
 899:Drivers/STM32G4xx_HAL_Driver/Inc/stm32g4xx_ll_exti.h **** {
 900:Drivers/STM32G4xx_HAL_Driver/Inc/stm32g4xx_ll_exti.h ****   return ((READ_BIT(EXTI->RTSR1, ExtiLine) == (ExtiLine)) ? 1UL : 0UL);
 901:Drivers/STM32G4xx_HAL_Driver/Inc/stm32g4xx_ll_exti.h **** }
 902:Drivers/STM32G4xx_HAL_Driver/Inc/stm32g4xx_ll_exti.h **** 
 903:Drivers/STM32G4xx_HAL_Driver/Inc/stm32g4xx_ll_exti.h **** /**
 904:Drivers/STM32G4xx_HAL_Driver/Inc/stm32g4xx_ll_exti.h ****   * @brief  Check if rising edge trigger is enabled for Lines in range 32 to 63
 905:Drivers/STM32G4xx_HAL_Driver/Inc/stm32g4xx_ll_exti.h ****   * @rmtoll RTSR2        RTx           LL_EXTI_IsEnabledRisingTrig_32_63
 906:Drivers/STM32G4xx_HAL_Driver/Inc/stm32g4xx_ll_exti.h ****   * @param  ExtiLine This parameter can be a combination of the following values:
 907:Drivers/STM32G4xx_HAL_Driver/Inc/stm32g4xx_ll_exti.h ****   *         @arg @ref LL_EXTI_LINE_32 (*)
 908:Drivers/STM32G4xx_HAL_Driver/Inc/stm32g4xx_ll_exti.h ****   *         @arg @ref LL_EXTI_LINE_33 (*)
 909:Drivers/STM32G4xx_HAL_Driver/Inc/stm32g4xx_ll_exti.h ****   *         @arg @ref LL_EXTI_LINE_38
 910:Drivers/STM32G4xx_HAL_Driver/Inc/stm32g4xx_ll_exti.h ****   *         @arg @ref LL_EXTI_LINE_39
 911:Drivers/STM32G4xx_HAL_Driver/Inc/stm32g4xx_ll_exti.h ****   *         @arg @ref LL_EXTI_LINE_40
 912:Drivers/STM32G4xx_HAL_Driver/Inc/stm32g4xx_ll_exti.h ****   *         @arg @ref LL_EXTI_LINE_41
 913:Drivers/STM32G4xx_HAL_Driver/Inc/stm32g4xx_ll_exti.h ****   * @note   (*): Available in some devices
 914:Drivers/STM32G4xx_HAL_Driver/Inc/stm32g4xx_ll_exti.h ****   * @retval State of bit (1 or 0).
 915:Drivers/STM32G4xx_HAL_Driver/Inc/stm32g4xx_ll_exti.h ****   */
 916:Drivers/STM32G4xx_HAL_Driver/Inc/stm32g4xx_ll_exti.h **** __STATIC_INLINE uint32_t LL_EXTI_IsEnabledRisingTrig_32_63(uint32_t ExtiLine)
 917:Drivers/STM32G4xx_HAL_Driver/Inc/stm32g4xx_ll_exti.h **** {
 918:Drivers/STM32G4xx_HAL_Driver/Inc/stm32g4xx_ll_exti.h ****   return ((READ_BIT(EXTI->RTSR2, ExtiLine) == (ExtiLine)) ? 1UL : 0UL);
 919:Drivers/STM32G4xx_HAL_Driver/Inc/stm32g4xx_ll_exti.h **** }
 920:Drivers/STM32G4xx_HAL_Driver/Inc/stm32g4xx_ll_exti.h **** 
 921:Drivers/STM32G4xx_HAL_Driver/Inc/stm32g4xx_ll_exti.h **** /**
 922:Drivers/STM32G4xx_HAL_Driver/Inc/stm32g4xx_ll_exti.h ****   * @}
 923:Drivers/STM32G4xx_HAL_Driver/Inc/stm32g4xx_ll_exti.h ****   */
 924:Drivers/STM32G4xx_HAL_Driver/Inc/stm32g4xx_ll_exti.h **** 
 925:Drivers/STM32G4xx_HAL_Driver/Inc/stm32g4xx_ll_exti.h **** /** @defgroup EXTI_LL_EF_Falling_Trigger_Management Falling_Trigger_Management
 926:Drivers/STM32G4xx_HAL_Driver/Inc/stm32g4xx_ll_exti.h ****   * @{
 927:Drivers/STM32G4xx_HAL_Driver/Inc/stm32g4xx_ll_exti.h ****   */
 928:Drivers/STM32G4xx_HAL_Driver/Inc/stm32g4xx_ll_exti.h **** 
 929:Drivers/STM32G4xx_HAL_Driver/Inc/stm32g4xx_ll_exti.h **** /**
 930:Drivers/STM32G4xx_HAL_Driver/Inc/stm32g4xx_ll_exti.h ****   * @brief  Enable ExtiLine Falling Edge Trigger for Lines in range 0 to 31
 931:Drivers/STM32G4xx_HAL_Driver/Inc/stm32g4xx_ll_exti.h ****   * @note The configurable wakeup lines are edge-triggered. No glitch must be
 932:Drivers/STM32G4xx_HAL_Driver/Inc/stm32g4xx_ll_exti.h ****   *       generated on these lines. If a falling edge on a configurable interrupt
 933:Drivers/STM32G4xx_HAL_Driver/Inc/stm32g4xx_ll_exti.h ****   *       line occurs during a write operation in the EXTI_FTSR register, the
 934:Drivers/STM32G4xx_HAL_Driver/Inc/stm32g4xx_ll_exti.h ****   *       pending bit is not set.
 935:Drivers/STM32G4xx_HAL_Driver/Inc/stm32g4xx_ll_exti.h ****   *       Rising and falling edge triggers can be set for
 936:Drivers/STM32G4xx_HAL_Driver/Inc/stm32g4xx_ll_exti.h ****   *       the same interrupt line. In this case, both generate a trigger
ARM GAS  D:\apps\VSCode\data\tmp\cclbo69C.s 			page 26


 937:Drivers/STM32G4xx_HAL_Driver/Inc/stm32g4xx_ll_exti.h ****   *       condition.
 938:Drivers/STM32G4xx_HAL_Driver/Inc/stm32g4xx_ll_exti.h ****   * @rmtoll FTSR1        FTx           LL_EXTI_EnableFallingTrig_0_31
 939:Drivers/STM32G4xx_HAL_Driver/Inc/stm32g4xx_ll_exti.h ****   * @param  ExtiLine This parameter can be a combination of the following values:
 940:Drivers/STM32G4xx_HAL_Driver/Inc/stm32g4xx_ll_exti.h ****   *         @arg @ref LL_EXTI_LINE_0
 941:Drivers/STM32G4xx_HAL_Driver/Inc/stm32g4xx_ll_exti.h ****   *         @arg @ref LL_EXTI_LINE_1
 942:Drivers/STM32G4xx_HAL_Driver/Inc/stm32g4xx_ll_exti.h ****   *         @arg @ref LL_EXTI_LINE_2
 943:Drivers/STM32G4xx_HAL_Driver/Inc/stm32g4xx_ll_exti.h ****   *         @arg @ref LL_EXTI_LINE_3
 944:Drivers/STM32G4xx_HAL_Driver/Inc/stm32g4xx_ll_exti.h ****   *         @arg @ref LL_EXTI_LINE_4
 945:Drivers/STM32G4xx_HAL_Driver/Inc/stm32g4xx_ll_exti.h ****   *         @arg @ref LL_EXTI_LINE_5
 946:Drivers/STM32G4xx_HAL_Driver/Inc/stm32g4xx_ll_exti.h ****   *         @arg @ref LL_EXTI_LINE_6
 947:Drivers/STM32G4xx_HAL_Driver/Inc/stm32g4xx_ll_exti.h ****   *         @arg @ref LL_EXTI_LINE_7
 948:Drivers/STM32G4xx_HAL_Driver/Inc/stm32g4xx_ll_exti.h ****   *         @arg @ref LL_EXTI_LINE_8
 949:Drivers/STM32G4xx_HAL_Driver/Inc/stm32g4xx_ll_exti.h ****   *         @arg @ref LL_EXTI_LINE_9
 950:Drivers/STM32G4xx_HAL_Driver/Inc/stm32g4xx_ll_exti.h ****   *         @arg @ref LL_EXTI_LINE_10
 951:Drivers/STM32G4xx_HAL_Driver/Inc/stm32g4xx_ll_exti.h ****   *         @arg @ref LL_EXTI_LINE_11
 952:Drivers/STM32G4xx_HAL_Driver/Inc/stm32g4xx_ll_exti.h ****   *         @arg @ref LL_EXTI_LINE_12
 953:Drivers/STM32G4xx_HAL_Driver/Inc/stm32g4xx_ll_exti.h ****   *         @arg @ref LL_EXTI_LINE_13
 954:Drivers/STM32G4xx_HAL_Driver/Inc/stm32g4xx_ll_exti.h ****   *         @arg @ref LL_EXTI_LINE_14
 955:Drivers/STM32G4xx_HAL_Driver/Inc/stm32g4xx_ll_exti.h ****   *         @arg @ref LL_EXTI_LINE_15
 956:Drivers/STM32G4xx_HAL_Driver/Inc/stm32g4xx_ll_exti.h ****   *         @arg @ref LL_EXTI_LINE_16
 957:Drivers/STM32G4xx_HAL_Driver/Inc/stm32g4xx_ll_exti.h ****   *         @arg @ref LL_EXTI_LINE_18
 958:Drivers/STM32G4xx_HAL_Driver/Inc/stm32g4xx_ll_exti.h ****   *         @arg @ref LL_EXTI_LINE_19
 959:Drivers/STM32G4xx_HAL_Driver/Inc/stm32g4xx_ll_exti.h ****   *         @arg @ref LL_EXTI_LINE_20
 960:Drivers/STM32G4xx_HAL_Driver/Inc/stm32g4xx_ll_exti.h ****   *         @arg @ref LL_EXTI_LINE_21
 961:Drivers/STM32G4xx_HAL_Driver/Inc/stm32g4xx_ll_exti.h ****   *         @arg @ref LL_EXTI_LINE_22
 962:Drivers/STM32G4xx_HAL_Driver/Inc/stm32g4xx_ll_exti.h ****   *         @arg @ref LL_EXTI_LINE_29
 963:Drivers/STM32G4xx_HAL_Driver/Inc/stm32g4xx_ll_exti.h ****   *         @arg @ref LL_EXTI_LINE_30
 964:Drivers/STM32G4xx_HAL_Driver/Inc/stm32g4xx_ll_exti.h ****   *         @arg @ref LL_EXTI_LINE_31 (*)
 965:Drivers/STM32G4xx_HAL_Driver/Inc/stm32g4xx_ll_exti.h ****   * @note   (*): Available in some devices
 966:Drivers/STM32G4xx_HAL_Driver/Inc/stm32g4xx_ll_exti.h ****   * @note   Please check each device line mapping for EXTI Line availability
 967:Drivers/STM32G4xx_HAL_Driver/Inc/stm32g4xx_ll_exti.h ****   * @retval None
 968:Drivers/STM32G4xx_HAL_Driver/Inc/stm32g4xx_ll_exti.h ****   */
 969:Drivers/STM32G4xx_HAL_Driver/Inc/stm32g4xx_ll_exti.h **** __STATIC_INLINE void LL_EXTI_EnableFallingTrig_0_31(uint32_t ExtiLine)
 970:Drivers/STM32G4xx_HAL_Driver/Inc/stm32g4xx_ll_exti.h **** {
 971:Drivers/STM32G4xx_HAL_Driver/Inc/stm32g4xx_ll_exti.h ****   SET_BIT(EXTI->FTSR1, ExtiLine);
 972:Drivers/STM32G4xx_HAL_Driver/Inc/stm32g4xx_ll_exti.h **** }
 973:Drivers/STM32G4xx_HAL_Driver/Inc/stm32g4xx_ll_exti.h **** 
 974:Drivers/STM32G4xx_HAL_Driver/Inc/stm32g4xx_ll_exti.h **** /**
 975:Drivers/STM32G4xx_HAL_Driver/Inc/stm32g4xx_ll_exti.h ****   * @brief  Enable ExtiLine Falling Edge Trigger for Lines in range 32 to 63
 976:Drivers/STM32G4xx_HAL_Driver/Inc/stm32g4xx_ll_exti.h ****   * @note The configurable wakeup lines are edge-triggered. No glitch must be
 977:Drivers/STM32G4xx_HAL_Driver/Inc/stm32g4xx_ll_exti.h ****   *       generated on these lines. If a Falling edge on a configurable interrupt
 978:Drivers/STM32G4xx_HAL_Driver/Inc/stm32g4xx_ll_exti.h ****   *       line occurs during a write operation in the EXTI_FTSR register, the
 979:Drivers/STM32G4xx_HAL_Driver/Inc/stm32g4xx_ll_exti.h ****   *       pending bit is not set.
 980:Drivers/STM32G4xx_HAL_Driver/Inc/stm32g4xx_ll_exti.h ****   *       Rising and falling edge triggers can be set for
 981:Drivers/STM32G4xx_HAL_Driver/Inc/stm32g4xx_ll_exti.h ****   *       the same interrupt line. In this case, both generate a trigger
 982:Drivers/STM32G4xx_HAL_Driver/Inc/stm32g4xx_ll_exti.h ****   *       condition.
 983:Drivers/STM32G4xx_HAL_Driver/Inc/stm32g4xx_ll_exti.h ****   * @rmtoll FTSR2        FTx           LL_EXTI_EnableFallingTrig_32_63
 984:Drivers/STM32G4xx_HAL_Driver/Inc/stm32g4xx_ll_exti.h ****   * @param  ExtiLine This parameter can be a combination of the following values:
 985:Drivers/STM32G4xx_HAL_Driver/Inc/stm32g4xx_ll_exti.h ****   *         @arg @ref LL_EXTI_LINE_32 (*)
 986:Drivers/STM32G4xx_HAL_Driver/Inc/stm32g4xx_ll_exti.h ****   *         @arg @ref LL_EXTI_LINE_33 (*)
 987:Drivers/STM32G4xx_HAL_Driver/Inc/stm32g4xx_ll_exti.h ****   *         @arg @ref LL_EXTI_LINE_38
 988:Drivers/STM32G4xx_HAL_Driver/Inc/stm32g4xx_ll_exti.h ****   *         @arg @ref LL_EXTI_LINE_39
 989:Drivers/STM32G4xx_HAL_Driver/Inc/stm32g4xx_ll_exti.h ****   *         @arg @ref LL_EXTI_LINE_40
 990:Drivers/STM32G4xx_HAL_Driver/Inc/stm32g4xx_ll_exti.h ****   *         @arg @ref LL_EXTI_LINE_41
 991:Drivers/STM32G4xx_HAL_Driver/Inc/stm32g4xx_ll_exti.h ****   * @note   (*): Available in some devices
 992:Drivers/STM32G4xx_HAL_Driver/Inc/stm32g4xx_ll_exti.h ****   * @retval None
 993:Drivers/STM32G4xx_HAL_Driver/Inc/stm32g4xx_ll_exti.h ****   */
ARM GAS  D:\apps\VSCode\data\tmp\cclbo69C.s 			page 27


 994:Drivers/STM32G4xx_HAL_Driver/Inc/stm32g4xx_ll_exti.h **** __STATIC_INLINE void LL_EXTI_EnableFallingTrig_32_63(uint32_t ExtiLine)
 995:Drivers/STM32G4xx_HAL_Driver/Inc/stm32g4xx_ll_exti.h **** {
 996:Drivers/STM32G4xx_HAL_Driver/Inc/stm32g4xx_ll_exti.h ****   SET_BIT(EXTI->FTSR2, ExtiLine);
 997:Drivers/STM32G4xx_HAL_Driver/Inc/stm32g4xx_ll_exti.h **** }
 998:Drivers/STM32G4xx_HAL_Driver/Inc/stm32g4xx_ll_exti.h **** 
 999:Drivers/STM32G4xx_HAL_Driver/Inc/stm32g4xx_ll_exti.h **** /**
1000:Drivers/STM32G4xx_HAL_Driver/Inc/stm32g4xx_ll_exti.h ****   * @brief  Disable ExtiLine Falling Edge Trigger for Lines in range 0 to 31
1001:Drivers/STM32G4xx_HAL_Driver/Inc/stm32g4xx_ll_exti.h ****   * @note The configurable wakeup lines are edge-triggered. No glitch must be
1002:Drivers/STM32G4xx_HAL_Driver/Inc/stm32g4xx_ll_exti.h ****   *       generated on these lines. If a Falling edge on a configurable interrupt
1003:Drivers/STM32G4xx_HAL_Driver/Inc/stm32g4xx_ll_exti.h ****   *       line occurs during a write operation in the EXTI_FTSR register, the
1004:Drivers/STM32G4xx_HAL_Driver/Inc/stm32g4xx_ll_exti.h ****   *       pending bit is not set.
1005:Drivers/STM32G4xx_HAL_Driver/Inc/stm32g4xx_ll_exti.h ****   *       Rising and falling edge triggers can be set for the same interrupt line.
1006:Drivers/STM32G4xx_HAL_Driver/Inc/stm32g4xx_ll_exti.h ****   *       In this case, both generate a trigger condition.
1007:Drivers/STM32G4xx_HAL_Driver/Inc/stm32g4xx_ll_exti.h ****   * @rmtoll FTSR1        FTx           LL_EXTI_DisableFallingTrig_0_31
1008:Drivers/STM32G4xx_HAL_Driver/Inc/stm32g4xx_ll_exti.h ****   * @param  ExtiLine This parameter can be a combination of the following values:
1009:Drivers/STM32G4xx_HAL_Driver/Inc/stm32g4xx_ll_exti.h ****   *         @arg @ref LL_EXTI_LINE_0
1010:Drivers/STM32G4xx_HAL_Driver/Inc/stm32g4xx_ll_exti.h ****   *         @arg @ref LL_EXTI_LINE_1
1011:Drivers/STM32G4xx_HAL_Driver/Inc/stm32g4xx_ll_exti.h ****   *         @arg @ref LL_EXTI_LINE_2
1012:Drivers/STM32G4xx_HAL_Driver/Inc/stm32g4xx_ll_exti.h ****   *         @arg @ref LL_EXTI_LINE_3
1013:Drivers/STM32G4xx_HAL_Driver/Inc/stm32g4xx_ll_exti.h ****   *         @arg @ref LL_EXTI_LINE_4
1014:Drivers/STM32G4xx_HAL_Driver/Inc/stm32g4xx_ll_exti.h ****   *         @arg @ref LL_EXTI_LINE_5
1015:Drivers/STM32G4xx_HAL_Driver/Inc/stm32g4xx_ll_exti.h ****   *         @arg @ref LL_EXTI_LINE_6
1016:Drivers/STM32G4xx_HAL_Driver/Inc/stm32g4xx_ll_exti.h ****   *         @arg @ref LL_EXTI_LINE_7
1017:Drivers/STM32G4xx_HAL_Driver/Inc/stm32g4xx_ll_exti.h ****   *         @arg @ref LL_EXTI_LINE_8
1018:Drivers/STM32G4xx_HAL_Driver/Inc/stm32g4xx_ll_exti.h ****   *         @arg @ref LL_EXTI_LINE_9
1019:Drivers/STM32G4xx_HAL_Driver/Inc/stm32g4xx_ll_exti.h ****   *         @arg @ref LL_EXTI_LINE_10
1020:Drivers/STM32G4xx_HAL_Driver/Inc/stm32g4xx_ll_exti.h ****   *         @arg @ref LL_EXTI_LINE_11
1021:Drivers/STM32G4xx_HAL_Driver/Inc/stm32g4xx_ll_exti.h ****   *         @arg @ref LL_EXTI_LINE_12
1022:Drivers/STM32G4xx_HAL_Driver/Inc/stm32g4xx_ll_exti.h ****   *         @arg @ref LL_EXTI_LINE_13
1023:Drivers/STM32G4xx_HAL_Driver/Inc/stm32g4xx_ll_exti.h ****   *         @arg @ref LL_EXTI_LINE_14
1024:Drivers/STM32G4xx_HAL_Driver/Inc/stm32g4xx_ll_exti.h ****   *         @arg @ref LL_EXTI_LINE_15
1025:Drivers/STM32G4xx_HAL_Driver/Inc/stm32g4xx_ll_exti.h ****   *         @arg @ref LL_EXTI_LINE_16
1026:Drivers/STM32G4xx_HAL_Driver/Inc/stm32g4xx_ll_exti.h ****   *         @arg @ref LL_EXTI_LINE_18
1027:Drivers/STM32G4xx_HAL_Driver/Inc/stm32g4xx_ll_exti.h ****   *         @arg @ref LL_EXTI_LINE_19
1028:Drivers/STM32G4xx_HAL_Driver/Inc/stm32g4xx_ll_exti.h ****   *         @arg @ref LL_EXTI_LINE_20
1029:Drivers/STM32G4xx_HAL_Driver/Inc/stm32g4xx_ll_exti.h ****   *         @arg @ref LL_EXTI_LINE_21
1030:Drivers/STM32G4xx_HAL_Driver/Inc/stm32g4xx_ll_exti.h ****   *         @arg @ref LL_EXTI_LINE_22
1031:Drivers/STM32G4xx_HAL_Driver/Inc/stm32g4xx_ll_exti.h ****   *         @arg @ref LL_EXTI_LINE_29
1032:Drivers/STM32G4xx_HAL_Driver/Inc/stm32g4xx_ll_exti.h ****   *         @arg @ref LL_EXTI_LINE_30
1033:Drivers/STM32G4xx_HAL_Driver/Inc/stm32g4xx_ll_exti.h ****   *         @arg @ref LL_EXTI_LINE_31 (*)
1034:Drivers/STM32G4xx_HAL_Driver/Inc/stm32g4xx_ll_exti.h ****   * @note   (*): Available in some devices
1035:Drivers/STM32G4xx_HAL_Driver/Inc/stm32g4xx_ll_exti.h ****   * @note   Please check each device line mapping for EXTI Line availability
1036:Drivers/STM32G4xx_HAL_Driver/Inc/stm32g4xx_ll_exti.h ****   * @retval None
1037:Drivers/STM32G4xx_HAL_Driver/Inc/stm32g4xx_ll_exti.h ****   */
1038:Drivers/STM32G4xx_HAL_Driver/Inc/stm32g4xx_ll_exti.h **** __STATIC_INLINE void LL_EXTI_DisableFallingTrig_0_31(uint32_t ExtiLine)
 274              		.loc 2 1038 22 view .LVU75
 275              	.LBB71:
1039:Drivers/STM32G4xx_HAL_Driver/Inc/stm32g4xx_ll_exti.h **** {
1040:Drivers/STM32G4xx_HAL_Driver/Inc/stm32g4xx_ll_exti.h ****   CLEAR_BIT(EXTI->FTSR1, ExtiLine);
 276              		.loc 2 1040 3 view .LVU76
 277 007c 454A     		ldr	r2, .L30
 278 007e D168     		ldr	r1, [r2, #12]
 279 0080 21EA0401 		bic	r1, r1, r4
 280 0084 D160     		str	r1, [r2, #12]
 281              	.LVL25:
 282              		.loc 2 1040 3 is_stmt 0 view .LVU77
 283              	.LBE71:
ARM GAS  D:\apps\VSCode\data\tmp\cclbo69C.s 			page 28


 284              	.LBE70:
 172:Drivers/STM32G4xx_HAL_Driver/Src/stm32g4xx_ll_exti.c ****             break;
 285              		.loc 1 172 13 is_stmt 1 view .LVU78
 286 0086 1968     		ldr	r1, [r3]
 287              	.LVL26:
 288              	.LBB72:
 289              	.LBI72:
 764:Drivers/STM32G4xx_HAL_Driver/Inc/stm32g4xx_ll_exti.h **** {
 290              		.loc 2 764 22 view .LVU79
 291              	.LBB73:
 766:Drivers/STM32G4xx_HAL_Driver/Inc/stm32g4xx_ll_exti.h **** 
 292              		.loc 2 766 3 view .LVU80
 293 0088 9468     		ldr	r4, [r2, #8]
 294 008a 2143     		orrs	r1, r1, r4
 295              	.LVL27:
 766:Drivers/STM32G4xx_HAL_Driver/Inc/stm32g4xx_ll_exti.h **** 
 296              		.loc 2 766 3 is_stmt 0 view .LVU81
 297 008c 9160     		str	r1, [r2, #8]
 298              	.LVL28:
 299              	.L6:
 766:Drivers/STM32G4xx_HAL_Driver/Inc/stm32g4xx_ll_exti.h **** 
 300              		.loc 2 766 3 view .LVU82
 301              	.LBE73:
 302              	.LBE72:
 189:Drivers/STM32G4xx_HAL_Driver/Src/stm32g4xx_ll_exti.c ****         }
 190:Drivers/STM32G4xx_HAL_Driver/Src/stm32g4xx_ll_exti.c ****       }
 191:Drivers/STM32G4xx_HAL_Driver/Src/stm32g4xx_ll_exti.c ****     }
 192:Drivers/STM32G4xx_HAL_Driver/Src/stm32g4xx_ll_exti.c ****     /* Configure EXTI Lines in range from 32 to 63 */
 193:Drivers/STM32G4xx_HAL_Driver/Src/stm32g4xx_ll_exti.c ****     if (EXTI_InitStruct->Line_32_63 != LL_EXTI_LINE_NONE)
 303              		.loc 1 193 5 is_stmt 1 view .LVU83
 304              		.loc 1 193 24 is_stmt 0 view .LVU84
 305 008e 5A68     		ldr	r2, [r3, #4]
 306              		.loc 1 193 8 view .LVU85
 307 0090 002A     		cmp	r2, #0
 308 0092 4FD0     		beq	.L4
 194:Drivers/STM32G4xx_HAL_Driver/Src/stm32g4xx_ll_exti.c ****     {
 195:Drivers/STM32G4xx_HAL_Driver/Src/stm32g4xx_ll_exti.c ****       switch (EXTI_InitStruct->Mode)
 309              		.loc 1 195 7 is_stmt 1 view .LVU86
 310              		.loc 1 195 30 is_stmt 0 view .LVU87
 311 0094 597A     		ldrb	r1, [r3, #9]	@ zero_extendqisi2
 312              		.loc 1 195 7 view .LVU88
 313 0096 0129     		cmp	r1, #1
 314 0098 2FD0     		beq	.L15
 315 009a 4CB2     		sxtb	r4, r1
 316 009c CCB1     		cbz	r4, .L16
 317 009e 0229     		cmp	r1, #2
 318 00a0 35D0     		beq	.L17
 196:Drivers/STM32G4xx_HAL_Driver/Src/stm32g4xx_ll_exti.c ****       {
 197:Drivers/STM32G4xx_HAL_Driver/Src/stm32g4xx_ll_exti.c ****         case LL_EXTI_MODE_IT:
 198:Drivers/STM32G4xx_HAL_Driver/Src/stm32g4xx_ll_exti.c ****           /* First Disable Event on provided Lines */
 199:Drivers/STM32G4xx_HAL_Driver/Src/stm32g4xx_ll_exti.c ****           LL_EXTI_DisableEvent_32_63(EXTI_InitStruct->Line_32_63);
 200:Drivers/STM32G4xx_HAL_Driver/Src/stm32g4xx_ll_exti.c ****           /* Then Enable IT on provided Lines */
 201:Drivers/STM32G4xx_HAL_Driver/Src/stm32g4xx_ll_exti.c ****           LL_EXTI_EnableIT_32_63(EXTI_InitStruct->Line_32_63);
 202:Drivers/STM32G4xx_HAL_Driver/Src/stm32g4xx_ll_exti.c ****           break;
 203:Drivers/STM32G4xx_HAL_Driver/Src/stm32g4xx_ll_exti.c ****         case LL_EXTI_MODE_EVENT:
 204:Drivers/STM32G4xx_HAL_Driver/Src/stm32g4xx_ll_exti.c ****           /* First Disable IT on provided Lines */
 205:Drivers/STM32G4xx_HAL_Driver/Src/stm32g4xx_ll_exti.c ****           LL_EXTI_DisableIT_32_63(EXTI_InitStruct->Line_32_63);
ARM GAS  D:\apps\VSCode\data\tmp\cclbo69C.s 			page 29


 206:Drivers/STM32G4xx_HAL_Driver/Src/stm32g4xx_ll_exti.c ****           /* Then Enable Event on provided Lines */
 207:Drivers/STM32G4xx_HAL_Driver/Src/stm32g4xx_ll_exti.c ****           LL_EXTI_EnableEvent_32_63(EXTI_InitStruct->Line_32_63);
 208:Drivers/STM32G4xx_HAL_Driver/Src/stm32g4xx_ll_exti.c ****           break;
 209:Drivers/STM32G4xx_HAL_Driver/Src/stm32g4xx_ll_exti.c ****         case LL_EXTI_MODE_IT_EVENT:
 210:Drivers/STM32G4xx_HAL_Driver/Src/stm32g4xx_ll_exti.c ****           /* Directly Enable IT on provided Lines */
 211:Drivers/STM32G4xx_HAL_Driver/Src/stm32g4xx_ll_exti.c ****           LL_EXTI_EnableIT_32_63(EXTI_InitStruct->Line_32_63);
 212:Drivers/STM32G4xx_HAL_Driver/Src/stm32g4xx_ll_exti.c ****           /* Directly Enable IT on provided Lines */
 213:Drivers/STM32G4xx_HAL_Driver/Src/stm32g4xx_ll_exti.c ****           LL_EXTI_EnableEvent_32_63(EXTI_InitStruct->Line_32_63);
 214:Drivers/STM32G4xx_HAL_Driver/Src/stm32g4xx_ll_exti.c ****           break;
 215:Drivers/STM32G4xx_HAL_Driver/Src/stm32g4xx_ll_exti.c ****         default:
 216:Drivers/STM32G4xx_HAL_Driver/Src/stm32g4xx_ll_exti.c ****           status |= 0x04u;
 319              		.loc 1 216 11 is_stmt 1 view .LVU89
 320              		.loc 1 216 18 is_stmt 0 view .LVU90
 321 00a2 40F00400 		orr	r0, r0, #4
 322              	.LVL29:
 217:Drivers/STM32G4xx_HAL_Driver/Src/stm32g4xx_ll_exti.c ****           break;
 323              		.loc 1 217 11 is_stmt 1 view .LVU91
 324 00a6 1DE0     		b	.L19
 325              	.L11:
 176:Drivers/STM32G4xx_HAL_Driver/Src/stm32g4xx_ll_exti.c ****             /* Then Enable Falling Trigger on provided Lines */
 326              		.loc 1 176 13 view .LVU92
 327 00a8 1C68     		ldr	r4, [r3]
 328              	.LVL30:
 329              	.LBB74:
 330              	.LBI74:
 834:Drivers/STM32G4xx_HAL_Driver/Inc/stm32g4xx_ll_exti.h **** {
 331              		.loc 2 834 22 view .LVU93
 332              	.LBB75:
 836:Drivers/STM32G4xx_HAL_Driver/Inc/stm32g4xx_ll_exti.h **** 
 333              		.loc 2 836 3 view .LVU94
 334 00aa 3A4A     		ldr	r2, .L30
 335 00ac 9168     		ldr	r1, [r2, #8]
 336 00ae 21EA0401 		bic	r1, r1, r4
 337 00b2 9160     		str	r1, [r2, #8]
 338              	.LVL31:
 836:Drivers/STM32G4xx_HAL_Driver/Inc/stm32g4xx_ll_exti.h **** 
 339              		.loc 2 836 3 is_stmt 0 view .LVU95
 340              	.LBE75:
 341              	.LBE74:
 178:Drivers/STM32G4xx_HAL_Driver/Src/stm32g4xx_ll_exti.c ****             break;
 342              		.loc 1 178 13 is_stmt 1 view .LVU96
 343 00b4 1968     		ldr	r1, [r3]
 344              	.LVL32:
 345              	.LBB76:
 346              	.LBI76:
 969:Drivers/STM32G4xx_HAL_Driver/Inc/stm32g4xx_ll_exti.h **** {
 347              		.loc 2 969 22 view .LVU97
 348              	.LBB77:
 971:Drivers/STM32G4xx_HAL_Driver/Inc/stm32g4xx_ll_exti.h **** }
 349              		.loc 2 971 3 view .LVU98
 350 00b6 D468     		ldr	r4, [r2, #12]
 351 00b8 2143     		orrs	r1, r1, r4
 352              	.LVL33:
 971:Drivers/STM32G4xx_HAL_Driver/Inc/stm32g4xx_ll_exti.h **** }
 353              		.loc 2 971 3 is_stmt 0 view .LVU99
 354 00ba D160     		str	r1, [r2, #12]
 355              	.LVL34:
ARM GAS  D:\apps\VSCode\data\tmp\cclbo69C.s 			page 30


 971:Drivers/STM32G4xx_HAL_Driver/Inc/stm32g4xx_ll_exti.h **** }
 356              		.loc 2 971 3 view .LVU100
 357 00bc E7E7     		b	.L6
 358              	.L12:
 971:Drivers/STM32G4xx_HAL_Driver/Inc/stm32g4xx_ll_exti.h **** }
 359              		.loc 2 971 3 view .LVU101
 360              	.LBE77:
 361              	.LBE76:
 182:Drivers/STM32G4xx_HAL_Driver/Src/stm32g4xx_ll_exti.c ****             /* Enable Falling Trigger on provided Lines */
 362              		.loc 1 182 13 is_stmt 1 view .LVU102
 363 00be 1968     		ldr	r1, [r3]
 364              	.LVL35:
 365              	.LBB78:
 366              	.LBI78:
 764:Drivers/STM32G4xx_HAL_Driver/Inc/stm32g4xx_ll_exti.h **** {
 367              		.loc 2 764 22 view .LVU103
 368              	.LBB79:
 766:Drivers/STM32G4xx_HAL_Driver/Inc/stm32g4xx_ll_exti.h **** 
 369              		.loc 2 766 3 view .LVU104
 370 00c0 344A     		ldr	r2, .L30
 371 00c2 9468     		ldr	r4, [r2, #8]
 372 00c4 2143     		orrs	r1, r1, r4
 373              	.LVL36:
 766:Drivers/STM32G4xx_HAL_Driver/Inc/stm32g4xx_ll_exti.h **** 
 374              		.loc 2 766 3 is_stmt 0 view .LVU105
 375 00c6 9160     		str	r1, [r2, #8]
 376              	.LVL37:
 766:Drivers/STM32G4xx_HAL_Driver/Inc/stm32g4xx_ll_exti.h **** 
 377              		.loc 2 766 3 view .LVU106
 378              	.LBE79:
 379              	.LBE78:
 184:Drivers/STM32G4xx_HAL_Driver/Src/stm32g4xx_ll_exti.c ****             break;
 380              		.loc 1 184 13 is_stmt 1 view .LVU107
 381 00c8 1968     		ldr	r1, [r3]
 382              	.LVL38:
 383              	.LBB80:
 384              	.LBI80:
 969:Drivers/STM32G4xx_HAL_Driver/Inc/stm32g4xx_ll_exti.h **** {
 385              		.loc 2 969 22 view .LVU108
 386              	.LBB81:
 971:Drivers/STM32G4xx_HAL_Driver/Inc/stm32g4xx_ll_exti.h **** }
 387              		.loc 2 971 3 view .LVU109
 388 00ca D468     		ldr	r4, [r2, #12]
 389 00cc 2143     		orrs	r1, r1, r4
 390              	.LVL39:
 971:Drivers/STM32G4xx_HAL_Driver/Inc/stm32g4xx_ll_exti.h **** }
 391              		.loc 2 971 3 is_stmt 0 view .LVU110
 392 00ce D160     		str	r1, [r2, #12]
 393              	.LVL40:
 971:Drivers/STM32G4xx_HAL_Driver/Inc/stm32g4xx_ll_exti.h **** }
 394              		.loc 2 971 3 view .LVU111
 395 00d0 DDE7     		b	.L6
 396              	.L16:
 971:Drivers/STM32G4xx_HAL_Driver/Inc/stm32g4xx_ll_exti.h **** }
 397              		.loc 2 971 3 view .LVU112
 398              	.LBE81:
 399              	.LBE80:
ARM GAS  D:\apps\VSCode\data\tmp\cclbo69C.s 			page 31


 199:Drivers/STM32G4xx_HAL_Driver/Src/stm32g4xx_ll_exti.c ****           /* Then Enable IT on provided Lines */
 400              		.loc 1 199 11 is_stmt 1 view .LVU113
 401              	.LVL41:
 402              	.LBB82:
 403              	.LBI82:
 640:Drivers/STM32G4xx_HAL_Driver/Inc/stm32g4xx_ll_exti.h **** {
 404              		.loc 2 640 22 view .LVU114
 405              	.LBB83:
 642:Drivers/STM32G4xx_HAL_Driver/Inc/stm32g4xx_ll_exti.h **** }
 406              		.loc 2 642 3 view .LVU115
 407 00d2 3049     		ldr	r1, .L30
 408 00d4 4C6A     		ldr	r4, [r1, #36]
 409 00d6 24EA0202 		bic	r2, r4, r2
 410              	.LVL42:
 642:Drivers/STM32G4xx_HAL_Driver/Inc/stm32g4xx_ll_exti.h **** }
 411              		.loc 2 642 3 is_stmt 0 view .LVU116
 412 00da 4A62     		str	r2, [r1, #36]
 413              	.LVL43:
 642:Drivers/STM32G4xx_HAL_Driver/Inc/stm32g4xx_ll_exti.h **** }
 414              		.loc 2 642 3 view .LVU117
 415              	.LBE83:
 416              	.LBE82:
 201:Drivers/STM32G4xx_HAL_Driver/Src/stm32g4xx_ll_exti.c ****           break;
 417              		.loc 1 201 11 is_stmt 1 view .LVU118
 418 00dc 5A68     		ldr	r2, [r3, #4]
 419              	.LVL44:
 420              	.LBB84:
 421              	.LBI84:
 339:Drivers/STM32G4xx_HAL_Driver/Inc/stm32g4xx_ll_exti.h **** {
 422              		.loc 2 339 22 view .LVU119
 423              	.LBB85:
 341:Drivers/STM32G4xx_HAL_Driver/Inc/stm32g4xx_ll_exti.h **** }
 424              		.loc 2 341 3 view .LVU120
 425 00de 0C6A     		ldr	r4, [r1, #32]
 426 00e0 2243     		orrs	r2, r2, r4
 427              	.LVL45:
 341:Drivers/STM32G4xx_HAL_Driver/Inc/stm32g4xx_ll_exti.h **** }
 428              		.loc 2 341 3 is_stmt 0 view .LVU121
 429 00e2 0A62     		str	r2, [r1, #32]
 430              	.LVL46:
 431              	.L19:
 341:Drivers/STM32G4xx_HAL_Driver/Inc/stm32g4xx_ll_exti.h **** }
 432              		.loc 2 341 3 view .LVU122
 433              	.LBE85:
 434              	.LBE84:
 218:Drivers/STM32G4xx_HAL_Driver/Src/stm32g4xx_ll_exti.c ****       }
 219:Drivers/STM32G4xx_HAL_Driver/Src/stm32g4xx_ll_exti.c ****       if (EXTI_InitStruct->Trigger != LL_EXTI_TRIGGER_NONE)
 435              		.loc 1 219 7 is_stmt 1 view .LVU123
 436              		.loc 1 219 26 is_stmt 0 view .LVU124
 437 00e4 9A7A     		ldrb	r2, [r3, #10]	@ zero_extendqisi2
 438              		.loc 1 219 10 view .LVU125
 439 00e6 2AB3     		cbz	r2, .L4
 220:Drivers/STM32G4xx_HAL_Driver/Src/stm32g4xx_ll_exti.c ****       {
 221:Drivers/STM32G4xx_HAL_Driver/Src/stm32g4xx_ll_exti.c ****         switch (EXTI_InitStruct->Trigger)
 440              		.loc 1 221 9 is_stmt 1 view .LVU126
 441 00e8 022A     		cmp	r2, #2
 442 00ea 26D0     		beq	.L20
ARM GAS  D:\apps\VSCode\data\tmp\cclbo69C.s 			page 32


 443 00ec 032A     		cmp	r2, #3
 444 00ee 2FD0     		beq	.L21
 445 00f0 012A     		cmp	r2, #1
 446 00f2 15D0     		beq	.L29
 222:Drivers/STM32G4xx_HAL_Driver/Src/stm32g4xx_ll_exti.c ****         {
 223:Drivers/STM32G4xx_HAL_Driver/Src/stm32g4xx_ll_exti.c ****           case LL_EXTI_TRIGGER_RISING:
 224:Drivers/STM32G4xx_HAL_Driver/Src/stm32g4xx_ll_exti.c ****             /* First Disable Falling Trigger on provided Lines */
 225:Drivers/STM32G4xx_HAL_Driver/Src/stm32g4xx_ll_exti.c ****             LL_EXTI_DisableFallingTrig_32_63(EXTI_InitStruct->Line_32_63);
 226:Drivers/STM32G4xx_HAL_Driver/Src/stm32g4xx_ll_exti.c ****             /* Then Enable IT on provided Lines */
 227:Drivers/STM32G4xx_HAL_Driver/Src/stm32g4xx_ll_exti.c ****             LL_EXTI_EnableRisingTrig_32_63(EXTI_InitStruct->Line_32_63);
 228:Drivers/STM32G4xx_HAL_Driver/Src/stm32g4xx_ll_exti.c ****             break;
 229:Drivers/STM32G4xx_HAL_Driver/Src/stm32g4xx_ll_exti.c ****           case LL_EXTI_TRIGGER_FALLING:
 230:Drivers/STM32G4xx_HAL_Driver/Src/stm32g4xx_ll_exti.c ****             /* First Disable Rising Trigger on provided Lines */
 231:Drivers/STM32G4xx_HAL_Driver/Src/stm32g4xx_ll_exti.c ****             LL_EXTI_DisableRisingTrig_32_63(EXTI_InitStruct->Line_32_63);
 232:Drivers/STM32G4xx_HAL_Driver/Src/stm32g4xx_ll_exti.c ****             /* Then Enable Falling Trigger on provided Lines */
 233:Drivers/STM32G4xx_HAL_Driver/Src/stm32g4xx_ll_exti.c ****             LL_EXTI_EnableFallingTrig_32_63(EXTI_InitStruct->Line_32_63);
 234:Drivers/STM32G4xx_HAL_Driver/Src/stm32g4xx_ll_exti.c ****             break;
 235:Drivers/STM32G4xx_HAL_Driver/Src/stm32g4xx_ll_exti.c ****           case LL_EXTI_TRIGGER_RISING_FALLING:
 236:Drivers/STM32G4xx_HAL_Driver/Src/stm32g4xx_ll_exti.c ****             /* Enable Rising Trigger on provided Lines */
 237:Drivers/STM32G4xx_HAL_Driver/Src/stm32g4xx_ll_exti.c ****             LL_EXTI_EnableRisingTrig_32_63(EXTI_InitStruct->Line_32_63);
 238:Drivers/STM32G4xx_HAL_Driver/Src/stm32g4xx_ll_exti.c ****             /* Enable Falling Trigger on provided Lines */
 239:Drivers/STM32G4xx_HAL_Driver/Src/stm32g4xx_ll_exti.c ****             LL_EXTI_EnableFallingTrig_32_63(EXTI_InitStruct->Line_32_63);
 240:Drivers/STM32G4xx_HAL_Driver/Src/stm32g4xx_ll_exti.c ****             break;
 241:Drivers/STM32G4xx_HAL_Driver/Src/stm32g4xx_ll_exti.c ****           default:
 242:Drivers/STM32G4xx_HAL_Driver/Src/stm32g4xx_ll_exti.c ****             status |= 0x05u;
 447              		.loc 1 242 13 view .LVU127
 448              		.loc 1 242 20 is_stmt 0 view .LVU128
 449 00f4 40F00500 		orr	r0, r0, #5
 450              	.LVL47:
 243:Drivers/STM32G4xx_HAL_Driver/Src/stm32g4xx_ll_exti.c ****             break;
 451              		.loc 1 243 13 is_stmt 1 view .LVU129
 452 00f8 1CE0     		b	.L4
 453              	.L15:
 205:Drivers/STM32G4xx_HAL_Driver/Src/stm32g4xx_ll_exti.c ****           /* Then Enable Event on provided Lines */
 454              		.loc 1 205 11 view .LVU130
 455              	.LVL48:
 456              	.LBB86:
 457              	.LBI86:
 415:Drivers/STM32G4xx_HAL_Driver/Inc/stm32g4xx_ll_exti.h **** {
 458              		.loc 2 415 22 view .LVU131
 459              	.LBB87:
 417:Drivers/STM32G4xx_HAL_Driver/Inc/stm32g4xx_ll_exti.h **** }
 460              		.loc 2 417 3 view .LVU132
 461 00fa 2649     		ldr	r1, .L30
 462 00fc 0C6A     		ldr	r4, [r1, #32]
 463 00fe 24EA0202 		bic	r2, r4, r2
 464              	.LVL49:
 417:Drivers/STM32G4xx_HAL_Driver/Inc/stm32g4xx_ll_exti.h **** }
 465              		.loc 2 417 3 is_stmt 0 view .LVU133
 466 0102 0A62     		str	r2, [r1, #32]
 467              	.LVL50:
 417:Drivers/STM32G4xx_HAL_Driver/Inc/stm32g4xx_ll_exti.h **** }
 468              		.loc 2 417 3 view .LVU134
 469              	.LBE87:
 470              	.LBE86:
 207:Drivers/STM32G4xx_HAL_Driver/Src/stm32g4xx_ll_exti.c ****           break;
 471              		.loc 1 207 11 is_stmt 1 view .LVU135
ARM GAS  D:\apps\VSCode\data\tmp\cclbo69C.s 			page 33


 472 0104 5A68     		ldr	r2, [r3, #4]
 473              	.LVL51:
 474              	.LBB88:
 475              	.LBI88:
 570:Drivers/STM32G4xx_HAL_Driver/Inc/stm32g4xx_ll_exti.h **** {
 476              		.loc 2 570 22 view .LVU136
 477              	.LBB89:
 572:Drivers/STM32G4xx_HAL_Driver/Inc/stm32g4xx_ll_exti.h **** }
 478              		.loc 2 572 3 view .LVU137
 479 0106 4C6A     		ldr	r4, [r1, #36]
 480 0108 2243     		orrs	r2, r2, r4
 481              	.LVL52:
 572:Drivers/STM32G4xx_HAL_Driver/Inc/stm32g4xx_ll_exti.h **** }
 482              		.loc 2 572 3 is_stmt 0 view .LVU138
 483 010a 4A62     		str	r2, [r1, #36]
 484              	.LVL53:
 572:Drivers/STM32G4xx_HAL_Driver/Inc/stm32g4xx_ll_exti.h **** }
 485              		.loc 2 572 3 view .LVU139
 486 010c EAE7     		b	.L19
 487              	.L17:
 572:Drivers/STM32G4xx_HAL_Driver/Inc/stm32g4xx_ll_exti.h **** }
 488              		.loc 2 572 3 view .LVU140
 489              	.LBE89:
 490              	.LBE88:
 211:Drivers/STM32G4xx_HAL_Driver/Src/stm32g4xx_ll_exti.c ****           /* Directly Enable IT on provided Lines */
 491              		.loc 1 211 11 is_stmt 1 view .LVU141
 492              	.LVL54:
 493              	.LBB90:
 494              	.LBI90:
 339:Drivers/STM32G4xx_HAL_Driver/Inc/stm32g4xx_ll_exti.h **** {
 495              		.loc 2 339 22 view .LVU142
 496              	.LBB91:
 341:Drivers/STM32G4xx_HAL_Driver/Inc/stm32g4xx_ll_exti.h **** }
 497              		.loc 2 341 3 view .LVU143
 498 010e 2149     		ldr	r1, .L30
 499 0110 0C6A     		ldr	r4, [r1, #32]
 500 0112 2243     		orrs	r2, r2, r4
 501              	.LVL55:
 341:Drivers/STM32G4xx_HAL_Driver/Inc/stm32g4xx_ll_exti.h **** }
 502              		.loc 2 341 3 is_stmt 0 view .LVU144
 503 0114 0A62     		str	r2, [r1, #32]
 504              	.LVL56:
 341:Drivers/STM32G4xx_HAL_Driver/Inc/stm32g4xx_ll_exti.h **** }
 505              		.loc 2 341 3 view .LVU145
 506              	.LBE91:
 507              	.LBE90:
 213:Drivers/STM32G4xx_HAL_Driver/Src/stm32g4xx_ll_exti.c ****           break;
 508              		.loc 1 213 11 is_stmt 1 view .LVU146
 509 0116 5A68     		ldr	r2, [r3, #4]
 510              	.LVL57:
 511              	.LBB92:
 512              	.LBI92:
 570:Drivers/STM32G4xx_HAL_Driver/Inc/stm32g4xx_ll_exti.h **** {
 513              		.loc 2 570 22 view .LVU147
 514              	.LBB93:
 572:Drivers/STM32G4xx_HAL_Driver/Inc/stm32g4xx_ll_exti.h **** }
 515              		.loc 2 572 3 view .LVU148
ARM GAS  D:\apps\VSCode\data\tmp\cclbo69C.s 			page 34


 516 0118 4C6A     		ldr	r4, [r1, #36]
 517 011a 2243     		orrs	r2, r2, r4
 518              	.LVL58:
 572:Drivers/STM32G4xx_HAL_Driver/Inc/stm32g4xx_ll_exti.h **** }
 519              		.loc 2 572 3 is_stmt 0 view .LVU149
 520 011c 4A62     		str	r2, [r1, #36]
 521              	.LVL59:
 572:Drivers/STM32G4xx_HAL_Driver/Inc/stm32g4xx_ll_exti.h **** }
 522              		.loc 2 572 3 view .LVU150
 523 011e E1E7     		b	.L19
 524              	.L29:
 572:Drivers/STM32G4xx_HAL_Driver/Inc/stm32g4xx_ll_exti.h **** }
 525              		.loc 2 572 3 view .LVU151
 526              	.LBE93:
 527              	.LBE92:
 225:Drivers/STM32G4xx_HAL_Driver/Src/stm32g4xx_ll_exti.c ****             /* Then Enable IT on provided Lines */
 528              		.loc 1 225 13 is_stmt 1 view .LVU152
 529 0120 5C68     		ldr	r4, [r3, #4]
 530              	.LVL60:
 531              	.LBB94:
 532              	.LBI94:
1041:Drivers/STM32G4xx_HAL_Driver/Inc/stm32g4xx_ll_exti.h **** }
1042:Drivers/STM32G4xx_HAL_Driver/Inc/stm32g4xx_ll_exti.h **** 
1043:Drivers/STM32G4xx_HAL_Driver/Inc/stm32g4xx_ll_exti.h **** /**
1044:Drivers/STM32G4xx_HAL_Driver/Inc/stm32g4xx_ll_exti.h ****   * @brief  Disable ExtiLine Falling Edge Trigger for Lines in range 32 to 63
1045:Drivers/STM32G4xx_HAL_Driver/Inc/stm32g4xx_ll_exti.h ****   * @note The configurable wakeup lines are edge-triggered. No glitch must be
1046:Drivers/STM32G4xx_HAL_Driver/Inc/stm32g4xx_ll_exti.h ****   *       generated on these lines. If a Falling edge on a configurable interrupt
1047:Drivers/STM32G4xx_HAL_Driver/Inc/stm32g4xx_ll_exti.h ****   *       line occurs during a write operation in the EXTI_FTSR register, the
1048:Drivers/STM32G4xx_HAL_Driver/Inc/stm32g4xx_ll_exti.h ****   *       pending bit is not set.
1049:Drivers/STM32G4xx_HAL_Driver/Inc/stm32g4xx_ll_exti.h ****   *       Rising and falling edge triggers can be set for the same interrupt line.
1050:Drivers/STM32G4xx_HAL_Driver/Inc/stm32g4xx_ll_exti.h ****   *       In this case, both generate a trigger condition.
1051:Drivers/STM32G4xx_HAL_Driver/Inc/stm32g4xx_ll_exti.h ****   * @rmtoll FTSR2        FTx           LL_EXTI_DisableFallingTrig_32_63
1052:Drivers/STM32G4xx_HAL_Driver/Inc/stm32g4xx_ll_exti.h ****   * @param  ExtiLine This parameter can be a combination of the following values:
1053:Drivers/STM32G4xx_HAL_Driver/Inc/stm32g4xx_ll_exti.h ****   *         @arg @ref LL_EXTI_LINE_32 (*)
1054:Drivers/STM32G4xx_HAL_Driver/Inc/stm32g4xx_ll_exti.h ****   *         @arg @ref LL_EXTI_LINE_33 (*)
1055:Drivers/STM32G4xx_HAL_Driver/Inc/stm32g4xx_ll_exti.h ****   *         @arg @ref LL_EXTI_LINE_38
1056:Drivers/STM32G4xx_HAL_Driver/Inc/stm32g4xx_ll_exti.h ****   *         @arg @ref LL_EXTI_LINE_39
1057:Drivers/STM32G4xx_HAL_Driver/Inc/stm32g4xx_ll_exti.h ****   *         @arg @ref LL_EXTI_LINE_40
1058:Drivers/STM32G4xx_HAL_Driver/Inc/stm32g4xx_ll_exti.h ****   *         @arg @ref LL_EXTI_LINE_41
1059:Drivers/STM32G4xx_HAL_Driver/Inc/stm32g4xx_ll_exti.h ****   * @note   (*): Available in some devices
1060:Drivers/STM32G4xx_HAL_Driver/Inc/stm32g4xx_ll_exti.h ****   * @retval None
1061:Drivers/STM32G4xx_HAL_Driver/Inc/stm32g4xx_ll_exti.h ****   */
1062:Drivers/STM32G4xx_HAL_Driver/Inc/stm32g4xx_ll_exti.h **** __STATIC_INLINE void LL_EXTI_DisableFallingTrig_32_63(uint32_t ExtiLine)
 533              		.loc 2 1062 22 view .LVU153
 534              	.LBB95:
1063:Drivers/STM32G4xx_HAL_Driver/Inc/stm32g4xx_ll_exti.h **** {
1064:Drivers/STM32G4xx_HAL_Driver/Inc/stm32g4xx_ll_exti.h ****   CLEAR_BIT(EXTI->FTSR2, ExtiLine);
 535              		.loc 2 1064 3 view .LVU154
 536 0122 1C4A     		ldr	r2, .L30
 537 0124 D16A     		ldr	r1, [r2, #44]
 538 0126 21EA0401 		bic	r1, r1, r4
 539 012a D162     		str	r1, [r2, #44]
 540              	.LVL61:
 541              		.loc 2 1064 3 is_stmt 0 view .LVU155
 542              	.LBE95:
 543              	.LBE94:
 227:Drivers/STM32G4xx_HAL_Driver/Src/stm32g4xx_ll_exti.c ****             break;
ARM GAS  D:\apps\VSCode\data\tmp\cclbo69C.s 			page 35


 544              		.loc 1 227 13 is_stmt 1 view .LVU156
 545 012c 5B68     		ldr	r3, [r3, #4]
 546              	.LVL62:
 547              	.LBB96:
 548              	.LBI96:
 789:Drivers/STM32G4xx_HAL_Driver/Inc/stm32g4xx_ll_exti.h **** {
 549              		.loc 2 789 22 view .LVU157
 550              	.LBB97:
 791:Drivers/STM32G4xx_HAL_Driver/Inc/stm32g4xx_ll_exti.h **** }
 551              		.loc 2 791 3 view .LVU158
 552 012e 916A     		ldr	r1, [r2, #40]
 553 0130 0B43     		orrs	r3, r3, r1
 554              	.LVL63:
 791:Drivers/STM32G4xx_HAL_Driver/Inc/stm32g4xx_ll_exti.h **** }
 555              		.loc 2 791 3 is_stmt 0 view .LVU159
 556 0132 9362     		str	r3, [r2, #40]
 557              	.LVL64:
 558              	.L4:
 791:Drivers/STM32G4xx_HAL_Driver/Inc/stm32g4xx_ll_exti.h **** }
 559              		.loc 2 791 3 view .LVU160
 560              	.LBE97:
 561              	.LBE96:
 244:Drivers/STM32G4xx_HAL_Driver/Src/stm32g4xx_ll_exti.c ****         }
 245:Drivers/STM32G4xx_HAL_Driver/Src/stm32g4xx_ll_exti.c ****       }
 246:Drivers/STM32G4xx_HAL_Driver/Src/stm32g4xx_ll_exti.c ****     }
 247:Drivers/STM32G4xx_HAL_Driver/Src/stm32g4xx_ll_exti.c ****   }
 248:Drivers/STM32G4xx_HAL_Driver/Src/stm32g4xx_ll_exti.c ****   /* DISABLE LineCommand */
 249:Drivers/STM32G4xx_HAL_Driver/Src/stm32g4xx_ll_exti.c ****   else
 250:Drivers/STM32G4xx_HAL_Driver/Src/stm32g4xx_ll_exti.c ****   {
 251:Drivers/STM32G4xx_HAL_Driver/Src/stm32g4xx_ll_exti.c ****     /* De-configure IT EXTI Lines in range from 0 to 31 */
 252:Drivers/STM32G4xx_HAL_Driver/Src/stm32g4xx_ll_exti.c ****     LL_EXTI_DisableIT_0_31(EXTI_InitStruct->Line_0_31);
 253:Drivers/STM32G4xx_HAL_Driver/Src/stm32g4xx_ll_exti.c ****     /* De-configure Event EXTI Lines in range from 0 to 31 */
 254:Drivers/STM32G4xx_HAL_Driver/Src/stm32g4xx_ll_exti.c ****     LL_EXTI_DisableEvent_0_31(EXTI_InitStruct->Line_0_31);
 255:Drivers/STM32G4xx_HAL_Driver/Src/stm32g4xx_ll_exti.c ****     /* De-configure IT EXTI Lines in range from 32 to 63 */
 256:Drivers/STM32G4xx_HAL_Driver/Src/stm32g4xx_ll_exti.c ****     LL_EXTI_DisableIT_32_63(EXTI_InitStruct->Line_32_63);
 257:Drivers/STM32G4xx_HAL_Driver/Src/stm32g4xx_ll_exti.c ****     /* De-configure Event EXTI Lines in range from 32 to 63 */
 258:Drivers/STM32G4xx_HAL_Driver/Src/stm32g4xx_ll_exti.c ****     LL_EXTI_DisableEvent_32_63(EXTI_InitStruct->Line_32_63);
 259:Drivers/STM32G4xx_HAL_Driver/Src/stm32g4xx_ll_exti.c ****   }
 260:Drivers/STM32G4xx_HAL_Driver/Src/stm32g4xx_ll_exti.c **** 
 261:Drivers/STM32G4xx_HAL_Driver/Src/stm32g4xx_ll_exti.c ****   return status;
 262:Drivers/STM32G4xx_HAL_Driver/Src/stm32g4xx_ll_exti.c **** }
 562              		.loc 1 262 1 view .LVU161
 563 0134 5DF8044B 		ldr	r4, [sp], #4
 564              	.LCFI1:
 565              		.cfi_remember_state
 566              		.cfi_restore 4
 567              		.cfi_def_cfa_offset 0
 568 0138 7047     		bx	lr
 569              	.LVL65:
 570              	.L20:
 571              	.LCFI2:
 572              		.cfi_restore_state
 231:Drivers/STM32G4xx_HAL_Driver/Src/stm32g4xx_ll_exti.c ****             /* Then Enable Falling Trigger on provided Lines */
 573              		.loc 1 231 13 is_stmt 1 view .LVU162
 574 013a 5C68     		ldr	r4, [r3, #4]
 575              	.LVL66:
 576              	.LBB98:
ARM GAS  D:\apps\VSCode\data\tmp\cclbo69C.s 			page 36


 577              	.LBI98:
 860:Drivers/STM32G4xx_HAL_Driver/Inc/stm32g4xx_ll_exti.h **** {
 578              		.loc 2 860 22 view .LVU163
 579              	.LBB99:
 862:Drivers/STM32G4xx_HAL_Driver/Inc/stm32g4xx_ll_exti.h **** }
 580              		.loc 2 862 3 view .LVU164
 581 013c 154A     		ldr	r2, .L30
 582 013e 916A     		ldr	r1, [r2, #40]
 583 0140 21EA0401 		bic	r1, r1, r4
 584 0144 9162     		str	r1, [r2, #40]
 585              	.LVL67:
 862:Drivers/STM32G4xx_HAL_Driver/Inc/stm32g4xx_ll_exti.h **** }
 586              		.loc 2 862 3 is_stmt 0 view .LVU165
 587              	.LBE99:
 588              	.LBE98:
 233:Drivers/STM32G4xx_HAL_Driver/Src/stm32g4xx_ll_exti.c ****             break;
 589              		.loc 1 233 13 is_stmt 1 view .LVU166
 590 0146 5B68     		ldr	r3, [r3, #4]
 591              	.LVL68:
 592              	.LBB100:
 593              	.LBI100:
 994:Drivers/STM32G4xx_HAL_Driver/Inc/stm32g4xx_ll_exti.h **** {
 594              		.loc 2 994 22 view .LVU167
 595              	.LBB101:
 996:Drivers/STM32G4xx_HAL_Driver/Inc/stm32g4xx_ll_exti.h **** }
 596              		.loc 2 996 3 view .LVU168
 597 0148 D16A     		ldr	r1, [r2, #44]
 598 014a 0B43     		orrs	r3, r3, r1
 599              	.LVL69:
 996:Drivers/STM32G4xx_HAL_Driver/Inc/stm32g4xx_ll_exti.h **** }
 600              		.loc 2 996 3 is_stmt 0 view .LVU169
 601 014c D362     		str	r3, [r2, #44]
 602              	.LVL70:
 996:Drivers/STM32G4xx_HAL_Driver/Inc/stm32g4xx_ll_exti.h **** }
 603              		.loc 2 996 3 view .LVU170
 604 014e F1E7     		b	.L4
 605              	.LVL71:
 606              	.L21:
 996:Drivers/STM32G4xx_HAL_Driver/Inc/stm32g4xx_ll_exti.h **** }
 607              		.loc 2 996 3 view .LVU171
 608              	.LBE101:
 609              	.LBE100:
 237:Drivers/STM32G4xx_HAL_Driver/Src/stm32g4xx_ll_exti.c ****             /* Enable Falling Trigger on provided Lines */
 610              		.loc 1 237 13 is_stmt 1 view .LVU172
 611 0150 5968     		ldr	r1, [r3, #4]
 612              	.LVL72:
 613              	.LBB102:
 614              	.LBI102:
 789:Drivers/STM32G4xx_HAL_Driver/Inc/stm32g4xx_ll_exti.h **** {
 615              		.loc 2 789 22 view .LVU173
 616              	.LBB103:
 791:Drivers/STM32G4xx_HAL_Driver/Inc/stm32g4xx_ll_exti.h **** }
 617              		.loc 2 791 3 view .LVU174
 618 0152 104A     		ldr	r2, .L30
 619 0154 946A     		ldr	r4, [r2, #40]
 620 0156 2143     		orrs	r1, r1, r4
 621              	.LVL73:
ARM GAS  D:\apps\VSCode\data\tmp\cclbo69C.s 			page 37


 791:Drivers/STM32G4xx_HAL_Driver/Inc/stm32g4xx_ll_exti.h **** }
 622              		.loc 2 791 3 is_stmt 0 view .LVU175
 623 0158 9162     		str	r1, [r2, #40]
 624              	.LVL74:
 791:Drivers/STM32G4xx_HAL_Driver/Inc/stm32g4xx_ll_exti.h **** }
 625              		.loc 2 791 3 view .LVU176
 626              	.LBE103:
 627              	.LBE102:
 239:Drivers/STM32G4xx_HAL_Driver/Src/stm32g4xx_ll_exti.c ****             break;
 628              		.loc 1 239 13 is_stmt 1 view .LVU177
 629 015a 5B68     		ldr	r3, [r3, #4]
 630              	.LVL75:
 631              	.LBB104:
 632              	.LBI104:
 994:Drivers/STM32G4xx_HAL_Driver/Inc/stm32g4xx_ll_exti.h **** {
 633              		.loc 2 994 22 view .LVU178
 634              	.LBB105:
 996:Drivers/STM32G4xx_HAL_Driver/Inc/stm32g4xx_ll_exti.h **** }
 635              		.loc 2 996 3 view .LVU179
 636 015c D16A     		ldr	r1, [r2, #44]
 637 015e 0B43     		orrs	r3, r3, r1
 638              	.LVL76:
 996:Drivers/STM32G4xx_HAL_Driver/Inc/stm32g4xx_ll_exti.h **** }
 639              		.loc 2 996 3 is_stmt 0 view .LVU180
 640 0160 D362     		str	r3, [r2, #44]
 641              	.LVL77:
 996:Drivers/STM32G4xx_HAL_Driver/Inc/stm32g4xx_ll_exti.h **** }
 642              		.loc 2 996 3 view .LVU181
 643 0162 E7E7     		b	.L4
 644              	.LVL78:
 645              	.L5:
 646              	.LCFI3:
 647              		.cfi_def_cfa_offset 0
 648              		.cfi_restore 4
 996:Drivers/STM32G4xx_HAL_Driver/Inc/stm32g4xx_ll_exti.h **** }
 649              		.loc 2 996 3 view .LVU182
 650              	.LBE105:
 651              	.LBE104:
 252:Drivers/STM32G4xx_HAL_Driver/Src/stm32g4xx_ll_exti.c ****     /* De-configure Event EXTI Lines in range from 0 to 31 */
 652              		.loc 1 252 5 is_stmt 1 view .LVU183
 653 0164 0068     		ldr	r0, [r0]
 654              	.LVL79:
 655              	.LBB106:
 656              	.LBI106:
 388:Drivers/STM32G4xx_HAL_Driver/Inc/stm32g4xx_ll_exti.h **** {
 657              		.loc 2 388 22 view .LVU184
 658              	.LBB107:
 390:Drivers/STM32G4xx_HAL_Driver/Inc/stm32g4xx_ll_exti.h **** }
 659              		.loc 2 390 3 view .LVU185
 660 0166 0B4A     		ldr	r2, .L30
 661 0168 1168     		ldr	r1, [r2]
 662 016a 21EA0001 		bic	r1, r1, r0
 663 016e 1160     		str	r1, [r2]
 664              	.LVL80:
 390:Drivers/STM32G4xx_HAL_Driver/Inc/stm32g4xx_ll_exti.h **** }
 665              		.loc 2 390 3 is_stmt 0 view .LVU186
 666              	.LBE107:
ARM GAS  D:\apps\VSCode\data\tmp\cclbo69C.s 			page 38


 667              	.LBE106:
 254:Drivers/STM32G4xx_HAL_Driver/Src/stm32g4xx_ll_exti.c ****     /* De-configure IT EXTI Lines in range from 32 to 63 */
 668              		.loc 1 254 5 is_stmt 1 view .LVU187
 669 0170 1868     		ldr	r0, [r3]
 670              	.LVL81:
 671              	.LBB108:
 672              	.LBI108:
 616:Drivers/STM32G4xx_HAL_Driver/Inc/stm32g4xx_ll_exti.h **** {
 673              		.loc 2 616 22 view .LVU188
 674              	.LBB109:
 618:Drivers/STM32G4xx_HAL_Driver/Inc/stm32g4xx_ll_exti.h **** }
 675              		.loc 2 618 3 view .LVU189
 676 0172 5168     		ldr	r1, [r2, #4]
 677 0174 21EA0001 		bic	r1, r1, r0
 678 0178 5160     		str	r1, [r2, #4]
 679              	.LVL82:
 618:Drivers/STM32G4xx_HAL_Driver/Inc/stm32g4xx_ll_exti.h **** }
 680              		.loc 2 618 3 is_stmt 0 view .LVU190
 681              	.LBE109:
 682              	.LBE108:
 256:Drivers/STM32G4xx_HAL_Driver/Src/stm32g4xx_ll_exti.c ****     /* De-configure Event EXTI Lines in range from 32 to 63 */
 683              		.loc 1 256 5 is_stmt 1 view .LVU191
 684 017a 5868     		ldr	r0, [r3, #4]
 685              	.LVL83:
 686              	.LBB110:
 687              	.LBI110:
 415:Drivers/STM32G4xx_HAL_Driver/Inc/stm32g4xx_ll_exti.h **** {
 688              		.loc 2 415 22 view .LVU192
 689              	.LBB111:
 417:Drivers/STM32G4xx_HAL_Driver/Inc/stm32g4xx_ll_exti.h **** }
 690              		.loc 2 417 3 view .LVU193
 691 017c 116A     		ldr	r1, [r2, #32]
 692 017e 21EA0001 		bic	r1, r1, r0
 693 0182 1162     		str	r1, [r2, #32]
 694              	.LVL84:
 417:Drivers/STM32G4xx_HAL_Driver/Inc/stm32g4xx_ll_exti.h **** }
 695              		.loc 2 417 3 is_stmt 0 view .LVU194
 696              	.LBE111:
 697              	.LBE110:
 258:Drivers/STM32G4xx_HAL_Driver/Src/stm32g4xx_ll_exti.c ****   }
 698              		.loc 1 258 5 is_stmt 1 view .LVU195
 699 0184 5968     		ldr	r1, [r3, #4]
 700              	.LVL85:
 701              	.LBB112:
 702              	.LBI112:
 640:Drivers/STM32G4xx_HAL_Driver/Inc/stm32g4xx_ll_exti.h **** {
 703              		.loc 2 640 22 view .LVU196
 704              	.LBB113:
 642:Drivers/STM32G4xx_HAL_Driver/Inc/stm32g4xx_ll_exti.h **** }
 705              		.loc 2 642 3 view .LVU197
 706 0186 536A     		ldr	r3, [r2, #36]
 707              	.LVL86:
 642:Drivers/STM32G4xx_HAL_Driver/Inc/stm32g4xx_ll_exti.h **** }
 708              		.loc 2 642 3 is_stmt 0 view .LVU198
 709 0188 23EA0103 		bic	r3, r3, r1
 710 018c 5362     		str	r3, [r2, #36]
 711              	.LBE113:
ARM GAS  D:\apps\VSCode\data\tmp\cclbo69C.s 			page 39


 712              	.LBE112:
 124:Drivers/STM32G4xx_HAL_Driver/Src/stm32g4xx_ll_exti.c **** 
 713              		.loc 1 124 12 view .LVU199
 714 018e 0020     		movs	r0, #0
 261:Drivers/STM32G4xx_HAL_Driver/Src/stm32g4xx_ll_exti.c **** }
 715              		.loc 1 261 3 is_stmt 1 view .LVU200
 716              		.loc 1 262 1 is_stmt 0 view .LVU201
 717 0190 7047     		bx	lr
 718              	.L31:
 719 0192 00BF     		.align	2
 720              	.L30:
 721 0194 00040140 		.word	1073808384
 722              		.cfi_endproc
 723              	.LFE163:
 725              		.section	.text.LL_EXTI_StructInit,"ax",%progbits
 726              		.align	1
 727              		.global	LL_EXTI_StructInit
 728              		.syntax unified
 729              		.thumb
 730              		.thumb_func
 731              		.fpu fpv4-sp-d16
 733              	LL_EXTI_StructInit:
 734              	.LVL87:
 735              	.LFB164:
 263:Drivers/STM32G4xx_HAL_Driver/Src/stm32g4xx_ll_exti.c **** 
 264:Drivers/STM32G4xx_HAL_Driver/Src/stm32g4xx_ll_exti.c **** /**
 265:Drivers/STM32G4xx_HAL_Driver/Src/stm32g4xx_ll_exti.c ****   * @brief  Set each @ref LL_EXTI_InitTypeDef field to default value.
 266:Drivers/STM32G4xx_HAL_Driver/Src/stm32g4xx_ll_exti.c ****   * @param  EXTI_InitStruct Pointer to a @ref LL_EXTI_InitTypeDef structure.
 267:Drivers/STM32G4xx_HAL_Driver/Src/stm32g4xx_ll_exti.c ****   * @retval None
 268:Drivers/STM32G4xx_HAL_Driver/Src/stm32g4xx_ll_exti.c ****   */
 269:Drivers/STM32G4xx_HAL_Driver/Src/stm32g4xx_ll_exti.c **** void LL_EXTI_StructInit(LL_EXTI_InitTypeDef *EXTI_InitStruct)
 270:Drivers/STM32G4xx_HAL_Driver/Src/stm32g4xx_ll_exti.c **** {
 736              		.loc 1 270 1 is_stmt 1 view -0
 737              		.cfi_startproc
 738              		@ args = 0, pretend = 0, frame = 0
 739              		@ frame_needed = 0, uses_anonymous_args = 0
 740              		@ link register save eliminated.
 271:Drivers/STM32G4xx_HAL_Driver/Src/stm32g4xx_ll_exti.c ****   EXTI_InitStruct->Line_0_31      = LL_EXTI_LINE_NONE;
 741              		.loc 1 271 3 view .LVU203
 742              		.loc 1 271 35 is_stmt 0 view .LVU204
 743 0000 0023     		movs	r3, #0
 744 0002 0360     		str	r3, [r0]
 272:Drivers/STM32G4xx_HAL_Driver/Src/stm32g4xx_ll_exti.c ****   EXTI_InitStruct->Line_32_63     = LL_EXTI_LINE_NONE;
 745              		.loc 1 272 3 is_stmt 1 view .LVU205
 746              		.loc 1 272 35 is_stmt 0 view .LVU206
 747 0004 4360     		str	r3, [r0, #4]
 273:Drivers/STM32G4xx_HAL_Driver/Src/stm32g4xx_ll_exti.c ****   EXTI_InitStruct->LineCommand    = DISABLE;
 748              		.loc 1 273 3 is_stmt 1 view .LVU207
 749              		.loc 1 273 35 is_stmt 0 view .LVU208
 750 0006 0372     		strb	r3, [r0, #8]
 274:Drivers/STM32G4xx_HAL_Driver/Src/stm32g4xx_ll_exti.c ****   EXTI_InitStruct->Mode           = LL_EXTI_MODE_IT;
 751              		.loc 1 274 3 is_stmt 1 view .LVU209
 752              		.loc 1 274 35 is_stmt 0 view .LVU210
 753 0008 4372     		strb	r3, [r0, #9]
 275:Drivers/STM32G4xx_HAL_Driver/Src/stm32g4xx_ll_exti.c ****   EXTI_InitStruct->Trigger        = LL_EXTI_TRIGGER_FALLING;
 754              		.loc 1 275 3 is_stmt 1 view .LVU211
 755              		.loc 1 275 35 is_stmt 0 view .LVU212
ARM GAS  D:\apps\VSCode\data\tmp\cclbo69C.s 			page 40


 756 000a 0223     		movs	r3, #2
 757 000c 8372     		strb	r3, [r0, #10]
 276:Drivers/STM32G4xx_HAL_Driver/Src/stm32g4xx_ll_exti.c **** }
 758              		.loc 1 276 1 view .LVU213
 759 000e 7047     		bx	lr
 760              		.cfi_endproc
 761              	.LFE164:
 763              		.text
 764              	.Letext0:
 765              		.file 3 "d:\\apps\\embedded_gcc\\arm_gcc\\arm-none-eabi\\include\\machine\\_default_types.h"
 766              		.file 4 "d:\\apps\\embedded_gcc\\arm_gcc\\arm-none-eabi\\include\\sys\\_stdint.h"
 767              		.file 5 "Drivers/CMSIS/Include/core_cm4.h"
 768              		.file 6 "Drivers/CMSIS/Device/ST/STM32G4xx/Include/system_stm32g4xx.h"
 769              		.file 7 "Drivers/CMSIS/Device/ST/STM32G4xx/Include/stm32g474xx.h"
 770              		.file 8 "Drivers/CMSIS/Device/ST/STM32G4xx/Include/stm32g4xx.h"
ARM GAS  D:\apps\VSCode\data\tmp\cclbo69C.s 			page 41


DEFINED SYMBOLS
                            *ABS*:0000000000000000 stm32g4xx_ll_exti.c
D:\apps\VSCode\data\tmp\cclbo69C.s:18     .text.LL_EXTI_DeInit:0000000000000000 $t
D:\apps\VSCode\data\tmp\cclbo69C.s:26     .text.LL_EXTI_DeInit:0000000000000000 LL_EXTI_DeInit
D:\apps\VSCode\data\tmp\cclbo69C.s:70     .text.LL_EXTI_DeInit:0000000000000028 $d
D:\apps\VSCode\data\tmp\cclbo69C.s:77     .text.LL_EXTI_Init:0000000000000000 $t
D:\apps\VSCode\data\tmp\cclbo69C.s:84     .text.LL_EXTI_Init:0000000000000000 LL_EXTI_Init
D:\apps\VSCode\data\tmp\cclbo69C.s:721    .text.LL_EXTI_Init:0000000000000194 $d
D:\apps\VSCode\data\tmp\cclbo69C.s:726    .text.LL_EXTI_StructInit:0000000000000000 $t
D:\apps\VSCode\data\tmp\cclbo69C.s:733    .text.LL_EXTI_StructInit:0000000000000000 LL_EXTI_StructInit

NO UNDEFINED SYMBOLS
