ARM GAS  D:\apps\VSCode\data\tmp\ccGycOlE.s 			page 1


   1              		.cpu cortex-m4
   2              		.eabi_attribute 27, 1
   3              		.eabi_attribute 28, 1
   4              		.eabi_attribute 20, 1
   5              		.eabi_attribute 21, 1
   6              		.eabi_attribute 23, 3
   7              		.eabi_attribute 24, 1
   8              		.eabi_attribute 25, 1
   9              		.eabi_attribute 26, 1
  10              		.eabi_attribute 30, 2
  11              		.eabi_attribute 34, 1
  12              		.eabi_attribute 18, 4
  13              		.file	"stm32g4xx_ll_utils.c"
  14              		.text
  15              	.Ltext0:
  16              		.cfi_sections	.debug_frame
  17              		.section	.text.UTILS_EnablePLLAndSwitchSystem,"ax",%progbits
  18              		.align	1
  19              		.p2align 2,,3
  20              		.arch armv7e-m
  21              		.syntax unified
  22              		.thumb
  23              		.thumb_func
  24              		.fpu fpv4-sp-d16
  26              	UTILS_EnablePLLAndSwitchSystem:
  27              	.LVL0:
  28              	.LFB443:
  29              		.file 1 "Drivers/STM32G4xx_HAL_Driver/Src/stm32g4xx_ll_utils.c"
   1:Drivers/STM32G4xx_HAL_Driver/Src/stm32g4xx_ll_utils.c **** /**
   2:Drivers/STM32G4xx_HAL_Driver/Src/stm32g4xx_ll_utils.c ****   ******************************************************************************
   3:Drivers/STM32G4xx_HAL_Driver/Src/stm32g4xx_ll_utils.c ****   * @file    stm32g4xx_ll_utils.c
   4:Drivers/STM32G4xx_HAL_Driver/Src/stm32g4xx_ll_utils.c ****   * @author  MCD Application Team
   5:Drivers/STM32G4xx_HAL_Driver/Src/stm32g4xx_ll_utils.c ****   * @brief   UTILS LL module driver.
   6:Drivers/STM32G4xx_HAL_Driver/Src/stm32g4xx_ll_utils.c ****   ******************************************************************************
   7:Drivers/STM32G4xx_HAL_Driver/Src/stm32g4xx_ll_utils.c ****   * @attention
   8:Drivers/STM32G4xx_HAL_Driver/Src/stm32g4xx_ll_utils.c ****   *
   9:Drivers/STM32G4xx_HAL_Driver/Src/stm32g4xx_ll_utils.c ****   * <h2><center>&copy; Copyright (c) 2019 STMicroelectronics.
  10:Drivers/STM32G4xx_HAL_Driver/Src/stm32g4xx_ll_utils.c ****   * All rights reserved.</center></h2>
  11:Drivers/STM32G4xx_HAL_Driver/Src/stm32g4xx_ll_utils.c ****   *
  12:Drivers/STM32G4xx_HAL_Driver/Src/stm32g4xx_ll_utils.c ****   * This software component is licensed by ST under BSD 3-Clause license,
  13:Drivers/STM32G4xx_HAL_Driver/Src/stm32g4xx_ll_utils.c ****   * the "License"; You may not use this file except in compliance with the
  14:Drivers/STM32G4xx_HAL_Driver/Src/stm32g4xx_ll_utils.c ****   * License. You may obtain a copy of the License at:
  15:Drivers/STM32G4xx_HAL_Driver/Src/stm32g4xx_ll_utils.c ****   *                        opensource.org/licenses/BSD-3-Clause
  16:Drivers/STM32G4xx_HAL_Driver/Src/stm32g4xx_ll_utils.c ****   *
  17:Drivers/STM32G4xx_HAL_Driver/Src/stm32g4xx_ll_utils.c ****   ******************************************************************************
  18:Drivers/STM32G4xx_HAL_Driver/Src/stm32g4xx_ll_utils.c ****   */
  19:Drivers/STM32G4xx_HAL_Driver/Src/stm32g4xx_ll_utils.c ****   
  20:Drivers/STM32G4xx_HAL_Driver/Src/stm32g4xx_ll_utils.c **** /* Includes ------------------------------------------------------------------*/
  21:Drivers/STM32G4xx_HAL_Driver/Src/stm32g4xx_ll_utils.c **** #include "stm32g4xx_ll_utils.h"
  22:Drivers/STM32G4xx_HAL_Driver/Src/stm32g4xx_ll_utils.c **** #include "stm32g4xx_ll_rcc.h"
  23:Drivers/STM32G4xx_HAL_Driver/Src/stm32g4xx_ll_utils.c **** #include "stm32g4xx_ll_system.h"
  24:Drivers/STM32G4xx_HAL_Driver/Src/stm32g4xx_ll_utils.c **** #include "stm32g4xx_ll_pwr.h"
  25:Drivers/STM32G4xx_HAL_Driver/Src/stm32g4xx_ll_utils.c **** #ifdef  USE_FULL_ASSERT
  26:Drivers/STM32G4xx_HAL_Driver/Src/stm32g4xx_ll_utils.c **** #include "stm32_assert.h"
  27:Drivers/STM32G4xx_HAL_Driver/Src/stm32g4xx_ll_utils.c **** #else
  28:Drivers/STM32G4xx_HAL_Driver/Src/stm32g4xx_ll_utils.c **** #define assert_param(expr) ((void)0U)
  29:Drivers/STM32G4xx_HAL_Driver/Src/stm32g4xx_ll_utils.c **** #endif /* USE_FULL_ASSERT */
ARM GAS  D:\apps\VSCode\data\tmp\ccGycOlE.s 			page 2


  30:Drivers/STM32G4xx_HAL_Driver/Src/stm32g4xx_ll_utils.c **** 
  31:Drivers/STM32G4xx_HAL_Driver/Src/stm32g4xx_ll_utils.c **** /** @addtogroup STM32G4xx_LL_Driver
  32:Drivers/STM32G4xx_HAL_Driver/Src/stm32g4xx_ll_utils.c ****   * @{
  33:Drivers/STM32G4xx_HAL_Driver/Src/stm32g4xx_ll_utils.c ****   */
  34:Drivers/STM32G4xx_HAL_Driver/Src/stm32g4xx_ll_utils.c **** 
  35:Drivers/STM32G4xx_HAL_Driver/Src/stm32g4xx_ll_utils.c **** /** @addtogroup UTILS_LL
  36:Drivers/STM32G4xx_HAL_Driver/Src/stm32g4xx_ll_utils.c ****   * @{
  37:Drivers/STM32G4xx_HAL_Driver/Src/stm32g4xx_ll_utils.c ****   */
  38:Drivers/STM32G4xx_HAL_Driver/Src/stm32g4xx_ll_utils.c **** 
  39:Drivers/STM32G4xx_HAL_Driver/Src/stm32g4xx_ll_utils.c **** /* Private types -------------------------------------------------------------*/
  40:Drivers/STM32G4xx_HAL_Driver/Src/stm32g4xx_ll_utils.c **** /* Private variables ---------------------------------------------------------*/
  41:Drivers/STM32G4xx_HAL_Driver/Src/stm32g4xx_ll_utils.c **** /* Private constants ---------------------------------------------------------*/
  42:Drivers/STM32G4xx_HAL_Driver/Src/stm32g4xx_ll_utils.c **** /** @addtogroup UTILS_LL_Private_Constants
  43:Drivers/STM32G4xx_HAL_Driver/Src/stm32g4xx_ll_utils.c ****   * @{
  44:Drivers/STM32G4xx_HAL_Driver/Src/stm32g4xx_ll_utils.c ****   */
  45:Drivers/STM32G4xx_HAL_Driver/Src/stm32g4xx_ll_utils.c **** #define UTILS_MAX_FREQUENCY_SCALE1  170000000U       /*!< Maximum frequency for system clock at pow
  46:Drivers/STM32G4xx_HAL_Driver/Src/stm32g4xx_ll_utils.c **** #define UTILS_MAX_FREQUENCY_SCALE2   26000000U       /*!< Maximum frequency for system clock at pow
  47:Drivers/STM32G4xx_HAL_Driver/Src/stm32g4xx_ll_utils.c **** 
  48:Drivers/STM32G4xx_HAL_Driver/Src/stm32g4xx_ll_utils.c **** /* Defines used for PLL range */
  49:Drivers/STM32G4xx_HAL_Driver/Src/stm32g4xx_ll_utils.c **** #define UTILS_PLLVCO_INPUT_MIN        2660000U       /*!< Frequency min for PLLVCO input, in Hz   *
  50:Drivers/STM32G4xx_HAL_Driver/Src/stm32g4xx_ll_utils.c **** #define UTILS_PLLVCO_INPUT_MAX        8000000U       /*!< Frequency max for PLLVCO input, in Hz   *
  51:Drivers/STM32G4xx_HAL_Driver/Src/stm32g4xx_ll_utils.c **** #define UTILS_PLLVCO_OUTPUT_MIN      64000000U       /*!< Frequency min for PLLVCO output, in Hz  *
  52:Drivers/STM32G4xx_HAL_Driver/Src/stm32g4xx_ll_utils.c **** #define UTILS_PLLVCO_OUTPUT_MAX     344000000U       /*!< Frequency max for PLLVCO output, in Hz  *
  53:Drivers/STM32G4xx_HAL_Driver/Src/stm32g4xx_ll_utils.c **** 
  54:Drivers/STM32G4xx_HAL_Driver/Src/stm32g4xx_ll_utils.c **** /* Defines used for HSE range */
  55:Drivers/STM32G4xx_HAL_Driver/Src/stm32g4xx_ll_utils.c **** #define UTILS_HSE_FREQUENCY_MIN      4000000U        /*!< Frequency min for HSE frequency, in Hz   
  56:Drivers/STM32G4xx_HAL_Driver/Src/stm32g4xx_ll_utils.c **** #define UTILS_HSE_FREQUENCY_MAX     48000000U        /*!< Frequency max for HSE frequency, in Hz   
  57:Drivers/STM32G4xx_HAL_Driver/Src/stm32g4xx_ll_utils.c **** 
  58:Drivers/STM32G4xx_HAL_Driver/Src/stm32g4xx_ll_utils.c **** /* Defines used for FLASH latency according to HCLK Frequency */
  59:Drivers/STM32G4xx_HAL_Driver/Src/stm32g4xx_ll_utils.c **** #define UTILS_SCALE1_LATENCY1_FREQ   20000000U       /*!< HCLK frequency to set FLASH latency 1 in 
  60:Drivers/STM32G4xx_HAL_Driver/Src/stm32g4xx_ll_utils.c **** #define UTILS_SCALE1_LATENCY2_FREQ   40000000U       /*!< HCLK frequency to set FLASH latency 2 in 
  61:Drivers/STM32G4xx_HAL_Driver/Src/stm32g4xx_ll_utils.c **** #define UTILS_SCALE1_LATENCY3_FREQ   60000000U       /*!< HCLK frequency to set FLASH latency 3 in 
  62:Drivers/STM32G4xx_HAL_Driver/Src/stm32g4xx_ll_utils.c **** #define UTILS_SCALE1_LATENCY4_FREQ   80000000U       /*!< HCLK frequency to set FLASH latency 4 in 
  63:Drivers/STM32G4xx_HAL_Driver/Src/stm32g4xx_ll_utils.c **** #define UTILS_SCALE1_LATENCY5_FREQ  100000000U       /*!< HCLK frequency to set FLASH latency 5 in 
  64:Drivers/STM32G4xx_HAL_Driver/Src/stm32g4xx_ll_utils.c **** #define UTILS_SCALE1_LATENCY6_FREQ  120000000U       /*!< HCLK frequency to set FLASH latency 6 in 
  65:Drivers/STM32G4xx_HAL_Driver/Src/stm32g4xx_ll_utils.c **** #define UTILS_SCALE1_LATENCY7_FREQ  140000000U       /*!< HCLK frequency to set FLASH latency 7 in 
  66:Drivers/STM32G4xx_HAL_Driver/Src/stm32g4xx_ll_utils.c **** #define UTILS_SCALE1_LATENCY8_FREQ  160000000U       /*!< HCLK frequency to set FLASH latency 8 in 
  67:Drivers/STM32G4xx_HAL_Driver/Src/stm32g4xx_ll_utils.c **** #define UTILS_SCALE1_LATENCY9_FREQ  170000000U       /*!< HCLK frequency to set FLASH latency 9 in 
  68:Drivers/STM32G4xx_HAL_Driver/Src/stm32g4xx_ll_utils.c **** #define UTILS_SCALE2_LATENCY1_FREQ    8000000U       /*!< HCLK frequency to set FLASH latency 1 in 
  69:Drivers/STM32G4xx_HAL_Driver/Src/stm32g4xx_ll_utils.c **** #define UTILS_SCALE2_LATENCY2_FREQ   16000000U       /*!< HCLK frequency to set FLASH latency 2 in 
  70:Drivers/STM32G4xx_HAL_Driver/Src/stm32g4xx_ll_utils.c **** #define UTILS_SCALE2_LATENCY3_FREQ   26000000U       /*!< HCLK frequency to set FLASH latency 2 in 
  71:Drivers/STM32G4xx_HAL_Driver/Src/stm32g4xx_ll_utils.c **** /**
  72:Drivers/STM32G4xx_HAL_Driver/Src/stm32g4xx_ll_utils.c ****   * @}
  73:Drivers/STM32G4xx_HAL_Driver/Src/stm32g4xx_ll_utils.c ****   */
  74:Drivers/STM32G4xx_HAL_Driver/Src/stm32g4xx_ll_utils.c **** 
  75:Drivers/STM32G4xx_HAL_Driver/Src/stm32g4xx_ll_utils.c **** /* Private macros ------------------------------------------------------------*/
  76:Drivers/STM32G4xx_HAL_Driver/Src/stm32g4xx_ll_utils.c **** /** @addtogroup UTILS_LL_Private_Macros
  77:Drivers/STM32G4xx_HAL_Driver/Src/stm32g4xx_ll_utils.c ****   * @{
  78:Drivers/STM32G4xx_HAL_Driver/Src/stm32g4xx_ll_utils.c ****   */
  79:Drivers/STM32G4xx_HAL_Driver/Src/stm32g4xx_ll_utils.c **** #define IS_LL_UTILS_SYSCLK_DIV(__VALUE__) (((__VALUE__) == LL_RCC_SYSCLK_DIV_1)   \
  80:Drivers/STM32G4xx_HAL_Driver/Src/stm32g4xx_ll_utils.c ****                                         || ((__VALUE__) == LL_RCC_SYSCLK_DIV_2)   \
  81:Drivers/STM32G4xx_HAL_Driver/Src/stm32g4xx_ll_utils.c ****                                         || ((__VALUE__) == LL_RCC_SYSCLK_DIV_4)   \
  82:Drivers/STM32G4xx_HAL_Driver/Src/stm32g4xx_ll_utils.c ****                                         || ((__VALUE__) == LL_RCC_SYSCLK_DIV_8)   \
  83:Drivers/STM32G4xx_HAL_Driver/Src/stm32g4xx_ll_utils.c ****                                         || ((__VALUE__) == LL_RCC_SYSCLK_DIV_16)  \
  84:Drivers/STM32G4xx_HAL_Driver/Src/stm32g4xx_ll_utils.c ****                                         || ((__VALUE__) == LL_RCC_SYSCLK_DIV_64)  \
  85:Drivers/STM32G4xx_HAL_Driver/Src/stm32g4xx_ll_utils.c ****                                         || ((__VALUE__) == LL_RCC_SYSCLK_DIV_128) \
  86:Drivers/STM32G4xx_HAL_Driver/Src/stm32g4xx_ll_utils.c ****                                         || ((__VALUE__) == LL_RCC_SYSCLK_DIV_256) \
ARM GAS  D:\apps\VSCode\data\tmp\ccGycOlE.s 			page 3


  87:Drivers/STM32G4xx_HAL_Driver/Src/stm32g4xx_ll_utils.c ****                                         || ((__VALUE__) == LL_RCC_SYSCLK_DIV_512))
  88:Drivers/STM32G4xx_HAL_Driver/Src/stm32g4xx_ll_utils.c **** 
  89:Drivers/STM32G4xx_HAL_Driver/Src/stm32g4xx_ll_utils.c **** #define IS_LL_UTILS_APB1_DIV(__VALUE__) (((__VALUE__) == LL_RCC_APB1_DIV_1) \
  90:Drivers/STM32G4xx_HAL_Driver/Src/stm32g4xx_ll_utils.c ****                                       || ((__VALUE__) == LL_RCC_APB1_DIV_2) \
  91:Drivers/STM32G4xx_HAL_Driver/Src/stm32g4xx_ll_utils.c ****                                       || ((__VALUE__) == LL_RCC_APB1_DIV_4) \
  92:Drivers/STM32G4xx_HAL_Driver/Src/stm32g4xx_ll_utils.c ****                                       || ((__VALUE__) == LL_RCC_APB1_DIV_8) \
  93:Drivers/STM32G4xx_HAL_Driver/Src/stm32g4xx_ll_utils.c ****                                       || ((__VALUE__) == LL_RCC_APB1_DIV_16))
  94:Drivers/STM32G4xx_HAL_Driver/Src/stm32g4xx_ll_utils.c **** 
  95:Drivers/STM32G4xx_HAL_Driver/Src/stm32g4xx_ll_utils.c **** #define IS_LL_UTILS_APB2_DIV(__VALUE__) (((__VALUE__) == LL_RCC_APB2_DIV_1) \
  96:Drivers/STM32G4xx_HAL_Driver/Src/stm32g4xx_ll_utils.c ****                                       || ((__VALUE__) == LL_RCC_APB2_DIV_2) \
  97:Drivers/STM32G4xx_HAL_Driver/Src/stm32g4xx_ll_utils.c ****                                       || ((__VALUE__) == LL_RCC_APB2_DIV_4) \
  98:Drivers/STM32G4xx_HAL_Driver/Src/stm32g4xx_ll_utils.c ****                                       || ((__VALUE__) == LL_RCC_APB2_DIV_8) \
  99:Drivers/STM32G4xx_HAL_Driver/Src/stm32g4xx_ll_utils.c ****                                       || ((__VALUE__) == LL_RCC_APB2_DIV_16))
 100:Drivers/STM32G4xx_HAL_Driver/Src/stm32g4xx_ll_utils.c **** 
 101:Drivers/STM32G4xx_HAL_Driver/Src/stm32g4xx_ll_utils.c **** #define IS_LL_UTILS_PLLM_VALUE(__VALUE__) (((__VALUE__) == LL_RCC_PLLM_DIV_1) \
 102:Drivers/STM32G4xx_HAL_Driver/Src/stm32g4xx_ll_utils.c ****                                         || ((__VALUE__) == LL_RCC_PLLM_DIV_2) \
 103:Drivers/STM32G4xx_HAL_Driver/Src/stm32g4xx_ll_utils.c ****                                         || ((__VALUE__) == LL_RCC_PLLM_DIV_3) \
 104:Drivers/STM32G4xx_HAL_Driver/Src/stm32g4xx_ll_utils.c ****                                         || ((__VALUE__) == LL_RCC_PLLM_DIV_4) \
 105:Drivers/STM32G4xx_HAL_Driver/Src/stm32g4xx_ll_utils.c ****                                         || ((__VALUE__) == LL_RCC_PLLM_DIV_5) \
 106:Drivers/STM32G4xx_HAL_Driver/Src/stm32g4xx_ll_utils.c ****                                         || ((__VALUE__) == LL_RCC_PLLM_DIV_6) \
 107:Drivers/STM32G4xx_HAL_Driver/Src/stm32g4xx_ll_utils.c ****                                         || ((__VALUE__) == LL_RCC_PLLM_DIV_7) \
 108:Drivers/STM32G4xx_HAL_Driver/Src/stm32g4xx_ll_utils.c ****                                         || ((__VALUE__) == LL_RCC_PLLM_DIV_8) \
 109:Drivers/STM32G4xx_HAL_Driver/Src/stm32g4xx_ll_utils.c ****                                         || ((__VALUE__) == LL_RCC_PLLM_DIV_9) \
 110:Drivers/STM32G4xx_HAL_Driver/Src/stm32g4xx_ll_utils.c ****                                         || ((__VALUE__) == LL_RCC_PLLM_DIV_10) \
 111:Drivers/STM32G4xx_HAL_Driver/Src/stm32g4xx_ll_utils.c ****                                         || ((__VALUE__) == LL_RCC_PLLM_DIV_11) \
 112:Drivers/STM32G4xx_HAL_Driver/Src/stm32g4xx_ll_utils.c ****                                         || ((__VALUE__) == LL_RCC_PLLM_DIV_12) \
 113:Drivers/STM32G4xx_HAL_Driver/Src/stm32g4xx_ll_utils.c ****                                         || ((__VALUE__) == LL_RCC_PLLM_DIV_13) \
 114:Drivers/STM32G4xx_HAL_Driver/Src/stm32g4xx_ll_utils.c ****                                         || ((__VALUE__) == LL_RCC_PLLM_DIV_14) \
 115:Drivers/STM32G4xx_HAL_Driver/Src/stm32g4xx_ll_utils.c ****                                         || ((__VALUE__) == LL_RCC_PLLM_DIV_15) \
 116:Drivers/STM32G4xx_HAL_Driver/Src/stm32g4xx_ll_utils.c ****                                         || ((__VALUE__) == LL_RCC_PLLM_DIV_16))
 117:Drivers/STM32G4xx_HAL_Driver/Src/stm32g4xx_ll_utils.c **** 
 118:Drivers/STM32G4xx_HAL_Driver/Src/stm32g4xx_ll_utils.c **** #define IS_LL_UTILS_PLLN_VALUE(__VALUE__) ((8U <= (__VALUE__)) && ((__VALUE__) <= 127U))
 119:Drivers/STM32G4xx_HAL_Driver/Src/stm32g4xx_ll_utils.c **** 
 120:Drivers/STM32G4xx_HAL_Driver/Src/stm32g4xx_ll_utils.c **** #define IS_LL_UTILS_PLLR_VALUE(__VALUE__) (((__VALUE__) == LL_RCC_PLLR_DIV_2) \
 121:Drivers/STM32G4xx_HAL_Driver/Src/stm32g4xx_ll_utils.c ****                                         || ((__VALUE__) == LL_RCC_PLLR_DIV_4) \
 122:Drivers/STM32G4xx_HAL_Driver/Src/stm32g4xx_ll_utils.c ****                                         || ((__VALUE__) == LL_RCC_PLLR_DIV_6) \
 123:Drivers/STM32G4xx_HAL_Driver/Src/stm32g4xx_ll_utils.c ****                                         || ((__VALUE__) == LL_RCC_PLLR_DIV_8))
 124:Drivers/STM32G4xx_HAL_Driver/Src/stm32g4xx_ll_utils.c **** 
 125:Drivers/STM32G4xx_HAL_Driver/Src/stm32g4xx_ll_utils.c **** #define IS_LL_UTILS_PLLVCO_INPUT(__VALUE__)  ((UTILS_PLLVCO_INPUT_MIN <= (__VALUE__)) && ((__VALUE_
 126:Drivers/STM32G4xx_HAL_Driver/Src/stm32g4xx_ll_utils.c **** 
 127:Drivers/STM32G4xx_HAL_Driver/Src/stm32g4xx_ll_utils.c **** #define IS_LL_UTILS_PLLVCO_OUTPUT(__VALUE__) ((UTILS_PLLVCO_OUTPUT_MIN <= (__VALUE__)) && ((__VALUE
 128:Drivers/STM32G4xx_HAL_Driver/Src/stm32g4xx_ll_utils.c **** 
 129:Drivers/STM32G4xx_HAL_Driver/Src/stm32g4xx_ll_utils.c **** #define IS_LL_UTILS_PLL_FREQUENCY(__VALUE__) ((LL_PWR_GetRegulVoltageScaling() == LL_PWR_REGU_VOLTA
 130:Drivers/STM32G4xx_HAL_Driver/Src/stm32g4xx_ll_utils.c ****                                              ((__VALUE__) <= UTILS_MAX_FREQUENCY_SCALE2))
 131:Drivers/STM32G4xx_HAL_Driver/Src/stm32g4xx_ll_utils.c **** 
 132:Drivers/STM32G4xx_HAL_Driver/Src/stm32g4xx_ll_utils.c **** #define IS_LL_UTILS_HSE_BYPASS(__STATE__) (((__STATE__) == LL_UTILS_HSEBYPASS_ON) \
 133:Drivers/STM32G4xx_HAL_Driver/Src/stm32g4xx_ll_utils.c ****                                         || ((__STATE__) == LL_UTILS_HSEBYPASS_OFF))
 134:Drivers/STM32G4xx_HAL_Driver/Src/stm32g4xx_ll_utils.c **** 
 135:Drivers/STM32G4xx_HAL_Driver/Src/stm32g4xx_ll_utils.c **** #define IS_LL_UTILS_HSE_FREQUENCY(__FREQUENCY__) (((__FREQUENCY__) >= UTILS_HSE_FREQUENCY_MIN) && (
 136:Drivers/STM32G4xx_HAL_Driver/Src/stm32g4xx_ll_utils.c **** /**
 137:Drivers/STM32G4xx_HAL_Driver/Src/stm32g4xx_ll_utils.c ****   * @}
 138:Drivers/STM32G4xx_HAL_Driver/Src/stm32g4xx_ll_utils.c ****   */
 139:Drivers/STM32G4xx_HAL_Driver/Src/stm32g4xx_ll_utils.c **** /* Private function prototypes -----------------------------------------------*/
 140:Drivers/STM32G4xx_HAL_Driver/Src/stm32g4xx_ll_utils.c **** /** @defgroup UTILS_LL_Private_Functions UTILS Private functions
 141:Drivers/STM32G4xx_HAL_Driver/Src/stm32g4xx_ll_utils.c ****   * @{
 142:Drivers/STM32G4xx_HAL_Driver/Src/stm32g4xx_ll_utils.c ****   */
 143:Drivers/STM32G4xx_HAL_Driver/Src/stm32g4xx_ll_utils.c **** static uint32_t    UTILS_GetPLLOutputFrequency(uint32_t PLL_InputFrequency,
ARM GAS  D:\apps\VSCode\data\tmp\ccGycOlE.s 			page 4


 144:Drivers/STM32G4xx_HAL_Driver/Src/stm32g4xx_ll_utils.c ****                                                LL_UTILS_PLLInitTypeDef *UTILS_PLLInitStruct);
 145:Drivers/STM32G4xx_HAL_Driver/Src/stm32g4xx_ll_utils.c **** static ErrorStatus UTILS_SetFlashLatency(uint32_t HCLK_Frequency);
 146:Drivers/STM32G4xx_HAL_Driver/Src/stm32g4xx_ll_utils.c **** static ErrorStatus UTILS_EnablePLLAndSwitchSystem(uint32_t SYSCLK_Frequency, LL_UTILS_ClkInitTypeDe
 147:Drivers/STM32G4xx_HAL_Driver/Src/stm32g4xx_ll_utils.c **** static ErrorStatus UTILS_PLL_IsBusy(void);
 148:Drivers/STM32G4xx_HAL_Driver/Src/stm32g4xx_ll_utils.c **** /**
 149:Drivers/STM32G4xx_HAL_Driver/Src/stm32g4xx_ll_utils.c ****   * @}
 150:Drivers/STM32G4xx_HAL_Driver/Src/stm32g4xx_ll_utils.c ****   */
 151:Drivers/STM32G4xx_HAL_Driver/Src/stm32g4xx_ll_utils.c **** 
 152:Drivers/STM32G4xx_HAL_Driver/Src/stm32g4xx_ll_utils.c **** /* Exported functions --------------------------------------------------------*/
 153:Drivers/STM32G4xx_HAL_Driver/Src/stm32g4xx_ll_utils.c **** /** @addtogroup UTILS_LL_Exported_Functions
 154:Drivers/STM32G4xx_HAL_Driver/Src/stm32g4xx_ll_utils.c ****   * @{
 155:Drivers/STM32G4xx_HAL_Driver/Src/stm32g4xx_ll_utils.c ****   */
 156:Drivers/STM32G4xx_HAL_Driver/Src/stm32g4xx_ll_utils.c **** 
 157:Drivers/STM32G4xx_HAL_Driver/Src/stm32g4xx_ll_utils.c **** /** @addtogroup UTILS_LL_EF_DELAY
 158:Drivers/STM32G4xx_HAL_Driver/Src/stm32g4xx_ll_utils.c ****   * @{
 159:Drivers/STM32G4xx_HAL_Driver/Src/stm32g4xx_ll_utils.c ****   */
 160:Drivers/STM32G4xx_HAL_Driver/Src/stm32g4xx_ll_utils.c **** 
 161:Drivers/STM32G4xx_HAL_Driver/Src/stm32g4xx_ll_utils.c **** /**
 162:Drivers/STM32G4xx_HAL_Driver/Src/stm32g4xx_ll_utils.c ****   * @brief  This function configures the Cortex-M SysTick source to have 1ms time base.
 163:Drivers/STM32G4xx_HAL_Driver/Src/stm32g4xx_ll_utils.c ****   * @note   When a RTOS is used, it is recommended to avoid changing the Systick
 164:Drivers/STM32G4xx_HAL_Driver/Src/stm32g4xx_ll_utils.c ****   *         configuration by calling this function, for a delay use rather osDelay RTOS service.
 165:Drivers/STM32G4xx_HAL_Driver/Src/stm32g4xx_ll_utils.c ****   * @param  HCLKFrequency HCLK frequency in Hz
 166:Drivers/STM32G4xx_HAL_Driver/Src/stm32g4xx_ll_utils.c ****   * @note   HCLK frequency can be calculated thanks to RCC helper macro or function @ref LL_RCC_Get
 167:Drivers/STM32G4xx_HAL_Driver/Src/stm32g4xx_ll_utils.c ****   * @retval None
 168:Drivers/STM32G4xx_HAL_Driver/Src/stm32g4xx_ll_utils.c ****   */
 169:Drivers/STM32G4xx_HAL_Driver/Src/stm32g4xx_ll_utils.c **** void LL_Init1msTick(uint32_t HCLKFrequency)
 170:Drivers/STM32G4xx_HAL_Driver/Src/stm32g4xx_ll_utils.c **** {
 171:Drivers/STM32G4xx_HAL_Driver/Src/stm32g4xx_ll_utils.c ****   /* Use frequency provided in argument */
 172:Drivers/STM32G4xx_HAL_Driver/Src/stm32g4xx_ll_utils.c ****   LL_InitTick(HCLKFrequency, 1000U);
 173:Drivers/STM32G4xx_HAL_Driver/Src/stm32g4xx_ll_utils.c **** }
 174:Drivers/STM32G4xx_HAL_Driver/Src/stm32g4xx_ll_utils.c **** 
 175:Drivers/STM32G4xx_HAL_Driver/Src/stm32g4xx_ll_utils.c **** /**
 176:Drivers/STM32G4xx_HAL_Driver/Src/stm32g4xx_ll_utils.c ****   * @brief  This function provides accurate delay (in milliseconds) based
 177:Drivers/STM32G4xx_HAL_Driver/Src/stm32g4xx_ll_utils.c ****   *         on SysTick counter flag
 178:Drivers/STM32G4xx_HAL_Driver/Src/stm32g4xx_ll_utils.c ****   * @note   When a RTOS is used, it is recommended to avoid using blocking delay
 179:Drivers/STM32G4xx_HAL_Driver/Src/stm32g4xx_ll_utils.c ****   *         and use rather osDelay service.
 180:Drivers/STM32G4xx_HAL_Driver/Src/stm32g4xx_ll_utils.c ****   * @note   To respect 1ms timebase, user should call @ref LL_Init1msTick function which
 181:Drivers/STM32G4xx_HAL_Driver/Src/stm32g4xx_ll_utils.c ****   *         will configure Systick to 1ms
 182:Drivers/STM32G4xx_HAL_Driver/Src/stm32g4xx_ll_utils.c ****   * @param  Delay specifies the delay time length, in milliseconds.
 183:Drivers/STM32G4xx_HAL_Driver/Src/stm32g4xx_ll_utils.c ****   * @retval None
 184:Drivers/STM32G4xx_HAL_Driver/Src/stm32g4xx_ll_utils.c ****   */
 185:Drivers/STM32G4xx_HAL_Driver/Src/stm32g4xx_ll_utils.c **** void LL_mDelay(uint32_t Delay)
 186:Drivers/STM32G4xx_HAL_Driver/Src/stm32g4xx_ll_utils.c **** {
 187:Drivers/STM32G4xx_HAL_Driver/Src/stm32g4xx_ll_utils.c ****   __IO uint32_t  tmp = SysTick->CTRL;  /* Clear the COUNTFLAG first */
 188:Drivers/STM32G4xx_HAL_Driver/Src/stm32g4xx_ll_utils.c ****   uint32_t tmpDelay; /* MISRAC2012-Rule-17.8 */
 189:Drivers/STM32G4xx_HAL_Driver/Src/stm32g4xx_ll_utils.c ****   /* Add this code to indicate that local variable is not used */
 190:Drivers/STM32G4xx_HAL_Driver/Src/stm32g4xx_ll_utils.c ****   ((void)tmp);
 191:Drivers/STM32G4xx_HAL_Driver/Src/stm32g4xx_ll_utils.c ****   tmpDelay = Delay;
 192:Drivers/STM32G4xx_HAL_Driver/Src/stm32g4xx_ll_utils.c ****   /* Add a period to guaranty minimum wait */
 193:Drivers/STM32G4xx_HAL_Driver/Src/stm32g4xx_ll_utils.c ****   if(tmpDelay < LL_MAX_DELAY)
 194:Drivers/STM32G4xx_HAL_Driver/Src/stm32g4xx_ll_utils.c ****   {
 195:Drivers/STM32G4xx_HAL_Driver/Src/stm32g4xx_ll_utils.c ****     tmpDelay++;
 196:Drivers/STM32G4xx_HAL_Driver/Src/stm32g4xx_ll_utils.c ****   }
 197:Drivers/STM32G4xx_HAL_Driver/Src/stm32g4xx_ll_utils.c **** 
 198:Drivers/STM32G4xx_HAL_Driver/Src/stm32g4xx_ll_utils.c ****   while (tmpDelay != 0U)
 199:Drivers/STM32G4xx_HAL_Driver/Src/stm32g4xx_ll_utils.c ****   {
 200:Drivers/STM32G4xx_HAL_Driver/Src/stm32g4xx_ll_utils.c ****     if((SysTick->CTRL & SysTick_CTRL_COUNTFLAG_Msk) != 0U)
ARM GAS  D:\apps\VSCode\data\tmp\ccGycOlE.s 			page 5


 201:Drivers/STM32G4xx_HAL_Driver/Src/stm32g4xx_ll_utils.c ****     {
 202:Drivers/STM32G4xx_HAL_Driver/Src/stm32g4xx_ll_utils.c ****       tmpDelay--;
 203:Drivers/STM32G4xx_HAL_Driver/Src/stm32g4xx_ll_utils.c ****     }
 204:Drivers/STM32G4xx_HAL_Driver/Src/stm32g4xx_ll_utils.c ****   }
 205:Drivers/STM32G4xx_HAL_Driver/Src/stm32g4xx_ll_utils.c **** }
 206:Drivers/STM32G4xx_HAL_Driver/Src/stm32g4xx_ll_utils.c **** 
 207:Drivers/STM32G4xx_HAL_Driver/Src/stm32g4xx_ll_utils.c **** /**
 208:Drivers/STM32G4xx_HAL_Driver/Src/stm32g4xx_ll_utils.c ****   * @}
 209:Drivers/STM32G4xx_HAL_Driver/Src/stm32g4xx_ll_utils.c ****   */
 210:Drivers/STM32G4xx_HAL_Driver/Src/stm32g4xx_ll_utils.c **** 
 211:Drivers/STM32G4xx_HAL_Driver/Src/stm32g4xx_ll_utils.c **** /** @addtogroup UTILS_EF_SYSTEM
 212:Drivers/STM32G4xx_HAL_Driver/Src/stm32g4xx_ll_utils.c ****   *  @brief    System Configuration functions
 213:Drivers/STM32G4xx_HAL_Driver/Src/stm32g4xx_ll_utils.c ****   *
 214:Drivers/STM32G4xx_HAL_Driver/Src/stm32g4xx_ll_utils.c ****   @verbatim
 215:Drivers/STM32G4xx_HAL_Driver/Src/stm32g4xx_ll_utils.c ****  ===============================================================================
 216:Drivers/STM32G4xx_HAL_Driver/Src/stm32g4xx_ll_utils.c ****            ##### System Configuration functions #####
 217:Drivers/STM32G4xx_HAL_Driver/Src/stm32g4xx_ll_utils.c ****  ===============================================================================
 218:Drivers/STM32G4xx_HAL_Driver/Src/stm32g4xx_ll_utils.c ****     [..]
 219:Drivers/STM32G4xx_HAL_Driver/Src/stm32g4xx_ll_utils.c ****          System, AHB and APB buses clocks configuration
 220:Drivers/STM32G4xx_HAL_Driver/Src/stm32g4xx_ll_utils.c **** 
 221:Drivers/STM32G4xx_HAL_Driver/Src/stm32g4xx_ll_utils.c ****          (+) The maximum frequency of the SYSCLK, HCLK, PCLK1 and PCLK2 is 
 222:Drivers/STM32G4xx_HAL_Driver/Src/stm32g4xx_ll_utils.c ****              170000000 Hz for STM32G4xx.
 223:Drivers/STM32G4xx_HAL_Driver/Src/stm32g4xx_ll_utils.c ****   @endverbatim
 224:Drivers/STM32G4xx_HAL_Driver/Src/stm32g4xx_ll_utils.c ****   @internal
 225:Drivers/STM32G4xx_HAL_Driver/Src/stm32g4xx_ll_utils.c ****              Depending on the device voltage range, the maximum frequency should be
 226:Drivers/STM32G4xx_HAL_Driver/Src/stm32g4xx_ll_utils.c ****              adapted accordingly:
 227:Drivers/STM32G4xx_HAL_Driver/Src/stm32g4xx_ll_utils.c **** 
 228:Drivers/STM32G4xx_HAL_Driver/Src/stm32g4xx_ll_utils.c ****              (++) Table 1. HCLK clock frequency for STM32G4xx devices
 229:Drivers/STM32G4xx_HAL_Driver/Src/stm32g4xx_ll_utils.c ****              (++) +--------------------------------------------------------+
 230:Drivers/STM32G4xx_HAL_Driver/Src/stm32g4xx_ll_utils.c ****              (++) | Latency         |     HCLK clock frequency (MHz)       |
 231:Drivers/STM32G4xx_HAL_Driver/Src/stm32g4xx_ll_utils.c ****              (++) |                 |--------------------------------------|
 232:Drivers/STM32G4xx_HAL_Driver/Src/stm32g4xx_ll_utils.c ****              (++) |                 |  voltage range 1  | voltage range 2  |
 233:Drivers/STM32G4xx_HAL_Driver/Src/stm32g4xx_ll_utils.c ****              (++) |                 |       1.2 V       |     1.0 V        |
 234:Drivers/STM32G4xx_HAL_Driver/Src/stm32g4xx_ll_utils.c ****              (++) |-----------------|-------------------|------------------|
 235:Drivers/STM32G4xx_HAL_Driver/Src/stm32g4xx_ll_utils.c ****              (++) |0WS(1 CPU cycles)|   0 < HCLK <= 20  |  0 < HCLK <= 8   |
 236:Drivers/STM32G4xx_HAL_Driver/Src/stm32g4xx_ll_utils.c ****              (++) |-----------------|-------------------|------------------|
 237:Drivers/STM32G4xx_HAL_Driver/Src/stm32g4xx_ll_utils.c ****              (++) |1WS(2 CPU cycles)|  20 < HCLK <= 40  |  8 < HCLK <= 16  |
 238:Drivers/STM32G4xx_HAL_Driver/Src/stm32g4xx_ll_utils.c ****              (++) |-----------------|-------------------|------------------|
 239:Drivers/STM32G4xx_HAL_Driver/Src/stm32g4xx_ll_utils.c ****              (++) |2WS(3 CPU cycles)|  40 < HCLK <= 60  | 16 < HCLK <= 26  |
 240:Drivers/STM32G4xx_HAL_Driver/Src/stm32g4xx_ll_utils.c ****              (++) |-----------------|-------------------|------------------|
 241:Drivers/STM32G4xx_HAL_Driver/Src/stm32g4xx_ll_utils.c ****              (++) |3WS(4 CPU cycles)|  60 < HCLK <= 80  | 16 < HCLK <= 26  |
 242:Drivers/STM32G4xx_HAL_Driver/Src/stm32g4xx_ll_utils.c ****              (++) |-----------------|-------------------|------------------|
 243:Drivers/STM32G4xx_HAL_Driver/Src/stm32g4xx_ll_utils.c ****              (++) |4WS(5 CPU cycles)|  80 < HCLK <= 100 | 16 < HCLK <= 26  |
 244:Drivers/STM32G4xx_HAL_Driver/Src/stm32g4xx_ll_utils.c ****              (++) |-----------------|-------------------|------------------|
 245:Drivers/STM32G4xx_HAL_Driver/Src/stm32g4xx_ll_utils.c ****              (++) |5WS(6 CPU cycles)| 100 < HCLK <= 120 | 16 < HCLK <= 26  |
 246:Drivers/STM32G4xx_HAL_Driver/Src/stm32g4xx_ll_utils.c ****              (++) |-----------------|-------------------|------------------|
 247:Drivers/STM32G4xx_HAL_Driver/Src/stm32g4xx_ll_utils.c ****              (++) |6WS(7 CPU cycles)| 120 < HCLK <= 140 | 16 < HCLK <= 26  |
 248:Drivers/STM32G4xx_HAL_Driver/Src/stm32g4xx_ll_utils.c ****              (++) |-----------------|-------------------|------------------|
 249:Drivers/STM32G4xx_HAL_Driver/Src/stm32g4xx_ll_utils.c ****              (++) |7WS(8 CPU cycles)| 140 < HCLK <= 160 | 16 < HCLK <= 26  |
 250:Drivers/STM32G4xx_HAL_Driver/Src/stm32g4xx_ll_utils.c ****              (++) |-----------------|-------------------|------------------|
 251:Drivers/STM32G4xx_HAL_Driver/Src/stm32g4xx_ll_utils.c ****              (++) |8WS(9 CPU cycles)| 160 < HCLK <= 170 | 16 < HCLK <= 26  |
 252:Drivers/STM32G4xx_HAL_Driver/Src/stm32g4xx_ll_utils.c ****              (++) +--------------------------------------------------------+
 253:Drivers/STM32G4xx_HAL_Driver/Src/stm32g4xx_ll_utils.c **** 
 254:Drivers/STM32G4xx_HAL_Driver/Src/stm32g4xx_ll_utils.c **** 
 255:Drivers/STM32G4xx_HAL_Driver/Src/stm32g4xx_ll_utils.c ****   @endinternal
 256:Drivers/STM32G4xx_HAL_Driver/Src/stm32g4xx_ll_utils.c ****   * @{
 257:Drivers/STM32G4xx_HAL_Driver/Src/stm32g4xx_ll_utils.c ****   */
ARM GAS  D:\apps\VSCode\data\tmp\ccGycOlE.s 			page 6


 258:Drivers/STM32G4xx_HAL_Driver/Src/stm32g4xx_ll_utils.c **** 
 259:Drivers/STM32G4xx_HAL_Driver/Src/stm32g4xx_ll_utils.c **** /**
 260:Drivers/STM32G4xx_HAL_Driver/Src/stm32g4xx_ll_utils.c ****   * @brief  This function sets directly SystemCoreClock CMSIS variable.
 261:Drivers/STM32G4xx_HAL_Driver/Src/stm32g4xx_ll_utils.c ****   * @note   Variable can be calculated also through SystemCoreClockUpdate function.
 262:Drivers/STM32G4xx_HAL_Driver/Src/stm32g4xx_ll_utils.c ****   * @param  HCLKFrequency HCLK frequency in Hz (can be calculated thanks to RCC helper macro)
 263:Drivers/STM32G4xx_HAL_Driver/Src/stm32g4xx_ll_utils.c ****   * @retval None
 264:Drivers/STM32G4xx_HAL_Driver/Src/stm32g4xx_ll_utils.c ****   */
 265:Drivers/STM32G4xx_HAL_Driver/Src/stm32g4xx_ll_utils.c **** void LL_SetSystemCoreClock(uint32_t HCLKFrequency)
 266:Drivers/STM32G4xx_HAL_Driver/Src/stm32g4xx_ll_utils.c **** {
 267:Drivers/STM32G4xx_HAL_Driver/Src/stm32g4xx_ll_utils.c ****   /* HCLK clock frequency */
 268:Drivers/STM32G4xx_HAL_Driver/Src/stm32g4xx_ll_utils.c ****   SystemCoreClock = HCLKFrequency;
 269:Drivers/STM32G4xx_HAL_Driver/Src/stm32g4xx_ll_utils.c **** }
 270:Drivers/STM32G4xx_HAL_Driver/Src/stm32g4xx_ll_utils.c **** 
 271:Drivers/STM32G4xx_HAL_Driver/Src/stm32g4xx_ll_utils.c **** /**
 272:Drivers/STM32G4xx_HAL_Driver/Src/stm32g4xx_ll_utils.c ****   * @brief  This function configures system clock at maximum frequency with HSI as clock source of 
 273:Drivers/STM32G4xx_HAL_Driver/Src/stm32g4xx_ll_utils.c ****   * @note   The application need to ensure that PLL is disabled.
 274:Drivers/STM32G4xx_HAL_Driver/Src/stm32g4xx_ll_utils.c ****   * @note   Function is based on the following formula:
 275:Drivers/STM32G4xx_HAL_Driver/Src/stm32g4xx_ll_utils.c ****   *         - PLL output frequency = (((HSI frequency / PLLM) * PLLN) / PLLR)
 276:Drivers/STM32G4xx_HAL_Driver/Src/stm32g4xx_ll_utils.c ****   *         - PLLM: ensure that the VCO input frequency ranges from 2.66 to 8 MHz (PLLVCO_input = H
 277:Drivers/STM32G4xx_HAL_Driver/Src/stm32g4xx_ll_utils.c ****   *         - PLLN: ensure that the VCO output frequency is between 64 and 344 MHz (PLLVCO_output =
 278:Drivers/STM32G4xx_HAL_Driver/Src/stm32g4xx_ll_utils.c ****   *         - PLLR: ensure that max frequency at 170000000 Hz is reach (PLLVCO_output / PLLR)
 279:Drivers/STM32G4xx_HAL_Driver/Src/stm32g4xx_ll_utils.c ****   * @param  UTILS_PLLInitStruct pointer to a @ref LL_UTILS_PLLInitTypeDef structure that contains
 280:Drivers/STM32G4xx_HAL_Driver/Src/stm32g4xx_ll_utils.c ****   *                             the configuration information for the PLL.
 281:Drivers/STM32G4xx_HAL_Driver/Src/stm32g4xx_ll_utils.c ****   * @param  UTILS_ClkInitStruct pointer to a @ref LL_UTILS_ClkInitTypeDef structure that contains
 282:Drivers/STM32G4xx_HAL_Driver/Src/stm32g4xx_ll_utils.c ****   *                             the configuration information for the BUS prescalers.
 283:Drivers/STM32G4xx_HAL_Driver/Src/stm32g4xx_ll_utils.c ****   * @retval An ErrorStatus enumeration value:
 284:Drivers/STM32G4xx_HAL_Driver/Src/stm32g4xx_ll_utils.c ****   *          - SUCCESS: Max frequency configuration done
 285:Drivers/STM32G4xx_HAL_Driver/Src/stm32g4xx_ll_utils.c ****   *          - ERROR: Max frequency configuration not done
 286:Drivers/STM32G4xx_HAL_Driver/Src/stm32g4xx_ll_utils.c ****   */
 287:Drivers/STM32G4xx_HAL_Driver/Src/stm32g4xx_ll_utils.c **** ErrorStatus LL_PLL_ConfigSystemClock_HSI(LL_UTILS_PLLInitTypeDef *UTILS_PLLInitStruct,
 288:Drivers/STM32G4xx_HAL_Driver/Src/stm32g4xx_ll_utils.c ****                                          LL_UTILS_ClkInitTypeDef *UTILS_ClkInitStruct)
 289:Drivers/STM32G4xx_HAL_Driver/Src/stm32g4xx_ll_utils.c **** {
 290:Drivers/STM32G4xx_HAL_Driver/Src/stm32g4xx_ll_utils.c ****   ErrorStatus status;
 291:Drivers/STM32G4xx_HAL_Driver/Src/stm32g4xx_ll_utils.c ****   uint32_t pllfreq;
 292:Drivers/STM32G4xx_HAL_Driver/Src/stm32g4xx_ll_utils.c ****   uint32_t hpre = 0U;
 293:Drivers/STM32G4xx_HAL_Driver/Src/stm32g4xx_ll_utils.c **** 
 294:Drivers/STM32G4xx_HAL_Driver/Src/stm32g4xx_ll_utils.c ****   /* Check if one of the PLL is enabled */
 295:Drivers/STM32G4xx_HAL_Driver/Src/stm32g4xx_ll_utils.c ****   if(UTILS_PLL_IsBusy() == SUCCESS)
 296:Drivers/STM32G4xx_HAL_Driver/Src/stm32g4xx_ll_utils.c ****   {
 297:Drivers/STM32G4xx_HAL_Driver/Src/stm32g4xx_ll_utils.c ****     /* Calculate the new PLL output frequency */
 298:Drivers/STM32G4xx_HAL_Driver/Src/stm32g4xx_ll_utils.c ****     pllfreq = UTILS_GetPLLOutputFrequency(HSI_VALUE, UTILS_PLLInitStruct);
 299:Drivers/STM32G4xx_HAL_Driver/Src/stm32g4xx_ll_utils.c **** 
 300:Drivers/STM32G4xx_HAL_Driver/Src/stm32g4xx_ll_utils.c ****     /* Enable HSI if not enabled */
 301:Drivers/STM32G4xx_HAL_Driver/Src/stm32g4xx_ll_utils.c ****     if(LL_RCC_HSI_IsReady() != 1U)
 302:Drivers/STM32G4xx_HAL_Driver/Src/stm32g4xx_ll_utils.c ****     {
 303:Drivers/STM32G4xx_HAL_Driver/Src/stm32g4xx_ll_utils.c ****       LL_RCC_HSI_Enable();
 304:Drivers/STM32G4xx_HAL_Driver/Src/stm32g4xx_ll_utils.c ****       while (LL_RCC_HSI_IsReady() != 1U)
 305:Drivers/STM32G4xx_HAL_Driver/Src/stm32g4xx_ll_utils.c ****       {
 306:Drivers/STM32G4xx_HAL_Driver/Src/stm32g4xx_ll_utils.c ****         /* Wait for HSI ready */
 307:Drivers/STM32G4xx_HAL_Driver/Src/stm32g4xx_ll_utils.c ****       }
 308:Drivers/STM32G4xx_HAL_Driver/Src/stm32g4xx_ll_utils.c ****     }
 309:Drivers/STM32G4xx_HAL_Driver/Src/stm32g4xx_ll_utils.c **** 
 310:Drivers/STM32G4xx_HAL_Driver/Src/stm32g4xx_ll_utils.c ****     /* Configure PLL */
 311:Drivers/STM32G4xx_HAL_Driver/Src/stm32g4xx_ll_utils.c ****     LL_RCC_PLL_ConfigDomain_SYS(LL_RCC_PLLSOURCE_HSI, UTILS_PLLInitStruct->PLLM, UTILS_PLLInitStruc
 312:Drivers/STM32G4xx_HAL_Driver/Src/stm32g4xx_ll_utils.c ****                                 UTILS_PLLInitStruct->PLLR);
 313:Drivers/STM32G4xx_HAL_Driver/Src/stm32g4xx_ll_utils.c **** 
 314:Drivers/STM32G4xx_HAL_Driver/Src/stm32g4xx_ll_utils.c ****     /* Prevent undershoot at highest frequency by applying intermediate AHB prescaler 2 */
ARM GAS  D:\apps\VSCode\data\tmp\ccGycOlE.s 			page 7


 315:Drivers/STM32G4xx_HAL_Driver/Src/stm32g4xx_ll_utils.c ****     if(pllfreq > 80000000U)
 316:Drivers/STM32G4xx_HAL_Driver/Src/stm32g4xx_ll_utils.c ****     {
 317:Drivers/STM32G4xx_HAL_Driver/Src/stm32g4xx_ll_utils.c ****       hpre = UTILS_ClkInitStruct->AHBCLKDivider;
 318:Drivers/STM32G4xx_HAL_Driver/Src/stm32g4xx_ll_utils.c ****       if(hpre == LL_RCC_SYSCLK_DIV_1)
 319:Drivers/STM32G4xx_HAL_Driver/Src/stm32g4xx_ll_utils.c ****       {
 320:Drivers/STM32G4xx_HAL_Driver/Src/stm32g4xx_ll_utils.c ****         UTILS_ClkInitStruct->AHBCLKDivider = LL_RCC_SYSCLK_DIV_2;
 321:Drivers/STM32G4xx_HAL_Driver/Src/stm32g4xx_ll_utils.c ****       }
 322:Drivers/STM32G4xx_HAL_Driver/Src/stm32g4xx_ll_utils.c ****     }
 323:Drivers/STM32G4xx_HAL_Driver/Src/stm32g4xx_ll_utils.c **** 
 324:Drivers/STM32G4xx_HAL_Driver/Src/stm32g4xx_ll_utils.c ****     /* Enable PLL and switch system clock to PLL */
 325:Drivers/STM32G4xx_HAL_Driver/Src/stm32g4xx_ll_utils.c ****     status = UTILS_EnablePLLAndSwitchSystem(pllfreq, UTILS_ClkInitStruct);
 326:Drivers/STM32G4xx_HAL_Driver/Src/stm32g4xx_ll_utils.c **** 
 327:Drivers/STM32G4xx_HAL_Driver/Src/stm32g4xx_ll_utils.c ****     /* Apply definitive AHB prescaler value if necessary */
 328:Drivers/STM32G4xx_HAL_Driver/Src/stm32g4xx_ll_utils.c ****     if((status == SUCCESS) && (hpre != 0U))
 329:Drivers/STM32G4xx_HAL_Driver/Src/stm32g4xx_ll_utils.c ****     {
 330:Drivers/STM32G4xx_HAL_Driver/Src/stm32g4xx_ll_utils.c ****       UTILS_ClkInitStruct->AHBCLKDivider = LL_RCC_SYSCLK_DIV_1;
 331:Drivers/STM32G4xx_HAL_Driver/Src/stm32g4xx_ll_utils.c ****       LL_RCC_SetAHBPrescaler(UTILS_ClkInitStruct->AHBCLKDivider);
 332:Drivers/STM32G4xx_HAL_Driver/Src/stm32g4xx_ll_utils.c ****     }
 333:Drivers/STM32G4xx_HAL_Driver/Src/stm32g4xx_ll_utils.c ****   }
 334:Drivers/STM32G4xx_HAL_Driver/Src/stm32g4xx_ll_utils.c ****   else
 335:Drivers/STM32G4xx_HAL_Driver/Src/stm32g4xx_ll_utils.c ****   {
 336:Drivers/STM32G4xx_HAL_Driver/Src/stm32g4xx_ll_utils.c ****     /* Current PLL configuration cannot be modified */
 337:Drivers/STM32G4xx_HAL_Driver/Src/stm32g4xx_ll_utils.c ****     status = ERROR;
 338:Drivers/STM32G4xx_HAL_Driver/Src/stm32g4xx_ll_utils.c ****   }
 339:Drivers/STM32G4xx_HAL_Driver/Src/stm32g4xx_ll_utils.c **** 
 340:Drivers/STM32G4xx_HAL_Driver/Src/stm32g4xx_ll_utils.c ****   return status;
 341:Drivers/STM32G4xx_HAL_Driver/Src/stm32g4xx_ll_utils.c **** }
 342:Drivers/STM32G4xx_HAL_Driver/Src/stm32g4xx_ll_utils.c **** 
 343:Drivers/STM32G4xx_HAL_Driver/Src/stm32g4xx_ll_utils.c **** /**
 344:Drivers/STM32G4xx_HAL_Driver/Src/stm32g4xx_ll_utils.c ****   * @brief  This function configures system clock with HSE as clock source of the PLL
 345:Drivers/STM32G4xx_HAL_Driver/Src/stm32g4xx_ll_utils.c ****   * @note   The application need to ensure that PLL is disabled.
 346:Drivers/STM32G4xx_HAL_Driver/Src/stm32g4xx_ll_utils.c ****   * @note   Function is based on the following formula:
 347:Drivers/STM32G4xx_HAL_Driver/Src/stm32g4xx_ll_utils.c ****   *         - PLL output frequency = (((HSE frequency / PLLM) * PLLN) / PLLR)
 348:Drivers/STM32G4xx_HAL_Driver/Src/stm32g4xx_ll_utils.c ****   *         - PLLM: ensure that the VCO input frequency ranges from 2.66 to 8 MHz (PLLVCO_input = H
 349:Drivers/STM32G4xx_HAL_Driver/Src/stm32g4xx_ll_utils.c ****   *         - PLLN: ensure that the VCO output frequency is between 64 and 344 MHz (PLLVCO_output =
 350:Drivers/STM32G4xx_HAL_Driver/Src/stm32g4xx_ll_utils.c ****   *         - PLLR: ensure that max frequency at 170000000 Hz is reached (PLLVCO_output / PLLR)
 351:Drivers/STM32G4xx_HAL_Driver/Src/stm32g4xx_ll_utils.c ****   * @param  HSEFrequency Value between Min_Data = 4000000 and Max_Data = 48000000
 352:Drivers/STM32G4xx_HAL_Driver/Src/stm32g4xx_ll_utils.c ****   * @param  HSEBypass This parameter can be one of the following values:
 353:Drivers/STM32G4xx_HAL_Driver/Src/stm32g4xx_ll_utils.c ****   *         @arg @ref LL_UTILS_HSEBYPASS_ON
 354:Drivers/STM32G4xx_HAL_Driver/Src/stm32g4xx_ll_utils.c ****   *         @arg @ref LL_UTILS_HSEBYPASS_OFF
 355:Drivers/STM32G4xx_HAL_Driver/Src/stm32g4xx_ll_utils.c ****   * @param  UTILS_PLLInitStruct pointer to a @ref LL_UTILS_PLLInitTypeDef structure that contains
 356:Drivers/STM32G4xx_HAL_Driver/Src/stm32g4xx_ll_utils.c ****   *                             the configuration information for the PLL.
 357:Drivers/STM32G4xx_HAL_Driver/Src/stm32g4xx_ll_utils.c ****   * @param  UTILS_ClkInitStruct pointer to a @ref LL_UTILS_ClkInitTypeDef structure that contains
 358:Drivers/STM32G4xx_HAL_Driver/Src/stm32g4xx_ll_utils.c ****   *                             the configuration information for the BUS prescalers.
 359:Drivers/STM32G4xx_HAL_Driver/Src/stm32g4xx_ll_utils.c ****   * @retval An ErrorStatus enumeration value:
 360:Drivers/STM32G4xx_HAL_Driver/Src/stm32g4xx_ll_utils.c ****   *          - SUCCESS: Max frequency configuration done
 361:Drivers/STM32G4xx_HAL_Driver/Src/stm32g4xx_ll_utils.c ****   *          - ERROR: Max frequency configuration not done
 362:Drivers/STM32G4xx_HAL_Driver/Src/stm32g4xx_ll_utils.c ****   */
 363:Drivers/STM32G4xx_HAL_Driver/Src/stm32g4xx_ll_utils.c **** ErrorStatus LL_PLL_ConfigSystemClock_HSE(uint32_t HSEFrequency, uint32_t HSEBypass,
 364:Drivers/STM32G4xx_HAL_Driver/Src/stm32g4xx_ll_utils.c ****                                          LL_UTILS_PLLInitTypeDef *UTILS_PLLInitStruct, LL_UTILS_Clk
 365:Drivers/STM32G4xx_HAL_Driver/Src/stm32g4xx_ll_utils.c **** {
 366:Drivers/STM32G4xx_HAL_Driver/Src/stm32g4xx_ll_utils.c ****   ErrorStatus status;
 367:Drivers/STM32G4xx_HAL_Driver/Src/stm32g4xx_ll_utils.c ****   uint32_t pllfreq;
 368:Drivers/STM32G4xx_HAL_Driver/Src/stm32g4xx_ll_utils.c ****   uint32_t hpre = 0U;
 369:Drivers/STM32G4xx_HAL_Driver/Src/stm32g4xx_ll_utils.c **** 
 370:Drivers/STM32G4xx_HAL_Driver/Src/stm32g4xx_ll_utils.c ****   /* Check the parameters */
 371:Drivers/STM32G4xx_HAL_Driver/Src/stm32g4xx_ll_utils.c ****   assert_param(IS_LL_UTILS_HSE_FREQUENCY(HSEFrequency));
ARM GAS  D:\apps\VSCode\data\tmp\ccGycOlE.s 			page 8


 372:Drivers/STM32G4xx_HAL_Driver/Src/stm32g4xx_ll_utils.c ****   assert_param(IS_LL_UTILS_HSE_BYPASS(HSEBypass));
 373:Drivers/STM32G4xx_HAL_Driver/Src/stm32g4xx_ll_utils.c **** 
 374:Drivers/STM32G4xx_HAL_Driver/Src/stm32g4xx_ll_utils.c ****   /* Check if one of the PLL is enabled */
 375:Drivers/STM32G4xx_HAL_Driver/Src/stm32g4xx_ll_utils.c ****   if(UTILS_PLL_IsBusy() == SUCCESS)
 376:Drivers/STM32G4xx_HAL_Driver/Src/stm32g4xx_ll_utils.c ****   {
 377:Drivers/STM32G4xx_HAL_Driver/Src/stm32g4xx_ll_utils.c ****     /* Calculate the new PLL output frequency */
 378:Drivers/STM32G4xx_HAL_Driver/Src/stm32g4xx_ll_utils.c ****     pllfreq = UTILS_GetPLLOutputFrequency(HSEFrequency, UTILS_PLLInitStruct);
 379:Drivers/STM32G4xx_HAL_Driver/Src/stm32g4xx_ll_utils.c **** 
 380:Drivers/STM32G4xx_HAL_Driver/Src/stm32g4xx_ll_utils.c ****     /* Enable HSE if not enabled */
 381:Drivers/STM32G4xx_HAL_Driver/Src/stm32g4xx_ll_utils.c ****     if(LL_RCC_HSE_IsReady() != 1U)
 382:Drivers/STM32G4xx_HAL_Driver/Src/stm32g4xx_ll_utils.c ****     {
 383:Drivers/STM32G4xx_HAL_Driver/Src/stm32g4xx_ll_utils.c ****       /* Check if need to enable HSE bypass feature or not */
 384:Drivers/STM32G4xx_HAL_Driver/Src/stm32g4xx_ll_utils.c ****       if(HSEBypass == LL_UTILS_HSEBYPASS_ON)
 385:Drivers/STM32G4xx_HAL_Driver/Src/stm32g4xx_ll_utils.c ****       {
 386:Drivers/STM32G4xx_HAL_Driver/Src/stm32g4xx_ll_utils.c ****         LL_RCC_HSE_EnableBypass();
 387:Drivers/STM32G4xx_HAL_Driver/Src/stm32g4xx_ll_utils.c ****       }
 388:Drivers/STM32G4xx_HAL_Driver/Src/stm32g4xx_ll_utils.c ****       else
 389:Drivers/STM32G4xx_HAL_Driver/Src/stm32g4xx_ll_utils.c ****       {
 390:Drivers/STM32G4xx_HAL_Driver/Src/stm32g4xx_ll_utils.c ****         LL_RCC_HSE_DisableBypass();
 391:Drivers/STM32G4xx_HAL_Driver/Src/stm32g4xx_ll_utils.c ****       }
 392:Drivers/STM32G4xx_HAL_Driver/Src/stm32g4xx_ll_utils.c **** 
 393:Drivers/STM32G4xx_HAL_Driver/Src/stm32g4xx_ll_utils.c ****       /* Enable HSE */
 394:Drivers/STM32G4xx_HAL_Driver/Src/stm32g4xx_ll_utils.c ****       LL_RCC_HSE_Enable();
 395:Drivers/STM32G4xx_HAL_Driver/Src/stm32g4xx_ll_utils.c ****       while (LL_RCC_HSE_IsReady() != 1U)
 396:Drivers/STM32G4xx_HAL_Driver/Src/stm32g4xx_ll_utils.c ****       {
 397:Drivers/STM32G4xx_HAL_Driver/Src/stm32g4xx_ll_utils.c ****         /* Wait for HSE ready */
 398:Drivers/STM32G4xx_HAL_Driver/Src/stm32g4xx_ll_utils.c ****       }
 399:Drivers/STM32G4xx_HAL_Driver/Src/stm32g4xx_ll_utils.c ****     }
 400:Drivers/STM32G4xx_HAL_Driver/Src/stm32g4xx_ll_utils.c **** 
 401:Drivers/STM32G4xx_HAL_Driver/Src/stm32g4xx_ll_utils.c ****     /* Configure PLL */
 402:Drivers/STM32G4xx_HAL_Driver/Src/stm32g4xx_ll_utils.c ****     LL_RCC_PLL_ConfigDomain_SYS(LL_RCC_PLLSOURCE_HSE, UTILS_PLLInitStruct->PLLM, UTILS_PLLInitStruc
 403:Drivers/STM32G4xx_HAL_Driver/Src/stm32g4xx_ll_utils.c ****                                 UTILS_PLLInitStruct->PLLR);
 404:Drivers/STM32G4xx_HAL_Driver/Src/stm32g4xx_ll_utils.c **** 
 405:Drivers/STM32G4xx_HAL_Driver/Src/stm32g4xx_ll_utils.c ****     /* Prevent undershoot at highest frequency by applying intermediate AHB prescaler 2 */
 406:Drivers/STM32G4xx_HAL_Driver/Src/stm32g4xx_ll_utils.c ****     if(pllfreq > 80000000U)
 407:Drivers/STM32G4xx_HAL_Driver/Src/stm32g4xx_ll_utils.c ****     {
 408:Drivers/STM32G4xx_HAL_Driver/Src/stm32g4xx_ll_utils.c ****       hpre = UTILS_ClkInitStruct->AHBCLKDivider;
 409:Drivers/STM32G4xx_HAL_Driver/Src/stm32g4xx_ll_utils.c ****       if(hpre == LL_RCC_SYSCLK_DIV_1)
 410:Drivers/STM32G4xx_HAL_Driver/Src/stm32g4xx_ll_utils.c ****       {
 411:Drivers/STM32G4xx_HAL_Driver/Src/stm32g4xx_ll_utils.c ****         UTILS_ClkInitStruct->AHBCLKDivider = LL_RCC_SYSCLK_DIV_2;
 412:Drivers/STM32G4xx_HAL_Driver/Src/stm32g4xx_ll_utils.c ****       }
 413:Drivers/STM32G4xx_HAL_Driver/Src/stm32g4xx_ll_utils.c ****     }
 414:Drivers/STM32G4xx_HAL_Driver/Src/stm32g4xx_ll_utils.c **** 
 415:Drivers/STM32G4xx_HAL_Driver/Src/stm32g4xx_ll_utils.c ****     /* Enable PLL and switch system clock to PLL */
 416:Drivers/STM32G4xx_HAL_Driver/Src/stm32g4xx_ll_utils.c ****     status = UTILS_EnablePLLAndSwitchSystem(pllfreq, UTILS_ClkInitStruct);
 417:Drivers/STM32G4xx_HAL_Driver/Src/stm32g4xx_ll_utils.c **** 
 418:Drivers/STM32G4xx_HAL_Driver/Src/stm32g4xx_ll_utils.c ****     /* Apply definitive AHB prescaler value if necessary */
 419:Drivers/STM32G4xx_HAL_Driver/Src/stm32g4xx_ll_utils.c ****     if((status == SUCCESS) && (hpre != 0U))
 420:Drivers/STM32G4xx_HAL_Driver/Src/stm32g4xx_ll_utils.c ****     {
 421:Drivers/STM32G4xx_HAL_Driver/Src/stm32g4xx_ll_utils.c ****       UTILS_ClkInitStruct->AHBCLKDivider = LL_RCC_SYSCLK_DIV_1;
 422:Drivers/STM32G4xx_HAL_Driver/Src/stm32g4xx_ll_utils.c ****       LL_RCC_SetAHBPrescaler(UTILS_ClkInitStruct->AHBCLKDivider);
 423:Drivers/STM32G4xx_HAL_Driver/Src/stm32g4xx_ll_utils.c ****     }
 424:Drivers/STM32G4xx_HAL_Driver/Src/stm32g4xx_ll_utils.c ****   }
 425:Drivers/STM32G4xx_HAL_Driver/Src/stm32g4xx_ll_utils.c ****   else
 426:Drivers/STM32G4xx_HAL_Driver/Src/stm32g4xx_ll_utils.c ****   {
 427:Drivers/STM32G4xx_HAL_Driver/Src/stm32g4xx_ll_utils.c ****     /* Current PLL configuration cannot be modified */
 428:Drivers/STM32G4xx_HAL_Driver/Src/stm32g4xx_ll_utils.c ****     status = ERROR;
ARM GAS  D:\apps\VSCode\data\tmp\ccGycOlE.s 			page 9


 429:Drivers/STM32G4xx_HAL_Driver/Src/stm32g4xx_ll_utils.c ****   }
 430:Drivers/STM32G4xx_HAL_Driver/Src/stm32g4xx_ll_utils.c **** 
 431:Drivers/STM32G4xx_HAL_Driver/Src/stm32g4xx_ll_utils.c ****   return status;
 432:Drivers/STM32G4xx_HAL_Driver/Src/stm32g4xx_ll_utils.c **** }
 433:Drivers/STM32G4xx_HAL_Driver/Src/stm32g4xx_ll_utils.c **** 
 434:Drivers/STM32G4xx_HAL_Driver/Src/stm32g4xx_ll_utils.c **** /**
 435:Drivers/STM32G4xx_HAL_Driver/Src/stm32g4xx_ll_utils.c ****   * @}
 436:Drivers/STM32G4xx_HAL_Driver/Src/stm32g4xx_ll_utils.c ****   */
 437:Drivers/STM32G4xx_HAL_Driver/Src/stm32g4xx_ll_utils.c **** 
 438:Drivers/STM32G4xx_HAL_Driver/Src/stm32g4xx_ll_utils.c **** /**
 439:Drivers/STM32G4xx_HAL_Driver/Src/stm32g4xx_ll_utils.c ****   * @}
 440:Drivers/STM32G4xx_HAL_Driver/Src/stm32g4xx_ll_utils.c ****   */
 441:Drivers/STM32G4xx_HAL_Driver/Src/stm32g4xx_ll_utils.c **** 
 442:Drivers/STM32G4xx_HAL_Driver/Src/stm32g4xx_ll_utils.c **** /** @addtogroup UTILS_LL_Private_Functions
 443:Drivers/STM32G4xx_HAL_Driver/Src/stm32g4xx_ll_utils.c ****   * @{
 444:Drivers/STM32G4xx_HAL_Driver/Src/stm32g4xx_ll_utils.c ****   */
 445:Drivers/STM32G4xx_HAL_Driver/Src/stm32g4xx_ll_utils.c **** /**
 446:Drivers/STM32G4xx_HAL_Driver/Src/stm32g4xx_ll_utils.c ****   * @brief  Update number of Flash wait states in line with new frequency and current
 447:Drivers/STM32G4xx_HAL_Driver/Src/stm32g4xx_ll_utils.c ****             voltage range.
 448:Drivers/STM32G4xx_HAL_Driver/Src/stm32g4xx_ll_utils.c ****   * @param  HCLK_Frequency  HCLK frequency
 449:Drivers/STM32G4xx_HAL_Driver/Src/stm32g4xx_ll_utils.c ****   * @retval An ErrorStatus enumeration value:
 450:Drivers/STM32G4xx_HAL_Driver/Src/stm32g4xx_ll_utils.c ****   *          - SUCCESS: Latency has been modified
 451:Drivers/STM32G4xx_HAL_Driver/Src/stm32g4xx_ll_utils.c ****   *          - ERROR: Latency cannot be modified
 452:Drivers/STM32G4xx_HAL_Driver/Src/stm32g4xx_ll_utils.c ****   */
 453:Drivers/STM32G4xx_HAL_Driver/Src/stm32g4xx_ll_utils.c **** static ErrorStatus UTILS_SetFlashLatency(uint32_t HCLK_Frequency)
 454:Drivers/STM32G4xx_HAL_Driver/Src/stm32g4xx_ll_utils.c **** {
 455:Drivers/STM32G4xx_HAL_Driver/Src/stm32g4xx_ll_utils.c ****   ErrorStatus status = SUCCESS;
 456:Drivers/STM32G4xx_HAL_Driver/Src/stm32g4xx_ll_utils.c **** 
 457:Drivers/STM32G4xx_HAL_Driver/Src/stm32g4xx_ll_utils.c ****   uint32_t latency = LL_FLASH_LATENCY_0;  /* default value 0WS */
 458:Drivers/STM32G4xx_HAL_Driver/Src/stm32g4xx_ll_utils.c **** 
 459:Drivers/STM32G4xx_HAL_Driver/Src/stm32g4xx_ll_utils.c ****   /* Frequency cannot be equal to 0 */
 460:Drivers/STM32G4xx_HAL_Driver/Src/stm32g4xx_ll_utils.c ****   if(HCLK_Frequency == 0U)
 461:Drivers/STM32G4xx_HAL_Driver/Src/stm32g4xx_ll_utils.c ****   {
 462:Drivers/STM32G4xx_HAL_Driver/Src/stm32g4xx_ll_utils.c ****     status = ERROR;
 463:Drivers/STM32G4xx_HAL_Driver/Src/stm32g4xx_ll_utils.c ****   }
 464:Drivers/STM32G4xx_HAL_Driver/Src/stm32g4xx_ll_utils.c ****   else
 465:Drivers/STM32G4xx_HAL_Driver/Src/stm32g4xx_ll_utils.c ****   {
 466:Drivers/STM32G4xx_HAL_Driver/Src/stm32g4xx_ll_utils.c ****     if(LL_PWR_GetRegulVoltageScaling() == LL_PWR_REGU_VOLTAGE_SCALE1)
 467:Drivers/STM32G4xx_HAL_Driver/Src/stm32g4xx_ll_utils.c ****     {
 468:Drivers/STM32G4xx_HAL_Driver/Src/stm32g4xx_ll_utils.c ****       if(HCLK_Frequency > UTILS_SCALE1_LATENCY8_FREQ)
 469:Drivers/STM32G4xx_HAL_Driver/Src/stm32g4xx_ll_utils.c ****       {
 470:Drivers/STM32G4xx_HAL_Driver/Src/stm32g4xx_ll_utils.c ****         /* 160 < HCLK <= 170 => 8WS (9 CPU cycles) */
 471:Drivers/STM32G4xx_HAL_Driver/Src/stm32g4xx_ll_utils.c ****         latency = LL_FLASH_LATENCY_8;
 472:Drivers/STM32G4xx_HAL_Driver/Src/stm32g4xx_ll_utils.c ****       }
 473:Drivers/STM32G4xx_HAL_Driver/Src/stm32g4xx_ll_utils.c ****       else if(HCLK_Frequency > UTILS_SCALE1_LATENCY7_FREQ)
 474:Drivers/STM32G4xx_HAL_Driver/Src/stm32g4xx_ll_utils.c ****       {
 475:Drivers/STM32G4xx_HAL_Driver/Src/stm32g4xx_ll_utils.c ****         /* 140 < HCLK <= 160 => 7WS (8 CPU cycles) */
 476:Drivers/STM32G4xx_HAL_Driver/Src/stm32g4xx_ll_utils.c ****         latency = LL_FLASH_LATENCY_7;
 477:Drivers/STM32G4xx_HAL_Driver/Src/stm32g4xx_ll_utils.c ****       }
 478:Drivers/STM32G4xx_HAL_Driver/Src/stm32g4xx_ll_utils.c ****       else if(HCLK_Frequency > UTILS_SCALE1_LATENCY6_FREQ)
 479:Drivers/STM32G4xx_HAL_Driver/Src/stm32g4xx_ll_utils.c ****       {
 480:Drivers/STM32G4xx_HAL_Driver/Src/stm32g4xx_ll_utils.c ****         /* 120 < HCLK <= 140 => 6WS (7 CPU cycles) */
 481:Drivers/STM32G4xx_HAL_Driver/Src/stm32g4xx_ll_utils.c ****         latency = LL_FLASH_LATENCY_6;
 482:Drivers/STM32G4xx_HAL_Driver/Src/stm32g4xx_ll_utils.c ****       }
 483:Drivers/STM32G4xx_HAL_Driver/Src/stm32g4xx_ll_utils.c ****       else if(HCLK_Frequency > UTILS_SCALE1_LATENCY5_FREQ)
 484:Drivers/STM32G4xx_HAL_Driver/Src/stm32g4xx_ll_utils.c ****       {
 485:Drivers/STM32G4xx_HAL_Driver/Src/stm32g4xx_ll_utils.c ****         /* 100 < HCLK <= 120 => 5WS (6 CPU cycles) */
ARM GAS  D:\apps\VSCode\data\tmp\ccGycOlE.s 			page 10


 486:Drivers/STM32G4xx_HAL_Driver/Src/stm32g4xx_ll_utils.c ****         latency = LL_FLASH_LATENCY_5;
 487:Drivers/STM32G4xx_HAL_Driver/Src/stm32g4xx_ll_utils.c ****       }
 488:Drivers/STM32G4xx_HAL_Driver/Src/stm32g4xx_ll_utils.c ****       else if(HCLK_Frequency > UTILS_SCALE1_LATENCY4_FREQ)
 489:Drivers/STM32G4xx_HAL_Driver/Src/stm32g4xx_ll_utils.c ****       {
 490:Drivers/STM32G4xx_HAL_Driver/Src/stm32g4xx_ll_utils.c ****         /* 80 < HCLK <= 100 => 4WS (5 CPU cycles) */
 491:Drivers/STM32G4xx_HAL_Driver/Src/stm32g4xx_ll_utils.c ****         latency = LL_FLASH_LATENCY_4;
 492:Drivers/STM32G4xx_HAL_Driver/Src/stm32g4xx_ll_utils.c ****       }
 493:Drivers/STM32G4xx_HAL_Driver/Src/stm32g4xx_ll_utils.c ****       else if(HCLK_Frequency > UTILS_SCALE1_LATENCY3_FREQ)
 494:Drivers/STM32G4xx_HAL_Driver/Src/stm32g4xx_ll_utils.c ****       {
 495:Drivers/STM32G4xx_HAL_Driver/Src/stm32g4xx_ll_utils.c ****         /* 60 < HCLK <= 80 => 3WS (4 CPU cycles) */
 496:Drivers/STM32G4xx_HAL_Driver/Src/stm32g4xx_ll_utils.c ****         latency = LL_FLASH_LATENCY_3;
 497:Drivers/STM32G4xx_HAL_Driver/Src/stm32g4xx_ll_utils.c ****       }
 498:Drivers/STM32G4xx_HAL_Driver/Src/stm32g4xx_ll_utils.c ****       else if(HCLK_Frequency > UTILS_SCALE1_LATENCY2_FREQ)
 499:Drivers/STM32G4xx_HAL_Driver/Src/stm32g4xx_ll_utils.c ****       {
 500:Drivers/STM32G4xx_HAL_Driver/Src/stm32g4xx_ll_utils.c ****         /* 40 < HCLK <= 60 => 2WS (3 CPU cycles) */
 501:Drivers/STM32G4xx_HAL_Driver/Src/stm32g4xx_ll_utils.c ****         latency = LL_FLASH_LATENCY_2;
 502:Drivers/STM32G4xx_HAL_Driver/Src/stm32g4xx_ll_utils.c ****       }
 503:Drivers/STM32G4xx_HAL_Driver/Src/stm32g4xx_ll_utils.c ****       else
 504:Drivers/STM32G4xx_HAL_Driver/Src/stm32g4xx_ll_utils.c ****       {
 505:Drivers/STM32G4xx_HAL_Driver/Src/stm32g4xx_ll_utils.c ****         if(HCLK_Frequency > UTILS_SCALE1_LATENCY1_FREQ)
 506:Drivers/STM32G4xx_HAL_Driver/Src/stm32g4xx_ll_utils.c ****         {
 507:Drivers/STM32G4xx_HAL_Driver/Src/stm32g4xx_ll_utils.c ****           /* 20 < HCLK <= 40 => 1WS (2 CPU cycles) */
 508:Drivers/STM32G4xx_HAL_Driver/Src/stm32g4xx_ll_utils.c ****           latency = LL_FLASH_LATENCY_1;
 509:Drivers/STM32G4xx_HAL_Driver/Src/stm32g4xx_ll_utils.c ****         }
 510:Drivers/STM32G4xx_HAL_Driver/Src/stm32g4xx_ll_utils.c ****         /* else HCLK_Frequency <= 10MHz default LL_FLASH_LATENCY_0 0WS */
 511:Drivers/STM32G4xx_HAL_Driver/Src/stm32g4xx_ll_utils.c ****       }
 512:Drivers/STM32G4xx_HAL_Driver/Src/stm32g4xx_ll_utils.c ****     }
 513:Drivers/STM32G4xx_HAL_Driver/Src/stm32g4xx_ll_utils.c ****     else /* SCALE2 */
 514:Drivers/STM32G4xx_HAL_Driver/Src/stm32g4xx_ll_utils.c ****     {
 515:Drivers/STM32G4xx_HAL_Driver/Src/stm32g4xx_ll_utils.c ****       if(HCLK_Frequency > UTILS_SCALE2_LATENCY2_FREQ)
 516:Drivers/STM32G4xx_HAL_Driver/Src/stm32g4xx_ll_utils.c ****       {
 517:Drivers/STM32G4xx_HAL_Driver/Src/stm32g4xx_ll_utils.c ****         /* 16 < HCLK <= 26 => 2WS (3 CPU cycles) */
 518:Drivers/STM32G4xx_HAL_Driver/Src/stm32g4xx_ll_utils.c ****         latency = LL_FLASH_LATENCY_2;
 519:Drivers/STM32G4xx_HAL_Driver/Src/stm32g4xx_ll_utils.c ****       }
 520:Drivers/STM32G4xx_HAL_Driver/Src/stm32g4xx_ll_utils.c ****       else
 521:Drivers/STM32G4xx_HAL_Driver/Src/stm32g4xx_ll_utils.c ****       {
 522:Drivers/STM32G4xx_HAL_Driver/Src/stm32g4xx_ll_utils.c ****         if(HCLK_Frequency > UTILS_SCALE2_LATENCY1_FREQ)
 523:Drivers/STM32G4xx_HAL_Driver/Src/stm32g4xx_ll_utils.c ****         {
 524:Drivers/STM32G4xx_HAL_Driver/Src/stm32g4xx_ll_utils.c ****           /* 8 < HCLK <= 16 => 1WS (2 CPU cycles) */
 525:Drivers/STM32G4xx_HAL_Driver/Src/stm32g4xx_ll_utils.c ****           latency = LL_FLASH_LATENCY_1;
 526:Drivers/STM32G4xx_HAL_Driver/Src/stm32g4xx_ll_utils.c ****         }
 527:Drivers/STM32G4xx_HAL_Driver/Src/stm32g4xx_ll_utils.c ****         /* else HCLK_Frequency <= 8MHz default LL_FLASH_LATENCY_0 0WS */
 528:Drivers/STM32G4xx_HAL_Driver/Src/stm32g4xx_ll_utils.c ****       }
 529:Drivers/STM32G4xx_HAL_Driver/Src/stm32g4xx_ll_utils.c ****     }
 530:Drivers/STM32G4xx_HAL_Driver/Src/stm32g4xx_ll_utils.c **** 
 531:Drivers/STM32G4xx_HAL_Driver/Src/stm32g4xx_ll_utils.c ****     LL_FLASH_SetLatency(latency);
 532:Drivers/STM32G4xx_HAL_Driver/Src/stm32g4xx_ll_utils.c **** 
 533:Drivers/STM32G4xx_HAL_Driver/Src/stm32g4xx_ll_utils.c ****     /* Check that the new number of wait states is taken into account to access the Flash
 534:Drivers/STM32G4xx_HAL_Driver/Src/stm32g4xx_ll_utils.c ****        memory by reading the FLASH_ACR register */
 535:Drivers/STM32G4xx_HAL_Driver/Src/stm32g4xx_ll_utils.c ****     if(LL_FLASH_GetLatency() != latency)
 536:Drivers/STM32G4xx_HAL_Driver/Src/stm32g4xx_ll_utils.c ****     {
 537:Drivers/STM32G4xx_HAL_Driver/Src/stm32g4xx_ll_utils.c ****       status = ERROR;
 538:Drivers/STM32G4xx_HAL_Driver/Src/stm32g4xx_ll_utils.c ****     }
 539:Drivers/STM32G4xx_HAL_Driver/Src/stm32g4xx_ll_utils.c ****   }
 540:Drivers/STM32G4xx_HAL_Driver/Src/stm32g4xx_ll_utils.c ****   return status;
 541:Drivers/STM32G4xx_HAL_Driver/Src/stm32g4xx_ll_utils.c **** }
 542:Drivers/STM32G4xx_HAL_Driver/Src/stm32g4xx_ll_utils.c **** 
ARM GAS  D:\apps\VSCode\data\tmp\ccGycOlE.s 			page 11


 543:Drivers/STM32G4xx_HAL_Driver/Src/stm32g4xx_ll_utils.c **** /**
 544:Drivers/STM32G4xx_HAL_Driver/Src/stm32g4xx_ll_utils.c ****   * @brief  Function to check that PLL can be modified
 545:Drivers/STM32G4xx_HAL_Driver/Src/stm32g4xx_ll_utils.c ****   * @param  PLL_InputFrequency  PLL input frequency (in Hz)
 546:Drivers/STM32G4xx_HAL_Driver/Src/stm32g4xx_ll_utils.c ****   * @param  UTILS_PLLInitStruct pointer to a @ref LL_UTILS_PLLInitTypeDef structure that contains
 547:Drivers/STM32G4xx_HAL_Driver/Src/stm32g4xx_ll_utils.c ****   *                             the configuration information for the PLL.
 548:Drivers/STM32G4xx_HAL_Driver/Src/stm32g4xx_ll_utils.c ****   * @retval PLL output frequency (in Hz)
 549:Drivers/STM32G4xx_HAL_Driver/Src/stm32g4xx_ll_utils.c ****   */
 550:Drivers/STM32G4xx_HAL_Driver/Src/stm32g4xx_ll_utils.c **** static uint32_t UTILS_GetPLLOutputFrequency(uint32_t PLL_InputFrequency, LL_UTILS_PLLInitTypeDef *U
 551:Drivers/STM32G4xx_HAL_Driver/Src/stm32g4xx_ll_utils.c **** {
 552:Drivers/STM32G4xx_HAL_Driver/Src/stm32g4xx_ll_utils.c ****   uint32_t pllfreq;
 553:Drivers/STM32G4xx_HAL_Driver/Src/stm32g4xx_ll_utils.c **** 
 554:Drivers/STM32G4xx_HAL_Driver/Src/stm32g4xx_ll_utils.c ****   /* Check the parameters */
 555:Drivers/STM32G4xx_HAL_Driver/Src/stm32g4xx_ll_utils.c ****   assert_param(IS_LL_UTILS_PLLM_VALUE(UTILS_PLLInitStruct->PLLM));
 556:Drivers/STM32G4xx_HAL_Driver/Src/stm32g4xx_ll_utils.c ****   assert_param(IS_LL_UTILS_PLLN_VALUE(UTILS_PLLInitStruct->PLLN));
 557:Drivers/STM32G4xx_HAL_Driver/Src/stm32g4xx_ll_utils.c ****   assert_param(IS_LL_UTILS_PLLR_VALUE(UTILS_PLLInitStruct->PLLR));
 558:Drivers/STM32G4xx_HAL_Driver/Src/stm32g4xx_ll_utils.c **** 
 559:Drivers/STM32G4xx_HAL_Driver/Src/stm32g4xx_ll_utils.c ****   /* Check different PLL parameters according to RM                          */
 560:Drivers/STM32G4xx_HAL_Driver/Src/stm32g4xx_ll_utils.c ****   /*  - PLLM: ensure that the VCO input frequency ranges from 2.66 to 8 MHz.   */
 561:Drivers/STM32G4xx_HAL_Driver/Src/stm32g4xx_ll_utils.c ****   pllfreq = PLL_InputFrequency / (((UTILS_PLLInitStruct->PLLM >> RCC_PLLCFGR_PLLM_Pos) + 1U));
 562:Drivers/STM32G4xx_HAL_Driver/Src/stm32g4xx_ll_utils.c ****   assert_param(IS_LL_UTILS_PLLVCO_INPUT(pllfreq));
 563:Drivers/STM32G4xx_HAL_Driver/Src/stm32g4xx_ll_utils.c **** 
 564:Drivers/STM32G4xx_HAL_Driver/Src/stm32g4xx_ll_utils.c ****   /*  - PLLN: ensure that the VCO output frequency is between 64 and 344 MHz.*/
 565:Drivers/STM32G4xx_HAL_Driver/Src/stm32g4xx_ll_utils.c ****   pllfreq = pllfreq * (UTILS_PLLInitStruct->PLLN & (RCC_PLLCFGR_PLLN >> RCC_PLLCFGR_PLLN_Pos));
 566:Drivers/STM32G4xx_HAL_Driver/Src/stm32g4xx_ll_utils.c ****   assert_param(IS_LL_UTILS_PLLVCO_OUTPUT(pllfreq));
 567:Drivers/STM32G4xx_HAL_Driver/Src/stm32g4xx_ll_utils.c **** 
 568:Drivers/STM32G4xx_HAL_Driver/Src/stm32g4xx_ll_utils.c ****   /*  - PLLR: ensure that max frequency at 170000000 Hz is reached                   */
 569:Drivers/STM32G4xx_HAL_Driver/Src/stm32g4xx_ll_utils.c ****   pllfreq = pllfreq / (((UTILS_PLLInitStruct->PLLR >> RCC_PLLCFGR_PLLR_Pos) + 1U) * 2U);
 570:Drivers/STM32G4xx_HAL_Driver/Src/stm32g4xx_ll_utils.c ****   assert_param(IS_LL_UTILS_PLL_FREQUENCY(pllfreq));
 571:Drivers/STM32G4xx_HAL_Driver/Src/stm32g4xx_ll_utils.c **** 
 572:Drivers/STM32G4xx_HAL_Driver/Src/stm32g4xx_ll_utils.c ****   return pllfreq;
 573:Drivers/STM32G4xx_HAL_Driver/Src/stm32g4xx_ll_utils.c **** }
 574:Drivers/STM32G4xx_HAL_Driver/Src/stm32g4xx_ll_utils.c **** 
 575:Drivers/STM32G4xx_HAL_Driver/Src/stm32g4xx_ll_utils.c **** /**
 576:Drivers/STM32G4xx_HAL_Driver/Src/stm32g4xx_ll_utils.c ****   * @brief  Function to check that PLL can be modified
 577:Drivers/STM32G4xx_HAL_Driver/Src/stm32g4xx_ll_utils.c ****   * @retval An ErrorStatus enumeration value:
 578:Drivers/STM32G4xx_HAL_Driver/Src/stm32g4xx_ll_utils.c ****   *          - SUCCESS: PLL modification can be done
 579:Drivers/STM32G4xx_HAL_Driver/Src/stm32g4xx_ll_utils.c ****   *          - ERROR: PLL is busy
 580:Drivers/STM32G4xx_HAL_Driver/Src/stm32g4xx_ll_utils.c ****   */
 581:Drivers/STM32G4xx_HAL_Driver/Src/stm32g4xx_ll_utils.c **** static ErrorStatus UTILS_PLL_IsBusy(void)
 582:Drivers/STM32G4xx_HAL_Driver/Src/stm32g4xx_ll_utils.c **** {
 583:Drivers/STM32G4xx_HAL_Driver/Src/stm32g4xx_ll_utils.c ****   ErrorStatus status = SUCCESS;
 584:Drivers/STM32G4xx_HAL_Driver/Src/stm32g4xx_ll_utils.c **** 
 585:Drivers/STM32G4xx_HAL_Driver/Src/stm32g4xx_ll_utils.c ****   /* Check if PLL is busy*/
 586:Drivers/STM32G4xx_HAL_Driver/Src/stm32g4xx_ll_utils.c ****   if(LL_RCC_PLL_IsReady() != 0U)
 587:Drivers/STM32G4xx_HAL_Driver/Src/stm32g4xx_ll_utils.c ****   {
 588:Drivers/STM32G4xx_HAL_Driver/Src/stm32g4xx_ll_utils.c ****     /* PLL configuration cannot be modified */
 589:Drivers/STM32G4xx_HAL_Driver/Src/stm32g4xx_ll_utils.c ****     status = ERROR;
 590:Drivers/STM32G4xx_HAL_Driver/Src/stm32g4xx_ll_utils.c ****   }
 591:Drivers/STM32G4xx_HAL_Driver/Src/stm32g4xx_ll_utils.c **** 
 592:Drivers/STM32G4xx_HAL_Driver/Src/stm32g4xx_ll_utils.c ****   return status;
 593:Drivers/STM32G4xx_HAL_Driver/Src/stm32g4xx_ll_utils.c **** }
 594:Drivers/STM32G4xx_HAL_Driver/Src/stm32g4xx_ll_utils.c **** 
 595:Drivers/STM32G4xx_HAL_Driver/Src/stm32g4xx_ll_utils.c **** /**
 596:Drivers/STM32G4xx_HAL_Driver/Src/stm32g4xx_ll_utils.c ****   * @brief  Function to enable PLL and switch system clock to PLL
 597:Drivers/STM32G4xx_HAL_Driver/Src/stm32g4xx_ll_utils.c ****   * @param  SYSCLK_Frequency SYSCLK frequency
 598:Drivers/STM32G4xx_HAL_Driver/Src/stm32g4xx_ll_utils.c ****   * @param  UTILS_ClkInitStruct pointer to a @ref LL_UTILS_ClkInitTypeDef structure that contains
 599:Drivers/STM32G4xx_HAL_Driver/Src/stm32g4xx_ll_utils.c ****   *                             the configuration information for the BUS prescalers.
ARM GAS  D:\apps\VSCode\data\tmp\ccGycOlE.s 			page 12


 600:Drivers/STM32G4xx_HAL_Driver/Src/stm32g4xx_ll_utils.c ****   * @retval An ErrorStatus enumeration value:
 601:Drivers/STM32G4xx_HAL_Driver/Src/stm32g4xx_ll_utils.c ****   *          - SUCCESS: No problem to switch system to PLL
 602:Drivers/STM32G4xx_HAL_Driver/Src/stm32g4xx_ll_utils.c ****   *          - ERROR: Problem to switch system to PLL
 603:Drivers/STM32G4xx_HAL_Driver/Src/stm32g4xx_ll_utils.c ****   */
 604:Drivers/STM32G4xx_HAL_Driver/Src/stm32g4xx_ll_utils.c **** static ErrorStatus UTILS_EnablePLLAndSwitchSystem(uint32_t SYSCLK_Frequency, LL_UTILS_ClkInitTypeDe
 605:Drivers/STM32G4xx_HAL_Driver/Src/stm32g4xx_ll_utils.c **** {
  30              		.loc 1 605 1 view -0
  31              		.cfi_startproc
  32              		@ args = 0, pretend = 0, frame = 0
  33              		@ frame_needed = 0, uses_anonymous_args = 0
  34              		@ link register save eliminated.
 606:Drivers/STM32G4xx_HAL_Driver/Src/stm32g4xx_ll_utils.c ****   ErrorStatus status = SUCCESS;
  35              		.loc 1 606 3 view .LVU1
 607:Drivers/STM32G4xx_HAL_Driver/Src/stm32g4xx_ll_utils.c ****   uint32_t hclk_frequency;
  36              		.loc 1 607 3 view .LVU2
 608:Drivers/STM32G4xx_HAL_Driver/Src/stm32g4xx_ll_utils.c **** 
 609:Drivers/STM32G4xx_HAL_Driver/Src/stm32g4xx_ll_utils.c ****   assert_param(IS_LL_UTILS_SYSCLK_DIV(UTILS_ClkInitStruct->AHBCLKDivider));
  37              		.loc 1 609 3 view .LVU3
 610:Drivers/STM32G4xx_HAL_Driver/Src/stm32g4xx_ll_utils.c ****   assert_param(IS_LL_UTILS_APB1_DIV(UTILS_ClkInitStruct->APB1CLKDivider));
  38              		.loc 1 610 3 view .LVU4
 611:Drivers/STM32G4xx_HAL_Driver/Src/stm32g4xx_ll_utils.c ****   assert_param(IS_LL_UTILS_APB2_DIV(UTILS_ClkInitStruct->APB2CLKDivider));
  39              		.loc 1 611 3 view .LVU5
 612:Drivers/STM32G4xx_HAL_Driver/Src/stm32g4xx_ll_utils.c **** 
 613:Drivers/STM32G4xx_HAL_Driver/Src/stm32g4xx_ll_utils.c ****   /* Calculate HCLK frequency */
 614:Drivers/STM32G4xx_HAL_Driver/Src/stm32g4xx_ll_utils.c ****   hclk_frequency = __LL_RCC_CALC_HCLK_FREQ(SYSCLK_Frequency, UTILS_ClkInitStruct->AHBCLKDivider);
  40              		.loc 1 614 3 view .LVU6
 605:Drivers/STM32G4xx_HAL_Driver/Src/stm32g4xx_ll_utils.c ****   ErrorStatus status = SUCCESS;
  41              		.loc 1 605 1 is_stmt 0 view .LVU7
  42 0000 70B4     		push	{r4, r5, r6}
  43              	.LCFI0:
  44              		.cfi_def_cfa_offset 12
  45              		.cfi_offset 4, -12
  46              		.cfi_offset 5, -8
  47              		.cfi_offset 6, -4
  48              		.loc 1 614 20 view .LVU8
  49 0002 0B68     		ldr	r3, [r1]
  50 0004 654D     		ldr	r5, .L45
 615:Drivers/STM32G4xx_HAL_Driver/Src/stm32g4xx_ll_utils.c **** 
 616:Drivers/STM32G4xx_HAL_Driver/Src/stm32g4xx_ll_utils.c ****   /* Increasing the number of wait states because of higher CPU frequency */
 617:Drivers/STM32G4xx_HAL_Driver/Src/stm32g4xx_ll_utils.c ****   if(SystemCoreClock < hclk_frequency)
  51              		.loc 1 617 22 view .LVU9
  52 0006 664C     		ldr	r4, .L45+4
 614:Drivers/STM32G4xx_HAL_Driver/Src/stm32g4xx_ll_utils.c **** 
  53              		.loc 1 614 20 view .LVU10
  54 0008 C3F30313 		ubfx	r3, r3, #4, #4
  55              		.loc 1 617 5 view .LVU11
  56 000c 2268     		ldr	r2, [r4]
 614:Drivers/STM32G4xx_HAL_Driver/Src/stm32g4xx_ll_utils.c **** 
  57              		.loc 1 614 20 view .LVU12
  58 000e EB5C     		ldrb	r3, [r5, r3]	@ zero_extendqisi2
  59 0010 03F01F03 		and	r3, r3, #31
 614:Drivers/STM32G4xx_HAL_Driver/Src/stm32g4xx_ll_utils.c **** 
  60              		.loc 1 614 18 view .LVU13
  61 0014 D840     		lsrs	r0, r0, r3
  62              	.LVL1:
  63              		.loc 1 617 3 is_stmt 1 view .LVU14
  64              		.loc 1 617 5 is_stmt 0 view .LVU15
ARM GAS  D:\apps\VSCode\data\tmp\ccGycOlE.s 			page 13


  65 0016 8242     		cmp	r2, r0
  66 0018 04D2     		bcs	.L2
 618:Drivers/STM32G4xx_HAL_Driver/Src/stm32g4xx_ll_utils.c ****   {
 619:Drivers/STM32G4xx_HAL_Driver/Src/stm32g4xx_ll_utils.c ****     /* Set FLASH latency to highest latency */
 620:Drivers/STM32G4xx_HAL_Driver/Src/stm32g4xx_ll_utils.c ****     status = UTILS_SetFlashLatency(hclk_frequency);
  67              		.loc 1 620 5 is_stmt 1 view .LVU16
  68              	.LVL2:
  69              	.LBB114:
  70              	.LBI114:
 453:Drivers/STM32G4xx_HAL_Driver/Src/stm32g4xx_ll_utils.c **** {
  71              		.loc 1 453 20 view .LVU17
  72              	.LBB115:
 455:Drivers/STM32G4xx_HAL_Driver/Src/stm32g4xx_ll_utils.c **** 
  73              		.loc 1 455 3 view .LVU18
 457:Drivers/STM32G4xx_HAL_Driver/Src/stm32g4xx_ll_utils.c **** 
  74              		.loc 1 457 3 view .LVU19
 460:Drivers/STM32G4xx_HAL_Driver/Src/stm32g4xx_ll_utils.c ****   {
  75              		.loc 1 460 3 view .LVU20
 460:Drivers/STM32G4xx_HAL_Driver/Src/stm32g4xx_ll_utils.c ****   {
  76              		.loc 1 460 5 is_stmt 0 view .LVU21
  77 001a 0028     		cmp	r0, #0
  78 001c 4DD1     		bne	.L3
  79              	.LVL3:
  80              	.L7:
 462:Drivers/STM32G4xx_HAL_Driver/Src/stm32g4xx_ll_utils.c ****   }
  81              		.loc 1 462 12 view .LVU22
  82 001e 0120     		movs	r0, #1
  83              	.LVL4:
 462:Drivers/STM32G4xx_HAL_Driver/Src/stm32g4xx_ll_utils.c ****   }
  84              		.loc 1 462 12 view .LVU23
  85              	.LBE115:
  86              	.LBE114:
 621:Drivers/STM32G4xx_HAL_Driver/Src/stm32g4xx_ll_utils.c ****   }
 622:Drivers/STM32G4xx_HAL_Driver/Src/stm32g4xx_ll_utils.c **** 
 623:Drivers/STM32G4xx_HAL_Driver/Src/stm32g4xx_ll_utils.c ****   /* Update system clock configuration */
 624:Drivers/STM32G4xx_HAL_Driver/Src/stm32g4xx_ll_utils.c ****   if(status == SUCCESS)
 625:Drivers/STM32G4xx_HAL_Driver/Src/stm32g4xx_ll_utils.c ****   {
 626:Drivers/STM32G4xx_HAL_Driver/Src/stm32g4xx_ll_utils.c ****     /* Enable PLL */
 627:Drivers/STM32G4xx_HAL_Driver/Src/stm32g4xx_ll_utils.c ****     LL_RCC_PLL_Enable();
 628:Drivers/STM32G4xx_HAL_Driver/Src/stm32g4xx_ll_utils.c ****     LL_RCC_PLL_EnableDomain_SYS();
 629:Drivers/STM32G4xx_HAL_Driver/Src/stm32g4xx_ll_utils.c ****     while (LL_RCC_PLL_IsReady() != 1U)
 630:Drivers/STM32G4xx_HAL_Driver/Src/stm32g4xx_ll_utils.c ****     {
 631:Drivers/STM32G4xx_HAL_Driver/Src/stm32g4xx_ll_utils.c ****       /* Wait for PLL ready */
 632:Drivers/STM32G4xx_HAL_Driver/Src/stm32g4xx_ll_utils.c ****     }
 633:Drivers/STM32G4xx_HAL_Driver/Src/stm32g4xx_ll_utils.c **** 
 634:Drivers/STM32G4xx_HAL_Driver/Src/stm32g4xx_ll_utils.c ****     /* Sysclk activation on the main PLL */
 635:Drivers/STM32G4xx_HAL_Driver/Src/stm32g4xx_ll_utils.c ****     LL_RCC_SetAHBPrescaler(UTILS_ClkInitStruct->AHBCLKDivider);
 636:Drivers/STM32G4xx_HAL_Driver/Src/stm32g4xx_ll_utils.c ****     LL_RCC_SetSysClkSource(LL_RCC_SYS_CLKSOURCE_PLL);
 637:Drivers/STM32G4xx_HAL_Driver/Src/stm32g4xx_ll_utils.c ****     while (LL_RCC_GetSysClkSource() != LL_RCC_SYS_CLKSOURCE_STATUS_PLL)
 638:Drivers/STM32G4xx_HAL_Driver/Src/stm32g4xx_ll_utils.c ****     {
 639:Drivers/STM32G4xx_HAL_Driver/Src/stm32g4xx_ll_utils.c ****       /* Wait for system clock switch to PLL */
 640:Drivers/STM32G4xx_HAL_Driver/Src/stm32g4xx_ll_utils.c ****     }
 641:Drivers/STM32G4xx_HAL_Driver/Src/stm32g4xx_ll_utils.c **** 
 642:Drivers/STM32G4xx_HAL_Driver/Src/stm32g4xx_ll_utils.c ****     /* Set APB1 & APB2 prescaler*/
 643:Drivers/STM32G4xx_HAL_Driver/Src/stm32g4xx_ll_utils.c ****     LL_RCC_SetAPB1Prescaler(UTILS_ClkInitStruct->APB1CLKDivider);
 644:Drivers/STM32G4xx_HAL_Driver/Src/stm32g4xx_ll_utils.c ****     LL_RCC_SetAPB2Prescaler(UTILS_ClkInitStruct->APB2CLKDivider);
 645:Drivers/STM32G4xx_HAL_Driver/Src/stm32g4xx_ll_utils.c ****   }
ARM GAS  D:\apps\VSCode\data\tmp\ccGycOlE.s 			page 14


 646:Drivers/STM32G4xx_HAL_Driver/Src/stm32g4xx_ll_utils.c ****     
 647:Drivers/STM32G4xx_HAL_Driver/Src/stm32g4xx_ll_utils.c ****   /* Decreasing the number of wait states because of lower CPU frequency */
 648:Drivers/STM32G4xx_HAL_Driver/Src/stm32g4xx_ll_utils.c ****   if(SystemCoreClock > hclk_frequency)
 649:Drivers/STM32G4xx_HAL_Driver/Src/stm32g4xx_ll_utils.c ****   {
 650:Drivers/STM32G4xx_HAL_Driver/Src/stm32g4xx_ll_utils.c ****     /* Set FLASH latency to lowest latency */
 651:Drivers/STM32G4xx_HAL_Driver/Src/stm32g4xx_ll_utils.c ****     status = UTILS_SetFlashLatency(hclk_frequency);
 652:Drivers/STM32G4xx_HAL_Driver/Src/stm32g4xx_ll_utils.c ****   }
 653:Drivers/STM32G4xx_HAL_Driver/Src/stm32g4xx_ll_utils.c **** 
 654:Drivers/STM32G4xx_HAL_Driver/Src/stm32g4xx_ll_utils.c ****   /* Update SystemCoreClock variable */
 655:Drivers/STM32G4xx_HAL_Driver/Src/stm32g4xx_ll_utils.c ****   if(status == SUCCESS)
 656:Drivers/STM32G4xx_HAL_Driver/Src/stm32g4xx_ll_utils.c ****   {
 657:Drivers/STM32G4xx_HAL_Driver/Src/stm32g4xx_ll_utils.c ****     LL_SetSystemCoreClock(hclk_frequency);
 658:Drivers/STM32G4xx_HAL_Driver/Src/stm32g4xx_ll_utils.c ****   }
 659:Drivers/STM32G4xx_HAL_Driver/Src/stm32g4xx_ll_utils.c **** 
 660:Drivers/STM32G4xx_HAL_Driver/Src/stm32g4xx_ll_utils.c ****   return status;
 661:Drivers/STM32G4xx_HAL_Driver/Src/stm32g4xx_ll_utils.c **** }
  87              		.loc 1 661 1 view .LVU24
  88 0020 70BC     		pop	{r4, r5, r6}
  89              	.LCFI1:
  90              		.cfi_remember_state
  91              		.cfi_restore 6
  92              		.cfi_restore 5
  93              		.cfi_restore 4
  94              		.cfi_def_cfa_offset 0
  95 0022 7047     		bx	lr
  96              	.LVL5:
  97              	.L2:
  98              	.LCFI2:
  99              		.cfi_restore_state
 627:Drivers/STM32G4xx_HAL_Driver/Src/stm32g4xx_ll_utils.c ****     LL_RCC_PLL_EnableDomain_SYS();
 100              		.loc 1 627 5 is_stmt 1 view .LVU25
 101              	.LBB143:
 102              	.LBI143:
 103              		.file 2 "Drivers/STM32G4xx_HAL_Driver/Inc/stm32g4xx_ll_rcc.h"
   1:Drivers/STM32G4xx_HAL_Driver/Inc/stm32g4xx_ll_rcc.h **** /**
   2:Drivers/STM32G4xx_HAL_Driver/Inc/stm32g4xx_ll_rcc.h ****   ******************************************************************************
   3:Drivers/STM32G4xx_HAL_Driver/Inc/stm32g4xx_ll_rcc.h ****   * @file    stm32g4xx_ll_rcc.h
   4:Drivers/STM32G4xx_HAL_Driver/Inc/stm32g4xx_ll_rcc.h ****   * @author  MCD Application Team
   5:Drivers/STM32G4xx_HAL_Driver/Inc/stm32g4xx_ll_rcc.h ****   * @brief   Header file of RCC LL module.
   6:Drivers/STM32G4xx_HAL_Driver/Inc/stm32g4xx_ll_rcc.h ****   ******************************************************************************
   7:Drivers/STM32G4xx_HAL_Driver/Inc/stm32g4xx_ll_rcc.h ****   * @attention
   8:Drivers/STM32G4xx_HAL_Driver/Inc/stm32g4xx_ll_rcc.h ****   *
   9:Drivers/STM32G4xx_HAL_Driver/Inc/stm32g4xx_ll_rcc.h ****   * <h2><center>&copy; Copyright (c) 2019 STMicroelectronics.
  10:Drivers/STM32G4xx_HAL_Driver/Inc/stm32g4xx_ll_rcc.h ****   * All rights reserved.</center></h2>
  11:Drivers/STM32G4xx_HAL_Driver/Inc/stm32g4xx_ll_rcc.h ****   *
  12:Drivers/STM32G4xx_HAL_Driver/Inc/stm32g4xx_ll_rcc.h ****   * This software component is licensed by ST under BSD 3-Clause license,
  13:Drivers/STM32G4xx_HAL_Driver/Inc/stm32g4xx_ll_rcc.h ****   * the "License"; You may not use this file except in compliance with the
  14:Drivers/STM32G4xx_HAL_Driver/Inc/stm32g4xx_ll_rcc.h ****   * License. You may obtain a copy of the License at:
  15:Drivers/STM32G4xx_HAL_Driver/Inc/stm32g4xx_ll_rcc.h ****   *                        opensource.org/licenses/BSD-3-Clause
  16:Drivers/STM32G4xx_HAL_Driver/Inc/stm32g4xx_ll_rcc.h ****   *
  17:Drivers/STM32G4xx_HAL_Driver/Inc/stm32g4xx_ll_rcc.h ****   ******************************************************************************
  18:Drivers/STM32G4xx_HAL_Driver/Inc/stm32g4xx_ll_rcc.h ****   */
  19:Drivers/STM32G4xx_HAL_Driver/Inc/stm32g4xx_ll_rcc.h **** 
  20:Drivers/STM32G4xx_HAL_Driver/Inc/stm32g4xx_ll_rcc.h **** /* Define to prevent recursive inclusion -------------------------------------*/
  21:Drivers/STM32G4xx_HAL_Driver/Inc/stm32g4xx_ll_rcc.h **** #ifndef STM32G4xx_LL_RCC_H
  22:Drivers/STM32G4xx_HAL_Driver/Inc/stm32g4xx_ll_rcc.h **** #define STM32G4xx_LL_RCC_H
  23:Drivers/STM32G4xx_HAL_Driver/Inc/stm32g4xx_ll_rcc.h **** 
ARM GAS  D:\apps\VSCode\data\tmp\ccGycOlE.s 			page 15


  24:Drivers/STM32G4xx_HAL_Driver/Inc/stm32g4xx_ll_rcc.h **** #ifdef __cplusplus
  25:Drivers/STM32G4xx_HAL_Driver/Inc/stm32g4xx_ll_rcc.h **** extern "C" {
  26:Drivers/STM32G4xx_HAL_Driver/Inc/stm32g4xx_ll_rcc.h **** #endif
  27:Drivers/STM32G4xx_HAL_Driver/Inc/stm32g4xx_ll_rcc.h **** 
  28:Drivers/STM32G4xx_HAL_Driver/Inc/stm32g4xx_ll_rcc.h **** /* Includes ------------------------------------------------------------------*/
  29:Drivers/STM32G4xx_HAL_Driver/Inc/stm32g4xx_ll_rcc.h **** #include "stm32g4xx.h"
  30:Drivers/STM32G4xx_HAL_Driver/Inc/stm32g4xx_ll_rcc.h **** 
  31:Drivers/STM32G4xx_HAL_Driver/Inc/stm32g4xx_ll_rcc.h **** /** @addtogroup STM32G4xx_LL_Driver
  32:Drivers/STM32G4xx_HAL_Driver/Inc/stm32g4xx_ll_rcc.h ****   * @{
  33:Drivers/STM32G4xx_HAL_Driver/Inc/stm32g4xx_ll_rcc.h ****   */
  34:Drivers/STM32G4xx_HAL_Driver/Inc/stm32g4xx_ll_rcc.h **** 
  35:Drivers/STM32G4xx_HAL_Driver/Inc/stm32g4xx_ll_rcc.h **** /** @defgroup RCC_LL RCC
  36:Drivers/STM32G4xx_HAL_Driver/Inc/stm32g4xx_ll_rcc.h ****   * @{
  37:Drivers/STM32G4xx_HAL_Driver/Inc/stm32g4xx_ll_rcc.h ****   */
  38:Drivers/STM32G4xx_HAL_Driver/Inc/stm32g4xx_ll_rcc.h **** 
  39:Drivers/STM32G4xx_HAL_Driver/Inc/stm32g4xx_ll_rcc.h **** /* Private types -------------------------------------------------------------*/
  40:Drivers/STM32G4xx_HAL_Driver/Inc/stm32g4xx_ll_rcc.h **** /* Private variables ---------------------------------------------------------*/
  41:Drivers/STM32G4xx_HAL_Driver/Inc/stm32g4xx_ll_rcc.h **** /** @defgroup RCC_LL_Private_Variables RCC Private Variables
  42:Drivers/STM32G4xx_HAL_Driver/Inc/stm32g4xx_ll_rcc.h ****   * @{
  43:Drivers/STM32G4xx_HAL_Driver/Inc/stm32g4xx_ll_rcc.h ****   */
  44:Drivers/STM32G4xx_HAL_Driver/Inc/stm32g4xx_ll_rcc.h **** 
  45:Drivers/STM32G4xx_HAL_Driver/Inc/stm32g4xx_ll_rcc.h **** /**
  46:Drivers/STM32G4xx_HAL_Driver/Inc/stm32g4xx_ll_rcc.h ****   * @}
  47:Drivers/STM32G4xx_HAL_Driver/Inc/stm32g4xx_ll_rcc.h ****   */
  48:Drivers/STM32G4xx_HAL_Driver/Inc/stm32g4xx_ll_rcc.h **** 
  49:Drivers/STM32G4xx_HAL_Driver/Inc/stm32g4xx_ll_rcc.h **** /* Private constants ---------------------------------------------------------*/
  50:Drivers/STM32G4xx_HAL_Driver/Inc/stm32g4xx_ll_rcc.h **** /** @defgroup RCC_LL_Private_Constants RCC Private Constants
  51:Drivers/STM32G4xx_HAL_Driver/Inc/stm32g4xx_ll_rcc.h ****   * @{
  52:Drivers/STM32G4xx_HAL_Driver/Inc/stm32g4xx_ll_rcc.h ****   */
  53:Drivers/STM32G4xx_HAL_Driver/Inc/stm32g4xx_ll_rcc.h **** /* Defines used to perform offsets*/
  54:Drivers/STM32G4xx_HAL_Driver/Inc/stm32g4xx_ll_rcc.h **** /* Offset used to access to RCC_CCIPR and RCC_CCIPR2 registers */
  55:Drivers/STM32G4xx_HAL_Driver/Inc/stm32g4xx_ll_rcc.h **** #define RCC_OFFSET_CCIPR        0U
  56:Drivers/STM32G4xx_HAL_Driver/Inc/stm32g4xx_ll_rcc.h **** #define RCC_OFFSET_CCIPR2       0x14U
  57:Drivers/STM32G4xx_HAL_Driver/Inc/stm32g4xx_ll_rcc.h **** 
  58:Drivers/STM32G4xx_HAL_Driver/Inc/stm32g4xx_ll_rcc.h **** /**
  59:Drivers/STM32G4xx_HAL_Driver/Inc/stm32g4xx_ll_rcc.h ****   * @}
  60:Drivers/STM32G4xx_HAL_Driver/Inc/stm32g4xx_ll_rcc.h ****   */
  61:Drivers/STM32G4xx_HAL_Driver/Inc/stm32g4xx_ll_rcc.h **** 
  62:Drivers/STM32G4xx_HAL_Driver/Inc/stm32g4xx_ll_rcc.h **** /* Private macros ------------------------------------------------------------*/
  63:Drivers/STM32G4xx_HAL_Driver/Inc/stm32g4xx_ll_rcc.h **** #if defined(USE_FULL_LL_DRIVER)
  64:Drivers/STM32G4xx_HAL_Driver/Inc/stm32g4xx_ll_rcc.h **** /** @defgroup RCC_LL_Private_Macros RCC Private Macros
  65:Drivers/STM32G4xx_HAL_Driver/Inc/stm32g4xx_ll_rcc.h ****   * @{
  66:Drivers/STM32G4xx_HAL_Driver/Inc/stm32g4xx_ll_rcc.h ****   */
  67:Drivers/STM32G4xx_HAL_Driver/Inc/stm32g4xx_ll_rcc.h **** /**
  68:Drivers/STM32G4xx_HAL_Driver/Inc/stm32g4xx_ll_rcc.h ****   * @}
  69:Drivers/STM32G4xx_HAL_Driver/Inc/stm32g4xx_ll_rcc.h ****   */
  70:Drivers/STM32G4xx_HAL_Driver/Inc/stm32g4xx_ll_rcc.h **** #endif /*USE_FULL_LL_DRIVER*/
  71:Drivers/STM32G4xx_HAL_Driver/Inc/stm32g4xx_ll_rcc.h **** 
  72:Drivers/STM32G4xx_HAL_Driver/Inc/stm32g4xx_ll_rcc.h **** /* Exported types ------------------------------------------------------------*/
  73:Drivers/STM32G4xx_HAL_Driver/Inc/stm32g4xx_ll_rcc.h **** #if defined(USE_FULL_LL_DRIVER)
  74:Drivers/STM32G4xx_HAL_Driver/Inc/stm32g4xx_ll_rcc.h **** /** @defgroup RCC_LL_Exported_Types RCC Exported Types
  75:Drivers/STM32G4xx_HAL_Driver/Inc/stm32g4xx_ll_rcc.h ****   * @{
  76:Drivers/STM32G4xx_HAL_Driver/Inc/stm32g4xx_ll_rcc.h ****   */
  77:Drivers/STM32G4xx_HAL_Driver/Inc/stm32g4xx_ll_rcc.h **** 
  78:Drivers/STM32G4xx_HAL_Driver/Inc/stm32g4xx_ll_rcc.h **** /** @defgroup LL_ES_CLOCK_FREQ Clocks Frequency Structure
  79:Drivers/STM32G4xx_HAL_Driver/Inc/stm32g4xx_ll_rcc.h ****   * @{
  80:Drivers/STM32G4xx_HAL_Driver/Inc/stm32g4xx_ll_rcc.h ****   */
ARM GAS  D:\apps\VSCode\data\tmp\ccGycOlE.s 			page 16


  81:Drivers/STM32G4xx_HAL_Driver/Inc/stm32g4xx_ll_rcc.h **** 
  82:Drivers/STM32G4xx_HAL_Driver/Inc/stm32g4xx_ll_rcc.h **** /**
  83:Drivers/STM32G4xx_HAL_Driver/Inc/stm32g4xx_ll_rcc.h ****   * @brief  RCC Clocks Frequency Structure
  84:Drivers/STM32G4xx_HAL_Driver/Inc/stm32g4xx_ll_rcc.h ****   */
  85:Drivers/STM32G4xx_HAL_Driver/Inc/stm32g4xx_ll_rcc.h **** typedef struct
  86:Drivers/STM32G4xx_HAL_Driver/Inc/stm32g4xx_ll_rcc.h **** {
  87:Drivers/STM32G4xx_HAL_Driver/Inc/stm32g4xx_ll_rcc.h ****   uint32_t SYSCLK_Frequency;        /*!< SYSCLK clock frequency */
  88:Drivers/STM32G4xx_HAL_Driver/Inc/stm32g4xx_ll_rcc.h ****   uint32_t HCLK_Frequency;          /*!< HCLK clock frequency */
  89:Drivers/STM32G4xx_HAL_Driver/Inc/stm32g4xx_ll_rcc.h ****   uint32_t PCLK1_Frequency;         /*!< PCLK1 clock frequency */
  90:Drivers/STM32G4xx_HAL_Driver/Inc/stm32g4xx_ll_rcc.h ****   uint32_t PCLK2_Frequency;         /*!< PCLK2 clock frequency */
  91:Drivers/STM32G4xx_HAL_Driver/Inc/stm32g4xx_ll_rcc.h **** } LL_RCC_ClocksTypeDef;
  92:Drivers/STM32G4xx_HAL_Driver/Inc/stm32g4xx_ll_rcc.h **** 
  93:Drivers/STM32G4xx_HAL_Driver/Inc/stm32g4xx_ll_rcc.h **** /**
  94:Drivers/STM32G4xx_HAL_Driver/Inc/stm32g4xx_ll_rcc.h ****   * @}
  95:Drivers/STM32G4xx_HAL_Driver/Inc/stm32g4xx_ll_rcc.h ****   */
  96:Drivers/STM32G4xx_HAL_Driver/Inc/stm32g4xx_ll_rcc.h **** 
  97:Drivers/STM32G4xx_HAL_Driver/Inc/stm32g4xx_ll_rcc.h **** /**
  98:Drivers/STM32G4xx_HAL_Driver/Inc/stm32g4xx_ll_rcc.h ****   * @}
  99:Drivers/STM32G4xx_HAL_Driver/Inc/stm32g4xx_ll_rcc.h ****   */
 100:Drivers/STM32G4xx_HAL_Driver/Inc/stm32g4xx_ll_rcc.h **** #endif /* USE_FULL_LL_DRIVER */
 101:Drivers/STM32G4xx_HAL_Driver/Inc/stm32g4xx_ll_rcc.h **** 
 102:Drivers/STM32G4xx_HAL_Driver/Inc/stm32g4xx_ll_rcc.h **** /* Exported constants --------------------------------------------------------*/
 103:Drivers/STM32G4xx_HAL_Driver/Inc/stm32g4xx_ll_rcc.h **** /** @defgroup RCC_LL_Exported_Constants RCC Exported Constants
 104:Drivers/STM32G4xx_HAL_Driver/Inc/stm32g4xx_ll_rcc.h ****   * @{
 105:Drivers/STM32G4xx_HAL_Driver/Inc/stm32g4xx_ll_rcc.h ****   */
 106:Drivers/STM32G4xx_HAL_Driver/Inc/stm32g4xx_ll_rcc.h **** 
 107:Drivers/STM32G4xx_HAL_Driver/Inc/stm32g4xx_ll_rcc.h **** /** @defgroup RCC_LL_EC_OSC_VALUES Oscillator Values adaptation
 108:Drivers/STM32G4xx_HAL_Driver/Inc/stm32g4xx_ll_rcc.h ****   * @brief    Defines used to adapt values of different oscillators
 109:Drivers/STM32G4xx_HAL_Driver/Inc/stm32g4xx_ll_rcc.h ****   * @note     These values could be modified in the user environment according to
 110:Drivers/STM32G4xx_HAL_Driver/Inc/stm32g4xx_ll_rcc.h ****   *           HW set-up.
 111:Drivers/STM32G4xx_HAL_Driver/Inc/stm32g4xx_ll_rcc.h ****   * @{
 112:Drivers/STM32G4xx_HAL_Driver/Inc/stm32g4xx_ll_rcc.h ****   */
 113:Drivers/STM32G4xx_HAL_Driver/Inc/stm32g4xx_ll_rcc.h **** #if !defined  (HSE_VALUE)
 114:Drivers/STM32G4xx_HAL_Driver/Inc/stm32g4xx_ll_rcc.h **** #define HSE_VALUE    10000000U   /*!< Value of the HSE oscillator in Hz */
 115:Drivers/STM32G4xx_HAL_Driver/Inc/stm32g4xx_ll_rcc.h **** #endif /* HSE_VALUE */
 116:Drivers/STM32G4xx_HAL_Driver/Inc/stm32g4xx_ll_rcc.h **** 
 117:Drivers/STM32G4xx_HAL_Driver/Inc/stm32g4xx_ll_rcc.h **** #if !defined  (HSI_VALUE)
 118:Drivers/STM32G4xx_HAL_Driver/Inc/stm32g4xx_ll_rcc.h **** #define HSI_VALUE    16000000U  /*!< Value of the HSI oscillator in Hz */
 119:Drivers/STM32G4xx_HAL_Driver/Inc/stm32g4xx_ll_rcc.h **** #endif /* HSI_VALUE */
 120:Drivers/STM32G4xx_HAL_Driver/Inc/stm32g4xx_ll_rcc.h **** 
 121:Drivers/STM32G4xx_HAL_Driver/Inc/stm32g4xx_ll_rcc.h **** #if !defined  (LSE_VALUE)
 122:Drivers/STM32G4xx_HAL_Driver/Inc/stm32g4xx_ll_rcc.h **** #define LSE_VALUE    32768U     /*!< Value of the LSE oscillator in Hz */
 123:Drivers/STM32G4xx_HAL_Driver/Inc/stm32g4xx_ll_rcc.h **** #endif /* LSE_VALUE */
 124:Drivers/STM32G4xx_HAL_Driver/Inc/stm32g4xx_ll_rcc.h **** 
 125:Drivers/STM32G4xx_HAL_Driver/Inc/stm32g4xx_ll_rcc.h **** #if !defined  (LSI_VALUE)
 126:Drivers/STM32G4xx_HAL_Driver/Inc/stm32g4xx_ll_rcc.h **** #define LSI_VALUE    32000U     /*!< Value of the LSI oscillator in Hz */
 127:Drivers/STM32G4xx_HAL_Driver/Inc/stm32g4xx_ll_rcc.h **** #endif /* LSI_VALUE */
 128:Drivers/STM32G4xx_HAL_Driver/Inc/stm32g4xx_ll_rcc.h **** 
 129:Drivers/STM32G4xx_HAL_Driver/Inc/stm32g4xx_ll_rcc.h **** #if !defined  (HSI48_VALUE)
 130:Drivers/STM32G4xx_HAL_Driver/Inc/stm32g4xx_ll_rcc.h **** #define HSI48_VALUE  48000000U  /*!< Value of the HSI48 oscillator in Hz */
 131:Drivers/STM32G4xx_HAL_Driver/Inc/stm32g4xx_ll_rcc.h **** #endif /* HSI48_VALUE */
 132:Drivers/STM32G4xx_HAL_Driver/Inc/stm32g4xx_ll_rcc.h **** 
 133:Drivers/STM32G4xx_HAL_Driver/Inc/stm32g4xx_ll_rcc.h **** #if !defined  (EXTERNAL_CLOCK_VALUE)
 134:Drivers/STM32G4xx_HAL_Driver/Inc/stm32g4xx_ll_rcc.h **** #define EXTERNAL_CLOCK_VALUE    48000U     /*!< Value of the I2S_CKIN, I2S and SAI1 external clock 
 135:Drivers/STM32G4xx_HAL_Driver/Inc/stm32g4xx_ll_rcc.h **** #endif /* EXTERNAL_CLOCK_VALUE */
 136:Drivers/STM32G4xx_HAL_Driver/Inc/stm32g4xx_ll_rcc.h **** 
 137:Drivers/STM32G4xx_HAL_Driver/Inc/stm32g4xx_ll_rcc.h **** /**
ARM GAS  D:\apps\VSCode\data\tmp\ccGycOlE.s 			page 17


 138:Drivers/STM32G4xx_HAL_Driver/Inc/stm32g4xx_ll_rcc.h ****   * @}
 139:Drivers/STM32G4xx_HAL_Driver/Inc/stm32g4xx_ll_rcc.h ****   */
 140:Drivers/STM32G4xx_HAL_Driver/Inc/stm32g4xx_ll_rcc.h **** 
 141:Drivers/STM32G4xx_HAL_Driver/Inc/stm32g4xx_ll_rcc.h **** /** @defgroup RCC_LL_EC_CLEAR_FLAG Clear Flags Defines
 142:Drivers/STM32G4xx_HAL_Driver/Inc/stm32g4xx_ll_rcc.h ****   * @brief    Flags defines which can be used with LL_RCC_WriteReg function
 143:Drivers/STM32G4xx_HAL_Driver/Inc/stm32g4xx_ll_rcc.h ****   * @{
 144:Drivers/STM32G4xx_HAL_Driver/Inc/stm32g4xx_ll_rcc.h ****   */
 145:Drivers/STM32G4xx_HAL_Driver/Inc/stm32g4xx_ll_rcc.h **** #define LL_RCC_CICR_LSIRDYC                RCC_CICR_LSIRDYC     /*!< LSI Ready Interrupt Clear */
 146:Drivers/STM32G4xx_HAL_Driver/Inc/stm32g4xx_ll_rcc.h **** #define LL_RCC_CICR_LSERDYC                RCC_CICR_LSERDYC     /*!< LSE Ready Interrupt Clear */
 147:Drivers/STM32G4xx_HAL_Driver/Inc/stm32g4xx_ll_rcc.h **** #define LL_RCC_CICR_HSIRDYC                RCC_CICR_HSIRDYC     /*!< HSI Ready Interrupt Clear */
 148:Drivers/STM32G4xx_HAL_Driver/Inc/stm32g4xx_ll_rcc.h **** #define LL_RCC_CICR_HSERDYC                RCC_CICR_HSERDYC     /*!< HSE Ready Interrupt Clear */
 149:Drivers/STM32G4xx_HAL_Driver/Inc/stm32g4xx_ll_rcc.h **** #define LL_RCC_CICR_PLLRDYC                RCC_CICR_PLLRDYC     /*!< PLL Ready Interrupt Clear */
 150:Drivers/STM32G4xx_HAL_Driver/Inc/stm32g4xx_ll_rcc.h **** #define LL_RCC_CICR_HSI48RDYC              RCC_CICR_HSI48RDYC   /*!< HSI48 Ready Interrupt Clear */
 151:Drivers/STM32G4xx_HAL_Driver/Inc/stm32g4xx_ll_rcc.h **** #define LL_RCC_CICR_LSECSSC                RCC_CICR_LSECSSC     /*!< LSE Clock Security System Inte
 152:Drivers/STM32G4xx_HAL_Driver/Inc/stm32g4xx_ll_rcc.h **** #define LL_RCC_CICR_CSSC                   RCC_CICR_CSSC        /*!< Clock Security System Interrup
 153:Drivers/STM32G4xx_HAL_Driver/Inc/stm32g4xx_ll_rcc.h **** /**
 154:Drivers/STM32G4xx_HAL_Driver/Inc/stm32g4xx_ll_rcc.h ****   * @}
 155:Drivers/STM32G4xx_HAL_Driver/Inc/stm32g4xx_ll_rcc.h ****   */
 156:Drivers/STM32G4xx_HAL_Driver/Inc/stm32g4xx_ll_rcc.h **** 
 157:Drivers/STM32G4xx_HAL_Driver/Inc/stm32g4xx_ll_rcc.h **** /** @defgroup RCC_LL_EC_GET_FLAG Get Flags Defines
 158:Drivers/STM32G4xx_HAL_Driver/Inc/stm32g4xx_ll_rcc.h ****   * @brief    Flags defines which can be used with LL_RCC_ReadReg function
 159:Drivers/STM32G4xx_HAL_Driver/Inc/stm32g4xx_ll_rcc.h ****   * @{
 160:Drivers/STM32G4xx_HAL_Driver/Inc/stm32g4xx_ll_rcc.h ****   */
 161:Drivers/STM32G4xx_HAL_Driver/Inc/stm32g4xx_ll_rcc.h **** #define LL_RCC_CIFR_LSIRDYF                RCC_CIFR_LSIRDYF     /*!< LSI Ready Interrupt flag */
 162:Drivers/STM32G4xx_HAL_Driver/Inc/stm32g4xx_ll_rcc.h **** #define LL_RCC_CIFR_LSERDYF                RCC_CIFR_LSERDYF     /*!< LSE Ready Interrupt flag */
 163:Drivers/STM32G4xx_HAL_Driver/Inc/stm32g4xx_ll_rcc.h **** #define LL_RCC_CIFR_HSIRDYF                RCC_CIFR_HSIRDYF     /*!< HSI Ready Interrupt flag */
 164:Drivers/STM32G4xx_HAL_Driver/Inc/stm32g4xx_ll_rcc.h **** #define LL_RCC_CIFR_HSERDYF                RCC_CIFR_HSERDYF     /*!< HSE Ready Interrupt flag */
 165:Drivers/STM32G4xx_HAL_Driver/Inc/stm32g4xx_ll_rcc.h **** #define LL_RCC_CIFR_PLLRDYF                RCC_CIFR_PLLRDYF     /*!< PLL Ready Interrupt flag */
 166:Drivers/STM32G4xx_HAL_Driver/Inc/stm32g4xx_ll_rcc.h **** #define LL_RCC_CIFR_HSI48RDYF              RCC_CIFR_HSI48RDYF   /*!< HSI48 Ready Interrupt flag */
 167:Drivers/STM32G4xx_HAL_Driver/Inc/stm32g4xx_ll_rcc.h **** #define LL_RCC_CIFR_LSECSSF                RCC_CIFR_LSECSSF     /*!< LSE Clock Security System Inte
 168:Drivers/STM32G4xx_HAL_Driver/Inc/stm32g4xx_ll_rcc.h **** #define LL_RCC_CIFR_CSSF                   RCC_CIFR_CSSF        /*!< Clock Security System Interrup
 169:Drivers/STM32G4xx_HAL_Driver/Inc/stm32g4xx_ll_rcc.h **** #define LL_RCC_CSR_LPWRRSTF                RCC_CSR_LPWRRSTF   /*!< Low-Power reset flag */
 170:Drivers/STM32G4xx_HAL_Driver/Inc/stm32g4xx_ll_rcc.h **** #define LL_RCC_CSR_OBLRSTF                 RCC_CSR_OBLRSTF    /*!< OBL reset flag */
 171:Drivers/STM32G4xx_HAL_Driver/Inc/stm32g4xx_ll_rcc.h **** #define LL_RCC_CSR_PINRSTF                 RCC_CSR_PINRSTF    /*!< PIN reset flag */
 172:Drivers/STM32G4xx_HAL_Driver/Inc/stm32g4xx_ll_rcc.h **** #define LL_RCC_CSR_SFTRSTF                 RCC_CSR_SFTRSTF    /*!< Software Reset flag */
 173:Drivers/STM32G4xx_HAL_Driver/Inc/stm32g4xx_ll_rcc.h **** #define LL_RCC_CSR_IWDGRSTF                RCC_CSR_IWDGRSTF   /*!< Independent Watchdog reset flag 
 174:Drivers/STM32G4xx_HAL_Driver/Inc/stm32g4xx_ll_rcc.h **** #define LL_RCC_CSR_WWDGRSTF                RCC_CSR_WWDGRSTF   /*!< Window watchdog reset flag */
 175:Drivers/STM32G4xx_HAL_Driver/Inc/stm32g4xx_ll_rcc.h **** #define LL_RCC_CSR_BORRSTF                 RCC_CSR_BORRSTF    /*!< BOR reset flag */
 176:Drivers/STM32G4xx_HAL_Driver/Inc/stm32g4xx_ll_rcc.h **** /**
 177:Drivers/STM32G4xx_HAL_Driver/Inc/stm32g4xx_ll_rcc.h ****   * @}
 178:Drivers/STM32G4xx_HAL_Driver/Inc/stm32g4xx_ll_rcc.h ****   */
 179:Drivers/STM32G4xx_HAL_Driver/Inc/stm32g4xx_ll_rcc.h **** 
 180:Drivers/STM32G4xx_HAL_Driver/Inc/stm32g4xx_ll_rcc.h **** /** @defgroup RCC_LL_EC_IT IT Defines
 181:Drivers/STM32G4xx_HAL_Driver/Inc/stm32g4xx_ll_rcc.h ****   * @brief    IT defines which can be used with LL_RCC_ReadReg and  LL_RCC_WriteReg functions
 182:Drivers/STM32G4xx_HAL_Driver/Inc/stm32g4xx_ll_rcc.h ****   * @{
 183:Drivers/STM32G4xx_HAL_Driver/Inc/stm32g4xx_ll_rcc.h ****   */
 184:Drivers/STM32G4xx_HAL_Driver/Inc/stm32g4xx_ll_rcc.h **** #define LL_RCC_CIER_LSIRDYIE               RCC_CIER_LSIRDYIE      /*!< LSI Ready Interrupt Enable *
 185:Drivers/STM32G4xx_HAL_Driver/Inc/stm32g4xx_ll_rcc.h **** #define LL_RCC_CIER_LSERDYIE               RCC_CIER_LSERDYIE      /*!< LSE Ready Interrupt Enable *
 186:Drivers/STM32G4xx_HAL_Driver/Inc/stm32g4xx_ll_rcc.h **** #define LL_RCC_CIER_HSIRDYIE               RCC_CIER_HSIRDYIE      /*!< HSI Ready Interrupt Enable *
 187:Drivers/STM32G4xx_HAL_Driver/Inc/stm32g4xx_ll_rcc.h **** #define LL_RCC_CIER_HSERDYIE               RCC_CIER_HSERDYIE      /*!< HSE Ready Interrupt Enable *
 188:Drivers/STM32G4xx_HAL_Driver/Inc/stm32g4xx_ll_rcc.h **** #define LL_RCC_CIER_PLLRDYIE               RCC_CIER_PLLRDYIE      /*!< PLL Ready Interrupt Enable *
 189:Drivers/STM32G4xx_HAL_Driver/Inc/stm32g4xx_ll_rcc.h **** #define LL_RCC_CIER_HSI48RDYIE             RCC_CIER_HSI48RDYIE    /*!< HSI48 Ready Interrupt Enable
 190:Drivers/STM32G4xx_HAL_Driver/Inc/stm32g4xx_ll_rcc.h **** #define LL_RCC_CIER_LSECSSIE               RCC_CIER_LSECSSIE      /*!< LSE CSS Interrupt Enable */
 191:Drivers/STM32G4xx_HAL_Driver/Inc/stm32g4xx_ll_rcc.h **** /**
 192:Drivers/STM32G4xx_HAL_Driver/Inc/stm32g4xx_ll_rcc.h ****   * @}
 193:Drivers/STM32G4xx_HAL_Driver/Inc/stm32g4xx_ll_rcc.h ****   */
 194:Drivers/STM32G4xx_HAL_Driver/Inc/stm32g4xx_ll_rcc.h **** 
ARM GAS  D:\apps\VSCode\data\tmp\ccGycOlE.s 			page 18


 195:Drivers/STM32G4xx_HAL_Driver/Inc/stm32g4xx_ll_rcc.h **** /** @defgroup RCC_LL_EC_LSEDRIVE  LSE oscillator drive capability
 196:Drivers/STM32G4xx_HAL_Driver/Inc/stm32g4xx_ll_rcc.h ****   * @{
 197:Drivers/STM32G4xx_HAL_Driver/Inc/stm32g4xx_ll_rcc.h ****   */
 198:Drivers/STM32G4xx_HAL_Driver/Inc/stm32g4xx_ll_rcc.h **** #define LL_RCC_LSEDRIVE_LOW                0x00000000U             /*!< Xtal mode lower driving cap
 199:Drivers/STM32G4xx_HAL_Driver/Inc/stm32g4xx_ll_rcc.h **** #define LL_RCC_LSEDRIVE_MEDIUMLOW          RCC_BDCR_LSEDRV_0       /*!< Xtal mode medium low drivin
 200:Drivers/STM32G4xx_HAL_Driver/Inc/stm32g4xx_ll_rcc.h **** #define LL_RCC_LSEDRIVE_MEDIUMHIGH         RCC_BDCR_LSEDRV_1       /*!< Xtal mode medium high drivi
 201:Drivers/STM32G4xx_HAL_Driver/Inc/stm32g4xx_ll_rcc.h **** #define LL_RCC_LSEDRIVE_HIGH               RCC_BDCR_LSEDRV         /*!< Xtal mode higher driving ca
 202:Drivers/STM32G4xx_HAL_Driver/Inc/stm32g4xx_ll_rcc.h **** /**
 203:Drivers/STM32G4xx_HAL_Driver/Inc/stm32g4xx_ll_rcc.h ****   * @}
 204:Drivers/STM32G4xx_HAL_Driver/Inc/stm32g4xx_ll_rcc.h ****   */
 205:Drivers/STM32G4xx_HAL_Driver/Inc/stm32g4xx_ll_rcc.h **** 
 206:Drivers/STM32G4xx_HAL_Driver/Inc/stm32g4xx_ll_rcc.h **** /** @defgroup RCC_LL_EC_LSCO_CLKSOURCE  LSCO Selection
 207:Drivers/STM32G4xx_HAL_Driver/Inc/stm32g4xx_ll_rcc.h ****   * @{
 208:Drivers/STM32G4xx_HAL_Driver/Inc/stm32g4xx_ll_rcc.h ****   */
 209:Drivers/STM32G4xx_HAL_Driver/Inc/stm32g4xx_ll_rcc.h **** #define LL_RCC_LSCO_CLKSOURCE_LSI          0x00000000U                 /*!< LSI selection for low s
 210:Drivers/STM32G4xx_HAL_Driver/Inc/stm32g4xx_ll_rcc.h **** #define LL_RCC_LSCO_CLKSOURCE_LSE          RCC_BDCR_LSCOSEL            /*!< LSE selection for low s
 211:Drivers/STM32G4xx_HAL_Driver/Inc/stm32g4xx_ll_rcc.h **** /**
 212:Drivers/STM32G4xx_HAL_Driver/Inc/stm32g4xx_ll_rcc.h ****   * @}
 213:Drivers/STM32G4xx_HAL_Driver/Inc/stm32g4xx_ll_rcc.h ****   */
 214:Drivers/STM32G4xx_HAL_Driver/Inc/stm32g4xx_ll_rcc.h **** 
 215:Drivers/STM32G4xx_HAL_Driver/Inc/stm32g4xx_ll_rcc.h **** /** @defgroup RCC_LL_EC_SYS_CLKSOURCE  System clock switch
 216:Drivers/STM32G4xx_HAL_Driver/Inc/stm32g4xx_ll_rcc.h ****   * @{
 217:Drivers/STM32G4xx_HAL_Driver/Inc/stm32g4xx_ll_rcc.h ****   */
 218:Drivers/STM32G4xx_HAL_Driver/Inc/stm32g4xx_ll_rcc.h **** #define LL_RCC_SYS_CLKSOURCE_HSI           RCC_CFGR_SW_HSI    /*!< HSI selection as system clock */
 219:Drivers/STM32G4xx_HAL_Driver/Inc/stm32g4xx_ll_rcc.h **** #define LL_RCC_SYS_CLKSOURCE_HSE           RCC_CFGR_SW_HSE    /*!< HSE selection as system clock */
 220:Drivers/STM32G4xx_HAL_Driver/Inc/stm32g4xx_ll_rcc.h **** #define LL_RCC_SYS_CLKSOURCE_PLL           RCC_CFGR_SW_PLL    /*!< PLL selection as system clock */
 221:Drivers/STM32G4xx_HAL_Driver/Inc/stm32g4xx_ll_rcc.h **** /**
 222:Drivers/STM32G4xx_HAL_Driver/Inc/stm32g4xx_ll_rcc.h ****   * @}
 223:Drivers/STM32G4xx_HAL_Driver/Inc/stm32g4xx_ll_rcc.h ****   */
 224:Drivers/STM32G4xx_HAL_Driver/Inc/stm32g4xx_ll_rcc.h **** 
 225:Drivers/STM32G4xx_HAL_Driver/Inc/stm32g4xx_ll_rcc.h **** /** @defgroup RCC_LL_EC_SYS_CLKSOURCE_STATUS  System clock switch status
 226:Drivers/STM32G4xx_HAL_Driver/Inc/stm32g4xx_ll_rcc.h ****   * @{
 227:Drivers/STM32G4xx_HAL_Driver/Inc/stm32g4xx_ll_rcc.h ****   */
 228:Drivers/STM32G4xx_HAL_Driver/Inc/stm32g4xx_ll_rcc.h **** #define LL_RCC_SYS_CLKSOURCE_STATUS_HSI    RCC_CFGR_SWS_HSI   /*!< HSI used as system clock */
 229:Drivers/STM32G4xx_HAL_Driver/Inc/stm32g4xx_ll_rcc.h **** #define LL_RCC_SYS_CLKSOURCE_STATUS_HSE    RCC_CFGR_SWS_HSE   /*!< HSE used as system clock */
 230:Drivers/STM32G4xx_HAL_Driver/Inc/stm32g4xx_ll_rcc.h **** #define LL_RCC_SYS_CLKSOURCE_STATUS_PLL    RCC_CFGR_SWS_PLL   /*!< PLL used as system clock */
 231:Drivers/STM32G4xx_HAL_Driver/Inc/stm32g4xx_ll_rcc.h **** /**
 232:Drivers/STM32G4xx_HAL_Driver/Inc/stm32g4xx_ll_rcc.h ****   * @}
 233:Drivers/STM32G4xx_HAL_Driver/Inc/stm32g4xx_ll_rcc.h ****   */
 234:Drivers/STM32G4xx_HAL_Driver/Inc/stm32g4xx_ll_rcc.h **** 
 235:Drivers/STM32G4xx_HAL_Driver/Inc/stm32g4xx_ll_rcc.h **** /** @defgroup RCC_LL_EC_SYSCLK_DIV  AHB prescaler
 236:Drivers/STM32G4xx_HAL_Driver/Inc/stm32g4xx_ll_rcc.h ****   * @{
 237:Drivers/STM32G4xx_HAL_Driver/Inc/stm32g4xx_ll_rcc.h ****   */
 238:Drivers/STM32G4xx_HAL_Driver/Inc/stm32g4xx_ll_rcc.h **** #define LL_RCC_SYSCLK_DIV_1                RCC_CFGR_HPRE_DIV1   /*!< SYSCLK not divided */
 239:Drivers/STM32G4xx_HAL_Driver/Inc/stm32g4xx_ll_rcc.h **** #define LL_RCC_SYSCLK_DIV_2                RCC_CFGR_HPRE_DIV2   /*!< SYSCLK divided by 2 */
 240:Drivers/STM32G4xx_HAL_Driver/Inc/stm32g4xx_ll_rcc.h **** #define LL_RCC_SYSCLK_DIV_4                RCC_CFGR_HPRE_DIV4   /*!< SYSCLK divided by 4 */
 241:Drivers/STM32G4xx_HAL_Driver/Inc/stm32g4xx_ll_rcc.h **** #define LL_RCC_SYSCLK_DIV_8                RCC_CFGR_HPRE_DIV8   /*!< SYSCLK divided by 8 */
 242:Drivers/STM32G4xx_HAL_Driver/Inc/stm32g4xx_ll_rcc.h **** #define LL_RCC_SYSCLK_DIV_16               RCC_CFGR_HPRE_DIV16  /*!< SYSCLK divided by 16 */
 243:Drivers/STM32G4xx_HAL_Driver/Inc/stm32g4xx_ll_rcc.h **** #define LL_RCC_SYSCLK_DIV_64               RCC_CFGR_HPRE_DIV64  /*!< SYSCLK divided by 64 */
 244:Drivers/STM32G4xx_HAL_Driver/Inc/stm32g4xx_ll_rcc.h **** #define LL_RCC_SYSCLK_DIV_128              RCC_CFGR_HPRE_DIV128 /*!< SYSCLK divided by 128 */
 245:Drivers/STM32G4xx_HAL_Driver/Inc/stm32g4xx_ll_rcc.h **** #define LL_RCC_SYSCLK_DIV_256              RCC_CFGR_HPRE_DIV256 /*!< SYSCLK divided by 256 */
 246:Drivers/STM32G4xx_HAL_Driver/Inc/stm32g4xx_ll_rcc.h **** #define LL_RCC_SYSCLK_DIV_512              RCC_CFGR_HPRE_DIV512 /*!< SYSCLK divided by 512 */
 247:Drivers/STM32G4xx_HAL_Driver/Inc/stm32g4xx_ll_rcc.h **** /**
 248:Drivers/STM32G4xx_HAL_Driver/Inc/stm32g4xx_ll_rcc.h ****   * @}
 249:Drivers/STM32G4xx_HAL_Driver/Inc/stm32g4xx_ll_rcc.h ****   */
 250:Drivers/STM32G4xx_HAL_Driver/Inc/stm32g4xx_ll_rcc.h **** 
 251:Drivers/STM32G4xx_HAL_Driver/Inc/stm32g4xx_ll_rcc.h **** /** @defgroup RCC_LL_EC_APB1_DIV  APB low-speed prescaler (APB1)
ARM GAS  D:\apps\VSCode\data\tmp\ccGycOlE.s 			page 19


 252:Drivers/STM32G4xx_HAL_Driver/Inc/stm32g4xx_ll_rcc.h ****   * @{
 253:Drivers/STM32G4xx_HAL_Driver/Inc/stm32g4xx_ll_rcc.h ****   */
 254:Drivers/STM32G4xx_HAL_Driver/Inc/stm32g4xx_ll_rcc.h **** #define LL_RCC_APB1_DIV_1                  RCC_CFGR_PPRE1_DIV1  /*!< HCLK not divided */
 255:Drivers/STM32G4xx_HAL_Driver/Inc/stm32g4xx_ll_rcc.h **** #define LL_RCC_APB1_DIV_2                  RCC_CFGR_PPRE1_DIV2  /*!< HCLK divided by 2 */
 256:Drivers/STM32G4xx_HAL_Driver/Inc/stm32g4xx_ll_rcc.h **** #define LL_RCC_APB1_DIV_4                  RCC_CFGR_PPRE1_DIV4  /*!< HCLK divided by 4 */
 257:Drivers/STM32G4xx_HAL_Driver/Inc/stm32g4xx_ll_rcc.h **** #define LL_RCC_APB1_DIV_8                  RCC_CFGR_PPRE1_DIV8  /*!< HCLK divided by 8 */
 258:Drivers/STM32G4xx_HAL_Driver/Inc/stm32g4xx_ll_rcc.h **** #define LL_RCC_APB1_DIV_16                 RCC_CFGR_PPRE1_DIV16 /*!< HCLK divided by 16 */
 259:Drivers/STM32G4xx_HAL_Driver/Inc/stm32g4xx_ll_rcc.h **** /**
 260:Drivers/STM32G4xx_HAL_Driver/Inc/stm32g4xx_ll_rcc.h ****   * @}
 261:Drivers/STM32G4xx_HAL_Driver/Inc/stm32g4xx_ll_rcc.h ****   */
 262:Drivers/STM32G4xx_HAL_Driver/Inc/stm32g4xx_ll_rcc.h **** 
 263:Drivers/STM32G4xx_HAL_Driver/Inc/stm32g4xx_ll_rcc.h **** /** @defgroup RCC_LL_EC_APB2_DIV  APB high-speed prescaler (APB2)
 264:Drivers/STM32G4xx_HAL_Driver/Inc/stm32g4xx_ll_rcc.h ****   * @{
 265:Drivers/STM32G4xx_HAL_Driver/Inc/stm32g4xx_ll_rcc.h ****   */
 266:Drivers/STM32G4xx_HAL_Driver/Inc/stm32g4xx_ll_rcc.h **** #define LL_RCC_APB2_DIV_1                  RCC_CFGR_PPRE2_DIV1  /*!< HCLK not divided */
 267:Drivers/STM32G4xx_HAL_Driver/Inc/stm32g4xx_ll_rcc.h **** #define LL_RCC_APB2_DIV_2                  RCC_CFGR_PPRE2_DIV2  /*!< HCLK divided by 2 */
 268:Drivers/STM32G4xx_HAL_Driver/Inc/stm32g4xx_ll_rcc.h **** #define LL_RCC_APB2_DIV_4                  RCC_CFGR_PPRE2_DIV4  /*!< HCLK divided by 4 */
 269:Drivers/STM32G4xx_HAL_Driver/Inc/stm32g4xx_ll_rcc.h **** #define LL_RCC_APB2_DIV_8                  RCC_CFGR_PPRE2_DIV8  /*!< HCLK divided by 8 */
 270:Drivers/STM32G4xx_HAL_Driver/Inc/stm32g4xx_ll_rcc.h **** #define LL_RCC_APB2_DIV_16                 RCC_CFGR_PPRE2_DIV16 /*!< HCLK divided by 16 */
 271:Drivers/STM32G4xx_HAL_Driver/Inc/stm32g4xx_ll_rcc.h **** /**
 272:Drivers/STM32G4xx_HAL_Driver/Inc/stm32g4xx_ll_rcc.h ****   * @}
 273:Drivers/STM32G4xx_HAL_Driver/Inc/stm32g4xx_ll_rcc.h ****   */
 274:Drivers/STM32G4xx_HAL_Driver/Inc/stm32g4xx_ll_rcc.h **** 
 275:Drivers/STM32G4xx_HAL_Driver/Inc/stm32g4xx_ll_rcc.h **** /** @defgroup RCC_LL_EC_MCO1SOURCE  MCO1 SOURCE selection
 276:Drivers/STM32G4xx_HAL_Driver/Inc/stm32g4xx_ll_rcc.h ****   * @{
 277:Drivers/STM32G4xx_HAL_Driver/Inc/stm32g4xx_ll_rcc.h ****   */
 278:Drivers/STM32G4xx_HAL_Driver/Inc/stm32g4xx_ll_rcc.h **** #define LL_RCC_MCO1SOURCE_NOCLOCK          0x00000000U                            /*!< MCO output d
 279:Drivers/STM32G4xx_HAL_Driver/Inc/stm32g4xx_ll_rcc.h **** #define LL_RCC_MCO1SOURCE_SYSCLK           RCC_CFGR_MCOSEL_0                      /*!< SYSCLK selec
 280:Drivers/STM32G4xx_HAL_Driver/Inc/stm32g4xx_ll_rcc.h **** #define LL_RCC_MCO1SOURCE_HSI              (RCC_CFGR_MCOSEL_0| RCC_CFGR_MCOSEL_1) /*!< HSI16 select
 281:Drivers/STM32G4xx_HAL_Driver/Inc/stm32g4xx_ll_rcc.h **** #define LL_RCC_MCO1SOURCE_HSE              RCC_CFGR_MCOSEL_2                      /*!< HSE selectio
 282:Drivers/STM32G4xx_HAL_Driver/Inc/stm32g4xx_ll_rcc.h **** #define LL_RCC_MCO1SOURCE_PLLCLK           (RCC_CFGR_MCOSEL_0|RCC_CFGR_MCOSEL_2)  /*!< Main PLL sel
 283:Drivers/STM32G4xx_HAL_Driver/Inc/stm32g4xx_ll_rcc.h **** #define LL_RCC_MCO1SOURCE_LSI              (RCC_CFGR_MCOSEL_1|RCC_CFGR_MCOSEL_2)  /*!< LSI selectio
 284:Drivers/STM32G4xx_HAL_Driver/Inc/stm32g4xx_ll_rcc.h **** #define LL_RCC_MCO1SOURCE_LSE              (RCC_CFGR_MCOSEL_0|RCC_CFGR_MCOSEL_1|RCC_CFGR_MCOSEL_2) 
 285:Drivers/STM32G4xx_HAL_Driver/Inc/stm32g4xx_ll_rcc.h **** #define LL_RCC_MCO1SOURCE_HSI48            RCC_CFGR_MCOSEL_3                      /*!< HSI48 select
 286:Drivers/STM32G4xx_HAL_Driver/Inc/stm32g4xx_ll_rcc.h **** /**
 287:Drivers/STM32G4xx_HAL_Driver/Inc/stm32g4xx_ll_rcc.h ****   * @}
 288:Drivers/STM32G4xx_HAL_Driver/Inc/stm32g4xx_ll_rcc.h ****   */
 289:Drivers/STM32G4xx_HAL_Driver/Inc/stm32g4xx_ll_rcc.h **** 
 290:Drivers/STM32G4xx_HAL_Driver/Inc/stm32g4xx_ll_rcc.h **** /** @defgroup RCC_LL_EC_MCO1_DIV  MCO1 prescaler
 291:Drivers/STM32G4xx_HAL_Driver/Inc/stm32g4xx_ll_rcc.h ****   * @{
 292:Drivers/STM32G4xx_HAL_Driver/Inc/stm32g4xx_ll_rcc.h ****   */
 293:Drivers/STM32G4xx_HAL_Driver/Inc/stm32g4xx_ll_rcc.h **** #define LL_RCC_MCO1_DIV_1                  RCC_CFGR_MCOPRE_DIV1       /*!< MCO not divided */
 294:Drivers/STM32G4xx_HAL_Driver/Inc/stm32g4xx_ll_rcc.h **** #define LL_RCC_MCO1_DIV_2                  RCC_CFGR_MCOPRE_DIV2       /*!< MCO divided by 2 */
 295:Drivers/STM32G4xx_HAL_Driver/Inc/stm32g4xx_ll_rcc.h **** #define LL_RCC_MCO1_DIV_4                  RCC_CFGR_MCOPRE_DIV4       /*!< MCO divided by 4 */
 296:Drivers/STM32G4xx_HAL_Driver/Inc/stm32g4xx_ll_rcc.h **** #define LL_RCC_MCO1_DIV_8                  RCC_CFGR_MCOPRE_DIV8       /*!< MCO divided by 8 */
 297:Drivers/STM32G4xx_HAL_Driver/Inc/stm32g4xx_ll_rcc.h **** #define LL_RCC_MCO1_DIV_16                 RCC_CFGR_MCOPRE_DIV16      /*!< MCO divided by 16 */
 298:Drivers/STM32G4xx_HAL_Driver/Inc/stm32g4xx_ll_rcc.h **** /**
 299:Drivers/STM32G4xx_HAL_Driver/Inc/stm32g4xx_ll_rcc.h ****   * @}
 300:Drivers/STM32G4xx_HAL_Driver/Inc/stm32g4xx_ll_rcc.h ****   */
 301:Drivers/STM32G4xx_HAL_Driver/Inc/stm32g4xx_ll_rcc.h **** 
 302:Drivers/STM32G4xx_HAL_Driver/Inc/stm32g4xx_ll_rcc.h **** #if defined(USE_FULL_LL_DRIVER)
 303:Drivers/STM32G4xx_HAL_Driver/Inc/stm32g4xx_ll_rcc.h **** /** @defgroup RCC_LL_EC_PERIPH_FREQUENCY Peripheral clock frequency
 304:Drivers/STM32G4xx_HAL_Driver/Inc/stm32g4xx_ll_rcc.h ****   * @{
 305:Drivers/STM32G4xx_HAL_Driver/Inc/stm32g4xx_ll_rcc.h ****   */
 306:Drivers/STM32G4xx_HAL_Driver/Inc/stm32g4xx_ll_rcc.h **** #define LL_RCC_PERIPH_FREQUENCY_NO         0x00000000U                 /*!< No clock enabled for th
 307:Drivers/STM32G4xx_HAL_Driver/Inc/stm32g4xx_ll_rcc.h **** #define LL_RCC_PERIPH_FREQUENCY_NA         0xFFFFFFFFU                 /*!< Frequency cannot be pro
 308:Drivers/STM32G4xx_HAL_Driver/Inc/stm32g4xx_ll_rcc.h **** /**
ARM GAS  D:\apps\VSCode\data\tmp\ccGycOlE.s 			page 20


 309:Drivers/STM32G4xx_HAL_Driver/Inc/stm32g4xx_ll_rcc.h ****   * @}
 310:Drivers/STM32G4xx_HAL_Driver/Inc/stm32g4xx_ll_rcc.h ****   */
 311:Drivers/STM32G4xx_HAL_Driver/Inc/stm32g4xx_ll_rcc.h **** #endif /* USE_FULL_LL_DRIVER */
 312:Drivers/STM32G4xx_HAL_Driver/Inc/stm32g4xx_ll_rcc.h **** 
 313:Drivers/STM32G4xx_HAL_Driver/Inc/stm32g4xx_ll_rcc.h **** /** @defgroup RCC_LL_EC_USARTx_CLKSOURCE  Peripheral USART clock source selection
 314:Drivers/STM32G4xx_HAL_Driver/Inc/stm32g4xx_ll_rcc.h ****   * @{
 315:Drivers/STM32G4xx_HAL_Driver/Inc/stm32g4xx_ll_rcc.h ****   */
 316:Drivers/STM32G4xx_HAL_Driver/Inc/stm32g4xx_ll_rcc.h **** #define LL_RCC_USART1_CLKSOURCE_PCLK2      (RCC_CCIPR_USART1SEL << 16U)                           /
 317:Drivers/STM32G4xx_HAL_Driver/Inc/stm32g4xx_ll_rcc.h **** #define LL_RCC_USART1_CLKSOURCE_SYSCLK     ((RCC_CCIPR_USART1SEL << 16U) | RCC_CCIPR_USART1SEL_0) /
 318:Drivers/STM32G4xx_HAL_Driver/Inc/stm32g4xx_ll_rcc.h **** #define LL_RCC_USART1_CLKSOURCE_HSI        ((RCC_CCIPR_USART1SEL << 16U) | RCC_CCIPR_USART1SEL_1) /
 319:Drivers/STM32G4xx_HAL_Driver/Inc/stm32g4xx_ll_rcc.h **** #define LL_RCC_USART1_CLKSOURCE_LSE        ((RCC_CCIPR_USART1SEL << 16U) | RCC_CCIPR_USART1SEL)   /
 320:Drivers/STM32G4xx_HAL_Driver/Inc/stm32g4xx_ll_rcc.h **** #define LL_RCC_USART2_CLKSOURCE_PCLK1      (RCC_CCIPR_USART2SEL << 16U)                           /
 321:Drivers/STM32G4xx_HAL_Driver/Inc/stm32g4xx_ll_rcc.h **** #define LL_RCC_USART2_CLKSOURCE_SYSCLK     ((RCC_CCIPR_USART2SEL << 16U) | RCC_CCIPR_USART2SEL_0) /
 322:Drivers/STM32G4xx_HAL_Driver/Inc/stm32g4xx_ll_rcc.h **** #define LL_RCC_USART2_CLKSOURCE_HSI        ((RCC_CCIPR_USART2SEL << 16U) | RCC_CCIPR_USART2SEL_1) /
 323:Drivers/STM32G4xx_HAL_Driver/Inc/stm32g4xx_ll_rcc.h **** #define LL_RCC_USART2_CLKSOURCE_LSE        ((RCC_CCIPR_USART2SEL << 16U) | RCC_CCIPR_USART2SEL)   /
 324:Drivers/STM32G4xx_HAL_Driver/Inc/stm32g4xx_ll_rcc.h **** #define LL_RCC_USART3_CLKSOURCE_PCLK1      (RCC_CCIPR_USART3SEL << 16U)                           /
 325:Drivers/STM32G4xx_HAL_Driver/Inc/stm32g4xx_ll_rcc.h **** #define LL_RCC_USART3_CLKSOURCE_SYSCLK     ((RCC_CCIPR_USART3SEL << 16U) | RCC_CCIPR_USART3SEL_0) /
 326:Drivers/STM32G4xx_HAL_Driver/Inc/stm32g4xx_ll_rcc.h **** #define LL_RCC_USART3_CLKSOURCE_HSI        ((RCC_CCIPR_USART3SEL << 16U) | RCC_CCIPR_USART3SEL_1) /
 327:Drivers/STM32G4xx_HAL_Driver/Inc/stm32g4xx_ll_rcc.h **** #define LL_RCC_USART3_CLKSOURCE_LSE        ((RCC_CCIPR_USART3SEL << 16U) | RCC_CCIPR_USART3SEL)   /
 328:Drivers/STM32G4xx_HAL_Driver/Inc/stm32g4xx_ll_rcc.h **** /**
 329:Drivers/STM32G4xx_HAL_Driver/Inc/stm32g4xx_ll_rcc.h ****   * @}
 330:Drivers/STM32G4xx_HAL_Driver/Inc/stm32g4xx_ll_rcc.h ****   */
 331:Drivers/STM32G4xx_HAL_Driver/Inc/stm32g4xx_ll_rcc.h **** 
 332:Drivers/STM32G4xx_HAL_Driver/Inc/stm32g4xx_ll_rcc.h **** /** @defgroup RCC_LL_EC_UARTx_CLKSOURCE  Peripheral UART clock source selection
 333:Drivers/STM32G4xx_HAL_Driver/Inc/stm32g4xx_ll_rcc.h ****   * @{
 334:Drivers/STM32G4xx_HAL_Driver/Inc/stm32g4xx_ll_rcc.h ****   */
 335:Drivers/STM32G4xx_HAL_Driver/Inc/stm32g4xx_ll_rcc.h **** #if defined(RCC_CCIPR_UART4SEL)
 336:Drivers/STM32G4xx_HAL_Driver/Inc/stm32g4xx_ll_rcc.h **** #define LL_RCC_UART4_CLKSOURCE_PCLK1       (RCC_CCIPR_UART4SEL << 16U)                           /*
 337:Drivers/STM32G4xx_HAL_Driver/Inc/stm32g4xx_ll_rcc.h **** #define LL_RCC_UART4_CLKSOURCE_SYSCLK      ((RCC_CCIPR_UART4SEL << 16U) | RCC_CCIPR_UART4SEL_0)  /*
 338:Drivers/STM32G4xx_HAL_Driver/Inc/stm32g4xx_ll_rcc.h **** #define LL_RCC_UART4_CLKSOURCE_HSI         ((RCC_CCIPR_UART4SEL << 16U) | RCC_CCIPR_UART4SEL_1)  /*
 339:Drivers/STM32G4xx_HAL_Driver/Inc/stm32g4xx_ll_rcc.h **** #define LL_RCC_UART4_CLKSOURCE_LSE         ((RCC_CCIPR_UART4SEL << 16U) | RCC_CCIPR_UART4SEL)    /*
 340:Drivers/STM32G4xx_HAL_Driver/Inc/stm32g4xx_ll_rcc.h **** #endif /* RCC_CCIPR_UART4SEL */
 341:Drivers/STM32G4xx_HAL_Driver/Inc/stm32g4xx_ll_rcc.h **** #if defined(RCC_CCIPR_UART5SEL)
 342:Drivers/STM32G4xx_HAL_Driver/Inc/stm32g4xx_ll_rcc.h **** #define LL_RCC_UART5_CLKSOURCE_PCLK1       (RCC_CCIPR_UART5SEL << 16U)                           /*
 343:Drivers/STM32G4xx_HAL_Driver/Inc/stm32g4xx_ll_rcc.h **** #define LL_RCC_UART5_CLKSOURCE_SYSCLK      ((RCC_CCIPR_UART5SEL << 16U) | RCC_CCIPR_UART5SEL_0)  /*
 344:Drivers/STM32G4xx_HAL_Driver/Inc/stm32g4xx_ll_rcc.h **** #define LL_RCC_UART5_CLKSOURCE_HSI         ((RCC_CCIPR_UART5SEL << 16U) | RCC_CCIPR_UART5SEL_1)  /*
 345:Drivers/STM32G4xx_HAL_Driver/Inc/stm32g4xx_ll_rcc.h **** #define LL_RCC_UART5_CLKSOURCE_LSE         ((RCC_CCIPR_UART5SEL << 16U) | RCC_CCIPR_UART5SEL)    /*
 346:Drivers/STM32G4xx_HAL_Driver/Inc/stm32g4xx_ll_rcc.h **** #endif /* RCC_CCIPR_UART5SEL */
 347:Drivers/STM32G4xx_HAL_Driver/Inc/stm32g4xx_ll_rcc.h **** /**
 348:Drivers/STM32G4xx_HAL_Driver/Inc/stm32g4xx_ll_rcc.h ****   * @}
 349:Drivers/STM32G4xx_HAL_Driver/Inc/stm32g4xx_ll_rcc.h ****   */
 350:Drivers/STM32G4xx_HAL_Driver/Inc/stm32g4xx_ll_rcc.h **** 
 351:Drivers/STM32G4xx_HAL_Driver/Inc/stm32g4xx_ll_rcc.h **** /** @defgroup RCC_LL_EC_LPUART1_CLKSOURCE  Peripheral LPUART clock source selection
 352:Drivers/STM32G4xx_HAL_Driver/Inc/stm32g4xx_ll_rcc.h ****   * @{
 353:Drivers/STM32G4xx_HAL_Driver/Inc/stm32g4xx_ll_rcc.h ****   */
 354:Drivers/STM32G4xx_HAL_Driver/Inc/stm32g4xx_ll_rcc.h **** #define LL_RCC_LPUART1_CLKSOURCE_PCLK1     0x00000000U                     /*!< PCLK1 clock used as
 355:Drivers/STM32G4xx_HAL_Driver/Inc/stm32g4xx_ll_rcc.h **** #define LL_RCC_LPUART1_CLKSOURCE_SYSCLK    RCC_CCIPR_LPUART1SEL_0          /*!< SYSCLK clock used a
 356:Drivers/STM32G4xx_HAL_Driver/Inc/stm32g4xx_ll_rcc.h **** #define LL_RCC_LPUART1_CLKSOURCE_HSI       RCC_CCIPR_LPUART1SEL_1          /*!< HSI clock used as L
 357:Drivers/STM32G4xx_HAL_Driver/Inc/stm32g4xx_ll_rcc.h **** #define LL_RCC_LPUART1_CLKSOURCE_LSE       RCC_CCIPR_LPUART1SEL            /*!< LSE clock used as L
 358:Drivers/STM32G4xx_HAL_Driver/Inc/stm32g4xx_ll_rcc.h **** /**
 359:Drivers/STM32G4xx_HAL_Driver/Inc/stm32g4xx_ll_rcc.h ****   * @}
 360:Drivers/STM32G4xx_HAL_Driver/Inc/stm32g4xx_ll_rcc.h ****   */
 361:Drivers/STM32G4xx_HAL_Driver/Inc/stm32g4xx_ll_rcc.h **** 
 362:Drivers/STM32G4xx_HAL_Driver/Inc/stm32g4xx_ll_rcc.h **** /** @defgroup RCC_LL_EC_I2Cx_CLKSOURCE  Peripheral I2C clock source selection
 363:Drivers/STM32G4xx_HAL_Driver/Inc/stm32g4xx_ll_rcc.h ****   * @{
 364:Drivers/STM32G4xx_HAL_Driver/Inc/stm32g4xx_ll_rcc.h ****   */
 365:Drivers/STM32G4xx_HAL_Driver/Inc/stm32g4xx_ll_rcc.h **** #define LL_RCC_I2C1_CLKSOURCE_PCLK1        ((RCC_OFFSET_CCIPR << 24U) | (RCC_CCIPR_I2C1SEL_Pos << 1
ARM GAS  D:\apps\VSCode\data\tmp\ccGycOlE.s 			page 21


 366:Drivers/STM32G4xx_HAL_Driver/Inc/stm32g4xx_ll_rcc.h **** #define LL_RCC_I2C1_CLKSOURCE_SYSCLK       ((RCC_OFFSET_CCIPR << 24U) | (RCC_CCIPR_I2C1SEL_Pos << 1
 367:Drivers/STM32G4xx_HAL_Driver/Inc/stm32g4xx_ll_rcc.h **** #define LL_RCC_I2C1_CLKSOURCE_HSI          ((RCC_OFFSET_CCIPR << 24U) | (RCC_CCIPR_I2C1SEL_Pos << 1
 368:Drivers/STM32G4xx_HAL_Driver/Inc/stm32g4xx_ll_rcc.h **** #define LL_RCC_I2C2_CLKSOURCE_PCLK1        ((RCC_OFFSET_CCIPR << 24U) | (RCC_CCIPR_I2C2SEL_Pos << 1
 369:Drivers/STM32G4xx_HAL_Driver/Inc/stm32g4xx_ll_rcc.h **** #define LL_RCC_I2C2_CLKSOURCE_SYSCLK       ((RCC_OFFSET_CCIPR << 24U) | (RCC_CCIPR_I2C2SEL_Pos << 1
 370:Drivers/STM32G4xx_HAL_Driver/Inc/stm32g4xx_ll_rcc.h **** #define LL_RCC_I2C2_CLKSOURCE_HSI          ((RCC_OFFSET_CCIPR << 24U) | (RCC_CCIPR_I2C2SEL_Pos << 1
 371:Drivers/STM32G4xx_HAL_Driver/Inc/stm32g4xx_ll_rcc.h **** #define LL_RCC_I2C3_CLKSOURCE_PCLK1        ((RCC_OFFSET_CCIPR << 24U) | (RCC_CCIPR_I2C3SEL_Pos << 1
 372:Drivers/STM32G4xx_HAL_Driver/Inc/stm32g4xx_ll_rcc.h **** #define LL_RCC_I2C3_CLKSOURCE_SYSCLK       ((RCC_OFFSET_CCIPR << 24U) | (RCC_CCIPR_I2C3SEL_Pos << 1
 373:Drivers/STM32G4xx_HAL_Driver/Inc/stm32g4xx_ll_rcc.h **** #define LL_RCC_I2C3_CLKSOURCE_HSI          ((RCC_OFFSET_CCIPR << 24U) | (RCC_CCIPR_I2C3SEL_Pos << 1
 374:Drivers/STM32G4xx_HAL_Driver/Inc/stm32g4xx_ll_rcc.h **** #if defined(RCC_CCIPR2_I2C4SEL)
 375:Drivers/STM32G4xx_HAL_Driver/Inc/stm32g4xx_ll_rcc.h **** #define LL_RCC_I2C4_CLKSOURCE_PCLK1        ((RCC_OFFSET_CCIPR2 << 24U) | (RCC_CCIPR2_I2C4SEL_Pos <<
 376:Drivers/STM32G4xx_HAL_Driver/Inc/stm32g4xx_ll_rcc.h **** #define LL_RCC_I2C4_CLKSOURCE_SYSCLK       ((RCC_OFFSET_CCIPR2 << 24U) | (RCC_CCIPR2_I2C4SEL_Pos <<
 377:Drivers/STM32G4xx_HAL_Driver/Inc/stm32g4xx_ll_rcc.h **** #define LL_RCC_I2C4_CLKSOURCE_HSI          ((RCC_OFFSET_CCIPR2 << 24U) | (RCC_CCIPR2_I2C4SEL_Pos <<
 378:Drivers/STM32G4xx_HAL_Driver/Inc/stm32g4xx_ll_rcc.h **** #endif /* RCC_CCIPR2_I2C4SEL */
 379:Drivers/STM32G4xx_HAL_Driver/Inc/stm32g4xx_ll_rcc.h **** /**
 380:Drivers/STM32G4xx_HAL_Driver/Inc/stm32g4xx_ll_rcc.h ****   * @}
 381:Drivers/STM32G4xx_HAL_Driver/Inc/stm32g4xx_ll_rcc.h ****   */
 382:Drivers/STM32G4xx_HAL_Driver/Inc/stm32g4xx_ll_rcc.h **** 
 383:Drivers/STM32G4xx_HAL_Driver/Inc/stm32g4xx_ll_rcc.h **** /** @defgroup RCC_LL_EC_LPTIM1_CLKSOURCE  Peripheral LPTIM clock source selection
 384:Drivers/STM32G4xx_HAL_Driver/Inc/stm32g4xx_ll_rcc.h ****   * @{
 385:Drivers/STM32G4xx_HAL_Driver/Inc/stm32g4xx_ll_rcc.h ****   */
 386:Drivers/STM32G4xx_HAL_Driver/Inc/stm32g4xx_ll_rcc.h **** #define LL_RCC_LPTIM1_CLKSOURCE_PCLK1      0x00000000U                                            /
 387:Drivers/STM32G4xx_HAL_Driver/Inc/stm32g4xx_ll_rcc.h **** #define LL_RCC_LPTIM1_CLKSOURCE_LSI        RCC_CCIPR_LPTIM1SEL_0                                  /
 388:Drivers/STM32G4xx_HAL_Driver/Inc/stm32g4xx_ll_rcc.h **** #define LL_RCC_LPTIM1_CLKSOURCE_HSI        RCC_CCIPR_LPTIM1SEL_1                                  /
 389:Drivers/STM32G4xx_HAL_Driver/Inc/stm32g4xx_ll_rcc.h **** #define LL_RCC_LPTIM1_CLKSOURCE_LSE        RCC_CCIPR_LPTIM1SEL                                    /
 390:Drivers/STM32G4xx_HAL_Driver/Inc/stm32g4xx_ll_rcc.h **** /**
 391:Drivers/STM32G4xx_HAL_Driver/Inc/stm32g4xx_ll_rcc.h ****   * @}
 392:Drivers/STM32G4xx_HAL_Driver/Inc/stm32g4xx_ll_rcc.h ****   */
 393:Drivers/STM32G4xx_HAL_Driver/Inc/stm32g4xx_ll_rcc.h **** 
 394:Drivers/STM32G4xx_HAL_Driver/Inc/stm32g4xx_ll_rcc.h **** /** @defgroup RCC_LL_EC_SAI1_CLKSOURCE  Peripheral SAI clock source selection
 395:Drivers/STM32G4xx_HAL_Driver/Inc/stm32g4xx_ll_rcc.h ****   * @{
 396:Drivers/STM32G4xx_HAL_Driver/Inc/stm32g4xx_ll_rcc.h ****   */
 397:Drivers/STM32G4xx_HAL_Driver/Inc/stm32g4xx_ll_rcc.h **** #define LL_RCC_SAI1_CLKSOURCE_SYSCLK       0x00000000U                                           /*
 398:Drivers/STM32G4xx_HAL_Driver/Inc/stm32g4xx_ll_rcc.h **** #define LL_RCC_SAI1_CLKSOURCE_PLL          RCC_CCIPR_SAI1SEL_0                                   /*
 399:Drivers/STM32G4xx_HAL_Driver/Inc/stm32g4xx_ll_rcc.h **** #define LL_RCC_SAI1_CLKSOURCE_PIN          RCC_CCIPR_SAI1SEL_1                                   /*
 400:Drivers/STM32G4xx_HAL_Driver/Inc/stm32g4xx_ll_rcc.h **** #define LL_RCC_SAI1_CLKSOURCE_HSI          (RCC_CCIPR_SAI1SEL_0 | RCC_CCIPR_SAI1SEL_1)           /*
 401:Drivers/STM32G4xx_HAL_Driver/Inc/stm32g4xx_ll_rcc.h **** /**
 402:Drivers/STM32G4xx_HAL_Driver/Inc/stm32g4xx_ll_rcc.h ****   * @}
 403:Drivers/STM32G4xx_HAL_Driver/Inc/stm32g4xx_ll_rcc.h ****   */
 404:Drivers/STM32G4xx_HAL_Driver/Inc/stm32g4xx_ll_rcc.h **** 
 405:Drivers/STM32G4xx_HAL_Driver/Inc/stm32g4xx_ll_rcc.h **** /** @defgroup RCC_LL_EC_I2S_CLKSOURCE  Peripheral I2S clock source selection
 406:Drivers/STM32G4xx_HAL_Driver/Inc/stm32g4xx_ll_rcc.h ****   * @{
 407:Drivers/STM32G4xx_HAL_Driver/Inc/stm32g4xx_ll_rcc.h ****   */
 408:Drivers/STM32G4xx_HAL_Driver/Inc/stm32g4xx_ll_rcc.h **** #define LL_RCC_I2S_CLKSOURCE_SYSCLK       0x00000000U                                          /*!<
 409:Drivers/STM32G4xx_HAL_Driver/Inc/stm32g4xx_ll_rcc.h **** #define LL_RCC_I2S_CLKSOURCE_PLL          RCC_CCIPR_I2S23SEL_0                                 /*!<
 410:Drivers/STM32G4xx_HAL_Driver/Inc/stm32g4xx_ll_rcc.h **** #define LL_RCC_I2S_CLKSOURCE_PIN          RCC_CCIPR_I2S23SEL_1                                 /*!<
 411:Drivers/STM32G4xx_HAL_Driver/Inc/stm32g4xx_ll_rcc.h **** #define LL_RCC_I2S_CLKSOURCE_HSI          (RCC_CCIPR_I2S23SEL_0 | RCC_CCIPR_I2S23SEL_1)        /*!<
 412:Drivers/STM32G4xx_HAL_Driver/Inc/stm32g4xx_ll_rcc.h **** /**
 413:Drivers/STM32G4xx_HAL_Driver/Inc/stm32g4xx_ll_rcc.h ****   * @}
 414:Drivers/STM32G4xx_HAL_Driver/Inc/stm32g4xx_ll_rcc.h ****   */
 415:Drivers/STM32G4xx_HAL_Driver/Inc/stm32g4xx_ll_rcc.h **** 
 416:Drivers/STM32G4xx_HAL_Driver/Inc/stm32g4xx_ll_rcc.h **** #if defined(FDCAN1)
 417:Drivers/STM32G4xx_HAL_Driver/Inc/stm32g4xx_ll_rcc.h **** /** @defgroup RCC_LL_EC_FDCAN_CLKSOURCE  Peripheral FDCAN clock source selection
 418:Drivers/STM32G4xx_HAL_Driver/Inc/stm32g4xx_ll_rcc.h ****   * @{
 419:Drivers/STM32G4xx_HAL_Driver/Inc/stm32g4xx_ll_rcc.h ****   */
 420:Drivers/STM32G4xx_HAL_Driver/Inc/stm32g4xx_ll_rcc.h **** #define LL_RCC_FDCAN_CLKSOURCE_HSE        0x00000000U             /*!< HSE clock used as FDCAN cloc
 421:Drivers/STM32G4xx_HAL_Driver/Inc/stm32g4xx_ll_rcc.h **** #define LL_RCC_FDCAN_CLKSOURCE_PLL        RCC_CCIPR_FDCANSEL_0    /*!< PLL clock used as FDCAN cloc
 422:Drivers/STM32G4xx_HAL_Driver/Inc/stm32g4xx_ll_rcc.h **** #define LL_RCC_FDCAN_CLKSOURCE_PCLK1      RCC_CCIPR_FDCANSEL_1    /*!< PCLK1 clock used as FDCAN cl
ARM GAS  D:\apps\VSCode\data\tmp\ccGycOlE.s 			page 22


 423:Drivers/STM32G4xx_HAL_Driver/Inc/stm32g4xx_ll_rcc.h **** /**
 424:Drivers/STM32G4xx_HAL_Driver/Inc/stm32g4xx_ll_rcc.h ****   * @}
 425:Drivers/STM32G4xx_HAL_Driver/Inc/stm32g4xx_ll_rcc.h ****   */
 426:Drivers/STM32G4xx_HAL_Driver/Inc/stm32g4xx_ll_rcc.h **** #endif /* FDCAN1 */
 427:Drivers/STM32G4xx_HAL_Driver/Inc/stm32g4xx_ll_rcc.h **** 
 428:Drivers/STM32G4xx_HAL_Driver/Inc/stm32g4xx_ll_rcc.h **** /** @defgroup RCC_LL_EC_RNG_CLKSOURCE  Peripheral RNG clock source selection
 429:Drivers/STM32G4xx_HAL_Driver/Inc/stm32g4xx_ll_rcc.h ****   * @{
 430:Drivers/STM32G4xx_HAL_Driver/Inc/stm32g4xx_ll_rcc.h ****   */
 431:Drivers/STM32G4xx_HAL_Driver/Inc/stm32g4xx_ll_rcc.h **** #define LL_RCC_RNG_CLKSOURCE_HSI48        0x00000000U             /*!< HSI48 clock used as RNG cloc
 432:Drivers/STM32G4xx_HAL_Driver/Inc/stm32g4xx_ll_rcc.h **** #define LL_RCC_RNG_CLKSOURCE_PLL          RCC_CCIPR_CLK48SEL_1    /*!< PLL clock used as RNG clock 
 433:Drivers/STM32G4xx_HAL_Driver/Inc/stm32g4xx_ll_rcc.h **** /**
 434:Drivers/STM32G4xx_HAL_Driver/Inc/stm32g4xx_ll_rcc.h ****   * @}
 435:Drivers/STM32G4xx_HAL_Driver/Inc/stm32g4xx_ll_rcc.h ****   */
 436:Drivers/STM32G4xx_HAL_Driver/Inc/stm32g4xx_ll_rcc.h **** 
 437:Drivers/STM32G4xx_HAL_Driver/Inc/stm32g4xx_ll_rcc.h **** /** @defgroup RCC_LL_EC_USB_CLKSOURCE  Peripheral USB clock source selection
 438:Drivers/STM32G4xx_HAL_Driver/Inc/stm32g4xx_ll_rcc.h ****   * @{
 439:Drivers/STM32G4xx_HAL_Driver/Inc/stm32g4xx_ll_rcc.h ****   */
 440:Drivers/STM32G4xx_HAL_Driver/Inc/stm32g4xx_ll_rcc.h **** #define LL_RCC_USB_CLKSOURCE_HSI48        0x00000000U             /*!< HSI48 clock used as USB cloc
 441:Drivers/STM32G4xx_HAL_Driver/Inc/stm32g4xx_ll_rcc.h **** #define LL_RCC_USB_CLKSOURCE_PLL          RCC_CCIPR_CLK48SEL_1    /*!< PLL clock used as USB clock 
 442:Drivers/STM32G4xx_HAL_Driver/Inc/stm32g4xx_ll_rcc.h **** /**
 443:Drivers/STM32G4xx_HAL_Driver/Inc/stm32g4xx_ll_rcc.h ****   * @}
 444:Drivers/STM32G4xx_HAL_Driver/Inc/stm32g4xx_ll_rcc.h ****   */
 445:Drivers/STM32G4xx_HAL_Driver/Inc/stm32g4xx_ll_rcc.h **** 
 446:Drivers/STM32G4xx_HAL_Driver/Inc/stm32g4xx_ll_rcc.h **** /** @defgroup RCC_LL_EC_ADC_CLKSOURCE  Peripheral ADC clock source selection
 447:Drivers/STM32G4xx_HAL_Driver/Inc/stm32g4xx_ll_rcc.h ****   * @{
 448:Drivers/STM32G4xx_HAL_Driver/Inc/stm32g4xx_ll_rcc.h ****   */
 449:Drivers/STM32G4xx_HAL_Driver/Inc/stm32g4xx_ll_rcc.h **** #define LL_RCC_ADC12_CLKSOURCE_NONE        ((RCC_OFFSET_CCIPR << 24U) | (RCC_CCIPR_ADC12SEL_Pos << 
 450:Drivers/STM32G4xx_HAL_Driver/Inc/stm32g4xx_ll_rcc.h **** #define LL_RCC_ADC12_CLKSOURCE_PLL         ((RCC_OFFSET_CCIPR << 24U) | (RCC_CCIPR_ADC12SEL_Pos << 
 451:Drivers/STM32G4xx_HAL_Driver/Inc/stm32g4xx_ll_rcc.h **** #define LL_RCC_ADC12_CLKSOURCE_SYSCLK      ((RCC_OFFSET_CCIPR << 24U) | (RCC_CCIPR_ADC12SEL_Pos << 
 452:Drivers/STM32G4xx_HAL_Driver/Inc/stm32g4xx_ll_rcc.h **** #if defined(RCC_CCIPR_ADC345SEL)
 453:Drivers/STM32G4xx_HAL_Driver/Inc/stm32g4xx_ll_rcc.h **** #define LL_RCC_ADC345_CLKSOURCE_NONE       ((RCC_OFFSET_CCIPR << 24U) | (RCC_CCIPR_ADC345SEL_Pos <<
 454:Drivers/STM32G4xx_HAL_Driver/Inc/stm32g4xx_ll_rcc.h **** #define LL_RCC_ADC345_CLKSOURCE_PLL        ((RCC_OFFSET_CCIPR << 24U) | (RCC_CCIPR_ADC345SEL_Pos <<
 455:Drivers/STM32G4xx_HAL_Driver/Inc/stm32g4xx_ll_rcc.h **** #define LL_RCC_ADC345_CLKSOURCE_SYSCLK     ((RCC_OFFSET_CCIPR << 24U) | (RCC_CCIPR_ADC345SEL_Pos <<
 456:Drivers/STM32G4xx_HAL_Driver/Inc/stm32g4xx_ll_rcc.h **** #endif /* RCC_CCIPR_ADC345SEL */
 457:Drivers/STM32G4xx_HAL_Driver/Inc/stm32g4xx_ll_rcc.h **** /**
 458:Drivers/STM32G4xx_HAL_Driver/Inc/stm32g4xx_ll_rcc.h ****   * @}
 459:Drivers/STM32G4xx_HAL_Driver/Inc/stm32g4xx_ll_rcc.h ****   */
 460:Drivers/STM32G4xx_HAL_Driver/Inc/stm32g4xx_ll_rcc.h **** 
 461:Drivers/STM32G4xx_HAL_Driver/Inc/stm32g4xx_ll_rcc.h **** /** @defgroup RCC_LL_EC_QUADSPI  Peripheral QUADSPI get clock source
 462:Drivers/STM32G4xx_HAL_Driver/Inc/stm32g4xx_ll_rcc.h ****   * @{
 463:Drivers/STM32G4xx_HAL_Driver/Inc/stm32g4xx_ll_rcc.h ****   */
 464:Drivers/STM32G4xx_HAL_Driver/Inc/stm32g4xx_ll_rcc.h **** #define LL_RCC_QUADSPI_CLKSOURCE_SYSCLK    0x00000000U              /*!< SYSCLK used as QuadSPI clo
 465:Drivers/STM32G4xx_HAL_Driver/Inc/stm32g4xx_ll_rcc.h **** #define LL_RCC_QUADSPI_CLKSOURCE_HSI       RCC_CCIPR2_QSPISEL_0     /*!< HSI used as QuadSPI clock 
 466:Drivers/STM32G4xx_HAL_Driver/Inc/stm32g4xx_ll_rcc.h **** #define LL_RCC_QUADSPI_CLKSOURCE_PLL       RCC_CCIPR2_QSPISEL_1     /*!< PLL used as QuadSPI clock 
 467:Drivers/STM32G4xx_HAL_Driver/Inc/stm32g4xx_ll_rcc.h **** /**
 468:Drivers/STM32G4xx_HAL_Driver/Inc/stm32g4xx_ll_rcc.h ****   * @}
 469:Drivers/STM32G4xx_HAL_Driver/Inc/stm32g4xx_ll_rcc.h ****   */
 470:Drivers/STM32G4xx_HAL_Driver/Inc/stm32g4xx_ll_rcc.h **** 
 471:Drivers/STM32G4xx_HAL_Driver/Inc/stm32g4xx_ll_rcc.h **** 
 472:Drivers/STM32G4xx_HAL_Driver/Inc/stm32g4xx_ll_rcc.h **** /** @defgroup RCC_LL_EC_USARTx Peripheral USART get clock source
 473:Drivers/STM32G4xx_HAL_Driver/Inc/stm32g4xx_ll_rcc.h ****   * @{
 474:Drivers/STM32G4xx_HAL_Driver/Inc/stm32g4xx_ll_rcc.h ****   */
 475:Drivers/STM32G4xx_HAL_Driver/Inc/stm32g4xx_ll_rcc.h **** #define LL_RCC_USART1_CLKSOURCE            RCC_CCIPR_USART1SEL /*!< USART1 Clock source selection *
 476:Drivers/STM32G4xx_HAL_Driver/Inc/stm32g4xx_ll_rcc.h **** #define LL_RCC_USART2_CLKSOURCE            RCC_CCIPR_USART2SEL /*!< USART2 Clock source selection *
 477:Drivers/STM32G4xx_HAL_Driver/Inc/stm32g4xx_ll_rcc.h **** #define LL_RCC_USART3_CLKSOURCE            RCC_CCIPR_USART3SEL /*!< USART3 Clock source selection *
 478:Drivers/STM32G4xx_HAL_Driver/Inc/stm32g4xx_ll_rcc.h **** /**
 479:Drivers/STM32G4xx_HAL_Driver/Inc/stm32g4xx_ll_rcc.h ****   * @}
ARM GAS  D:\apps\VSCode\data\tmp\ccGycOlE.s 			page 23


 480:Drivers/STM32G4xx_HAL_Driver/Inc/stm32g4xx_ll_rcc.h ****   */
 481:Drivers/STM32G4xx_HAL_Driver/Inc/stm32g4xx_ll_rcc.h **** 
 482:Drivers/STM32G4xx_HAL_Driver/Inc/stm32g4xx_ll_rcc.h **** /** @defgroup RCC_LL_EC_UARTx Peripheral UART get clock source
 483:Drivers/STM32G4xx_HAL_Driver/Inc/stm32g4xx_ll_rcc.h ****   * @{
 484:Drivers/STM32G4xx_HAL_Driver/Inc/stm32g4xx_ll_rcc.h ****   */
 485:Drivers/STM32G4xx_HAL_Driver/Inc/stm32g4xx_ll_rcc.h **** #if defined(RCC_CCIPR_UART4SEL)
 486:Drivers/STM32G4xx_HAL_Driver/Inc/stm32g4xx_ll_rcc.h **** #define LL_RCC_UART4_CLKSOURCE             RCC_CCIPR_UART4SEL /*!< UART4 Clock source selection */
 487:Drivers/STM32G4xx_HAL_Driver/Inc/stm32g4xx_ll_rcc.h **** #endif /* RCC_CCIPR_UART4SEL */
 488:Drivers/STM32G4xx_HAL_Driver/Inc/stm32g4xx_ll_rcc.h **** #if defined(RCC_CCIPR_UART5SEL)
 489:Drivers/STM32G4xx_HAL_Driver/Inc/stm32g4xx_ll_rcc.h **** #define LL_RCC_UART5_CLKSOURCE             RCC_CCIPR_UART5SEL /*!< UART5 Clock source selection */
 490:Drivers/STM32G4xx_HAL_Driver/Inc/stm32g4xx_ll_rcc.h **** #endif /* RCC_CCIPR_UART5SEL */
 491:Drivers/STM32G4xx_HAL_Driver/Inc/stm32g4xx_ll_rcc.h **** /**
 492:Drivers/STM32G4xx_HAL_Driver/Inc/stm32g4xx_ll_rcc.h ****   * @}
 493:Drivers/STM32G4xx_HAL_Driver/Inc/stm32g4xx_ll_rcc.h ****   */
 494:Drivers/STM32G4xx_HAL_Driver/Inc/stm32g4xx_ll_rcc.h **** 
 495:Drivers/STM32G4xx_HAL_Driver/Inc/stm32g4xx_ll_rcc.h **** /** @defgroup RCC_LL_EC_LPUART1 Peripheral LPUART get clock source
 496:Drivers/STM32G4xx_HAL_Driver/Inc/stm32g4xx_ll_rcc.h ****   * @{
 497:Drivers/STM32G4xx_HAL_Driver/Inc/stm32g4xx_ll_rcc.h ****   */
 498:Drivers/STM32G4xx_HAL_Driver/Inc/stm32g4xx_ll_rcc.h **** #define LL_RCC_LPUART1_CLKSOURCE           RCC_CCIPR_LPUART1SEL /*!< LPUART1 Clock source selection
 499:Drivers/STM32G4xx_HAL_Driver/Inc/stm32g4xx_ll_rcc.h **** /**
 500:Drivers/STM32G4xx_HAL_Driver/Inc/stm32g4xx_ll_rcc.h ****   * @}
 501:Drivers/STM32G4xx_HAL_Driver/Inc/stm32g4xx_ll_rcc.h ****   */
 502:Drivers/STM32G4xx_HAL_Driver/Inc/stm32g4xx_ll_rcc.h **** 
 503:Drivers/STM32G4xx_HAL_Driver/Inc/stm32g4xx_ll_rcc.h **** /** @defgroup RCC_LL_EC_I2C1 Peripheral I2C get clock source
 504:Drivers/STM32G4xx_HAL_Driver/Inc/stm32g4xx_ll_rcc.h ****   * @{
 505:Drivers/STM32G4xx_HAL_Driver/Inc/stm32g4xx_ll_rcc.h ****   */
 506:Drivers/STM32G4xx_HAL_Driver/Inc/stm32g4xx_ll_rcc.h **** #define LL_RCC_I2C1_CLKSOURCE              ((RCC_OFFSET_CCIPR << 24U) | (RCC_CCIPR_I2C1SEL_Pos << 1
 507:Drivers/STM32G4xx_HAL_Driver/Inc/stm32g4xx_ll_rcc.h **** #define LL_RCC_I2C2_CLKSOURCE              ((RCC_OFFSET_CCIPR << 24U) | (RCC_CCIPR_I2C2SEL_Pos << 1
 508:Drivers/STM32G4xx_HAL_Driver/Inc/stm32g4xx_ll_rcc.h **** #define LL_RCC_I2C3_CLKSOURCE              ((RCC_OFFSET_CCIPR << 24U) | (RCC_CCIPR_I2C3SEL_Pos << 1
 509:Drivers/STM32G4xx_HAL_Driver/Inc/stm32g4xx_ll_rcc.h **** #if defined(RCC_CCIPR2_I2C4SEL)
 510:Drivers/STM32G4xx_HAL_Driver/Inc/stm32g4xx_ll_rcc.h **** #define LL_RCC_I2C4_CLKSOURCE              ((RCC_OFFSET_CCIPR2 << 24U) | (RCC_CCIPR2_I2C4SEL_Pos <<
 511:Drivers/STM32G4xx_HAL_Driver/Inc/stm32g4xx_ll_rcc.h **** #endif /* RCC_CCIPR2_I2C4SEL */
 512:Drivers/STM32G4xx_HAL_Driver/Inc/stm32g4xx_ll_rcc.h **** /**
 513:Drivers/STM32G4xx_HAL_Driver/Inc/stm32g4xx_ll_rcc.h ****   * @}
 514:Drivers/STM32G4xx_HAL_Driver/Inc/stm32g4xx_ll_rcc.h ****   */
 515:Drivers/STM32G4xx_HAL_Driver/Inc/stm32g4xx_ll_rcc.h **** 
 516:Drivers/STM32G4xx_HAL_Driver/Inc/stm32g4xx_ll_rcc.h **** /** @defgroup RCC_LL_EC_LPTIM1 Peripheral LPTIM get clock source
 517:Drivers/STM32G4xx_HAL_Driver/Inc/stm32g4xx_ll_rcc.h ****   * @{
 518:Drivers/STM32G4xx_HAL_Driver/Inc/stm32g4xx_ll_rcc.h ****   */
 519:Drivers/STM32G4xx_HAL_Driver/Inc/stm32g4xx_ll_rcc.h **** #define LL_RCC_LPTIM1_CLKSOURCE            RCC_CCIPR_LPTIM1SEL /*!< LPTIM1 Clock source selection *
 520:Drivers/STM32G4xx_HAL_Driver/Inc/stm32g4xx_ll_rcc.h **** /**
 521:Drivers/STM32G4xx_HAL_Driver/Inc/stm32g4xx_ll_rcc.h ****   * @}
 522:Drivers/STM32G4xx_HAL_Driver/Inc/stm32g4xx_ll_rcc.h ****   */
 523:Drivers/STM32G4xx_HAL_Driver/Inc/stm32g4xx_ll_rcc.h **** 
 524:Drivers/STM32G4xx_HAL_Driver/Inc/stm32g4xx_ll_rcc.h **** /** @defgroup RCC_LL_EC_SAI1  Peripheral SAI get clock source
 525:Drivers/STM32G4xx_HAL_Driver/Inc/stm32g4xx_ll_rcc.h ****   * @{
 526:Drivers/STM32G4xx_HAL_Driver/Inc/stm32g4xx_ll_rcc.h ****   */
 527:Drivers/STM32G4xx_HAL_Driver/Inc/stm32g4xx_ll_rcc.h **** #define LL_RCC_SAI1_CLKSOURCE              RCC_CCIPR_SAI1SEL /*!< SAI1 Clock source selection */
 528:Drivers/STM32G4xx_HAL_Driver/Inc/stm32g4xx_ll_rcc.h **** /**
 529:Drivers/STM32G4xx_HAL_Driver/Inc/stm32g4xx_ll_rcc.h ****   * @}
 530:Drivers/STM32G4xx_HAL_Driver/Inc/stm32g4xx_ll_rcc.h ****   */
 531:Drivers/STM32G4xx_HAL_Driver/Inc/stm32g4xx_ll_rcc.h **** 
 532:Drivers/STM32G4xx_HAL_Driver/Inc/stm32g4xx_ll_rcc.h **** /** @defgroup RCC_LL_EC_I2S  Peripheral I2S get clock source
 533:Drivers/STM32G4xx_HAL_Driver/Inc/stm32g4xx_ll_rcc.h ****   * @{
 534:Drivers/STM32G4xx_HAL_Driver/Inc/stm32g4xx_ll_rcc.h ****   */
 535:Drivers/STM32G4xx_HAL_Driver/Inc/stm32g4xx_ll_rcc.h **** #define LL_RCC_I2S_CLKSOURCE              RCC_CCIPR_I2S23SEL /*!< I2S Clock source selection */
 536:Drivers/STM32G4xx_HAL_Driver/Inc/stm32g4xx_ll_rcc.h **** /**
ARM GAS  D:\apps\VSCode\data\tmp\ccGycOlE.s 			page 24


 537:Drivers/STM32G4xx_HAL_Driver/Inc/stm32g4xx_ll_rcc.h ****   * @}
 538:Drivers/STM32G4xx_HAL_Driver/Inc/stm32g4xx_ll_rcc.h ****   */
 539:Drivers/STM32G4xx_HAL_Driver/Inc/stm32g4xx_ll_rcc.h **** 
 540:Drivers/STM32G4xx_HAL_Driver/Inc/stm32g4xx_ll_rcc.h **** #if defined(FDCAN1)
 541:Drivers/STM32G4xx_HAL_Driver/Inc/stm32g4xx_ll_rcc.h **** /** @defgroup RCC_LL_EC_FDCAN  Peripheral FDCAN get clock source
 542:Drivers/STM32G4xx_HAL_Driver/Inc/stm32g4xx_ll_rcc.h ****   * @{
 543:Drivers/STM32G4xx_HAL_Driver/Inc/stm32g4xx_ll_rcc.h ****   */
 544:Drivers/STM32G4xx_HAL_Driver/Inc/stm32g4xx_ll_rcc.h **** #define LL_RCC_FDCAN_CLKSOURCE             RCC_CCIPR_FDCANSEL /*!< FDCAN Clock source selection */
 545:Drivers/STM32G4xx_HAL_Driver/Inc/stm32g4xx_ll_rcc.h **** #endif /* FDCAN1 */
 546:Drivers/STM32G4xx_HAL_Driver/Inc/stm32g4xx_ll_rcc.h **** 
 547:Drivers/STM32G4xx_HAL_Driver/Inc/stm32g4xx_ll_rcc.h **** /**
 548:Drivers/STM32G4xx_HAL_Driver/Inc/stm32g4xx_ll_rcc.h ****   * @}
 549:Drivers/STM32G4xx_HAL_Driver/Inc/stm32g4xx_ll_rcc.h ****   */
 550:Drivers/STM32G4xx_HAL_Driver/Inc/stm32g4xx_ll_rcc.h **** 
 551:Drivers/STM32G4xx_HAL_Driver/Inc/stm32g4xx_ll_rcc.h **** /** @defgroup RCC_LL_EC_RNG  Peripheral RNG get clock source
 552:Drivers/STM32G4xx_HAL_Driver/Inc/stm32g4xx_ll_rcc.h ****   * @{
 553:Drivers/STM32G4xx_HAL_Driver/Inc/stm32g4xx_ll_rcc.h ****   */
 554:Drivers/STM32G4xx_HAL_Driver/Inc/stm32g4xx_ll_rcc.h **** #define LL_RCC_RNG_CLKSOURCE               RCC_CCIPR_CLK48SEL /*!< RNG Clock source selection */
 555:Drivers/STM32G4xx_HAL_Driver/Inc/stm32g4xx_ll_rcc.h **** /**
 556:Drivers/STM32G4xx_HAL_Driver/Inc/stm32g4xx_ll_rcc.h ****   * @}
 557:Drivers/STM32G4xx_HAL_Driver/Inc/stm32g4xx_ll_rcc.h ****   */
 558:Drivers/STM32G4xx_HAL_Driver/Inc/stm32g4xx_ll_rcc.h **** 
 559:Drivers/STM32G4xx_HAL_Driver/Inc/stm32g4xx_ll_rcc.h **** /** @defgroup RCC_LL_EC_USB  Peripheral USB get clock source
 560:Drivers/STM32G4xx_HAL_Driver/Inc/stm32g4xx_ll_rcc.h ****   * @{
 561:Drivers/STM32G4xx_HAL_Driver/Inc/stm32g4xx_ll_rcc.h ****   */
 562:Drivers/STM32G4xx_HAL_Driver/Inc/stm32g4xx_ll_rcc.h **** #define LL_RCC_USB_CLKSOURCE               RCC_CCIPR_CLK48SEL /*!< USB Clock source selection */
 563:Drivers/STM32G4xx_HAL_Driver/Inc/stm32g4xx_ll_rcc.h **** /**
 564:Drivers/STM32G4xx_HAL_Driver/Inc/stm32g4xx_ll_rcc.h ****   * @}
 565:Drivers/STM32G4xx_HAL_Driver/Inc/stm32g4xx_ll_rcc.h ****   */
 566:Drivers/STM32G4xx_HAL_Driver/Inc/stm32g4xx_ll_rcc.h **** 
 567:Drivers/STM32G4xx_HAL_Driver/Inc/stm32g4xx_ll_rcc.h **** /** @defgroup RCC_LL_EC_ADC  Peripheral ADC get clock source
 568:Drivers/STM32G4xx_HAL_Driver/Inc/stm32g4xx_ll_rcc.h ****   * @{
 569:Drivers/STM32G4xx_HAL_Driver/Inc/stm32g4xx_ll_rcc.h ****   */
 570:Drivers/STM32G4xx_HAL_Driver/Inc/stm32g4xx_ll_rcc.h **** #define LL_RCC_ADC12_CLKSOURCE             ((RCC_OFFSET_CCIPR << 24U) | (RCC_CCIPR_ADC12SEL_Pos << 
 571:Drivers/STM32G4xx_HAL_Driver/Inc/stm32g4xx_ll_rcc.h **** #if defined(RCC_CCIPR_ADC345SEL_Pos)
 572:Drivers/STM32G4xx_HAL_Driver/Inc/stm32g4xx_ll_rcc.h **** #define LL_RCC_ADC345_CLKSOURCE            ((RCC_OFFSET_CCIPR << 24U) | (RCC_CCIPR_ADC345SEL_Pos <<
 573:Drivers/STM32G4xx_HAL_Driver/Inc/stm32g4xx_ll_rcc.h **** #endif /* RCC_CCIPR_ADC345SEL_Pos */
 574:Drivers/STM32G4xx_HAL_Driver/Inc/stm32g4xx_ll_rcc.h **** /**
 575:Drivers/STM32G4xx_HAL_Driver/Inc/stm32g4xx_ll_rcc.h ****   * @}
 576:Drivers/STM32G4xx_HAL_Driver/Inc/stm32g4xx_ll_rcc.h ****   */
 577:Drivers/STM32G4xx_HAL_Driver/Inc/stm32g4xx_ll_rcc.h **** 
 578:Drivers/STM32G4xx_HAL_Driver/Inc/stm32g4xx_ll_rcc.h **** /** @defgroup RCC_LL_EC_QUADSPI  Peripheral QUADSPI get clock source
 579:Drivers/STM32G4xx_HAL_Driver/Inc/stm32g4xx_ll_rcc.h ****   * @{
 580:Drivers/STM32G4xx_HAL_Driver/Inc/stm32g4xx_ll_rcc.h ****   */
 581:Drivers/STM32G4xx_HAL_Driver/Inc/stm32g4xx_ll_rcc.h **** #define LL_RCC_QUADSPI_CLKSOURCE           RCC_CCIPR2_QSPISEL    /*!< QuadSPI Clock source selectio
 582:Drivers/STM32G4xx_HAL_Driver/Inc/stm32g4xx_ll_rcc.h **** /**
 583:Drivers/STM32G4xx_HAL_Driver/Inc/stm32g4xx_ll_rcc.h ****   * @}
 584:Drivers/STM32G4xx_HAL_Driver/Inc/stm32g4xx_ll_rcc.h ****   */
 585:Drivers/STM32G4xx_HAL_Driver/Inc/stm32g4xx_ll_rcc.h **** 
 586:Drivers/STM32G4xx_HAL_Driver/Inc/stm32g4xx_ll_rcc.h **** /** @defgroup RCC_LL_EC_RTC_CLKSOURCE  RTC clock source selection
 587:Drivers/STM32G4xx_HAL_Driver/Inc/stm32g4xx_ll_rcc.h ****   * @{
 588:Drivers/STM32G4xx_HAL_Driver/Inc/stm32g4xx_ll_rcc.h ****   */
 589:Drivers/STM32G4xx_HAL_Driver/Inc/stm32g4xx_ll_rcc.h **** #define LL_RCC_RTC_CLKSOURCE_NONE          0x00000000U                   /*!< No clock used as RTC 
 590:Drivers/STM32G4xx_HAL_Driver/Inc/stm32g4xx_ll_rcc.h **** #define LL_RCC_RTC_CLKSOURCE_LSE           RCC_BDCR_RTCSEL_0       /*!< LSE oscillator clock used a
 591:Drivers/STM32G4xx_HAL_Driver/Inc/stm32g4xx_ll_rcc.h **** #define LL_RCC_RTC_CLKSOURCE_LSI           RCC_BDCR_RTCSEL_1       /*!< LSI oscillator clock used a
 592:Drivers/STM32G4xx_HAL_Driver/Inc/stm32g4xx_ll_rcc.h **** #define LL_RCC_RTC_CLKSOURCE_HSE_DIV32     RCC_BDCR_RTCSEL         /*!< HSE oscillator clock divide
 593:Drivers/STM32G4xx_HAL_Driver/Inc/stm32g4xx_ll_rcc.h **** /**
ARM GAS  D:\apps\VSCode\data\tmp\ccGycOlE.s 			page 25


 594:Drivers/STM32G4xx_HAL_Driver/Inc/stm32g4xx_ll_rcc.h ****   * @}
 595:Drivers/STM32G4xx_HAL_Driver/Inc/stm32g4xx_ll_rcc.h ****   */
 596:Drivers/STM32G4xx_HAL_Driver/Inc/stm32g4xx_ll_rcc.h **** 
 597:Drivers/STM32G4xx_HAL_Driver/Inc/stm32g4xx_ll_rcc.h **** 
 598:Drivers/STM32G4xx_HAL_Driver/Inc/stm32g4xx_ll_rcc.h **** /** @defgroup RCC_LL_EC_PLLSOURCE  PLL entry clock source
 599:Drivers/STM32G4xx_HAL_Driver/Inc/stm32g4xx_ll_rcc.h ****   * @{
 600:Drivers/STM32G4xx_HAL_Driver/Inc/stm32g4xx_ll_rcc.h ****   */
 601:Drivers/STM32G4xx_HAL_Driver/Inc/stm32g4xx_ll_rcc.h **** #define LL_RCC_PLLSOURCE_NONE              0x00000000U             /*!< No clock */
 602:Drivers/STM32G4xx_HAL_Driver/Inc/stm32g4xx_ll_rcc.h **** #define LL_RCC_PLLSOURCE_HSI               RCC_PLLCFGR_PLLSRC_HSI  /*!< HSI16 clock selected as PLL
 603:Drivers/STM32G4xx_HAL_Driver/Inc/stm32g4xx_ll_rcc.h **** #define LL_RCC_PLLSOURCE_HSE               RCC_PLLCFGR_PLLSRC_HSE  /*!< HSE clock selected as PLL e
 604:Drivers/STM32G4xx_HAL_Driver/Inc/stm32g4xx_ll_rcc.h **** /**
 605:Drivers/STM32G4xx_HAL_Driver/Inc/stm32g4xx_ll_rcc.h ****   * @}
 606:Drivers/STM32G4xx_HAL_Driver/Inc/stm32g4xx_ll_rcc.h ****   */
 607:Drivers/STM32G4xx_HAL_Driver/Inc/stm32g4xx_ll_rcc.h **** 
 608:Drivers/STM32G4xx_HAL_Driver/Inc/stm32g4xx_ll_rcc.h **** /** @defgroup RCC_LL_EC_PLLM_DIV  PLL division factor
 609:Drivers/STM32G4xx_HAL_Driver/Inc/stm32g4xx_ll_rcc.h ****   * @{
 610:Drivers/STM32G4xx_HAL_Driver/Inc/stm32g4xx_ll_rcc.h ****   */
 611:Drivers/STM32G4xx_HAL_Driver/Inc/stm32g4xx_ll_rcc.h **** #define LL_RCC_PLLM_DIV_1                  0x00000000U                                             
 612:Drivers/STM32G4xx_HAL_Driver/Inc/stm32g4xx_ll_rcc.h **** #define LL_RCC_PLLM_DIV_2                  RCC_PLLCFGR_PLLM_0                                      
 613:Drivers/STM32G4xx_HAL_Driver/Inc/stm32g4xx_ll_rcc.h **** #define LL_RCC_PLLM_DIV_3                  RCC_PLLCFGR_PLLM_1                                      
 614:Drivers/STM32G4xx_HAL_Driver/Inc/stm32g4xx_ll_rcc.h **** #define LL_RCC_PLLM_DIV_4                  (RCC_PLLCFGR_PLLM_1 | RCC_PLLCFGR_PLLM_0)               
 615:Drivers/STM32G4xx_HAL_Driver/Inc/stm32g4xx_ll_rcc.h **** #define LL_RCC_PLLM_DIV_5                  RCC_PLLCFGR_PLLM_2                                      
 616:Drivers/STM32G4xx_HAL_Driver/Inc/stm32g4xx_ll_rcc.h **** #define LL_RCC_PLLM_DIV_6                  (RCC_PLLCFGR_PLLM_2 | RCC_PLLCFGR_PLLM_0)               
 617:Drivers/STM32G4xx_HAL_Driver/Inc/stm32g4xx_ll_rcc.h **** #define LL_RCC_PLLM_DIV_7                  (RCC_PLLCFGR_PLLM_2 | RCC_PLLCFGR_PLLM_1)               
 618:Drivers/STM32G4xx_HAL_Driver/Inc/stm32g4xx_ll_rcc.h **** #define LL_RCC_PLLM_DIV_8                  (RCC_PLLCFGR_PLLM_2 | RCC_PLLCFGR_PLLM_1 | RCC_PLLCFGR_P
 619:Drivers/STM32G4xx_HAL_Driver/Inc/stm32g4xx_ll_rcc.h **** #define LL_RCC_PLLM_DIV_9                  RCC_PLLCFGR_PLLM_3                                      
 620:Drivers/STM32G4xx_HAL_Driver/Inc/stm32g4xx_ll_rcc.h **** #define LL_RCC_PLLM_DIV_10                 (RCC_PLLCFGR_PLLM_3 | RCC_PLLCFGR_PLLM_0)               
 621:Drivers/STM32G4xx_HAL_Driver/Inc/stm32g4xx_ll_rcc.h **** #define LL_RCC_PLLM_DIV_11                 (RCC_PLLCFGR_PLLM_3 | RCC_PLLCFGR_PLLM_1)               
 622:Drivers/STM32G4xx_HAL_Driver/Inc/stm32g4xx_ll_rcc.h **** #define LL_RCC_PLLM_DIV_12                 (RCC_PLLCFGR_PLLM_3 | RCC_PLLCFGR_PLLM_1 | RCC_PLLCFGR_P
 623:Drivers/STM32G4xx_HAL_Driver/Inc/stm32g4xx_ll_rcc.h **** #define LL_RCC_PLLM_DIV_13                 (RCC_PLLCFGR_PLLM_3 | RCC_PLLCFGR_PLLM_2)               
 624:Drivers/STM32G4xx_HAL_Driver/Inc/stm32g4xx_ll_rcc.h **** #define LL_RCC_PLLM_DIV_14                 (RCC_PLLCFGR_PLLM_3 | RCC_PLLCFGR_PLLM_2 | RCC_PLLCFGR_P
 625:Drivers/STM32G4xx_HAL_Driver/Inc/stm32g4xx_ll_rcc.h **** #define LL_RCC_PLLM_DIV_15                 (RCC_PLLCFGR_PLLM_3 | RCC_PLLCFGR_PLLM_2 | RCC_PLLCFGR_P
 626:Drivers/STM32G4xx_HAL_Driver/Inc/stm32g4xx_ll_rcc.h **** #define LL_RCC_PLLM_DIV_16                 (RCC_PLLCFGR_PLLM_3 | RCC_PLLCFGR_PLLM_2 | RCC_PLLCFGR_P
 627:Drivers/STM32G4xx_HAL_Driver/Inc/stm32g4xx_ll_rcc.h **** /**
 628:Drivers/STM32G4xx_HAL_Driver/Inc/stm32g4xx_ll_rcc.h ****   * @}
 629:Drivers/STM32G4xx_HAL_Driver/Inc/stm32g4xx_ll_rcc.h ****   */
 630:Drivers/STM32G4xx_HAL_Driver/Inc/stm32g4xx_ll_rcc.h **** 
 631:Drivers/STM32G4xx_HAL_Driver/Inc/stm32g4xx_ll_rcc.h **** /** @defgroup RCC_LL_EC_PLLR_DIV  PLL division factor (PLLR)
 632:Drivers/STM32G4xx_HAL_Driver/Inc/stm32g4xx_ll_rcc.h ****   * @{
 633:Drivers/STM32G4xx_HAL_Driver/Inc/stm32g4xx_ll_rcc.h ****   */
 634:Drivers/STM32G4xx_HAL_Driver/Inc/stm32g4xx_ll_rcc.h **** #define LL_RCC_PLLR_DIV_2                  0x00000000U            /*!< Main PLL division factor for
 635:Drivers/STM32G4xx_HAL_Driver/Inc/stm32g4xx_ll_rcc.h **** #define LL_RCC_PLLR_DIV_4                  (RCC_PLLCFGR_PLLR_0)   /*!< Main PLL division factor for
 636:Drivers/STM32G4xx_HAL_Driver/Inc/stm32g4xx_ll_rcc.h **** #define LL_RCC_PLLR_DIV_6                  (RCC_PLLCFGR_PLLR_1)   /*!< Main PLL division factor for
 637:Drivers/STM32G4xx_HAL_Driver/Inc/stm32g4xx_ll_rcc.h **** #define LL_RCC_PLLR_DIV_8                  (RCC_PLLCFGR_PLLR)     /*!< Main PLL division factor for
 638:Drivers/STM32G4xx_HAL_Driver/Inc/stm32g4xx_ll_rcc.h **** /**
 639:Drivers/STM32G4xx_HAL_Driver/Inc/stm32g4xx_ll_rcc.h ****   * @}
 640:Drivers/STM32G4xx_HAL_Driver/Inc/stm32g4xx_ll_rcc.h ****   */
 641:Drivers/STM32G4xx_HAL_Driver/Inc/stm32g4xx_ll_rcc.h **** 
 642:Drivers/STM32G4xx_HAL_Driver/Inc/stm32g4xx_ll_rcc.h **** /** @defgroup RCC_LL_EC_PLLP_DIV  PLL division factor (PLLP)
 643:Drivers/STM32G4xx_HAL_Driver/Inc/stm32g4xx_ll_rcc.h ****   * @{
 644:Drivers/STM32G4xx_HAL_Driver/Inc/stm32g4xx_ll_rcc.h ****   */
 645:Drivers/STM32G4xx_HAL_Driver/Inc/stm32g4xx_ll_rcc.h **** #define LL_RCC_PLLP_DIV_2                  (RCC_PLLCFGR_PLLPDIV_1)                                 
 646:Drivers/STM32G4xx_HAL_Driver/Inc/stm32g4xx_ll_rcc.h **** #define LL_RCC_PLLP_DIV_3                  (RCC_PLLCFGR_PLLPDIV_1|RCC_PLLCFGR_PLLPDIV_0)           
 647:Drivers/STM32G4xx_HAL_Driver/Inc/stm32g4xx_ll_rcc.h **** #define LL_RCC_PLLP_DIV_4                  (RCC_PLLCFGR_PLLPDIV_2)                                 
 648:Drivers/STM32G4xx_HAL_Driver/Inc/stm32g4xx_ll_rcc.h **** #define LL_RCC_PLLP_DIV_5                  (RCC_PLLCFGR_PLLPDIV_2|RCC_PLLCFGR_PLLPDIV_0)           
 649:Drivers/STM32G4xx_HAL_Driver/Inc/stm32g4xx_ll_rcc.h **** #define LL_RCC_PLLP_DIV_6                  (RCC_PLLCFGR_PLLPDIV_2|RCC_PLLCFGR_PLLPDIV_1)           
 650:Drivers/STM32G4xx_HAL_Driver/Inc/stm32g4xx_ll_rcc.h **** #define LL_RCC_PLLP_DIV_7                  (RCC_PLLCFGR_PLLPDIV_2|RCC_PLLCFGR_PLLPDIV_1|RCC_PLLCFGR
ARM GAS  D:\apps\VSCode\data\tmp\ccGycOlE.s 			page 26


 651:Drivers/STM32G4xx_HAL_Driver/Inc/stm32g4xx_ll_rcc.h **** #define LL_RCC_PLLP_DIV_8                  (RCC_PLLCFGR_PLLPDIV_3)                                 
 652:Drivers/STM32G4xx_HAL_Driver/Inc/stm32g4xx_ll_rcc.h **** #define LL_RCC_PLLP_DIV_9                  (RCC_PLLCFGR_PLLPDIV_3|RCC_PLLCFGR_PLLPDIV_0)           
 653:Drivers/STM32G4xx_HAL_Driver/Inc/stm32g4xx_ll_rcc.h **** #define LL_RCC_PLLP_DIV_10                 (RCC_PLLCFGR_PLLPDIV_3|RCC_PLLCFGR_PLLPDIV_1)           
 654:Drivers/STM32G4xx_HAL_Driver/Inc/stm32g4xx_ll_rcc.h **** #define LL_RCC_PLLP_DIV_11                 (RCC_PLLCFGR_PLLPDIV_3|RCC_PLLCFGR_PLLPDIV_1|RCC_PLLCFGR
 655:Drivers/STM32G4xx_HAL_Driver/Inc/stm32g4xx_ll_rcc.h **** #define LL_RCC_PLLP_DIV_12                 (RCC_PLLCFGR_PLLPDIV_3|RCC_PLLCFGR_PLLPDIV_2)           
 656:Drivers/STM32G4xx_HAL_Driver/Inc/stm32g4xx_ll_rcc.h **** #define LL_RCC_PLLP_DIV_13                 (RCC_PLLCFGR_PLLPDIV_3|RCC_PLLCFGR_PLLPDIV_2|RCC_PLLCFGR
 657:Drivers/STM32G4xx_HAL_Driver/Inc/stm32g4xx_ll_rcc.h **** #define LL_RCC_PLLP_DIV_14                 (RCC_PLLCFGR_PLLPDIV_3|RCC_PLLCFGR_PLLPDIV_2|RCC_PLLCFGR
 658:Drivers/STM32G4xx_HAL_Driver/Inc/stm32g4xx_ll_rcc.h **** #define LL_RCC_PLLP_DIV_15                 (RCC_PLLCFGR_PLLPDIV_3|RCC_PLLCFGR_PLLPDIV_2|RCC_PLLCFGR
 659:Drivers/STM32G4xx_HAL_Driver/Inc/stm32g4xx_ll_rcc.h **** #define LL_RCC_PLLP_DIV_16                 (RCC_PLLCFGR_PLLPDIV_4)                                 
 660:Drivers/STM32G4xx_HAL_Driver/Inc/stm32g4xx_ll_rcc.h **** #define LL_RCC_PLLP_DIV_17                 (RCC_PLLCFGR_PLLPDIV_4|RCC_PLLCFGR_PLLPDIV_0)           
 661:Drivers/STM32G4xx_HAL_Driver/Inc/stm32g4xx_ll_rcc.h **** #define LL_RCC_PLLP_DIV_18                 (RCC_PLLCFGR_PLLPDIV_4|RCC_PLLCFGR_PLLPDIV_1)           
 662:Drivers/STM32G4xx_HAL_Driver/Inc/stm32g4xx_ll_rcc.h **** #define LL_RCC_PLLP_DIV_19                 (RCC_PLLCFGR_PLLPDIV_4|RCC_PLLCFGR_PLLPDIV_1|RCC_PLLCFGR
 663:Drivers/STM32G4xx_HAL_Driver/Inc/stm32g4xx_ll_rcc.h **** #define LL_RCC_PLLP_DIV_20                 (RCC_PLLCFGR_PLLPDIV_4|RCC_PLLCFGR_PLLPDIV_2)           
 664:Drivers/STM32G4xx_HAL_Driver/Inc/stm32g4xx_ll_rcc.h **** #define LL_RCC_PLLP_DIV_21                 (RCC_PLLCFGR_PLLPDIV_4|RCC_PLLCFGR_PLLPDIV_2|RCC_PLLCFGR
 665:Drivers/STM32G4xx_HAL_Driver/Inc/stm32g4xx_ll_rcc.h **** #define LL_RCC_PLLP_DIV_22                 (RCC_PLLCFGR_PLLPDIV_4|RCC_PLLCFGR_PLLPDIV_2|RCC_PLLCFGR
 666:Drivers/STM32G4xx_HAL_Driver/Inc/stm32g4xx_ll_rcc.h **** #define LL_RCC_PLLP_DIV_23                 (RCC_PLLCFGR_PLLPDIV_4|RCC_PLLCFGR_PLLPDIV_2|RCC_PLLCFGR
 667:Drivers/STM32G4xx_HAL_Driver/Inc/stm32g4xx_ll_rcc.h **** #define LL_RCC_PLLP_DIV_24                 (RCC_PLLCFGR_PLLPDIV_4|RCC_PLLCFGR_PLLPDIV_3)           
 668:Drivers/STM32G4xx_HAL_Driver/Inc/stm32g4xx_ll_rcc.h **** #define LL_RCC_PLLP_DIV_25                 (RCC_PLLCFGR_PLLPDIV_4|RCC_PLLCFGR_PLLPDIV_3|RCC_PLLCFGR
 669:Drivers/STM32G4xx_HAL_Driver/Inc/stm32g4xx_ll_rcc.h **** #define LL_RCC_PLLP_DIV_26                 (RCC_PLLCFGR_PLLPDIV_4|RCC_PLLCFGR_PLLPDIV_3|RCC_PLLCFGR
 670:Drivers/STM32G4xx_HAL_Driver/Inc/stm32g4xx_ll_rcc.h **** #define LL_RCC_PLLP_DIV_27                 (RCC_PLLCFGR_PLLPDIV_4|RCC_PLLCFGR_PLLPDIV_3|RCC_PLLCFGR
 671:Drivers/STM32G4xx_HAL_Driver/Inc/stm32g4xx_ll_rcc.h **** #define LL_RCC_PLLP_DIV_28                 (RCC_PLLCFGR_PLLPDIV_4|RCC_PLLCFGR_PLLPDIV_3|RCC_PLLCFGR
 672:Drivers/STM32G4xx_HAL_Driver/Inc/stm32g4xx_ll_rcc.h **** #define LL_RCC_PLLP_DIV_29                 (RCC_PLLCFGR_PLLPDIV_4|RCC_PLLCFGR_PLLPDIV_3|RCC_PLLCFGR
 673:Drivers/STM32G4xx_HAL_Driver/Inc/stm32g4xx_ll_rcc.h **** #define LL_RCC_PLLP_DIV_30                 (RCC_PLLCFGR_PLLPDIV_4|RCC_PLLCFGR_PLLPDIV_3|RCC_PLLCFGR
 674:Drivers/STM32G4xx_HAL_Driver/Inc/stm32g4xx_ll_rcc.h **** #define LL_RCC_PLLP_DIV_31                 (RCC_PLLCFGR_PLLPDIV_4|RCC_PLLCFGR_PLLPDIV_3|RCC_PLLCFGR
 675:Drivers/STM32G4xx_HAL_Driver/Inc/stm32g4xx_ll_rcc.h **** /**
 676:Drivers/STM32G4xx_HAL_Driver/Inc/stm32g4xx_ll_rcc.h ****   * @}
 677:Drivers/STM32G4xx_HAL_Driver/Inc/stm32g4xx_ll_rcc.h ****   */
 678:Drivers/STM32G4xx_HAL_Driver/Inc/stm32g4xx_ll_rcc.h **** 
 679:Drivers/STM32G4xx_HAL_Driver/Inc/stm32g4xx_ll_rcc.h **** /** @defgroup RCC_LL_EC_PLLQ_DIV  PLL division factor (PLLQ)
 680:Drivers/STM32G4xx_HAL_Driver/Inc/stm32g4xx_ll_rcc.h ****   * @{
 681:Drivers/STM32G4xx_HAL_Driver/Inc/stm32g4xx_ll_rcc.h ****   */
 682:Drivers/STM32G4xx_HAL_Driver/Inc/stm32g4xx_ll_rcc.h **** #define LL_RCC_PLLQ_DIV_2                  0x00000000U             /*!< Main PLL division factor fo
 683:Drivers/STM32G4xx_HAL_Driver/Inc/stm32g4xx_ll_rcc.h **** #define LL_RCC_PLLQ_DIV_4                  (RCC_PLLCFGR_PLLQ_0)    /*!< Main PLL division factor fo
 684:Drivers/STM32G4xx_HAL_Driver/Inc/stm32g4xx_ll_rcc.h **** #define LL_RCC_PLLQ_DIV_6                  (RCC_PLLCFGR_PLLQ_1)    /*!< Main PLL division factor fo
 685:Drivers/STM32G4xx_HAL_Driver/Inc/stm32g4xx_ll_rcc.h **** #define LL_RCC_PLLQ_DIV_8                  (RCC_PLLCFGR_PLLQ)      /*!< Main PLL division factor fo
 686:Drivers/STM32G4xx_HAL_Driver/Inc/stm32g4xx_ll_rcc.h **** /**
 687:Drivers/STM32G4xx_HAL_Driver/Inc/stm32g4xx_ll_rcc.h ****   * @}
 688:Drivers/STM32G4xx_HAL_Driver/Inc/stm32g4xx_ll_rcc.h ****   */
 689:Drivers/STM32G4xx_HAL_Driver/Inc/stm32g4xx_ll_rcc.h **** 
 690:Drivers/STM32G4xx_HAL_Driver/Inc/stm32g4xx_ll_rcc.h **** /**
 691:Drivers/STM32G4xx_HAL_Driver/Inc/stm32g4xx_ll_rcc.h ****   * @}
 692:Drivers/STM32G4xx_HAL_Driver/Inc/stm32g4xx_ll_rcc.h ****   */
 693:Drivers/STM32G4xx_HAL_Driver/Inc/stm32g4xx_ll_rcc.h **** 
 694:Drivers/STM32G4xx_HAL_Driver/Inc/stm32g4xx_ll_rcc.h **** /* Exported macro ------------------------------------------------------------*/
 695:Drivers/STM32G4xx_HAL_Driver/Inc/stm32g4xx_ll_rcc.h **** /** @defgroup RCC_LL_Exported_Macros RCC Exported Macros
 696:Drivers/STM32G4xx_HAL_Driver/Inc/stm32g4xx_ll_rcc.h ****   * @{
 697:Drivers/STM32G4xx_HAL_Driver/Inc/stm32g4xx_ll_rcc.h ****   */
 698:Drivers/STM32G4xx_HAL_Driver/Inc/stm32g4xx_ll_rcc.h **** 
 699:Drivers/STM32G4xx_HAL_Driver/Inc/stm32g4xx_ll_rcc.h **** /** @defgroup RCC_LL_EM_WRITE_READ Common Write and read registers Macros
 700:Drivers/STM32G4xx_HAL_Driver/Inc/stm32g4xx_ll_rcc.h ****   * @{
 701:Drivers/STM32G4xx_HAL_Driver/Inc/stm32g4xx_ll_rcc.h ****   */
 702:Drivers/STM32G4xx_HAL_Driver/Inc/stm32g4xx_ll_rcc.h **** 
 703:Drivers/STM32G4xx_HAL_Driver/Inc/stm32g4xx_ll_rcc.h **** /**
 704:Drivers/STM32G4xx_HAL_Driver/Inc/stm32g4xx_ll_rcc.h ****   * @brief  Write a value in RCC register
 705:Drivers/STM32G4xx_HAL_Driver/Inc/stm32g4xx_ll_rcc.h ****   * @param  __REG__ Register to be written
 706:Drivers/STM32G4xx_HAL_Driver/Inc/stm32g4xx_ll_rcc.h ****   * @param  __VALUE__ Value to be written in the register
 707:Drivers/STM32G4xx_HAL_Driver/Inc/stm32g4xx_ll_rcc.h ****   * @retval None
ARM GAS  D:\apps\VSCode\data\tmp\ccGycOlE.s 			page 27


 708:Drivers/STM32G4xx_HAL_Driver/Inc/stm32g4xx_ll_rcc.h ****   */
 709:Drivers/STM32G4xx_HAL_Driver/Inc/stm32g4xx_ll_rcc.h **** #define LL_RCC_WriteReg(__REG__, __VALUE__) WRITE_REG(RCC->__REG__, __VALUE__)
 710:Drivers/STM32G4xx_HAL_Driver/Inc/stm32g4xx_ll_rcc.h **** 
 711:Drivers/STM32G4xx_HAL_Driver/Inc/stm32g4xx_ll_rcc.h **** /**
 712:Drivers/STM32G4xx_HAL_Driver/Inc/stm32g4xx_ll_rcc.h ****   * @brief  Read a value in RCC register
 713:Drivers/STM32G4xx_HAL_Driver/Inc/stm32g4xx_ll_rcc.h ****   * @param  __REG__ Register to be read
 714:Drivers/STM32G4xx_HAL_Driver/Inc/stm32g4xx_ll_rcc.h ****   * @retval Register value
 715:Drivers/STM32G4xx_HAL_Driver/Inc/stm32g4xx_ll_rcc.h ****   */
 716:Drivers/STM32G4xx_HAL_Driver/Inc/stm32g4xx_ll_rcc.h **** #define LL_RCC_ReadReg(__REG__) READ_REG(RCC->__REG__)
 717:Drivers/STM32G4xx_HAL_Driver/Inc/stm32g4xx_ll_rcc.h **** /**
 718:Drivers/STM32G4xx_HAL_Driver/Inc/stm32g4xx_ll_rcc.h ****   * @}
 719:Drivers/STM32G4xx_HAL_Driver/Inc/stm32g4xx_ll_rcc.h ****   */
 720:Drivers/STM32G4xx_HAL_Driver/Inc/stm32g4xx_ll_rcc.h **** 
 721:Drivers/STM32G4xx_HAL_Driver/Inc/stm32g4xx_ll_rcc.h **** /** @defgroup RCC_LL_EM_CALC_FREQ Calculate frequencies
 722:Drivers/STM32G4xx_HAL_Driver/Inc/stm32g4xx_ll_rcc.h ****   * @{
 723:Drivers/STM32G4xx_HAL_Driver/Inc/stm32g4xx_ll_rcc.h ****   */
 724:Drivers/STM32G4xx_HAL_Driver/Inc/stm32g4xx_ll_rcc.h **** 
 725:Drivers/STM32G4xx_HAL_Driver/Inc/stm32g4xx_ll_rcc.h **** /**
 726:Drivers/STM32G4xx_HAL_Driver/Inc/stm32g4xx_ll_rcc.h ****   * @brief  Helper macro to calculate the PLLCLK frequency on system domain
 727:Drivers/STM32G4xx_HAL_Driver/Inc/stm32g4xx_ll_rcc.h ****   * @note ex: @ref __LL_RCC_CALC_PLLCLK_FREQ (HSE_VALUE,@ref LL_RCC_PLL_GetDivider (),
 728:Drivers/STM32G4xx_HAL_Driver/Inc/stm32g4xx_ll_rcc.h ****   *             @ref LL_RCC_PLL_GetN (), @ref LL_RCC_PLL_GetR ());
 729:Drivers/STM32G4xx_HAL_Driver/Inc/stm32g4xx_ll_rcc.h ****   * @param  __INPUTFREQ__ PLL Input frequency (based on HSE/HSI)
 730:Drivers/STM32G4xx_HAL_Driver/Inc/stm32g4xx_ll_rcc.h ****   * @param  __PLLM__ This parameter can be one of the following values:
 731:Drivers/STM32G4xx_HAL_Driver/Inc/stm32g4xx_ll_rcc.h ****   *         @arg @ref LL_RCC_PLLM_DIV_1
 732:Drivers/STM32G4xx_HAL_Driver/Inc/stm32g4xx_ll_rcc.h ****   *         @arg @ref LL_RCC_PLLM_DIV_2
 733:Drivers/STM32G4xx_HAL_Driver/Inc/stm32g4xx_ll_rcc.h ****   *         @arg @ref LL_RCC_PLLM_DIV_3
 734:Drivers/STM32G4xx_HAL_Driver/Inc/stm32g4xx_ll_rcc.h ****   *         @arg @ref LL_RCC_PLLM_DIV_4
 735:Drivers/STM32G4xx_HAL_Driver/Inc/stm32g4xx_ll_rcc.h ****   *         @arg @ref LL_RCC_PLLM_DIV_5
 736:Drivers/STM32G4xx_HAL_Driver/Inc/stm32g4xx_ll_rcc.h ****   *         @arg @ref LL_RCC_PLLM_DIV_6
 737:Drivers/STM32G4xx_HAL_Driver/Inc/stm32g4xx_ll_rcc.h ****   *         @arg @ref LL_RCC_PLLM_DIV_7
 738:Drivers/STM32G4xx_HAL_Driver/Inc/stm32g4xx_ll_rcc.h ****   *         @arg @ref LL_RCC_PLLM_DIV_8
 739:Drivers/STM32G4xx_HAL_Driver/Inc/stm32g4xx_ll_rcc.h ****   *         @arg @ref LL_RCC_PLLM_DIV_9
 740:Drivers/STM32G4xx_HAL_Driver/Inc/stm32g4xx_ll_rcc.h ****   *         @arg @ref LL_RCC_PLLM_DIV_10
 741:Drivers/STM32G4xx_HAL_Driver/Inc/stm32g4xx_ll_rcc.h ****   *         @arg @ref LL_RCC_PLLM_DIV_11
 742:Drivers/STM32G4xx_HAL_Driver/Inc/stm32g4xx_ll_rcc.h ****   *         @arg @ref LL_RCC_PLLM_DIV_12
 743:Drivers/STM32G4xx_HAL_Driver/Inc/stm32g4xx_ll_rcc.h ****   *         @arg @ref LL_RCC_PLLM_DIV_13
 744:Drivers/STM32G4xx_HAL_Driver/Inc/stm32g4xx_ll_rcc.h ****   *         @arg @ref LL_RCC_PLLM_DIV_14
 745:Drivers/STM32G4xx_HAL_Driver/Inc/stm32g4xx_ll_rcc.h ****   *         @arg @ref LL_RCC_PLLM_DIV_15
 746:Drivers/STM32G4xx_HAL_Driver/Inc/stm32g4xx_ll_rcc.h ****   *         @arg @ref LL_RCC_PLLM_DIV_16
 747:Drivers/STM32G4xx_HAL_Driver/Inc/stm32g4xx_ll_rcc.h ****   * @param  __PLLN__ Between Min_Data = 8 and Max_Data = 127
 748:Drivers/STM32G4xx_HAL_Driver/Inc/stm32g4xx_ll_rcc.h ****   * @param  __PLLR__ This parameter can be one of the following values:
 749:Drivers/STM32G4xx_HAL_Driver/Inc/stm32g4xx_ll_rcc.h ****   *         @arg @ref LL_RCC_PLLR_DIV_2
 750:Drivers/STM32G4xx_HAL_Driver/Inc/stm32g4xx_ll_rcc.h ****   *         @arg @ref LL_RCC_PLLR_DIV_4
 751:Drivers/STM32G4xx_HAL_Driver/Inc/stm32g4xx_ll_rcc.h ****   *         @arg @ref LL_RCC_PLLR_DIV_6
 752:Drivers/STM32G4xx_HAL_Driver/Inc/stm32g4xx_ll_rcc.h ****   *         @arg @ref LL_RCC_PLLR_DIV_8
 753:Drivers/STM32G4xx_HAL_Driver/Inc/stm32g4xx_ll_rcc.h ****   * @retval PLL clock frequency (in Hz)
 754:Drivers/STM32G4xx_HAL_Driver/Inc/stm32g4xx_ll_rcc.h ****   */
 755:Drivers/STM32G4xx_HAL_Driver/Inc/stm32g4xx_ll_rcc.h **** #define __LL_RCC_CALC_PLLCLK_FREQ(__INPUTFREQ__, __PLLM__, __PLLN__, __PLLR__) ((__INPUTFREQ__) * (
 756:Drivers/STM32G4xx_HAL_Driver/Inc/stm32g4xx_ll_rcc.h ****                    ((((__PLLR__) >> RCC_PLLCFGR_PLLR_Pos) + 1U) * 2U))
 757:Drivers/STM32G4xx_HAL_Driver/Inc/stm32g4xx_ll_rcc.h **** 
 758:Drivers/STM32G4xx_HAL_Driver/Inc/stm32g4xx_ll_rcc.h **** /**
 759:Drivers/STM32G4xx_HAL_Driver/Inc/stm32g4xx_ll_rcc.h ****   * @brief  Helper macro to calculate the PLLCLK frequency used on ADC domain
 760:Drivers/STM32G4xx_HAL_Driver/Inc/stm32g4xx_ll_rcc.h ****   * @note ex: @ref __LL_RCC_CALC_PLLCLK_ADC_FREQ (HSE_VALUE,@ref LL_RCC_PLL_GetDivider (),
 761:Drivers/STM32G4xx_HAL_Driver/Inc/stm32g4xx_ll_rcc.h ****   *             @ref LL_RCC_PLL_GetN (), @ref LL_RCC_PLL_GetP ());
 762:Drivers/STM32G4xx_HAL_Driver/Inc/stm32g4xx_ll_rcc.h ****   * @param  __INPUTFREQ__ PLL Input frequency (based on HSE/HSI)
 763:Drivers/STM32G4xx_HAL_Driver/Inc/stm32g4xx_ll_rcc.h ****   * @param  __PLLM__ This parameter can be one of the following values:
 764:Drivers/STM32G4xx_HAL_Driver/Inc/stm32g4xx_ll_rcc.h ****   *         @arg @ref LL_RCC_PLLM_DIV_1
ARM GAS  D:\apps\VSCode\data\tmp\ccGycOlE.s 			page 28


 765:Drivers/STM32G4xx_HAL_Driver/Inc/stm32g4xx_ll_rcc.h ****   *         @arg @ref LL_RCC_PLLM_DIV_2
 766:Drivers/STM32G4xx_HAL_Driver/Inc/stm32g4xx_ll_rcc.h ****   *         @arg @ref LL_RCC_PLLM_DIV_3
 767:Drivers/STM32G4xx_HAL_Driver/Inc/stm32g4xx_ll_rcc.h ****   *         @arg @ref LL_RCC_PLLM_DIV_4
 768:Drivers/STM32G4xx_HAL_Driver/Inc/stm32g4xx_ll_rcc.h ****   *         @arg @ref LL_RCC_PLLM_DIV_5
 769:Drivers/STM32G4xx_HAL_Driver/Inc/stm32g4xx_ll_rcc.h ****   *         @arg @ref LL_RCC_PLLM_DIV_6
 770:Drivers/STM32G4xx_HAL_Driver/Inc/stm32g4xx_ll_rcc.h ****   *         @arg @ref LL_RCC_PLLM_DIV_7
 771:Drivers/STM32G4xx_HAL_Driver/Inc/stm32g4xx_ll_rcc.h ****   *         @arg @ref LL_RCC_PLLM_DIV_8
 772:Drivers/STM32G4xx_HAL_Driver/Inc/stm32g4xx_ll_rcc.h ****   *         @arg @ref LL_RCC_PLLM_DIV_9
 773:Drivers/STM32G4xx_HAL_Driver/Inc/stm32g4xx_ll_rcc.h ****   *         @arg @ref LL_RCC_PLLM_DIV_10
 774:Drivers/STM32G4xx_HAL_Driver/Inc/stm32g4xx_ll_rcc.h ****   *         @arg @ref LL_RCC_PLLM_DIV_11
 775:Drivers/STM32G4xx_HAL_Driver/Inc/stm32g4xx_ll_rcc.h ****   *         @arg @ref LL_RCC_PLLM_DIV_12
 776:Drivers/STM32G4xx_HAL_Driver/Inc/stm32g4xx_ll_rcc.h ****   *         @arg @ref LL_RCC_PLLM_DIV_13
 777:Drivers/STM32G4xx_HAL_Driver/Inc/stm32g4xx_ll_rcc.h ****   *         @arg @ref LL_RCC_PLLM_DIV_14
 778:Drivers/STM32G4xx_HAL_Driver/Inc/stm32g4xx_ll_rcc.h ****   *         @arg @ref LL_RCC_PLLM_DIV_15
 779:Drivers/STM32G4xx_HAL_Driver/Inc/stm32g4xx_ll_rcc.h ****   *         @arg @ref LL_RCC_PLLM_DIV_16
 780:Drivers/STM32G4xx_HAL_Driver/Inc/stm32g4xx_ll_rcc.h **** 
 781:Drivers/STM32G4xx_HAL_Driver/Inc/stm32g4xx_ll_rcc.h ****   * @param  __PLLN__ Between Min_Data = 8 and Max_Data = 127
 782:Drivers/STM32G4xx_HAL_Driver/Inc/stm32g4xx_ll_rcc.h ****   * @param  __PLLP__ This parameter can be one of the following values:
 783:Drivers/STM32G4xx_HAL_Driver/Inc/stm32g4xx_ll_rcc.h ****   *         @arg @ref LL_RCC_PLLP_DIV_2
 784:Drivers/STM32G4xx_HAL_Driver/Inc/stm32g4xx_ll_rcc.h ****   *         @arg @ref LL_RCC_PLLP_DIV_3
 785:Drivers/STM32G4xx_HAL_Driver/Inc/stm32g4xx_ll_rcc.h ****   *         @arg @ref LL_RCC_PLLP_DIV_4
 786:Drivers/STM32G4xx_HAL_Driver/Inc/stm32g4xx_ll_rcc.h ****   *         @arg @ref LL_RCC_PLLP_DIV_5
 787:Drivers/STM32G4xx_HAL_Driver/Inc/stm32g4xx_ll_rcc.h ****   *         @arg @ref LL_RCC_PLLP_DIV_6
 788:Drivers/STM32G4xx_HAL_Driver/Inc/stm32g4xx_ll_rcc.h ****   *         @arg @ref LL_RCC_PLLP_DIV_7
 789:Drivers/STM32G4xx_HAL_Driver/Inc/stm32g4xx_ll_rcc.h ****   *         @arg @ref LL_RCC_PLLP_DIV_8
 790:Drivers/STM32G4xx_HAL_Driver/Inc/stm32g4xx_ll_rcc.h ****   *         @arg @ref LL_RCC_PLLP_DIV_9
 791:Drivers/STM32G4xx_HAL_Driver/Inc/stm32g4xx_ll_rcc.h ****   *         @arg @ref LL_RCC_PLLP_DIV_10
 792:Drivers/STM32G4xx_HAL_Driver/Inc/stm32g4xx_ll_rcc.h ****   *         @arg @ref LL_RCC_PLLP_DIV_11
 793:Drivers/STM32G4xx_HAL_Driver/Inc/stm32g4xx_ll_rcc.h ****   *         @arg @ref LL_RCC_PLLP_DIV_12
 794:Drivers/STM32G4xx_HAL_Driver/Inc/stm32g4xx_ll_rcc.h ****   *         @arg @ref LL_RCC_PLLP_DIV_13
 795:Drivers/STM32G4xx_HAL_Driver/Inc/stm32g4xx_ll_rcc.h ****   *         @arg @ref LL_RCC_PLLP_DIV_14
 796:Drivers/STM32G4xx_HAL_Driver/Inc/stm32g4xx_ll_rcc.h ****   *         @arg @ref LL_RCC_PLLP_DIV_15
 797:Drivers/STM32G4xx_HAL_Driver/Inc/stm32g4xx_ll_rcc.h ****   *         @arg @ref LL_RCC_PLLP_DIV_16
 798:Drivers/STM32G4xx_HAL_Driver/Inc/stm32g4xx_ll_rcc.h ****   *         @arg @ref LL_RCC_PLLP_DIV_17
 799:Drivers/STM32G4xx_HAL_Driver/Inc/stm32g4xx_ll_rcc.h ****   *         @arg @ref LL_RCC_PLLP_DIV_18
 800:Drivers/STM32G4xx_HAL_Driver/Inc/stm32g4xx_ll_rcc.h ****   *         @arg @ref LL_RCC_PLLP_DIV_19
 801:Drivers/STM32G4xx_HAL_Driver/Inc/stm32g4xx_ll_rcc.h ****   *         @arg @ref LL_RCC_PLLP_DIV_20
 802:Drivers/STM32G4xx_HAL_Driver/Inc/stm32g4xx_ll_rcc.h ****   *         @arg @ref LL_RCC_PLLP_DIV_21
 803:Drivers/STM32G4xx_HAL_Driver/Inc/stm32g4xx_ll_rcc.h ****   *         @arg @ref LL_RCC_PLLP_DIV_22
 804:Drivers/STM32G4xx_HAL_Driver/Inc/stm32g4xx_ll_rcc.h ****   *         @arg @ref LL_RCC_PLLP_DIV_23
 805:Drivers/STM32G4xx_HAL_Driver/Inc/stm32g4xx_ll_rcc.h ****   *         @arg @ref LL_RCC_PLLP_DIV_24
 806:Drivers/STM32G4xx_HAL_Driver/Inc/stm32g4xx_ll_rcc.h ****   *         @arg @ref LL_RCC_PLLP_DIV_25
 807:Drivers/STM32G4xx_HAL_Driver/Inc/stm32g4xx_ll_rcc.h ****   *         @arg @ref LL_RCC_PLLP_DIV_26
 808:Drivers/STM32G4xx_HAL_Driver/Inc/stm32g4xx_ll_rcc.h ****   *         @arg @ref LL_RCC_PLLP_DIV_27
 809:Drivers/STM32G4xx_HAL_Driver/Inc/stm32g4xx_ll_rcc.h ****   *         @arg @ref LL_RCC_PLLP_DIV_28
 810:Drivers/STM32G4xx_HAL_Driver/Inc/stm32g4xx_ll_rcc.h ****   *         @arg @ref LL_RCC_PLLP_DIV_29
 811:Drivers/STM32G4xx_HAL_Driver/Inc/stm32g4xx_ll_rcc.h ****   *         @arg @ref LL_RCC_PLLP_DIV_30
 812:Drivers/STM32G4xx_HAL_Driver/Inc/stm32g4xx_ll_rcc.h ****   *         @arg @ref LL_RCC_PLLP_DIV_31
 813:Drivers/STM32G4xx_HAL_Driver/Inc/stm32g4xx_ll_rcc.h ****   * @retval PLL clock frequency (in Hz)
 814:Drivers/STM32G4xx_HAL_Driver/Inc/stm32g4xx_ll_rcc.h ****   */
 815:Drivers/STM32G4xx_HAL_Driver/Inc/stm32g4xx_ll_rcc.h **** #define __LL_RCC_CALC_PLLCLK_ADC_FREQ(__INPUTFREQ__, __PLLM__, __PLLN__, __PLLP__) ((__INPUTFREQ__)
 816:Drivers/STM32G4xx_HAL_Driver/Inc/stm32g4xx_ll_rcc.h ****                    ((__PLLP__) >> RCC_PLLCFGR_PLLPDIV_Pos))
 817:Drivers/STM32G4xx_HAL_Driver/Inc/stm32g4xx_ll_rcc.h **** 
 818:Drivers/STM32G4xx_HAL_Driver/Inc/stm32g4xx_ll_rcc.h **** /**
 819:Drivers/STM32G4xx_HAL_Driver/Inc/stm32g4xx_ll_rcc.h ****   * @brief  Helper macro to calculate the PLLCLK frequency used on 48M domain
 820:Drivers/STM32G4xx_HAL_Driver/Inc/stm32g4xx_ll_rcc.h ****   * @note ex: @ref __LL_RCC_CALC_PLLCLK_48M_FREQ (HSE_VALUE,@ref LL_RCC_PLL_GetDivider (),
 821:Drivers/STM32G4xx_HAL_Driver/Inc/stm32g4xx_ll_rcc.h ****   *             @ref LL_RCC_PLL_GetN (), @ref LL_RCC_PLL_GetQ ());
ARM GAS  D:\apps\VSCode\data\tmp\ccGycOlE.s 			page 29


 822:Drivers/STM32G4xx_HAL_Driver/Inc/stm32g4xx_ll_rcc.h ****   * @param  __INPUTFREQ__ PLL Input frequency (based on HSE/HSI)
 823:Drivers/STM32G4xx_HAL_Driver/Inc/stm32g4xx_ll_rcc.h ****   * @param  __PLLM__ This parameter can be one of the following values:
 824:Drivers/STM32G4xx_HAL_Driver/Inc/stm32g4xx_ll_rcc.h ****   *         @arg @ref LL_RCC_PLLM_DIV_1
 825:Drivers/STM32G4xx_HAL_Driver/Inc/stm32g4xx_ll_rcc.h ****   *         @arg @ref LL_RCC_PLLM_DIV_2
 826:Drivers/STM32G4xx_HAL_Driver/Inc/stm32g4xx_ll_rcc.h ****   *         @arg @ref LL_RCC_PLLM_DIV_3
 827:Drivers/STM32G4xx_HAL_Driver/Inc/stm32g4xx_ll_rcc.h ****   *         @arg @ref LL_RCC_PLLM_DIV_4
 828:Drivers/STM32G4xx_HAL_Driver/Inc/stm32g4xx_ll_rcc.h ****   *         @arg @ref LL_RCC_PLLM_DIV_5
 829:Drivers/STM32G4xx_HAL_Driver/Inc/stm32g4xx_ll_rcc.h ****   *         @arg @ref LL_RCC_PLLM_DIV_6
 830:Drivers/STM32G4xx_HAL_Driver/Inc/stm32g4xx_ll_rcc.h ****   *         @arg @ref LL_RCC_PLLM_DIV_7
 831:Drivers/STM32G4xx_HAL_Driver/Inc/stm32g4xx_ll_rcc.h ****   *         @arg @ref LL_RCC_PLLM_DIV_8
 832:Drivers/STM32G4xx_HAL_Driver/Inc/stm32g4xx_ll_rcc.h ****   *         @arg @ref LL_RCC_PLLM_DIV_9
 833:Drivers/STM32G4xx_HAL_Driver/Inc/stm32g4xx_ll_rcc.h ****   *         @arg @ref LL_RCC_PLLM_DIV_10
 834:Drivers/STM32G4xx_HAL_Driver/Inc/stm32g4xx_ll_rcc.h ****   *         @arg @ref LL_RCC_PLLM_DIV_11
 835:Drivers/STM32G4xx_HAL_Driver/Inc/stm32g4xx_ll_rcc.h ****   *         @arg @ref LL_RCC_PLLM_DIV_12
 836:Drivers/STM32G4xx_HAL_Driver/Inc/stm32g4xx_ll_rcc.h ****   *         @arg @ref LL_RCC_PLLM_DIV_13
 837:Drivers/STM32G4xx_HAL_Driver/Inc/stm32g4xx_ll_rcc.h ****   *         @arg @ref LL_RCC_PLLM_DIV_14
 838:Drivers/STM32G4xx_HAL_Driver/Inc/stm32g4xx_ll_rcc.h ****   *         @arg @ref LL_RCC_PLLM_DIV_15
 839:Drivers/STM32G4xx_HAL_Driver/Inc/stm32g4xx_ll_rcc.h ****   *         @arg @ref LL_RCC_PLLM_DIV_16
 840:Drivers/STM32G4xx_HAL_Driver/Inc/stm32g4xx_ll_rcc.h ****   * @param  __PLLN__ Between Min_Data = 8 and Max_Data = 127
 841:Drivers/STM32G4xx_HAL_Driver/Inc/stm32g4xx_ll_rcc.h ****   * @param  __PLLQ__ This parameter can be one of the following values:
 842:Drivers/STM32G4xx_HAL_Driver/Inc/stm32g4xx_ll_rcc.h ****   *         @arg @ref LL_RCC_PLLQ_DIV_2
 843:Drivers/STM32G4xx_HAL_Driver/Inc/stm32g4xx_ll_rcc.h ****   *         @arg @ref LL_RCC_PLLQ_DIV_4
 844:Drivers/STM32G4xx_HAL_Driver/Inc/stm32g4xx_ll_rcc.h ****   *         @arg @ref LL_RCC_PLLQ_DIV_6
 845:Drivers/STM32G4xx_HAL_Driver/Inc/stm32g4xx_ll_rcc.h ****   *         @arg @ref LL_RCC_PLLQ_DIV_8
 846:Drivers/STM32G4xx_HAL_Driver/Inc/stm32g4xx_ll_rcc.h ****   * @retval PLL clock frequency (in Hz)
 847:Drivers/STM32G4xx_HAL_Driver/Inc/stm32g4xx_ll_rcc.h ****   */
 848:Drivers/STM32G4xx_HAL_Driver/Inc/stm32g4xx_ll_rcc.h **** #define __LL_RCC_CALC_PLLCLK_48M_FREQ(__INPUTFREQ__, __PLLM__, __PLLN__, __PLLQ__) ((__INPUTFREQ__)
 849:Drivers/STM32G4xx_HAL_Driver/Inc/stm32g4xx_ll_rcc.h ****                    ((((__PLLQ__) >> RCC_PLLCFGR_PLLQ_Pos) + 1U) << 1U))
 850:Drivers/STM32G4xx_HAL_Driver/Inc/stm32g4xx_ll_rcc.h **** 
 851:Drivers/STM32G4xx_HAL_Driver/Inc/stm32g4xx_ll_rcc.h **** /**
 852:Drivers/STM32G4xx_HAL_Driver/Inc/stm32g4xx_ll_rcc.h ****   * @brief  Helper macro to calculate the HCLK frequency
 853:Drivers/STM32G4xx_HAL_Driver/Inc/stm32g4xx_ll_rcc.h ****   * @param  __SYSCLKFREQ__ SYSCLK frequency (based on HSE/HSI/PLLCLK)
 854:Drivers/STM32G4xx_HAL_Driver/Inc/stm32g4xx_ll_rcc.h ****   * @param  __AHBPRESCALER__ This parameter can be one of the following values:
 855:Drivers/STM32G4xx_HAL_Driver/Inc/stm32g4xx_ll_rcc.h ****   *         @arg @ref LL_RCC_SYSCLK_DIV_1
 856:Drivers/STM32G4xx_HAL_Driver/Inc/stm32g4xx_ll_rcc.h ****   *         @arg @ref LL_RCC_SYSCLK_DIV_2
 857:Drivers/STM32G4xx_HAL_Driver/Inc/stm32g4xx_ll_rcc.h ****   *         @arg @ref LL_RCC_SYSCLK_DIV_4
 858:Drivers/STM32G4xx_HAL_Driver/Inc/stm32g4xx_ll_rcc.h ****   *         @arg @ref LL_RCC_SYSCLK_DIV_8
 859:Drivers/STM32G4xx_HAL_Driver/Inc/stm32g4xx_ll_rcc.h ****   *         @arg @ref LL_RCC_SYSCLK_DIV_16
 860:Drivers/STM32G4xx_HAL_Driver/Inc/stm32g4xx_ll_rcc.h ****   *         @arg @ref LL_RCC_SYSCLK_DIV_64
 861:Drivers/STM32G4xx_HAL_Driver/Inc/stm32g4xx_ll_rcc.h ****   *         @arg @ref LL_RCC_SYSCLK_DIV_128
 862:Drivers/STM32G4xx_HAL_Driver/Inc/stm32g4xx_ll_rcc.h ****   *         @arg @ref LL_RCC_SYSCLK_DIV_256
 863:Drivers/STM32G4xx_HAL_Driver/Inc/stm32g4xx_ll_rcc.h ****   *         @arg @ref LL_RCC_SYSCLK_DIV_512
 864:Drivers/STM32G4xx_HAL_Driver/Inc/stm32g4xx_ll_rcc.h ****   * @retval HCLK clock frequency (in Hz)
 865:Drivers/STM32G4xx_HAL_Driver/Inc/stm32g4xx_ll_rcc.h ****   */
 866:Drivers/STM32G4xx_HAL_Driver/Inc/stm32g4xx_ll_rcc.h **** #define __LL_RCC_CALC_HCLK_FREQ(__SYSCLKFREQ__,__AHBPRESCALER__) ((__SYSCLKFREQ__) >> (AHBPrescTabl
 867:Drivers/STM32G4xx_HAL_Driver/Inc/stm32g4xx_ll_rcc.h **** 
 868:Drivers/STM32G4xx_HAL_Driver/Inc/stm32g4xx_ll_rcc.h **** /**
 869:Drivers/STM32G4xx_HAL_Driver/Inc/stm32g4xx_ll_rcc.h ****   * @brief  Helper macro to calculate the PCLK1 frequency (ABP1)
 870:Drivers/STM32G4xx_HAL_Driver/Inc/stm32g4xx_ll_rcc.h ****   * @param  __HCLKFREQ__ HCLK frequency
 871:Drivers/STM32G4xx_HAL_Driver/Inc/stm32g4xx_ll_rcc.h ****   * @param  __APB1PRESCALER__ This parameter can be one of the following values:
 872:Drivers/STM32G4xx_HAL_Driver/Inc/stm32g4xx_ll_rcc.h ****   *         @arg @ref LL_RCC_APB1_DIV_1
 873:Drivers/STM32G4xx_HAL_Driver/Inc/stm32g4xx_ll_rcc.h ****   *         @arg @ref LL_RCC_APB1_DIV_2
 874:Drivers/STM32G4xx_HAL_Driver/Inc/stm32g4xx_ll_rcc.h ****   *         @arg @ref LL_RCC_APB1_DIV_4
 875:Drivers/STM32G4xx_HAL_Driver/Inc/stm32g4xx_ll_rcc.h ****   *         @arg @ref LL_RCC_APB1_DIV_8
 876:Drivers/STM32G4xx_HAL_Driver/Inc/stm32g4xx_ll_rcc.h ****   *         @arg @ref LL_RCC_APB1_DIV_16
 877:Drivers/STM32G4xx_HAL_Driver/Inc/stm32g4xx_ll_rcc.h ****   * @retval PCLK1 clock frequency (in Hz)
 878:Drivers/STM32G4xx_HAL_Driver/Inc/stm32g4xx_ll_rcc.h ****   */
ARM GAS  D:\apps\VSCode\data\tmp\ccGycOlE.s 			page 30


 879:Drivers/STM32G4xx_HAL_Driver/Inc/stm32g4xx_ll_rcc.h **** #define __LL_RCC_CALC_PCLK1_FREQ(__HCLKFREQ__, __APB1PRESCALER__) ((__HCLKFREQ__) >> (APBPrescTable
 880:Drivers/STM32G4xx_HAL_Driver/Inc/stm32g4xx_ll_rcc.h **** 
 881:Drivers/STM32G4xx_HAL_Driver/Inc/stm32g4xx_ll_rcc.h **** /**
 882:Drivers/STM32G4xx_HAL_Driver/Inc/stm32g4xx_ll_rcc.h ****   * @brief  Helper macro to calculate the PCLK2 frequency (ABP2)
 883:Drivers/STM32G4xx_HAL_Driver/Inc/stm32g4xx_ll_rcc.h ****   * @param  __HCLKFREQ__ HCLK frequency
 884:Drivers/STM32G4xx_HAL_Driver/Inc/stm32g4xx_ll_rcc.h ****   * @param  __APB2PRESCALER__ This parameter can be one of the following values:
 885:Drivers/STM32G4xx_HAL_Driver/Inc/stm32g4xx_ll_rcc.h ****   *         @arg @ref LL_RCC_APB2_DIV_1
 886:Drivers/STM32G4xx_HAL_Driver/Inc/stm32g4xx_ll_rcc.h ****   *         @arg @ref LL_RCC_APB2_DIV_2
 887:Drivers/STM32G4xx_HAL_Driver/Inc/stm32g4xx_ll_rcc.h ****   *         @arg @ref LL_RCC_APB2_DIV_4
 888:Drivers/STM32G4xx_HAL_Driver/Inc/stm32g4xx_ll_rcc.h ****   *         @arg @ref LL_RCC_APB2_DIV_8
 889:Drivers/STM32G4xx_HAL_Driver/Inc/stm32g4xx_ll_rcc.h ****   *         @arg @ref LL_RCC_APB2_DIV_16
 890:Drivers/STM32G4xx_HAL_Driver/Inc/stm32g4xx_ll_rcc.h ****   * @retval PCLK2 clock frequency (in Hz)
 891:Drivers/STM32G4xx_HAL_Driver/Inc/stm32g4xx_ll_rcc.h ****   */
 892:Drivers/STM32G4xx_HAL_Driver/Inc/stm32g4xx_ll_rcc.h **** #define __LL_RCC_CALC_PCLK2_FREQ(__HCLKFREQ__, __APB2PRESCALER__) ((__HCLKFREQ__) >> (APBPrescTable
 893:Drivers/STM32G4xx_HAL_Driver/Inc/stm32g4xx_ll_rcc.h **** 
 894:Drivers/STM32G4xx_HAL_Driver/Inc/stm32g4xx_ll_rcc.h **** /**
 895:Drivers/STM32G4xx_HAL_Driver/Inc/stm32g4xx_ll_rcc.h ****   * @}
 896:Drivers/STM32G4xx_HAL_Driver/Inc/stm32g4xx_ll_rcc.h ****   */
 897:Drivers/STM32G4xx_HAL_Driver/Inc/stm32g4xx_ll_rcc.h **** 
 898:Drivers/STM32G4xx_HAL_Driver/Inc/stm32g4xx_ll_rcc.h **** /**
 899:Drivers/STM32G4xx_HAL_Driver/Inc/stm32g4xx_ll_rcc.h ****   * @}
 900:Drivers/STM32G4xx_HAL_Driver/Inc/stm32g4xx_ll_rcc.h ****   */
 901:Drivers/STM32G4xx_HAL_Driver/Inc/stm32g4xx_ll_rcc.h **** 
 902:Drivers/STM32G4xx_HAL_Driver/Inc/stm32g4xx_ll_rcc.h **** /* Exported functions --------------------------------------------------------*/
 903:Drivers/STM32G4xx_HAL_Driver/Inc/stm32g4xx_ll_rcc.h **** /** @defgroup RCC_LL_Exported_Functions RCC Exported Functions
 904:Drivers/STM32G4xx_HAL_Driver/Inc/stm32g4xx_ll_rcc.h ****   * @{
 905:Drivers/STM32G4xx_HAL_Driver/Inc/stm32g4xx_ll_rcc.h ****   */
 906:Drivers/STM32G4xx_HAL_Driver/Inc/stm32g4xx_ll_rcc.h **** 
 907:Drivers/STM32G4xx_HAL_Driver/Inc/stm32g4xx_ll_rcc.h **** /** @defgroup RCC_LL_EF_HSE HSE
 908:Drivers/STM32G4xx_HAL_Driver/Inc/stm32g4xx_ll_rcc.h ****   * @{
 909:Drivers/STM32G4xx_HAL_Driver/Inc/stm32g4xx_ll_rcc.h ****   */
 910:Drivers/STM32G4xx_HAL_Driver/Inc/stm32g4xx_ll_rcc.h **** 
 911:Drivers/STM32G4xx_HAL_Driver/Inc/stm32g4xx_ll_rcc.h **** /**
 912:Drivers/STM32G4xx_HAL_Driver/Inc/stm32g4xx_ll_rcc.h ****   * @brief  Enable the Clock Security System.
 913:Drivers/STM32G4xx_HAL_Driver/Inc/stm32g4xx_ll_rcc.h ****   * @rmtoll CR           CSSON         LL_RCC_HSE_EnableCSS
 914:Drivers/STM32G4xx_HAL_Driver/Inc/stm32g4xx_ll_rcc.h ****   * @retval None
 915:Drivers/STM32G4xx_HAL_Driver/Inc/stm32g4xx_ll_rcc.h ****   */
 916:Drivers/STM32G4xx_HAL_Driver/Inc/stm32g4xx_ll_rcc.h **** __STATIC_INLINE void LL_RCC_HSE_EnableCSS(void)
 917:Drivers/STM32G4xx_HAL_Driver/Inc/stm32g4xx_ll_rcc.h **** {
 918:Drivers/STM32G4xx_HAL_Driver/Inc/stm32g4xx_ll_rcc.h ****   SET_BIT(RCC->CR, RCC_CR_CSSON);
 919:Drivers/STM32G4xx_HAL_Driver/Inc/stm32g4xx_ll_rcc.h **** }
 920:Drivers/STM32G4xx_HAL_Driver/Inc/stm32g4xx_ll_rcc.h **** 
 921:Drivers/STM32G4xx_HAL_Driver/Inc/stm32g4xx_ll_rcc.h **** /**
 922:Drivers/STM32G4xx_HAL_Driver/Inc/stm32g4xx_ll_rcc.h ****   * @brief  Enable HSE external oscillator (HSE Bypass)
 923:Drivers/STM32G4xx_HAL_Driver/Inc/stm32g4xx_ll_rcc.h ****   * @rmtoll CR           HSEBYP        LL_RCC_HSE_EnableBypass
 924:Drivers/STM32G4xx_HAL_Driver/Inc/stm32g4xx_ll_rcc.h ****   * @retval None
 925:Drivers/STM32G4xx_HAL_Driver/Inc/stm32g4xx_ll_rcc.h ****   */
 926:Drivers/STM32G4xx_HAL_Driver/Inc/stm32g4xx_ll_rcc.h **** __STATIC_INLINE void LL_RCC_HSE_EnableBypass(void)
 927:Drivers/STM32G4xx_HAL_Driver/Inc/stm32g4xx_ll_rcc.h **** {
 928:Drivers/STM32G4xx_HAL_Driver/Inc/stm32g4xx_ll_rcc.h ****   SET_BIT(RCC->CR, RCC_CR_HSEBYP);
 929:Drivers/STM32G4xx_HAL_Driver/Inc/stm32g4xx_ll_rcc.h **** }
 930:Drivers/STM32G4xx_HAL_Driver/Inc/stm32g4xx_ll_rcc.h **** 
 931:Drivers/STM32G4xx_HAL_Driver/Inc/stm32g4xx_ll_rcc.h **** /**
 932:Drivers/STM32G4xx_HAL_Driver/Inc/stm32g4xx_ll_rcc.h ****   * @brief  Disable HSE external oscillator (HSE Bypass)
 933:Drivers/STM32G4xx_HAL_Driver/Inc/stm32g4xx_ll_rcc.h ****   * @rmtoll CR           HSEBYP        LL_RCC_HSE_DisableBypass
 934:Drivers/STM32G4xx_HAL_Driver/Inc/stm32g4xx_ll_rcc.h ****   * @retval None
 935:Drivers/STM32G4xx_HAL_Driver/Inc/stm32g4xx_ll_rcc.h ****   */
ARM GAS  D:\apps\VSCode\data\tmp\ccGycOlE.s 			page 31


 936:Drivers/STM32G4xx_HAL_Driver/Inc/stm32g4xx_ll_rcc.h **** __STATIC_INLINE void LL_RCC_HSE_DisableBypass(void)
 937:Drivers/STM32G4xx_HAL_Driver/Inc/stm32g4xx_ll_rcc.h **** {
 938:Drivers/STM32G4xx_HAL_Driver/Inc/stm32g4xx_ll_rcc.h ****   CLEAR_BIT(RCC->CR, RCC_CR_HSEBYP);
 939:Drivers/STM32G4xx_HAL_Driver/Inc/stm32g4xx_ll_rcc.h **** }
 940:Drivers/STM32G4xx_HAL_Driver/Inc/stm32g4xx_ll_rcc.h **** 
 941:Drivers/STM32G4xx_HAL_Driver/Inc/stm32g4xx_ll_rcc.h **** /**
 942:Drivers/STM32G4xx_HAL_Driver/Inc/stm32g4xx_ll_rcc.h ****   * @brief  Enable HSE crystal oscillator (HSE ON)
 943:Drivers/STM32G4xx_HAL_Driver/Inc/stm32g4xx_ll_rcc.h ****   * @rmtoll CR           HSEON         LL_RCC_HSE_Enable
 944:Drivers/STM32G4xx_HAL_Driver/Inc/stm32g4xx_ll_rcc.h ****   * @retval None
 945:Drivers/STM32G4xx_HAL_Driver/Inc/stm32g4xx_ll_rcc.h ****   */
 946:Drivers/STM32G4xx_HAL_Driver/Inc/stm32g4xx_ll_rcc.h **** __STATIC_INLINE void LL_RCC_HSE_Enable(void)
 947:Drivers/STM32G4xx_HAL_Driver/Inc/stm32g4xx_ll_rcc.h **** {
 948:Drivers/STM32G4xx_HAL_Driver/Inc/stm32g4xx_ll_rcc.h ****   SET_BIT(RCC->CR, RCC_CR_HSEON);
 949:Drivers/STM32G4xx_HAL_Driver/Inc/stm32g4xx_ll_rcc.h **** }
 950:Drivers/STM32G4xx_HAL_Driver/Inc/stm32g4xx_ll_rcc.h **** 
 951:Drivers/STM32G4xx_HAL_Driver/Inc/stm32g4xx_ll_rcc.h **** /**
 952:Drivers/STM32G4xx_HAL_Driver/Inc/stm32g4xx_ll_rcc.h ****   * @brief  Disable HSE crystal oscillator (HSE ON)
 953:Drivers/STM32G4xx_HAL_Driver/Inc/stm32g4xx_ll_rcc.h ****   * @rmtoll CR           HSEON         LL_RCC_HSE_Disable
 954:Drivers/STM32G4xx_HAL_Driver/Inc/stm32g4xx_ll_rcc.h ****   * @retval None
 955:Drivers/STM32G4xx_HAL_Driver/Inc/stm32g4xx_ll_rcc.h ****   */
 956:Drivers/STM32G4xx_HAL_Driver/Inc/stm32g4xx_ll_rcc.h **** __STATIC_INLINE void LL_RCC_HSE_Disable(void)
 957:Drivers/STM32G4xx_HAL_Driver/Inc/stm32g4xx_ll_rcc.h **** {
 958:Drivers/STM32G4xx_HAL_Driver/Inc/stm32g4xx_ll_rcc.h ****   CLEAR_BIT(RCC->CR, RCC_CR_HSEON);
 959:Drivers/STM32G4xx_HAL_Driver/Inc/stm32g4xx_ll_rcc.h **** }
 960:Drivers/STM32G4xx_HAL_Driver/Inc/stm32g4xx_ll_rcc.h **** 
 961:Drivers/STM32G4xx_HAL_Driver/Inc/stm32g4xx_ll_rcc.h **** /**
 962:Drivers/STM32G4xx_HAL_Driver/Inc/stm32g4xx_ll_rcc.h ****   * @brief  Check if HSE oscillator Ready
 963:Drivers/STM32G4xx_HAL_Driver/Inc/stm32g4xx_ll_rcc.h ****   * @rmtoll CR           HSERDY        LL_RCC_HSE_IsReady
 964:Drivers/STM32G4xx_HAL_Driver/Inc/stm32g4xx_ll_rcc.h ****   * @retval State of bit (1 or 0).
 965:Drivers/STM32G4xx_HAL_Driver/Inc/stm32g4xx_ll_rcc.h ****   */
 966:Drivers/STM32G4xx_HAL_Driver/Inc/stm32g4xx_ll_rcc.h **** __STATIC_INLINE uint32_t LL_RCC_HSE_IsReady(void)
 967:Drivers/STM32G4xx_HAL_Driver/Inc/stm32g4xx_ll_rcc.h **** {
 968:Drivers/STM32G4xx_HAL_Driver/Inc/stm32g4xx_ll_rcc.h ****   return ((READ_BIT(RCC->CR, RCC_CR_HSERDY) == (RCC_CR_HSERDY)) ? 1UL : 0UL);
 969:Drivers/STM32G4xx_HAL_Driver/Inc/stm32g4xx_ll_rcc.h **** }
 970:Drivers/STM32G4xx_HAL_Driver/Inc/stm32g4xx_ll_rcc.h **** 
 971:Drivers/STM32G4xx_HAL_Driver/Inc/stm32g4xx_ll_rcc.h **** /**
 972:Drivers/STM32G4xx_HAL_Driver/Inc/stm32g4xx_ll_rcc.h ****   * @}
 973:Drivers/STM32G4xx_HAL_Driver/Inc/stm32g4xx_ll_rcc.h ****   */
 974:Drivers/STM32G4xx_HAL_Driver/Inc/stm32g4xx_ll_rcc.h **** 
 975:Drivers/STM32G4xx_HAL_Driver/Inc/stm32g4xx_ll_rcc.h **** /** @defgroup RCC_LL_EF_HSI HSI
 976:Drivers/STM32G4xx_HAL_Driver/Inc/stm32g4xx_ll_rcc.h ****   * @{
 977:Drivers/STM32G4xx_HAL_Driver/Inc/stm32g4xx_ll_rcc.h ****   */
 978:Drivers/STM32G4xx_HAL_Driver/Inc/stm32g4xx_ll_rcc.h **** 
 979:Drivers/STM32G4xx_HAL_Driver/Inc/stm32g4xx_ll_rcc.h **** /**
 980:Drivers/STM32G4xx_HAL_Driver/Inc/stm32g4xx_ll_rcc.h ****   * @brief  Enable HSI even in stop mode
 981:Drivers/STM32G4xx_HAL_Driver/Inc/stm32g4xx_ll_rcc.h ****   * @note HSI oscillator is forced ON even in Stop mode
 982:Drivers/STM32G4xx_HAL_Driver/Inc/stm32g4xx_ll_rcc.h ****   * @rmtoll CR           HSIKERON      LL_RCC_HSI_EnableInStopMode
 983:Drivers/STM32G4xx_HAL_Driver/Inc/stm32g4xx_ll_rcc.h ****   * @retval None
 984:Drivers/STM32G4xx_HAL_Driver/Inc/stm32g4xx_ll_rcc.h ****   */
 985:Drivers/STM32G4xx_HAL_Driver/Inc/stm32g4xx_ll_rcc.h **** __STATIC_INLINE void LL_RCC_HSI_EnableInStopMode(void)
 986:Drivers/STM32G4xx_HAL_Driver/Inc/stm32g4xx_ll_rcc.h **** {
 987:Drivers/STM32G4xx_HAL_Driver/Inc/stm32g4xx_ll_rcc.h ****   SET_BIT(RCC->CR, RCC_CR_HSIKERON);
 988:Drivers/STM32G4xx_HAL_Driver/Inc/stm32g4xx_ll_rcc.h **** }
 989:Drivers/STM32G4xx_HAL_Driver/Inc/stm32g4xx_ll_rcc.h **** 
 990:Drivers/STM32G4xx_HAL_Driver/Inc/stm32g4xx_ll_rcc.h **** /**
 991:Drivers/STM32G4xx_HAL_Driver/Inc/stm32g4xx_ll_rcc.h ****   * @brief  Disable HSI in stop mode
 992:Drivers/STM32G4xx_HAL_Driver/Inc/stm32g4xx_ll_rcc.h ****   * @rmtoll CR           HSIKERON      LL_RCC_HSI_DisableInStopMode
ARM GAS  D:\apps\VSCode\data\tmp\ccGycOlE.s 			page 32


 993:Drivers/STM32G4xx_HAL_Driver/Inc/stm32g4xx_ll_rcc.h ****   * @retval None
 994:Drivers/STM32G4xx_HAL_Driver/Inc/stm32g4xx_ll_rcc.h ****   */
 995:Drivers/STM32G4xx_HAL_Driver/Inc/stm32g4xx_ll_rcc.h **** __STATIC_INLINE void LL_RCC_HSI_DisableInStopMode(void)
 996:Drivers/STM32G4xx_HAL_Driver/Inc/stm32g4xx_ll_rcc.h **** {
 997:Drivers/STM32G4xx_HAL_Driver/Inc/stm32g4xx_ll_rcc.h ****   CLEAR_BIT(RCC->CR, RCC_CR_HSIKERON);
 998:Drivers/STM32G4xx_HAL_Driver/Inc/stm32g4xx_ll_rcc.h **** }
 999:Drivers/STM32G4xx_HAL_Driver/Inc/stm32g4xx_ll_rcc.h **** 
1000:Drivers/STM32G4xx_HAL_Driver/Inc/stm32g4xx_ll_rcc.h **** /**
1001:Drivers/STM32G4xx_HAL_Driver/Inc/stm32g4xx_ll_rcc.h ****   * @brief  Enable HSI oscillator
1002:Drivers/STM32G4xx_HAL_Driver/Inc/stm32g4xx_ll_rcc.h ****   * @rmtoll CR           HSION         LL_RCC_HSI_Enable
1003:Drivers/STM32G4xx_HAL_Driver/Inc/stm32g4xx_ll_rcc.h ****   * @retval None
1004:Drivers/STM32G4xx_HAL_Driver/Inc/stm32g4xx_ll_rcc.h ****   */
1005:Drivers/STM32G4xx_HAL_Driver/Inc/stm32g4xx_ll_rcc.h **** __STATIC_INLINE void LL_RCC_HSI_Enable(void)
1006:Drivers/STM32G4xx_HAL_Driver/Inc/stm32g4xx_ll_rcc.h **** {
1007:Drivers/STM32G4xx_HAL_Driver/Inc/stm32g4xx_ll_rcc.h ****   SET_BIT(RCC->CR, RCC_CR_HSION);
1008:Drivers/STM32G4xx_HAL_Driver/Inc/stm32g4xx_ll_rcc.h **** }
1009:Drivers/STM32G4xx_HAL_Driver/Inc/stm32g4xx_ll_rcc.h **** 
1010:Drivers/STM32G4xx_HAL_Driver/Inc/stm32g4xx_ll_rcc.h **** /**
1011:Drivers/STM32G4xx_HAL_Driver/Inc/stm32g4xx_ll_rcc.h ****   * @brief  Disable HSI oscillator
1012:Drivers/STM32G4xx_HAL_Driver/Inc/stm32g4xx_ll_rcc.h ****   * @rmtoll CR           HSION         LL_RCC_HSI_Disable
1013:Drivers/STM32G4xx_HAL_Driver/Inc/stm32g4xx_ll_rcc.h ****   * @retval None
1014:Drivers/STM32G4xx_HAL_Driver/Inc/stm32g4xx_ll_rcc.h ****   */
1015:Drivers/STM32G4xx_HAL_Driver/Inc/stm32g4xx_ll_rcc.h **** __STATIC_INLINE void LL_RCC_HSI_Disable(void)
1016:Drivers/STM32G4xx_HAL_Driver/Inc/stm32g4xx_ll_rcc.h **** {
1017:Drivers/STM32G4xx_HAL_Driver/Inc/stm32g4xx_ll_rcc.h ****   CLEAR_BIT(RCC->CR, RCC_CR_HSION);
1018:Drivers/STM32G4xx_HAL_Driver/Inc/stm32g4xx_ll_rcc.h **** }
1019:Drivers/STM32G4xx_HAL_Driver/Inc/stm32g4xx_ll_rcc.h **** 
1020:Drivers/STM32G4xx_HAL_Driver/Inc/stm32g4xx_ll_rcc.h **** /**
1021:Drivers/STM32G4xx_HAL_Driver/Inc/stm32g4xx_ll_rcc.h ****   * @brief  Check if HSI clock is ready
1022:Drivers/STM32G4xx_HAL_Driver/Inc/stm32g4xx_ll_rcc.h ****   * @rmtoll CR           HSIRDY        LL_RCC_HSI_IsReady
1023:Drivers/STM32G4xx_HAL_Driver/Inc/stm32g4xx_ll_rcc.h ****   * @retval State of bit (1 or 0).
1024:Drivers/STM32G4xx_HAL_Driver/Inc/stm32g4xx_ll_rcc.h ****   */
1025:Drivers/STM32G4xx_HAL_Driver/Inc/stm32g4xx_ll_rcc.h **** __STATIC_INLINE uint32_t LL_RCC_HSI_IsReady(void)
1026:Drivers/STM32G4xx_HAL_Driver/Inc/stm32g4xx_ll_rcc.h **** {
1027:Drivers/STM32G4xx_HAL_Driver/Inc/stm32g4xx_ll_rcc.h ****   return ((READ_BIT(RCC->CR, RCC_CR_HSIRDY) == (RCC_CR_HSIRDY)) ? 1UL : 0UL);
1028:Drivers/STM32G4xx_HAL_Driver/Inc/stm32g4xx_ll_rcc.h **** }
1029:Drivers/STM32G4xx_HAL_Driver/Inc/stm32g4xx_ll_rcc.h **** 
1030:Drivers/STM32G4xx_HAL_Driver/Inc/stm32g4xx_ll_rcc.h **** /**
1031:Drivers/STM32G4xx_HAL_Driver/Inc/stm32g4xx_ll_rcc.h ****   * @brief  Get HSI Calibration value
1032:Drivers/STM32G4xx_HAL_Driver/Inc/stm32g4xx_ll_rcc.h ****   * @note When HSITRIM is written, HSICAL is updated with the sum of
1033:Drivers/STM32G4xx_HAL_Driver/Inc/stm32g4xx_ll_rcc.h ****   *       HSITRIM and the factory trim value
1034:Drivers/STM32G4xx_HAL_Driver/Inc/stm32g4xx_ll_rcc.h ****   * @rmtoll ICSCR        HSICAL        LL_RCC_HSI_GetCalibration
1035:Drivers/STM32G4xx_HAL_Driver/Inc/stm32g4xx_ll_rcc.h ****   * @retval Between Min_Data = 0x00 and Max_Data = 0xFF
1036:Drivers/STM32G4xx_HAL_Driver/Inc/stm32g4xx_ll_rcc.h ****   */
1037:Drivers/STM32G4xx_HAL_Driver/Inc/stm32g4xx_ll_rcc.h **** __STATIC_INLINE uint32_t LL_RCC_HSI_GetCalibration(void)
1038:Drivers/STM32G4xx_HAL_Driver/Inc/stm32g4xx_ll_rcc.h **** {
1039:Drivers/STM32G4xx_HAL_Driver/Inc/stm32g4xx_ll_rcc.h ****   return (uint32_t)(READ_BIT(RCC->ICSCR, RCC_ICSCR_HSICAL) >> RCC_ICSCR_HSICAL_Pos);
1040:Drivers/STM32G4xx_HAL_Driver/Inc/stm32g4xx_ll_rcc.h **** }
1041:Drivers/STM32G4xx_HAL_Driver/Inc/stm32g4xx_ll_rcc.h **** 
1042:Drivers/STM32G4xx_HAL_Driver/Inc/stm32g4xx_ll_rcc.h **** /**
1043:Drivers/STM32G4xx_HAL_Driver/Inc/stm32g4xx_ll_rcc.h ****   * @brief  Set HSI Calibration trimming
1044:Drivers/STM32G4xx_HAL_Driver/Inc/stm32g4xx_ll_rcc.h ****   * @note user-programmable trimming value that is added to the HSICAL
1045:Drivers/STM32G4xx_HAL_Driver/Inc/stm32g4xx_ll_rcc.h ****   * @note Default value is 16, which, when added to the HSICAL value,
1046:Drivers/STM32G4xx_HAL_Driver/Inc/stm32g4xx_ll_rcc.h ****   *       should trim the HSI to 16 MHz +/- 1 %
1047:Drivers/STM32G4xx_HAL_Driver/Inc/stm32g4xx_ll_rcc.h ****   * @rmtoll ICSCR        HSITRIM       LL_RCC_HSI_SetCalibTrimming
1048:Drivers/STM32G4xx_HAL_Driver/Inc/stm32g4xx_ll_rcc.h ****   * @param  Value Between Min_Data = 0 and Max_Data = 127
1049:Drivers/STM32G4xx_HAL_Driver/Inc/stm32g4xx_ll_rcc.h ****   * @retval None
ARM GAS  D:\apps\VSCode\data\tmp\ccGycOlE.s 			page 33


1050:Drivers/STM32G4xx_HAL_Driver/Inc/stm32g4xx_ll_rcc.h ****   */
1051:Drivers/STM32G4xx_HAL_Driver/Inc/stm32g4xx_ll_rcc.h **** __STATIC_INLINE void LL_RCC_HSI_SetCalibTrimming(uint32_t Value)
1052:Drivers/STM32G4xx_HAL_Driver/Inc/stm32g4xx_ll_rcc.h **** {
1053:Drivers/STM32G4xx_HAL_Driver/Inc/stm32g4xx_ll_rcc.h ****   MODIFY_REG(RCC->ICSCR, RCC_ICSCR_HSITRIM, Value << RCC_ICSCR_HSITRIM_Pos);
1054:Drivers/STM32G4xx_HAL_Driver/Inc/stm32g4xx_ll_rcc.h **** }
1055:Drivers/STM32G4xx_HAL_Driver/Inc/stm32g4xx_ll_rcc.h **** 
1056:Drivers/STM32G4xx_HAL_Driver/Inc/stm32g4xx_ll_rcc.h **** /**
1057:Drivers/STM32G4xx_HAL_Driver/Inc/stm32g4xx_ll_rcc.h ****   * @brief  Get HSI Calibration trimming
1058:Drivers/STM32G4xx_HAL_Driver/Inc/stm32g4xx_ll_rcc.h ****   * @rmtoll ICSCR        HSITRIM       LL_RCC_HSI_GetCalibTrimming
1059:Drivers/STM32G4xx_HAL_Driver/Inc/stm32g4xx_ll_rcc.h ****   * @retval Between Min_Data = 0 and Max_Data = 127
1060:Drivers/STM32G4xx_HAL_Driver/Inc/stm32g4xx_ll_rcc.h ****   */
1061:Drivers/STM32G4xx_HAL_Driver/Inc/stm32g4xx_ll_rcc.h **** __STATIC_INLINE uint32_t LL_RCC_HSI_GetCalibTrimming(void)
1062:Drivers/STM32G4xx_HAL_Driver/Inc/stm32g4xx_ll_rcc.h **** {
1063:Drivers/STM32G4xx_HAL_Driver/Inc/stm32g4xx_ll_rcc.h ****   return (uint32_t)(READ_BIT(RCC->ICSCR, RCC_ICSCR_HSITRIM) >> RCC_ICSCR_HSITRIM_Pos);
1064:Drivers/STM32G4xx_HAL_Driver/Inc/stm32g4xx_ll_rcc.h **** }
1065:Drivers/STM32G4xx_HAL_Driver/Inc/stm32g4xx_ll_rcc.h **** 
1066:Drivers/STM32G4xx_HAL_Driver/Inc/stm32g4xx_ll_rcc.h **** /**
1067:Drivers/STM32G4xx_HAL_Driver/Inc/stm32g4xx_ll_rcc.h ****   * @}
1068:Drivers/STM32G4xx_HAL_Driver/Inc/stm32g4xx_ll_rcc.h ****   */
1069:Drivers/STM32G4xx_HAL_Driver/Inc/stm32g4xx_ll_rcc.h **** 
1070:Drivers/STM32G4xx_HAL_Driver/Inc/stm32g4xx_ll_rcc.h **** /** @defgroup RCC_LL_EF_HSI48 HSI48
1071:Drivers/STM32G4xx_HAL_Driver/Inc/stm32g4xx_ll_rcc.h ****   * @{
1072:Drivers/STM32G4xx_HAL_Driver/Inc/stm32g4xx_ll_rcc.h ****   */
1073:Drivers/STM32G4xx_HAL_Driver/Inc/stm32g4xx_ll_rcc.h **** 
1074:Drivers/STM32G4xx_HAL_Driver/Inc/stm32g4xx_ll_rcc.h **** /**
1075:Drivers/STM32G4xx_HAL_Driver/Inc/stm32g4xx_ll_rcc.h ****   * @brief  Enable HSI48
1076:Drivers/STM32G4xx_HAL_Driver/Inc/stm32g4xx_ll_rcc.h ****   * @rmtoll CRRCR          HSI48ON       LL_RCC_HSI48_Enable
1077:Drivers/STM32G4xx_HAL_Driver/Inc/stm32g4xx_ll_rcc.h ****   * @retval None
1078:Drivers/STM32G4xx_HAL_Driver/Inc/stm32g4xx_ll_rcc.h ****   */
1079:Drivers/STM32G4xx_HAL_Driver/Inc/stm32g4xx_ll_rcc.h **** __STATIC_INLINE void LL_RCC_HSI48_Enable(void)
1080:Drivers/STM32G4xx_HAL_Driver/Inc/stm32g4xx_ll_rcc.h **** {
1081:Drivers/STM32G4xx_HAL_Driver/Inc/stm32g4xx_ll_rcc.h ****   SET_BIT(RCC->CRRCR, RCC_CRRCR_HSI48ON);
1082:Drivers/STM32G4xx_HAL_Driver/Inc/stm32g4xx_ll_rcc.h **** }
1083:Drivers/STM32G4xx_HAL_Driver/Inc/stm32g4xx_ll_rcc.h **** 
1084:Drivers/STM32G4xx_HAL_Driver/Inc/stm32g4xx_ll_rcc.h **** /**
1085:Drivers/STM32G4xx_HAL_Driver/Inc/stm32g4xx_ll_rcc.h ****   * @brief  Disable HSI48
1086:Drivers/STM32G4xx_HAL_Driver/Inc/stm32g4xx_ll_rcc.h ****   * @rmtoll CRRCR          HSI48ON       LL_RCC_HSI48_Disable
1087:Drivers/STM32G4xx_HAL_Driver/Inc/stm32g4xx_ll_rcc.h ****   * @retval None
1088:Drivers/STM32G4xx_HAL_Driver/Inc/stm32g4xx_ll_rcc.h ****   */
1089:Drivers/STM32G4xx_HAL_Driver/Inc/stm32g4xx_ll_rcc.h **** __STATIC_INLINE void LL_RCC_HSI48_Disable(void)
1090:Drivers/STM32G4xx_HAL_Driver/Inc/stm32g4xx_ll_rcc.h **** {
1091:Drivers/STM32G4xx_HAL_Driver/Inc/stm32g4xx_ll_rcc.h ****   CLEAR_BIT(RCC->CRRCR, RCC_CRRCR_HSI48ON);
1092:Drivers/STM32G4xx_HAL_Driver/Inc/stm32g4xx_ll_rcc.h **** }
1093:Drivers/STM32G4xx_HAL_Driver/Inc/stm32g4xx_ll_rcc.h **** 
1094:Drivers/STM32G4xx_HAL_Driver/Inc/stm32g4xx_ll_rcc.h **** /**
1095:Drivers/STM32G4xx_HAL_Driver/Inc/stm32g4xx_ll_rcc.h ****   * @brief  Check if HSI48 oscillator Ready
1096:Drivers/STM32G4xx_HAL_Driver/Inc/stm32g4xx_ll_rcc.h ****   * @rmtoll CRRCR          HSI48RDY      LL_RCC_HSI48_IsReady
1097:Drivers/STM32G4xx_HAL_Driver/Inc/stm32g4xx_ll_rcc.h ****   * @retval State of bit (1 or 0).
1098:Drivers/STM32G4xx_HAL_Driver/Inc/stm32g4xx_ll_rcc.h ****   */
1099:Drivers/STM32G4xx_HAL_Driver/Inc/stm32g4xx_ll_rcc.h **** __STATIC_INLINE uint32_t LL_RCC_HSI48_IsReady(void)
1100:Drivers/STM32G4xx_HAL_Driver/Inc/stm32g4xx_ll_rcc.h **** {
1101:Drivers/STM32G4xx_HAL_Driver/Inc/stm32g4xx_ll_rcc.h ****   return ((READ_BIT(RCC->CRRCR, RCC_CRRCR_HSI48RDY) == (RCC_CRRCR_HSI48RDY)) ? 1UL : 0UL);
1102:Drivers/STM32G4xx_HAL_Driver/Inc/stm32g4xx_ll_rcc.h **** }
1103:Drivers/STM32G4xx_HAL_Driver/Inc/stm32g4xx_ll_rcc.h **** 
1104:Drivers/STM32G4xx_HAL_Driver/Inc/stm32g4xx_ll_rcc.h **** /**
1105:Drivers/STM32G4xx_HAL_Driver/Inc/stm32g4xx_ll_rcc.h ****   * @brief  Get HSI48 Calibration value
1106:Drivers/STM32G4xx_HAL_Driver/Inc/stm32g4xx_ll_rcc.h ****   * @rmtoll CRRCR          HSI48CAL      LL_RCC_HSI48_GetCalibration
ARM GAS  D:\apps\VSCode\data\tmp\ccGycOlE.s 			page 34


1107:Drivers/STM32G4xx_HAL_Driver/Inc/stm32g4xx_ll_rcc.h ****   * @retval Between Min_Data = 0x00 and Max_Data = 0x1FF
1108:Drivers/STM32G4xx_HAL_Driver/Inc/stm32g4xx_ll_rcc.h ****   */
1109:Drivers/STM32G4xx_HAL_Driver/Inc/stm32g4xx_ll_rcc.h **** __STATIC_INLINE uint32_t LL_RCC_HSI48_GetCalibration(void)
1110:Drivers/STM32G4xx_HAL_Driver/Inc/stm32g4xx_ll_rcc.h **** {
1111:Drivers/STM32G4xx_HAL_Driver/Inc/stm32g4xx_ll_rcc.h ****   return (uint32_t)(READ_BIT(RCC->CRRCR, RCC_CRRCR_HSI48CAL) >> RCC_CRRCR_HSI48CAL_Pos);
1112:Drivers/STM32G4xx_HAL_Driver/Inc/stm32g4xx_ll_rcc.h **** }
1113:Drivers/STM32G4xx_HAL_Driver/Inc/stm32g4xx_ll_rcc.h **** 
1114:Drivers/STM32G4xx_HAL_Driver/Inc/stm32g4xx_ll_rcc.h **** /**
1115:Drivers/STM32G4xx_HAL_Driver/Inc/stm32g4xx_ll_rcc.h ****   * @}
1116:Drivers/STM32G4xx_HAL_Driver/Inc/stm32g4xx_ll_rcc.h ****   */
1117:Drivers/STM32G4xx_HAL_Driver/Inc/stm32g4xx_ll_rcc.h **** 
1118:Drivers/STM32G4xx_HAL_Driver/Inc/stm32g4xx_ll_rcc.h **** /** @defgroup RCC_LL_EF_LSE LSE
1119:Drivers/STM32G4xx_HAL_Driver/Inc/stm32g4xx_ll_rcc.h ****   * @{
1120:Drivers/STM32G4xx_HAL_Driver/Inc/stm32g4xx_ll_rcc.h ****   */
1121:Drivers/STM32G4xx_HAL_Driver/Inc/stm32g4xx_ll_rcc.h **** 
1122:Drivers/STM32G4xx_HAL_Driver/Inc/stm32g4xx_ll_rcc.h **** /**
1123:Drivers/STM32G4xx_HAL_Driver/Inc/stm32g4xx_ll_rcc.h ****   * @brief  Enable  Low Speed External (LSE) crystal.
1124:Drivers/STM32G4xx_HAL_Driver/Inc/stm32g4xx_ll_rcc.h ****   * @rmtoll BDCR         LSEON         LL_RCC_LSE_Enable
1125:Drivers/STM32G4xx_HAL_Driver/Inc/stm32g4xx_ll_rcc.h ****   * @retval None
1126:Drivers/STM32G4xx_HAL_Driver/Inc/stm32g4xx_ll_rcc.h ****   */
1127:Drivers/STM32G4xx_HAL_Driver/Inc/stm32g4xx_ll_rcc.h **** __STATIC_INLINE void LL_RCC_LSE_Enable(void)
1128:Drivers/STM32G4xx_HAL_Driver/Inc/stm32g4xx_ll_rcc.h **** {
1129:Drivers/STM32G4xx_HAL_Driver/Inc/stm32g4xx_ll_rcc.h ****   SET_BIT(RCC->BDCR, RCC_BDCR_LSEON);
1130:Drivers/STM32G4xx_HAL_Driver/Inc/stm32g4xx_ll_rcc.h **** }
1131:Drivers/STM32G4xx_HAL_Driver/Inc/stm32g4xx_ll_rcc.h **** 
1132:Drivers/STM32G4xx_HAL_Driver/Inc/stm32g4xx_ll_rcc.h **** /**
1133:Drivers/STM32G4xx_HAL_Driver/Inc/stm32g4xx_ll_rcc.h ****   * @brief  Disable  Low Speed External (LSE) crystal.
1134:Drivers/STM32G4xx_HAL_Driver/Inc/stm32g4xx_ll_rcc.h ****   * @rmtoll BDCR         LSEON         LL_RCC_LSE_Disable
1135:Drivers/STM32G4xx_HAL_Driver/Inc/stm32g4xx_ll_rcc.h ****   * @retval None
1136:Drivers/STM32G4xx_HAL_Driver/Inc/stm32g4xx_ll_rcc.h ****   */
1137:Drivers/STM32G4xx_HAL_Driver/Inc/stm32g4xx_ll_rcc.h **** __STATIC_INLINE void LL_RCC_LSE_Disable(void)
1138:Drivers/STM32G4xx_HAL_Driver/Inc/stm32g4xx_ll_rcc.h **** {
1139:Drivers/STM32G4xx_HAL_Driver/Inc/stm32g4xx_ll_rcc.h ****   CLEAR_BIT(RCC->BDCR, RCC_BDCR_LSEON);
1140:Drivers/STM32G4xx_HAL_Driver/Inc/stm32g4xx_ll_rcc.h **** }
1141:Drivers/STM32G4xx_HAL_Driver/Inc/stm32g4xx_ll_rcc.h **** 
1142:Drivers/STM32G4xx_HAL_Driver/Inc/stm32g4xx_ll_rcc.h **** /**
1143:Drivers/STM32G4xx_HAL_Driver/Inc/stm32g4xx_ll_rcc.h ****   * @brief  Enable external clock source (LSE bypass).
1144:Drivers/STM32G4xx_HAL_Driver/Inc/stm32g4xx_ll_rcc.h ****   * @rmtoll BDCR         LSEBYP        LL_RCC_LSE_EnableBypass
1145:Drivers/STM32G4xx_HAL_Driver/Inc/stm32g4xx_ll_rcc.h ****   * @retval None
1146:Drivers/STM32G4xx_HAL_Driver/Inc/stm32g4xx_ll_rcc.h ****   */
1147:Drivers/STM32G4xx_HAL_Driver/Inc/stm32g4xx_ll_rcc.h **** __STATIC_INLINE void LL_RCC_LSE_EnableBypass(void)
1148:Drivers/STM32G4xx_HAL_Driver/Inc/stm32g4xx_ll_rcc.h **** {
1149:Drivers/STM32G4xx_HAL_Driver/Inc/stm32g4xx_ll_rcc.h ****   SET_BIT(RCC->BDCR, RCC_BDCR_LSEBYP);
1150:Drivers/STM32G4xx_HAL_Driver/Inc/stm32g4xx_ll_rcc.h **** }
1151:Drivers/STM32G4xx_HAL_Driver/Inc/stm32g4xx_ll_rcc.h **** 
1152:Drivers/STM32G4xx_HAL_Driver/Inc/stm32g4xx_ll_rcc.h **** /**
1153:Drivers/STM32G4xx_HAL_Driver/Inc/stm32g4xx_ll_rcc.h ****   * @brief  Disable external clock source (LSE bypass).
1154:Drivers/STM32G4xx_HAL_Driver/Inc/stm32g4xx_ll_rcc.h ****   * @rmtoll BDCR         LSEBYP        LL_RCC_LSE_DisableBypass
1155:Drivers/STM32G4xx_HAL_Driver/Inc/stm32g4xx_ll_rcc.h ****   * @retval None
1156:Drivers/STM32G4xx_HAL_Driver/Inc/stm32g4xx_ll_rcc.h ****   */
1157:Drivers/STM32G4xx_HAL_Driver/Inc/stm32g4xx_ll_rcc.h **** __STATIC_INLINE void LL_RCC_LSE_DisableBypass(void)
1158:Drivers/STM32G4xx_HAL_Driver/Inc/stm32g4xx_ll_rcc.h **** {
1159:Drivers/STM32G4xx_HAL_Driver/Inc/stm32g4xx_ll_rcc.h ****   CLEAR_BIT(RCC->BDCR, RCC_BDCR_LSEBYP);
1160:Drivers/STM32G4xx_HAL_Driver/Inc/stm32g4xx_ll_rcc.h **** }
1161:Drivers/STM32G4xx_HAL_Driver/Inc/stm32g4xx_ll_rcc.h **** 
1162:Drivers/STM32G4xx_HAL_Driver/Inc/stm32g4xx_ll_rcc.h **** /**
1163:Drivers/STM32G4xx_HAL_Driver/Inc/stm32g4xx_ll_rcc.h ****   * @brief  Set LSE oscillator drive capability
ARM GAS  D:\apps\VSCode\data\tmp\ccGycOlE.s 			page 35


1164:Drivers/STM32G4xx_HAL_Driver/Inc/stm32g4xx_ll_rcc.h ****   * @note The oscillator is in Xtal mode when it is not in bypass mode.
1165:Drivers/STM32G4xx_HAL_Driver/Inc/stm32g4xx_ll_rcc.h ****   * @rmtoll BDCR         LSEDRV        LL_RCC_LSE_SetDriveCapability
1166:Drivers/STM32G4xx_HAL_Driver/Inc/stm32g4xx_ll_rcc.h ****   * @param  LSEDrive This parameter can be one of the following values:
1167:Drivers/STM32G4xx_HAL_Driver/Inc/stm32g4xx_ll_rcc.h ****   *         @arg @ref LL_RCC_LSEDRIVE_LOW
1168:Drivers/STM32G4xx_HAL_Driver/Inc/stm32g4xx_ll_rcc.h ****   *         @arg @ref LL_RCC_LSEDRIVE_MEDIUMLOW
1169:Drivers/STM32G4xx_HAL_Driver/Inc/stm32g4xx_ll_rcc.h ****   *         @arg @ref LL_RCC_LSEDRIVE_MEDIUMHIGH
1170:Drivers/STM32G4xx_HAL_Driver/Inc/stm32g4xx_ll_rcc.h ****   *         @arg @ref LL_RCC_LSEDRIVE_HIGH
1171:Drivers/STM32G4xx_HAL_Driver/Inc/stm32g4xx_ll_rcc.h ****   * @retval None
1172:Drivers/STM32G4xx_HAL_Driver/Inc/stm32g4xx_ll_rcc.h ****   */
1173:Drivers/STM32G4xx_HAL_Driver/Inc/stm32g4xx_ll_rcc.h **** __STATIC_INLINE void LL_RCC_LSE_SetDriveCapability(uint32_t LSEDrive)
1174:Drivers/STM32G4xx_HAL_Driver/Inc/stm32g4xx_ll_rcc.h **** {
1175:Drivers/STM32G4xx_HAL_Driver/Inc/stm32g4xx_ll_rcc.h ****   MODIFY_REG(RCC->BDCR, RCC_BDCR_LSEDRV, LSEDrive);
1176:Drivers/STM32G4xx_HAL_Driver/Inc/stm32g4xx_ll_rcc.h **** }
1177:Drivers/STM32G4xx_HAL_Driver/Inc/stm32g4xx_ll_rcc.h **** 
1178:Drivers/STM32G4xx_HAL_Driver/Inc/stm32g4xx_ll_rcc.h **** /**
1179:Drivers/STM32G4xx_HAL_Driver/Inc/stm32g4xx_ll_rcc.h ****   * @brief  Get LSE oscillator drive capability
1180:Drivers/STM32G4xx_HAL_Driver/Inc/stm32g4xx_ll_rcc.h ****   * @rmtoll BDCR         LSEDRV        LL_RCC_LSE_GetDriveCapability
1181:Drivers/STM32G4xx_HAL_Driver/Inc/stm32g4xx_ll_rcc.h ****   * @retval Returned value can be one of the following values:
1182:Drivers/STM32G4xx_HAL_Driver/Inc/stm32g4xx_ll_rcc.h ****   *         @arg @ref LL_RCC_LSEDRIVE_LOW
1183:Drivers/STM32G4xx_HAL_Driver/Inc/stm32g4xx_ll_rcc.h ****   *         @arg @ref LL_RCC_LSEDRIVE_MEDIUMLOW
1184:Drivers/STM32G4xx_HAL_Driver/Inc/stm32g4xx_ll_rcc.h ****   *         @arg @ref LL_RCC_LSEDRIVE_MEDIUMHIGH
1185:Drivers/STM32G4xx_HAL_Driver/Inc/stm32g4xx_ll_rcc.h ****   *         @arg @ref LL_RCC_LSEDRIVE_HIGH
1186:Drivers/STM32G4xx_HAL_Driver/Inc/stm32g4xx_ll_rcc.h ****   */
1187:Drivers/STM32G4xx_HAL_Driver/Inc/stm32g4xx_ll_rcc.h **** __STATIC_INLINE uint32_t LL_RCC_LSE_GetDriveCapability(void)
1188:Drivers/STM32G4xx_HAL_Driver/Inc/stm32g4xx_ll_rcc.h **** {
1189:Drivers/STM32G4xx_HAL_Driver/Inc/stm32g4xx_ll_rcc.h ****   return (uint32_t)(READ_BIT(RCC->BDCR, RCC_BDCR_LSEDRV));
1190:Drivers/STM32G4xx_HAL_Driver/Inc/stm32g4xx_ll_rcc.h **** }
1191:Drivers/STM32G4xx_HAL_Driver/Inc/stm32g4xx_ll_rcc.h **** 
1192:Drivers/STM32G4xx_HAL_Driver/Inc/stm32g4xx_ll_rcc.h **** /**
1193:Drivers/STM32G4xx_HAL_Driver/Inc/stm32g4xx_ll_rcc.h ****   * @brief  Enable Clock security system on LSE.
1194:Drivers/STM32G4xx_HAL_Driver/Inc/stm32g4xx_ll_rcc.h ****   * @rmtoll BDCR         LSECSSON      LL_RCC_LSE_EnableCSS
1195:Drivers/STM32G4xx_HAL_Driver/Inc/stm32g4xx_ll_rcc.h ****   * @retval None
1196:Drivers/STM32G4xx_HAL_Driver/Inc/stm32g4xx_ll_rcc.h ****   */
1197:Drivers/STM32G4xx_HAL_Driver/Inc/stm32g4xx_ll_rcc.h **** __STATIC_INLINE void LL_RCC_LSE_EnableCSS(void)
1198:Drivers/STM32G4xx_HAL_Driver/Inc/stm32g4xx_ll_rcc.h **** {
1199:Drivers/STM32G4xx_HAL_Driver/Inc/stm32g4xx_ll_rcc.h ****   SET_BIT(RCC->BDCR, RCC_BDCR_LSECSSON);
1200:Drivers/STM32G4xx_HAL_Driver/Inc/stm32g4xx_ll_rcc.h **** }
1201:Drivers/STM32G4xx_HAL_Driver/Inc/stm32g4xx_ll_rcc.h **** 
1202:Drivers/STM32G4xx_HAL_Driver/Inc/stm32g4xx_ll_rcc.h **** /**
1203:Drivers/STM32G4xx_HAL_Driver/Inc/stm32g4xx_ll_rcc.h ****   * @brief  Disable Clock security system on LSE.
1204:Drivers/STM32G4xx_HAL_Driver/Inc/stm32g4xx_ll_rcc.h ****   * @note Clock security system can be disabled only after a LSE
1205:Drivers/STM32G4xx_HAL_Driver/Inc/stm32g4xx_ll_rcc.h ****   *       failure detection. In that case it MUST be disabled by software.
1206:Drivers/STM32G4xx_HAL_Driver/Inc/stm32g4xx_ll_rcc.h ****   * @rmtoll BDCR         LSECSSON      LL_RCC_LSE_DisableCSS
1207:Drivers/STM32G4xx_HAL_Driver/Inc/stm32g4xx_ll_rcc.h ****   * @retval None
1208:Drivers/STM32G4xx_HAL_Driver/Inc/stm32g4xx_ll_rcc.h ****   */
1209:Drivers/STM32G4xx_HAL_Driver/Inc/stm32g4xx_ll_rcc.h **** __STATIC_INLINE void LL_RCC_LSE_DisableCSS(void)
1210:Drivers/STM32G4xx_HAL_Driver/Inc/stm32g4xx_ll_rcc.h **** {
1211:Drivers/STM32G4xx_HAL_Driver/Inc/stm32g4xx_ll_rcc.h ****   CLEAR_BIT(RCC->BDCR, RCC_BDCR_LSECSSON);
1212:Drivers/STM32G4xx_HAL_Driver/Inc/stm32g4xx_ll_rcc.h **** }
1213:Drivers/STM32G4xx_HAL_Driver/Inc/stm32g4xx_ll_rcc.h **** 
1214:Drivers/STM32G4xx_HAL_Driver/Inc/stm32g4xx_ll_rcc.h **** /**
1215:Drivers/STM32G4xx_HAL_Driver/Inc/stm32g4xx_ll_rcc.h ****   * @brief  Check if LSE oscillator Ready
1216:Drivers/STM32G4xx_HAL_Driver/Inc/stm32g4xx_ll_rcc.h ****   * @rmtoll BDCR         LSERDY        LL_RCC_LSE_IsReady
1217:Drivers/STM32G4xx_HAL_Driver/Inc/stm32g4xx_ll_rcc.h ****   * @retval State of bit (1 or 0).
1218:Drivers/STM32G4xx_HAL_Driver/Inc/stm32g4xx_ll_rcc.h ****   */
1219:Drivers/STM32G4xx_HAL_Driver/Inc/stm32g4xx_ll_rcc.h **** __STATIC_INLINE uint32_t LL_RCC_LSE_IsReady(void)
1220:Drivers/STM32G4xx_HAL_Driver/Inc/stm32g4xx_ll_rcc.h **** {
ARM GAS  D:\apps\VSCode\data\tmp\ccGycOlE.s 			page 36


1221:Drivers/STM32G4xx_HAL_Driver/Inc/stm32g4xx_ll_rcc.h ****   return ((READ_BIT(RCC->BDCR, RCC_BDCR_LSERDY) == (RCC_BDCR_LSERDY)) ? 1UL : 0UL);
1222:Drivers/STM32G4xx_HAL_Driver/Inc/stm32g4xx_ll_rcc.h **** }
1223:Drivers/STM32G4xx_HAL_Driver/Inc/stm32g4xx_ll_rcc.h **** 
1224:Drivers/STM32G4xx_HAL_Driver/Inc/stm32g4xx_ll_rcc.h **** /**
1225:Drivers/STM32G4xx_HAL_Driver/Inc/stm32g4xx_ll_rcc.h ****   * @brief  Check if CSS on LSE failure Detection
1226:Drivers/STM32G4xx_HAL_Driver/Inc/stm32g4xx_ll_rcc.h ****   * @rmtoll BDCR         LSECSSD       LL_RCC_LSE_IsCSSDetected
1227:Drivers/STM32G4xx_HAL_Driver/Inc/stm32g4xx_ll_rcc.h ****   * @retval State of bit (1 or 0).
1228:Drivers/STM32G4xx_HAL_Driver/Inc/stm32g4xx_ll_rcc.h ****   */
1229:Drivers/STM32G4xx_HAL_Driver/Inc/stm32g4xx_ll_rcc.h **** __STATIC_INLINE uint32_t LL_RCC_LSE_IsCSSDetected(void)
1230:Drivers/STM32G4xx_HAL_Driver/Inc/stm32g4xx_ll_rcc.h **** {
1231:Drivers/STM32G4xx_HAL_Driver/Inc/stm32g4xx_ll_rcc.h ****   return ((READ_BIT(RCC->BDCR, RCC_BDCR_LSECSSD) == (RCC_BDCR_LSECSSD)) ? 1UL : 0UL);
1232:Drivers/STM32G4xx_HAL_Driver/Inc/stm32g4xx_ll_rcc.h **** }
1233:Drivers/STM32G4xx_HAL_Driver/Inc/stm32g4xx_ll_rcc.h **** 
1234:Drivers/STM32G4xx_HAL_Driver/Inc/stm32g4xx_ll_rcc.h **** /**
1235:Drivers/STM32G4xx_HAL_Driver/Inc/stm32g4xx_ll_rcc.h ****   * @}
1236:Drivers/STM32G4xx_HAL_Driver/Inc/stm32g4xx_ll_rcc.h ****   */
1237:Drivers/STM32G4xx_HAL_Driver/Inc/stm32g4xx_ll_rcc.h **** 
1238:Drivers/STM32G4xx_HAL_Driver/Inc/stm32g4xx_ll_rcc.h **** /** @defgroup RCC_LL_EF_LSI LSI
1239:Drivers/STM32G4xx_HAL_Driver/Inc/stm32g4xx_ll_rcc.h ****   * @{
1240:Drivers/STM32G4xx_HAL_Driver/Inc/stm32g4xx_ll_rcc.h ****   */
1241:Drivers/STM32G4xx_HAL_Driver/Inc/stm32g4xx_ll_rcc.h **** 
1242:Drivers/STM32G4xx_HAL_Driver/Inc/stm32g4xx_ll_rcc.h **** /**
1243:Drivers/STM32G4xx_HAL_Driver/Inc/stm32g4xx_ll_rcc.h ****   * @brief  Enable LSI Oscillator
1244:Drivers/STM32G4xx_HAL_Driver/Inc/stm32g4xx_ll_rcc.h ****   * @rmtoll CSR          LSION         LL_RCC_LSI_Enable
1245:Drivers/STM32G4xx_HAL_Driver/Inc/stm32g4xx_ll_rcc.h ****   * @retval None
1246:Drivers/STM32G4xx_HAL_Driver/Inc/stm32g4xx_ll_rcc.h ****   */
1247:Drivers/STM32G4xx_HAL_Driver/Inc/stm32g4xx_ll_rcc.h **** __STATIC_INLINE void LL_RCC_LSI_Enable(void)
1248:Drivers/STM32G4xx_HAL_Driver/Inc/stm32g4xx_ll_rcc.h **** {
1249:Drivers/STM32G4xx_HAL_Driver/Inc/stm32g4xx_ll_rcc.h ****   SET_BIT(RCC->CSR, RCC_CSR_LSION);
1250:Drivers/STM32G4xx_HAL_Driver/Inc/stm32g4xx_ll_rcc.h **** }
1251:Drivers/STM32G4xx_HAL_Driver/Inc/stm32g4xx_ll_rcc.h **** 
1252:Drivers/STM32G4xx_HAL_Driver/Inc/stm32g4xx_ll_rcc.h **** /**
1253:Drivers/STM32G4xx_HAL_Driver/Inc/stm32g4xx_ll_rcc.h ****   * @brief  Disable LSI Oscillator
1254:Drivers/STM32G4xx_HAL_Driver/Inc/stm32g4xx_ll_rcc.h ****   * @rmtoll CSR          LSION         LL_RCC_LSI_Disable
1255:Drivers/STM32G4xx_HAL_Driver/Inc/stm32g4xx_ll_rcc.h ****   * @retval None
1256:Drivers/STM32G4xx_HAL_Driver/Inc/stm32g4xx_ll_rcc.h ****   */
1257:Drivers/STM32G4xx_HAL_Driver/Inc/stm32g4xx_ll_rcc.h **** __STATIC_INLINE void LL_RCC_LSI_Disable(void)
1258:Drivers/STM32G4xx_HAL_Driver/Inc/stm32g4xx_ll_rcc.h **** {
1259:Drivers/STM32G4xx_HAL_Driver/Inc/stm32g4xx_ll_rcc.h ****   CLEAR_BIT(RCC->CSR, RCC_CSR_LSION);
1260:Drivers/STM32G4xx_HAL_Driver/Inc/stm32g4xx_ll_rcc.h **** }
1261:Drivers/STM32G4xx_HAL_Driver/Inc/stm32g4xx_ll_rcc.h **** 
1262:Drivers/STM32G4xx_HAL_Driver/Inc/stm32g4xx_ll_rcc.h **** /**
1263:Drivers/STM32G4xx_HAL_Driver/Inc/stm32g4xx_ll_rcc.h ****   * @brief  Check if LSI is Ready
1264:Drivers/STM32G4xx_HAL_Driver/Inc/stm32g4xx_ll_rcc.h ****   * @rmtoll CSR          LSIRDY        LL_RCC_LSI_IsReady
1265:Drivers/STM32G4xx_HAL_Driver/Inc/stm32g4xx_ll_rcc.h ****   * @retval State of bit (1 or 0).
1266:Drivers/STM32G4xx_HAL_Driver/Inc/stm32g4xx_ll_rcc.h ****   */
1267:Drivers/STM32G4xx_HAL_Driver/Inc/stm32g4xx_ll_rcc.h **** __STATIC_INLINE uint32_t LL_RCC_LSI_IsReady(void)
1268:Drivers/STM32G4xx_HAL_Driver/Inc/stm32g4xx_ll_rcc.h **** {
1269:Drivers/STM32G4xx_HAL_Driver/Inc/stm32g4xx_ll_rcc.h ****   return ((READ_BIT(RCC->CSR, RCC_CSR_LSIRDY) == (RCC_CSR_LSIRDY)) ? 1UL : 0UL);
1270:Drivers/STM32G4xx_HAL_Driver/Inc/stm32g4xx_ll_rcc.h **** }
1271:Drivers/STM32G4xx_HAL_Driver/Inc/stm32g4xx_ll_rcc.h **** 
1272:Drivers/STM32G4xx_HAL_Driver/Inc/stm32g4xx_ll_rcc.h **** /**
1273:Drivers/STM32G4xx_HAL_Driver/Inc/stm32g4xx_ll_rcc.h ****   * @}
1274:Drivers/STM32G4xx_HAL_Driver/Inc/stm32g4xx_ll_rcc.h ****   */
1275:Drivers/STM32G4xx_HAL_Driver/Inc/stm32g4xx_ll_rcc.h **** 
1276:Drivers/STM32G4xx_HAL_Driver/Inc/stm32g4xx_ll_rcc.h **** /** @defgroup RCC_LL_EF_LSCO LSCO
1277:Drivers/STM32G4xx_HAL_Driver/Inc/stm32g4xx_ll_rcc.h ****   * @{
ARM GAS  D:\apps\VSCode\data\tmp\ccGycOlE.s 			page 37


1278:Drivers/STM32G4xx_HAL_Driver/Inc/stm32g4xx_ll_rcc.h ****   */
1279:Drivers/STM32G4xx_HAL_Driver/Inc/stm32g4xx_ll_rcc.h **** 
1280:Drivers/STM32G4xx_HAL_Driver/Inc/stm32g4xx_ll_rcc.h **** /**
1281:Drivers/STM32G4xx_HAL_Driver/Inc/stm32g4xx_ll_rcc.h ****   * @brief  Enable Low speed clock
1282:Drivers/STM32G4xx_HAL_Driver/Inc/stm32g4xx_ll_rcc.h ****   * @rmtoll BDCR         LSCOEN        LL_RCC_LSCO_Enable
1283:Drivers/STM32G4xx_HAL_Driver/Inc/stm32g4xx_ll_rcc.h ****   * @retval None
1284:Drivers/STM32G4xx_HAL_Driver/Inc/stm32g4xx_ll_rcc.h ****   */
1285:Drivers/STM32G4xx_HAL_Driver/Inc/stm32g4xx_ll_rcc.h **** __STATIC_INLINE void LL_RCC_LSCO_Enable(void)
1286:Drivers/STM32G4xx_HAL_Driver/Inc/stm32g4xx_ll_rcc.h **** {
1287:Drivers/STM32G4xx_HAL_Driver/Inc/stm32g4xx_ll_rcc.h ****   SET_BIT(RCC->BDCR, RCC_BDCR_LSCOEN);
1288:Drivers/STM32G4xx_HAL_Driver/Inc/stm32g4xx_ll_rcc.h **** }
1289:Drivers/STM32G4xx_HAL_Driver/Inc/stm32g4xx_ll_rcc.h **** 
1290:Drivers/STM32G4xx_HAL_Driver/Inc/stm32g4xx_ll_rcc.h **** /**
1291:Drivers/STM32G4xx_HAL_Driver/Inc/stm32g4xx_ll_rcc.h ****   * @brief  Disable Low speed clock
1292:Drivers/STM32G4xx_HAL_Driver/Inc/stm32g4xx_ll_rcc.h ****   * @rmtoll BDCR         LSCOEN        LL_RCC_LSCO_Disable
1293:Drivers/STM32G4xx_HAL_Driver/Inc/stm32g4xx_ll_rcc.h ****   * @retval None
1294:Drivers/STM32G4xx_HAL_Driver/Inc/stm32g4xx_ll_rcc.h ****   */
1295:Drivers/STM32G4xx_HAL_Driver/Inc/stm32g4xx_ll_rcc.h **** __STATIC_INLINE void LL_RCC_LSCO_Disable(void)
1296:Drivers/STM32G4xx_HAL_Driver/Inc/stm32g4xx_ll_rcc.h **** {
1297:Drivers/STM32G4xx_HAL_Driver/Inc/stm32g4xx_ll_rcc.h ****   CLEAR_BIT(RCC->BDCR, RCC_BDCR_LSCOEN);
1298:Drivers/STM32G4xx_HAL_Driver/Inc/stm32g4xx_ll_rcc.h **** }
1299:Drivers/STM32G4xx_HAL_Driver/Inc/stm32g4xx_ll_rcc.h **** 
1300:Drivers/STM32G4xx_HAL_Driver/Inc/stm32g4xx_ll_rcc.h **** /**
1301:Drivers/STM32G4xx_HAL_Driver/Inc/stm32g4xx_ll_rcc.h ****   * @brief  Configure Low speed clock selection
1302:Drivers/STM32G4xx_HAL_Driver/Inc/stm32g4xx_ll_rcc.h ****   * @rmtoll BDCR         LSCOSEL       LL_RCC_LSCO_SetSource
1303:Drivers/STM32G4xx_HAL_Driver/Inc/stm32g4xx_ll_rcc.h ****   * @param  Source This parameter can be one of the following values:
1304:Drivers/STM32G4xx_HAL_Driver/Inc/stm32g4xx_ll_rcc.h ****   *         @arg @ref LL_RCC_LSCO_CLKSOURCE_LSI
1305:Drivers/STM32G4xx_HAL_Driver/Inc/stm32g4xx_ll_rcc.h ****   *         @arg @ref LL_RCC_LSCO_CLKSOURCE_LSE
1306:Drivers/STM32G4xx_HAL_Driver/Inc/stm32g4xx_ll_rcc.h ****   * @retval None
1307:Drivers/STM32G4xx_HAL_Driver/Inc/stm32g4xx_ll_rcc.h ****   */
1308:Drivers/STM32G4xx_HAL_Driver/Inc/stm32g4xx_ll_rcc.h **** __STATIC_INLINE void LL_RCC_LSCO_SetSource(uint32_t Source)
1309:Drivers/STM32G4xx_HAL_Driver/Inc/stm32g4xx_ll_rcc.h **** {
1310:Drivers/STM32G4xx_HAL_Driver/Inc/stm32g4xx_ll_rcc.h ****   MODIFY_REG(RCC->BDCR, RCC_BDCR_LSCOSEL, Source);
1311:Drivers/STM32G4xx_HAL_Driver/Inc/stm32g4xx_ll_rcc.h **** }
1312:Drivers/STM32G4xx_HAL_Driver/Inc/stm32g4xx_ll_rcc.h **** 
1313:Drivers/STM32G4xx_HAL_Driver/Inc/stm32g4xx_ll_rcc.h **** /**
1314:Drivers/STM32G4xx_HAL_Driver/Inc/stm32g4xx_ll_rcc.h ****   * @brief  Get Low speed clock selection
1315:Drivers/STM32G4xx_HAL_Driver/Inc/stm32g4xx_ll_rcc.h ****   * @rmtoll BDCR         LSCOSEL       LL_RCC_LSCO_GetSource
1316:Drivers/STM32G4xx_HAL_Driver/Inc/stm32g4xx_ll_rcc.h ****   * @retval Returned value can be one of the following values:
1317:Drivers/STM32G4xx_HAL_Driver/Inc/stm32g4xx_ll_rcc.h ****   *         @arg @ref LL_RCC_LSCO_CLKSOURCE_LSI
1318:Drivers/STM32G4xx_HAL_Driver/Inc/stm32g4xx_ll_rcc.h ****   *         @arg @ref LL_RCC_LSCO_CLKSOURCE_LSE
1319:Drivers/STM32G4xx_HAL_Driver/Inc/stm32g4xx_ll_rcc.h ****   */
1320:Drivers/STM32G4xx_HAL_Driver/Inc/stm32g4xx_ll_rcc.h **** __STATIC_INLINE uint32_t LL_RCC_LSCO_GetSource(void)
1321:Drivers/STM32G4xx_HAL_Driver/Inc/stm32g4xx_ll_rcc.h **** {
1322:Drivers/STM32G4xx_HAL_Driver/Inc/stm32g4xx_ll_rcc.h ****   return (uint32_t)(READ_BIT(RCC->BDCR, RCC_BDCR_LSCOSEL));
1323:Drivers/STM32G4xx_HAL_Driver/Inc/stm32g4xx_ll_rcc.h **** }
1324:Drivers/STM32G4xx_HAL_Driver/Inc/stm32g4xx_ll_rcc.h **** 
1325:Drivers/STM32G4xx_HAL_Driver/Inc/stm32g4xx_ll_rcc.h **** /**
1326:Drivers/STM32G4xx_HAL_Driver/Inc/stm32g4xx_ll_rcc.h ****   * @}
1327:Drivers/STM32G4xx_HAL_Driver/Inc/stm32g4xx_ll_rcc.h ****   */
1328:Drivers/STM32G4xx_HAL_Driver/Inc/stm32g4xx_ll_rcc.h **** 
1329:Drivers/STM32G4xx_HAL_Driver/Inc/stm32g4xx_ll_rcc.h **** /** @defgroup RCC_LL_EF_System System
1330:Drivers/STM32G4xx_HAL_Driver/Inc/stm32g4xx_ll_rcc.h ****   * @{
1331:Drivers/STM32G4xx_HAL_Driver/Inc/stm32g4xx_ll_rcc.h ****   */
1332:Drivers/STM32G4xx_HAL_Driver/Inc/stm32g4xx_ll_rcc.h **** 
1333:Drivers/STM32G4xx_HAL_Driver/Inc/stm32g4xx_ll_rcc.h **** /**
1334:Drivers/STM32G4xx_HAL_Driver/Inc/stm32g4xx_ll_rcc.h ****   * @brief  Configure the system clock source
ARM GAS  D:\apps\VSCode\data\tmp\ccGycOlE.s 			page 38


1335:Drivers/STM32G4xx_HAL_Driver/Inc/stm32g4xx_ll_rcc.h ****   * @rmtoll CFGR         SW            LL_RCC_SetSysClkSource
1336:Drivers/STM32G4xx_HAL_Driver/Inc/stm32g4xx_ll_rcc.h ****   * @param  Source This parameter can be one of the following values:
1337:Drivers/STM32G4xx_HAL_Driver/Inc/stm32g4xx_ll_rcc.h ****   *         @arg @ref LL_RCC_SYS_CLKSOURCE_HSI
1338:Drivers/STM32G4xx_HAL_Driver/Inc/stm32g4xx_ll_rcc.h ****   *         @arg @ref LL_RCC_SYS_CLKSOURCE_HSE
1339:Drivers/STM32G4xx_HAL_Driver/Inc/stm32g4xx_ll_rcc.h ****   *         @arg @ref LL_RCC_SYS_CLKSOURCE_PLL
1340:Drivers/STM32G4xx_HAL_Driver/Inc/stm32g4xx_ll_rcc.h ****   * @retval None
1341:Drivers/STM32G4xx_HAL_Driver/Inc/stm32g4xx_ll_rcc.h ****   */
1342:Drivers/STM32G4xx_HAL_Driver/Inc/stm32g4xx_ll_rcc.h **** __STATIC_INLINE void LL_RCC_SetSysClkSource(uint32_t Source)
1343:Drivers/STM32G4xx_HAL_Driver/Inc/stm32g4xx_ll_rcc.h **** {
1344:Drivers/STM32G4xx_HAL_Driver/Inc/stm32g4xx_ll_rcc.h ****   MODIFY_REG(RCC->CFGR, RCC_CFGR_SW, Source);
1345:Drivers/STM32G4xx_HAL_Driver/Inc/stm32g4xx_ll_rcc.h **** }
1346:Drivers/STM32G4xx_HAL_Driver/Inc/stm32g4xx_ll_rcc.h **** 
1347:Drivers/STM32G4xx_HAL_Driver/Inc/stm32g4xx_ll_rcc.h **** /**
1348:Drivers/STM32G4xx_HAL_Driver/Inc/stm32g4xx_ll_rcc.h ****   * @brief  Get the system clock source
1349:Drivers/STM32G4xx_HAL_Driver/Inc/stm32g4xx_ll_rcc.h ****   * @rmtoll CFGR         SWS           LL_RCC_GetSysClkSource
1350:Drivers/STM32G4xx_HAL_Driver/Inc/stm32g4xx_ll_rcc.h ****   * @retval Returned value can be one of the following values:
1351:Drivers/STM32G4xx_HAL_Driver/Inc/stm32g4xx_ll_rcc.h ****   *         @arg @ref LL_RCC_SYS_CLKSOURCE_STATUS_HSI
1352:Drivers/STM32G4xx_HAL_Driver/Inc/stm32g4xx_ll_rcc.h ****   *         @arg @ref LL_RCC_SYS_CLKSOURCE_STATUS_HSE
1353:Drivers/STM32G4xx_HAL_Driver/Inc/stm32g4xx_ll_rcc.h ****   *         @arg @ref LL_RCC_SYS_CLKSOURCE_STATUS_PLL
1354:Drivers/STM32G4xx_HAL_Driver/Inc/stm32g4xx_ll_rcc.h ****   */
1355:Drivers/STM32G4xx_HAL_Driver/Inc/stm32g4xx_ll_rcc.h **** __STATIC_INLINE uint32_t LL_RCC_GetSysClkSource(void)
1356:Drivers/STM32G4xx_HAL_Driver/Inc/stm32g4xx_ll_rcc.h **** {
1357:Drivers/STM32G4xx_HAL_Driver/Inc/stm32g4xx_ll_rcc.h ****   return (uint32_t)(READ_BIT(RCC->CFGR, RCC_CFGR_SWS));
1358:Drivers/STM32G4xx_HAL_Driver/Inc/stm32g4xx_ll_rcc.h **** }
1359:Drivers/STM32G4xx_HAL_Driver/Inc/stm32g4xx_ll_rcc.h **** 
1360:Drivers/STM32G4xx_HAL_Driver/Inc/stm32g4xx_ll_rcc.h **** /**
1361:Drivers/STM32G4xx_HAL_Driver/Inc/stm32g4xx_ll_rcc.h ****   * @brief  Set AHB prescaler
1362:Drivers/STM32G4xx_HAL_Driver/Inc/stm32g4xx_ll_rcc.h ****   * @rmtoll CFGR         HPRE          LL_RCC_SetAHBPrescaler
1363:Drivers/STM32G4xx_HAL_Driver/Inc/stm32g4xx_ll_rcc.h ****   * @param  Prescaler This parameter can be one of the following values:
1364:Drivers/STM32G4xx_HAL_Driver/Inc/stm32g4xx_ll_rcc.h ****   *         @arg @ref LL_RCC_SYSCLK_DIV_1
1365:Drivers/STM32G4xx_HAL_Driver/Inc/stm32g4xx_ll_rcc.h ****   *         @arg @ref LL_RCC_SYSCLK_DIV_2
1366:Drivers/STM32G4xx_HAL_Driver/Inc/stm32g4xx_ll_rcc.h ****   *         @arg @ref LL_RCC_SYSCLK_DIV_4
1367:Drivers/STM32G4xx_HAL_Driver/Inc/stm32g4xx_ll_rcc.h ****   *         @arg @ref LL_RCC_SYSCLK_DIV_8
1368:Drivers/STM32G4xx_HAL_Driver/Inc/stm32g4xx_ll_rcc.h ****   *         @arg @ref LL_RCC_SYSCLK_DIV_16
1369:Drivers/STM32G4xx_HAL_Driver/Inc/stm32g4xx_ll_rcc.h ****   *         @arg @ref LL_RCC_SYSCLK_DIV_64
1370:Drivers/STM32G4xx_HAL_Driver/Inc/stm32g4xx_ll_rcc.h ****   *         @arg @ref LL_RCC_SYSCLK_DIV_128
1371:Drivers/STM32G4xx_HAL_Driver/Inc/stm32g4xx_ll_rcc.h ****   *         @arg @ref LL_RCC_SYSCLK_DIV_256
1372:Drivers/STM32G4xx_HAL_Driver/Inc/stm32g4xx_ll_rcc.h ****   *         @arg @ref LL_RCC_SYSCLK_DIV_512
1373:Drivers/STM32G4xx_HAL_Driver/Inc/stm32g4xx_ll_rcc.h ****   * @retval None
1374:Drivers/STM32G4xx_HAL_Driver/Inc/stm32g4xx_ll_rcc.h ****   */
1375:Drivers/STM32G4xx_HAL_Driver/Inc/stm32g4xx_ll_rcc.h **** __STATIC_INLINE void LL_RCC_SetAHBPrescaler(uint32_t Prescaler)
1376:Drivers/STM32G4xx_HAL_Driver/Inc/stm32g4xx_ll_rcc.h **** {
1377:Drivers/STM32G4xx_HAL_Driver/Inc/stm32g4xx_ll_rcc.h ****   MODIFY_REG(RCC->CFGR, RCC_CFGR_HPRE, Prescaler);
1378:Drivers/STM32G4xx_HAL_Driver/Inc/stm32g4xx_ll_rcc.h **** }
1379:Drivers/STM32G4xx_HAL_Driver/Inc/stm32g4xx_ll_rcc.h **** 
1380:Drivers/STM32G4xx_HAL_Driver/Inc/stm32g4xx_ll_rcc.h **** /**
1381:Drivers/STM32G4xx_HAL_Driver/Inc/stm32g4xx_ll_rcc.h ****   * @brief  Set APB1 prescaler
1382:Drivers/STM32G4xx_HAL_Driver/Inc/stm32g4xx_ll_rcc.h ****   * @rmtoll CFGR         PPRE1         LL_RCC_SetAPB1Prescaler
1383:Drivers/STM32G4xx_HAL_Driver/Inc/stm32g4xx_ll_rcc.h ****   * @param  Prescaler This parameter can be one of the following values:
1384:Drivers/STM32G4xx_HAL_Driver/Inc/stm32g4xx_ll_rcc.h ****   *         @arg @ref LL_RCC_APB1_DIV_1
1385:Drivers/STM32G4xx_HAL_Driver/Inc/stm32g4xx_ll_rcc.h ****   *         @arg @ref LL_RCC_APB1_DIV_2
1386:Drivers/STM32G4xx_HAL_Driver/Inc/stm32g4xx_ll_rcc.h ****   *         @arg @ref LL_RCC_APB1_DIV_4
1387:Drivers/STM32G4xx_HAL_Driver/Inc/stm32g4xx_ll_rcc.h ****   *         @arg @ref LL_RCC_APB1_DIV_8
1388:Drivers/STM32G4xx_HAL_Driver/Inc/stm32g4xx_ll_rcc.h ****   *         @arg @ref LL_RCC_APB1_DIV_16
1389:Drivers/STM32G4xx_HAL_Driver/Inc/stm32g4xx_ll_rcc.h ****   * @retval None
1390:Drivers/STM32G4xx_HAL_Driver/Inc/stm32g4xx_ll_rcc.h ****   */
1391:Drivers/STM32G4xx_HAL_Driver/Inc/stm32g4xx_ll_rcc.h **** __STATIC_INLINE void LL_RCC_SetAPB1Prescaler(uint32_t Prescaler)
ARM GAS  D:\apps\VSCode\data\tmp\ccGycOlE.s 			page 39


1392:Drivers/STM32G4xx_HAL_Driver/Inc/stm32g4xx_ll_rcc.h **** {
1393:Drivers/STM32G4xx_HAL_Driver/Inc/stm32g4xx_ll_rcc.h ****   MODIFY_REG(RCC->CFGR, RCC_CFGR_PPRE1, Prescaler);
1394:Drivers/STM32G4xx_HAL_Driver/Inc/stm32g4xx_ll_rcc.h **** }
1395:Drivers/STM32G4xx_HAL_Driver/Inc/stm32g4xx_ll_rcc.h **** 
1396:Drivers/STM32G4xx_HAL_Driver/Inc/stm32g4xx_ll_rcc.h **** /**
1397:Drivers/STM32G4xx_HAL_Driver/Inc/stm32g4xx_ll_rcc.h ****   * @brief  Set APB2 prescaler
1398:Drivers/STM32G4xx_HAL_Driver/Inc/stm32g4xx_ll_rcc.h ****   * @rmtoll CFGR         PPRE2         LL_RCC_SetAPB2Prescaler
1399:Drivers/STM32G4xx_HAL_Driver/Inc/stm32g4xx_ll_rcc.h ****   * @param  Prescaler This parameter can be one of the following values:
1400:Drivers/STM32G4xx_HAL_Driver/Inc/stm32g4xx_ll_rcc.h ****   *         @arg @ref LL_RCC_APB2_DIV_1
1401:Drivers/STM32G4xx_HAL_Driver/Inc/stm32g4xx_ll_rcc.h ****   *         @arg @ref LL_RCC_APB2_DIV_2
1402:Drivers/STM32G4xx_HAL_Driver/Inc/stm32g4xx_ll_rcc.h ****   *         @arg @ref LL_RCC_APB2_DIV_4
1403:Drivers/STM32G4xx_HAL_Driver/Inc/stm32g4xx_ll_rcc.h ****   *         @arg @ref LL_RCC_APB2_DIV_8
1404:Drivers/STM32G4xx_HAL_Driver/Inc/stm32g4xx_ll_rcc.h ****   *         @arg @ref LL_RCC_APB2_DIV_16
1405:Drivers/STM32G4xx_HAL_Driver/Inc/stm32g4xx_ll_rcc.h ****   * @retval None
1406:Drivers/STM32G4xx_HAL_Driver/Inc/stm32g4xx_ll_rcc.h ****   */
1407:Drivers/STM32G4xx_HAL_Driver/Inc/stm32g4xx_ll_rcc.h **** __STATIC_INLINE void LL_RCC_SetAPB2Prescaler(uint32_t Prescaler)
1408:Drivers/STM32G4xx_HAL_Driver/Inc/stm32g4xx_ll_rcc.h **** {
1409:Drivers/STM32G4xx_HAL_Driver/Inc/stm32g4xx_ll_rcc.h ****   MODIFY_REG(RCC->CFGR, RCC_CFGR_PPRE2, Prescaler);
1410:Drivers/STM32G4xx_HAL_Driver/Inc/stm32g4xx_ll_rcc.h **** }
1411:Drivers/STM32G4xx_HAL_Driver/Inc/stm32g4xx_ll_rcc.h **** 
1412:Drivers/STM32G4xx_HAL_Driver/Inc/stm32g4xx_ll_rcc.h **** /**
1413:Drivers/STM32G4xx_HAL_Driver/Inc/stm32g4xx_ll_rcc.h ****   * @brief  Get AHB prescaler
1414:Drivers/STM32G4xx_HAL_Driver/Inc/stm32g4xx_ll_rcc.h ****   * @rmtoll CFGR         HPRE          LL_RCC_GetAHBPrescaler
1415:Drivers/STM32G4xx_HAL_Driver/Inc/stm32g4xx_ll_rcc.h ****   * @retval Returned value can be one of the following values:
1416:Drivers/STM32G4xx_HAL_Driver/Inc/stm32g4xx_ll_rcc.h ****   *         @arg @ref LL_RCC_SYSCLK_DIV_1
1417:Drivers/STM32G4xx_HAL_Driver/Inc/stm32g4xx_ll_rcc.h ****   *         @arg @ref LL_RCC_SYSCLK_DIV_2
1418:Drivers/STM32G4xx_HAL_Driver/Inc/stm32g4xx_ll_rcc.h ****   *         @arg @ref LL_RCC_SYSCLK_DIV_4
1419:Drivers/STM32G4xx_HAL_Driver/Inc/stm32g4xx_ll_rcc.h ****   *         @arg @ref LL_RCC_SYSCLK_DIV_8
1420:Drivers/STM32G4xx_HAL_Driver/Inc/stm32g4xx_ll_rcc.h ****   *         @arg @ref LL_RCC_SYSCLK_DIV_16
1421:Drivers/STM32G4xx_HAL_Driver/Inc/stm32g4xx_ll_rcc.h ****   *         @arg @ref LL_RCC_SYSCLK_DIV_64
1422:Drivers/STM32G4xx_HAL_Driver/Inc/stm32g4xx_ll_rcc.h ****   *         @arg @ref LL_RCC_SYSCLK_DIV_128
1423:Drivers/STM32G4xx_HAL_Driver/Inc/stm32g4xx_ll_rcc.h ****   *         @arg @ref LL_RCC_SYSCLK_DIV_256
1424:Drivers/STM32G4xx_HAL_Driver/Inc/stm32g4xx_ll_rcc.h ****   *         @arg @ref LL_RCC_SYSCLK_DIV_512
1425:Drivers/STM32G4xx_HAL_Driver/Inc/stm32g4xx_ll_rcc.h ****   */
1426:Drivers/STM32G4xx_HAL_Driver/Inc/stm32g4xx_ll_rcc.h **** __STATIC_INLINE uint32_t LL_RCC_GetAHBPrescaler(void)
1427:Drivers/STM32G4xx_HAL_Driver/Inc/stm32g4xx_ll_rcc.h **** {
1428:Drivers/STM32G4xx_HAL_Driver/Inc/stm32g4xx_ll_rcc.h ****   return (uint32_t)(READ_BIT(RCC->CFGR, RCC_CFGR_HPRE));
1429:Drivers/STM32G4xx_HAL_Driver/Inc/stm32g4xx_ll_rcc.h **** }
1430:Drivers/STM32G4xx_HAL_Driver/Inc/stm32g4xx_ll_rcc.h **** 
1431:Drivers/STM32G4xx_HAL_Driver/Inc/stm32g4xx_ll_rcc.h **** /**
1432:Drivers/STM32G4xx_HAL_Driver/Inc/stm32g4xx_ll_rcc.h ****   * @brief  Get APB1 prescaler
1433:Drivers/STM32G4xx_HAL_Driver/Inc/stm32g4xx_ll_rcc.h ****   * @rmtoll CFGR         PPRE1         LL_RCC_GetAPB1Prescaler
1434:Drivers/STM32G4xx_HAL_Driver/Inc/stm32g4xx_ll_rcc.h ****   * @retval Returned value can be one of the following values:
1435:Drivers/STM32G4xx_HAL_Driver/Inc/stm32g4xx_ll_rcc.h ****   *         @arg @ref LL_RCC_APB1_DIV_1
1436:Drivers/STM32G4xx_HAL_Driver/Inc/stm32g4xx_ll_rcc.h ****   *         @arg @ref LL_RCC_APB1_DIV_2
1437:Drivers/STM32G4xx_HAL_Driver/Inc/stm32g4xx_ll_rcc.h ****   *         @arg @ref LL_RCC_APB1_DIV_4
1438:Drivers/STM32G4xx_HAL_Driver/Inc/stm32g4xx_ll_rcc.h ****   *         @arg @ref LL_RCC_APB1_DIV_8
1439:Drivers/STM32G4xx_HAL_Driver/Inc/stm32g4xx_ll_rcc.h ****   *         @arg @ref LL_RCC_APB1_DIV_16
1440:Drivers/STM32G4xx_HAL_Driver/Inc/stm32g4xx_ll_rcc.h ****   */
1441:Drivers/STM32G4xx_HAL_Driver/Inc/stm32g4xx_ll_rcc.h **** __STATIC_INLINE uint32_t LL_RCC_GetAPB1Prescaler(void)
1442:Drivers/STM32G4xx_HAL_Driver/Inc/stm32g4xx_ll_rcc.h **** {
1443:Drivers/STM32G4xx_HAL_Driver/Inc/stm32g4xx_ll_rcc.h ****   return (uint32_t)(READ_BIT(RCC->CFGR, RCC_CFGR_PPRE1));
1444:Drivers/STM32G4xx_HAL_Driver/Inc/stm32g4xx_ll_rcc.h **** }
1445:Drivers/STM32G4xx_HAL_Driver/Inc/stm32g4xx_ll_rcc.h **** 
1446:Drivers/STM32G4xx_HAL_Driver/Inc/stm32g4xx_ll_rcc.h **** /**
1447:Drivers/STM32G4xx_HAL_Driver/Inc/stm32g4xx_ll_rcc.h ****   * @brief  Get APB2 prescaler
1448:Drivers/STM32G4xx_HAL_Driver/Inc/stm32g4xx_ll_rcc.h ****   * @rmtoll CFGR         PPRE2         LL_RCC_GetAPB2Prescaler
ARM GAS  D:\apps\VSCode\data\tmp\ccGycOlE.s 			page 40


1449:Drivers/STM32G4xx_HAL_Driver/Inc/stm32g4xx_ll_rcc.h ****   * @retval Returned value can be one of the following values:
1450:Drivers/STM32G4xx_HAL_Driver/Inc/stm32g4xx_ll_rcc.h ****   *         @arg @ref LL_RCC_APB2_DIV_1
1451:Drivers/STM32G4xx_HAL_Driver/Inc/stm32g4xx_ll_rcc.h ****   *         @arg @ref LL_RCC_APB2_DIV_2
1452:Drivers/STM32G4xx_HAL_Driver/Inc/stm32g4xx_ll_rcc.h ****   *         @arg @ref LL_RCC_APB2_DIV_4
1453:Drivers/STM32G4xx_HAL_Driver/Inc/stm32g4xx_ll_rcc.h ****   *         @arg @ref LL_RCC_APB2_DIV_8
1454:Drivers/STM32G4xx_HAL_Driver/Inc/stm32g4xx_ll_rcc.h ****   *         @arg @ref LL_RCC_APB2_DIV_16
1455:Drivers/STM32G4xx_HAL_Driver/Inc/stm32g4xx_ll_rcc.h ****   */
1456:Drivers/STM32G4xx_HAL_Driver/Inc/stm32g4xx_ll_rcc.h **** __STATIC_INLINE uint32_t LL_RCC_GetAPB2Prescaler(void)
1457:Drivers/STM32G4xx_HAL_Driver/Inc/stm32g4xx_ll_rcc.h **** {
1458:Drivers/STM32G4xx_HAL_Driver/Inc/stm32g4xx_ll_rcc.h ****   return (uint32_t)(READ_BIT(RCC->CFGR, RCC_CFGR_PPRE2));
1459:Drivers/STM32G4xx_HAL_Driver/Inc/stm32g4xx_ll_rcc.h **** }
1460:Drivers/STM32G4xx_HAL_Driver/Inc/stm32g4xx_ll_rcc.h **** 
1461:Drivers/STM32G4xx_HAL_Driver/Inc/stm32g4xx_ll_rcc.h **** /**
1462:Drivers/STM32G4xx_HAL_Driver/Inc/stm32g4xx_ll_rcc.h ****   * @}
1463:Drivers/STM32G4xx_HAL_Driver/Inc/stm32g4xx_ll_rcc.h ****   */
1464:Drivers/STM32G4xx_HAL_Driver/Inc/stm32g4xx_ll_rcc.h **** 
1465:Drivers/STM32G4xx_HAL_Driver/Inc/stm32g4xx_ll_rcc.h **** /** @defgroup RCC_LL_EF_MCO MCO
1466:Drivers/STM32G4xx_HAL_Driver/Inc/stm32g4xx_ll_rcc.h ****   * @{
1467:Drivers/STM32G4xx_HAL_Driver/Inc/stm32g4xx_ll_rcc.h ****   */
1468:Drivers/STM32G4xx_HAL_Driver/Inc/stm32g4xx_ll_rcc.h **** 
1469:Drivers/STM32G4xx_HAL_Driver/Inc/stm32g4xx_ll_rcc.h **** /**
1470:Drivers/STM32G4xx_HAL_Driver/Inc/stm32g4xx_ll_rcc.h ****   * @brief  Configure MCOx
1471:Drivers/STM32G4xx_HAL_Driver/Inc/stm32g4xx_ll_rcc.h ****   * @rmtoll CFGR         MCOSEL        LL_RCC_ConfigMCO\n
1472:Drivers/STM32G4xx_HAL_Driver/Inc/stm32g4xx_ll_rcc.h ****   *         CFGR         MCOPRE        LL_RCC_ConfigMCO
1473:Drivers/STM32G4xx_HAL_Driver/Inc/stm32g4xx_ll_rcc.h ****   * @param  MCOxSource This parameter can be one of the following values:
1474:Drivers/STM32G4xx_HAL_Driver/Inc/stm32g4xx_ll_rcc.h ****   *         @arg @ref LL_RCC_MCO1SOURCE_NOCLOCK
1475:Drivers/STM32G4xx_HAL_Driver/Inc/stm32g4xx_ll_rcc.h ****   *         @arg @ref LL_RCC_MCO1SOURCE_SYSCLK
1476:Drivers/STM32G4xx_HAL_Driver/Inc/stm32g4xx_ll_rcc.h ****   *         @arg @ref LL_RCC_MCO1SOURCE_HSI
1477:Drivers/STM32G4xx_HAL_Driver/Inc/stm32g4xx_ll_rcc.h ****   *         @arg @ref LL_RCC_MCO1SOURCE_HSE
1478:Drivers/STM32G4xx_HAL_Driver/Inc/stm32g4xx_ll_rcc.h ****   *         @arg @ref LL_RCC_MCO1SOURCE_HSI48
1479:Drivers/STM32G4xx_HAL_Driver/Inc/stm32g4xx_ll_rcc.h ****   *         @arg @ref LL_RCC_MCO1SOURCE_PLLCLK
1480:Drivers/STM32G4xx_HAL_Driver/Inc/stm32g4xx_ll_rcc.h ****   *         @arg @ref LL_RCC_MCO1SOURCE_LSI
1481:Drivers/STM32G4xx_HAL_Driver/Inc/stm32g4xx_ll_rcc.h ****   *         @arg @ref LL_RCC_MCO1SOURCE_LSE
1482:Drivers/STM32G4xx_HAL_Driver/Inc/stm32g4xx_ll_rcc.h ****   *
1483:Drivers/STM32G4xx_HAL_Driver/Inc/stm32g4xx_ll_rcc.h ****   *         (*) value not defined in all devices.
1484:Drivers/STM32G4xx_HAL_Driver/Inc/stm32g4xx_ll_rcc.h ****   * @param  MCOxPrescaler This parameter can be one of the following values:
1485:Drivers/STM32G4xx_HAL_Driver/Inc/stm32g4xx_ll_rcc.h ****   *         @arg @ref LL_RCC_MCO1_DIV_1
1486:Drivers/STM32G4xx_HAL_Driver/Inc/stm32g4xx_ll_rcc.h ****   *         @arg @ref LL_RCC_MCO1_DIV_2
1487:Drivers/STM32G4xx_HAL_Driver/Inc/stm32g4xx_ll_rcc.h ****   *         @arg @ref LL_RCC_MCO1_DIV_4
1488:Drivers/STM32G4xx_HAL_Driver/Inc/stm32g4xx_ll_rcc.h ****   *         @arg @ref LL_RCC_MCO1_DIV_8
1489:Drivers/STM32G4xx_HAL_Driver/Inc/stm32g4xx_ll_rcc.h ****   *         @arg @ref LL_RCC_MCO1_DIV_16
1490:Drivers/STM32G4xx_HAL_Driver/Inc/stm32g4xx_ll_rcc.h ****   * @retval None
1491:Drivers/STM32G4xx_HAL_Driver/Inc/stm32g4xx_ll_rcc.h ****   */
1492:Drivers/STM32G4xx_HAL_Driver/Inc/stm32g4xx_ll_rcc.h **** __STATIC_INLINE void LL_RCC_ConfigMCO(uint32_t MCOxSource, uint32_t MCOxPrescaler)
1493:Drivers/STM32G4xx_HAL_Driver/Inc/stm32g4xx_ll_rcc.h **** {
1494:Drivers/STM32G4xx_HAL_Driver/Inc/stm32g4xx_ll_rcc.h ****   MODIFY_REG(RCC->CFGR, RCC_CFGR_MCOSEL | RCC_CFGR_MCOPRE, MCOxSource | MCOxPrescaler);
1495:Drivers/STM32G4xx_HAL_Driver/Inc/stm32g4xx_ll_rcc.h **** }
1496:Drivers/STM32G4xx_HAL_Driver/Inc/stm32g4xx_ll_rcc.h **** 
1497:Drivers/STM32G4xx_HAL_Driver/Inc/stm32g4xx_ll_rcc.h **** /**
1498:Drivers/STM32G4xx_HAL_Driver/Inc/stm32g4xx_ll_rcc.h ****   * @}
1499:Drivers/STM32G4xx_HAL_Driver/Inc/stm32g4xx_ll_rcc.h ****   */
1500:Drivers/STM32G4xx_HAL_Driver/Inc/stm32g4xx_ll_rcc.h **** 
1501:Drivers/STM32G4xx_HAL_Driver/Inc/stm32g4xx_ll_rcc.h **** /** @defgroup RCC_LL_EF_Peripheral_Clock_Source Peripheral Clock Source
1502:Drivers/STM32G4xx_HAL_Driver/Inc/stm32g4xx_ll_rcc.h ****   * @{
1503:Drivers/STM32G4xx_HAL_Driver/Inc/stm32g4xx_ll_rcc.h ****   */
1504:Drivers/STM32G4xx_HAL_Driver/Inc/stm32g4xx_ll_rcc.h **** 
1505:Drivers/STM32G4xx_HAL_Driver/Inc/stm32g4xx_ll_rcc.h **** /**
ARM GAS  D:\apps\VSCode\data\tmp\ccGycOlE.s 			page 41


1506:Drivers/STM32G4xx_HAL_Driver/Inc/stm32g4xx_ll_rcc.h ****   * @brief  Configure USARTx clock source
1507:Drivers/STM32G4xx_HAL_Driver/Inc/stm32g4xx_ll_rcc.h ****   * @rmtoll CCIPR        USARTxSEL     LL_RCC_SetUSARTClockSource
1508:Drivers/STM32G4xx_HAL_Driver/Inc/stm32g4xx_ll_rcc.h ****   * @param  USARTxSource This parameter can be one of the following values:
1509:Drivers/STM32G4xx_HAL_Driver/Inc/stm32g4xx_ll_rcc.h ****   *         @arg @ref LL_RCC_USART1_CLKSOURCE_PCLK2
1510:Drivers/STM32G4xx_HAL_Driver/Inc/stm32g4xx_ll_rcc.h ****   *         @arg @ref LL_RCC_USART1_CLKSOURCE_SYSCLK
1511:Drivers/STM32G4xx_HAL_Driver/Inc/stm32g4xx_ll_rcc.h ****   *         @arg @ref LL_RCC_USART1_CLKSOURCE_HSI
1512:Drivers/STM32G4xx_HAL_Driver/Inc/stm32g4xx_ll_rcc.h ****   *         @arg @ref LL_RCC_USART1_CLKSOURCE_LSE
1513:Drivers/STM32G4xx_HAL_Driver/Inc/stm32g4xx_ll_rcc.h ****   *         @arg @ref LL_RCC_USART2_CLKSOURCE_PCLK1
1514:Drivers/STM32G4xx_HAL_Driver/Inc/stm32g4xx_ll_rcc.h ****   *         @arg @ref LL_RCC_USART2_CLKSOURCE_SYSCLK
1515:Drivers/STM32G4xx_HAL_Driver/Inc/stm32g4xx_ll_rcc.h ****   *         @arg @ref LL_RCC_USART2_CLKSOURCE_HSI
1516:Drivers/STM32G4xx_HAL_Driver/Inc/stm32g4xx_ll_rcc.h ****   *         @arg @ref LL_RCC_USART2_CLKSOURCE_LSE
1517:Drivers/STM32G4xx_HAL_Driver/Inc/stm32g4xx_ll_rcc.h ****   *         @arg @ref LL_RCC_USART3_CLKSOURCE_PCLK1
1518:Drivers/STM32G4xx_HAL_Driver/Inc/stm32g4xx_ll_rcc.h ****   *         @arg @ref LL_RCC_USART3_CLKSOURCE_SYSCLK
1519:Drivers/STM32G4xx_HAL_Driver/Inc/stm32g4xx_ll_rcc.h ****   *         @arg @ref LL_RCC_USART3_CLKSOURCE_HSI
1520:Drivers/STM32G4xx_HAL_Driver/Inc/stm32g4xx_ll_rcc.h ****   *         @arg @ref LL_RCC_USART3_CLKSOURCE_LSE
1521:Drivers/STM32G4xx_HAL_Driver/Inc/stm32g4xx_ll_rcc.h ****   * @retval None
1522:Drivers/STM32G4xx_HAL_Driver/Inc/stm32g4xx_ll_rcc.h ****   */
1523:Drivers/STM32G4xx_HAL_Driver/Inc/stm32g4xx_ll_rcc.h **** __STATIC_INLINE void LL_RCC_SetUSARTClockSource(uint32_t USARTxSource)
1524:Drivers/STM32G4xx_HAL_Driver/Inc/stm32g4xx_ll_rcc.h **** {
1525:Drivers/STM32G4xx_HAL_Driver/Inc/stm32g4xx_ll_rcc.h ****   MODIFY_REG(RCC->CCIPR, (USARTxSource >> 16U), (USARTxSource & 0x0000FFFFU));
1526:Drivers/STM32G4xx_HAL_Driver/Inc/stm32g4xx_ll_rcc.h **** }
1527:Drivers/STM32G4xx_HAL_Driver/Inc/stm32g4xx_ll_rcc.h **** 
1528:Drivers/STM32G4xx_HAL_Driver/Inc/stm32g4xx_ll_rcc.h **** #if defined(UART4)
1529:Drivers/STM32G4xx_HAL_Driver/Inc/stm32g4xx_ll_rcc.h **** /**
1530:Drivers/STM32G4xx_HAL_Driver/Inc/stm32g4xx_ll_rcc.h ****   * @brief  Configure UARTx clock source
1531:Drivers/STM32G4xx_HAL_Driver/Inc/stm32g4xx_ll_rcc.h ****   * @rmtoll CCIPR        UARTxSEL      LL_RCC_SetUARTClockSource
1532:Drivers/STM32G4xx_HAL_Driver/Inc/stm32g4xx_ll_rcc.h ****   * @param  UARTxSource This parameter can be one of the following values:
1533:Drivers/STM32G4xx_HAL_Driver/Inc/stm32g4xx_ll_rcc.h ****   *         @arg @ref LL_RCC_UART4_CLKSOURCE_PCLK1 (*)
1534:Drivers/STM32G4xx_HAL_Driver/Inc/stm32g4xx_ll_rcc.h ****   *         @arg @ref LL_RCC_UART4_CLKSOURCE_SYSCLK (*)
1535:Drivers/STM32G4xx_HAL_Driver/Inc/stm32g4xx_ll_rcc.h ****   *         @arg @ref LL_RCC_UART4_CLKSOURCE_HSI (*)
1536:Drivers/STM32G4xx_HAL_Driver/Inc/stm32g4xx_ll_rcc.h ****   *         @arg @ref LL_RCC_UART4_CLKSOURCE_LSE (*)
1537:Drivers/STM32G4xx_HAL_Driver/Inc/stm32g4xx_ll_rcc.h ****   *         @arg @ref LL_RCC_UART5_CLKSOURCE_PCLK1 (*)
1538:Drivers/STM32G4xx_HAL_Driver/Inc/stm32g4xx_ll_rcc.h ****   *         @arg @ref LL_RCC_UART5_CLKSOURCE_SYSCLK (*)
1539:Drivers/STM32G4xx_HAL_Driver/Inc/stm32g4xx_ll_rcc.h ****   *         @arg @ref LL_RCC_UART5_CLKSOURCE_HSI (*)
1540:Drivers/STM32G4xx_HAL_Driver/Inc/stm32g4xx_ll_rcc.h ****   *         @arg @ref LL_RCC_UART5_CLKSOURCE_LSE (*)
1541:Drivers/STM32G4xx_HAL_Driver/Inc/stm32g4xx_ll_rcc.h ****   *
1542:Drivers/STM32G4xx_HAL_Driver/Inc/stm32g4xx_ll_rcc.h ****   *         (*) value not defined in all devices.
1543:Drivers/STM32G4xx_HAL_Driver/Inc/stm32g4xx_ll_rcc.h ****   * @retval None
1544:Drivers/STM32G4xx_HAL_Driver/Inc/stm32g4xx_ll_rcc.h ****   */
1545:Drivers/STM32G4xx_HAL_Driver/Inc/stm32g4xx_ll_rcc.h **** __STATIC_INLINE void LL_RCC_SetUARTClockSource(uint32_t UARTxSource)
1546:Drivers/STM32G4xx_HAL_Driver/Inc/stm32g4xx_ll_rcc.h **** {
1547:Drivers/STM32G4xx_HAL_Driver/Inc/stm32g4xx_ll_rcc.h ****   MODIFY_REG(RCC->CCIPR, (UARTxSource >> 16U), (UARTxSource & 0x0000FFFFU));
1548:Drivers/STM32G4xx_HAL_Driver/Inc/stm32g4xx_ll_rcc.h **** }
1549:Drivers/STM32G4xx_HAL_Driver/Inc/stm32g4xx_ll_rcc.h **** #endif /* UART4 */
1550:Drivers/STM32G4xx_HAL_Driver/Inc/stm32g4xx_ll_rcc.h **** 
1551:Drivers/STM32G4xx_HAL_Driver/Inc/stm32g4xx_ll_rcc.h **** /**
1552:Drivers/STM32G4xx_HAL_Driver/Inc/stm32g4xx_ll_rcc.h ****   * @brief  Configure LPUART1x clock source
1553:Drivers/STM32G4xx_HAL_Driver/Inc/stm32g4xx_ll_rcc.h ****   * @rmtoll CCIPR        LPUART1SEL    LL_RCC_SetLPUARTClockSource
1554:Drivers/STM32G4xx_HAL_Driver/Inc/stm32g4xx_ll_rcc.h ****   * @param  LPUARTxSource This parameter can be one of the following values:
1555:Drivers/STM32G4xx_HAL_Driver/Inc/stm32g4xx_ll_rcc.h ****   *         @arg @ref LL_RCC_LPUART1_CLKSOURCE_PCLK1
1556:Drivers/STM32G4xx_HAL_Driver/Inc/stm32g4xx_ll_rcc.h ****   *         @arg @ref LL_RCC_LPUART1_CLKSOURCE_SYSCLK
1557:Drivers/STM32G4xx_HAL_Driver/Inc/stm32g4xx_ll_rcc.h ****   *         @arg @ref LL_RCC_LPUART1_CLKSOURCE_HSI
1558:Drivers/STM32G4xx_HAL_Driver/Inc/stm32g4xx_ll_rcc.h ****   *         @arg @ref LL_RCC_LPUART1_CLKSOURCE_LSE
1559:Drivers/STM32G4xx_HAL_Driver/Inc/stm32g4xx_ll_rcc.h ****   * @retval None
1560:Drivers/STM32G4xx_HAL_Driver/Inc/stm32g4xx_ll_rcc.h ****   */
1561:Drivers/STM32G4xx_HAL_Driver/Inc/stm32g4xx_ll_rcc.h **** __STATIC_INLINE void LL_RCC_SetLPUARTClockSource(uint32_t LPUARTxSource)
1562:Drivers/STM32G4xx_HAL_Driver/Inc/stm32g4xx_ll_rcc.h **** {
ARM GAS  D:\apps\VSCode\data\tmp\ccGycOlE.s 			page 42


1563:Drivers/STM32G4xx_HAL_Driver/Inc/stm32g4xx_ll_rcc.h ****   MODIFY_REG(RCC->CCIPR, RCC_CCIPR_LPUART1SEL, LPUARTxSource);
1564:Drivers/STM32G4xx_HAL_Driver/Inc/stm32g4xx_ll_rcc.h **** }
1565:Drivers/STM32G4xx_HAL_Driver/Inc/stm32g4xx_ll_rcc.h **** 
1566:Drivers/STM32G4xx_HAL_Driver/Inc/stm32g4xx_ll_rcc.h **** /**
1567:Drivers/STM32G4xx_HAL_Driver/Inc/stm32g4xx_ll_rcc.h ****   * @brief  Configure I2Cx clock source
1568:Drivers/STM32G4xx_HAL_Driver/Inc/stm32g4xx_ll_rcc.h ****   * @rmtoll CCIPR        I2CxSEL       LL_RCC_SetI2CClockSource
1569:Drivers/STM32G4xx_HAL_Driver/Inc/stm32g4xx_ll_rcc.h ****   * @param  I2CxSource This parameter can be one of the following values:
1570:Drivers/STM32G4xx_HAL_Driver/Inc/stm32g4xx_ll_rcc.h ****   *         @arg @ref LL_RCC_I2C1_CLKSOURCE_PCLK1
1571:Drivers/STM32G4xx_HAL_Driver/Inc/stm32g4xx_ll_rcc.h ****   *         @arg @ref LL_RCC_I2C1_CLKSOURCE_SYSCLK
1572:Drivers/STM32G4xx_HAL_Driver/Inc/stm32g4xx_ll_rcc.h ****   *         @arg @ref LL_RCC_I2C1_CLKSOURCE_HSI
1573:Drivers/STM32G4xx_HAL_Driver/Inc/stm32g4xx_ll_rcc.h ****   *         @arg @ref LL_RCC_I2C2_CLKSOURCE_PCLK1
1574:Drivers/STM32G4xx_HAL_Driver/Inc/stm32g4xx_ll_rcc.h ****   *         @arg @ref LL_RCC_I2C2_CLKSOURCE_SYSCLK
1575:Drivers/STM32G4xx_HAL_Driver/Inc/stm32g4xx_ll_rcc.h ****   *         @arg @ref LL_RCC_I2C2_CLKSOURCE_HSI
1576:Drivers/STM32G4xx_HAL_Driver/Inc/stm32g4xx_ll_rcc.h ****   *         @arg @ref LL_RCC_I2C3_CLKSOURCE_PCLK1
1577:Drivers/STM32G4xx_HAL_Driver/Inc/stm32g4xx_ll_rcc.h ****   *         @arg @ref LL_RCC_I2C3_CLKSOURCE_SYSCLK
1578:Drivers/STM32G4xx_HAL_Driver/Inc/stm32g4xx_ll_rcc.h ****   *         @arg @ref LL_RCC_I2C3_CLKSOURCE_HSI
1579:Drivers/STM32G4xx_HAL_Driver/Inc/stm32g4xx_ll_rcc.h ****   *         @arg @ref LL_RCC_I2C4_CLKSOURCE_PCLK1 (*)
1580:Drivers/STM32G4xx_HAL_Driver/Inc/stm32g4xx_ll_rcc.h ****   *         @arg @ref LL_RCC_I2C4_CLKSOURCE_SYSCLK (*)
1581:Drivers/STM32G4xx_HAL_Driver/Inc/stm32g4xx_ll_rcc.h ****   *         @arg @ref LL_RCC_I2C4_CLKSOURCE_HSI (*)
1582:Drivers/STM32G4xx_HAL_Driver/Inc/stm32g4xx_ll_rcc.h ****   *
1583:Drivers/STM32G4xx_HAL_Driver/Inc/stm32g4xx_ll_rcc.h ****   *         (*) value not defined in all devices.
1584:Drivers/STM32G4xx_HAL_Driver/Inc/stm32g4xx_ll_rcc.h ****   * @retval None
1585:Drivers/STM32G4xx_HAL_Driver/Inc/stm32g4xx_ll_rcc.h ****   */
1586:Drivers/STM32G4xx_HAL_Driver/Inc/stm32g4xx_ll_rcc.h **** __STATIC_INLINE void LL_RCC_SetI2CClockSource(uint32_t I2CxSource)
1587:Drivers/STM32G4xx_HAL_Driver/Inc/stm32g4xx_ll_rcc.h **** {
1588:Drivers/STM32G4xx_HAL_Driver/Inc/stm32g4xx_ll_rcc.h ****   __IO uint32_t *reg = (__IO uint32_t *)(uint32_t)(RCC_BASE + 0x88U + (I2CxSource >> 24U));
1589:Drivers/STM32G4xx_HAL_Driver/Inc/stm32g4xx_ll_rcc.h ****   MODIFY_REG(*reg, 3UL << ((I2CxSource & 0x001F0000U) >> 16U), ((I2CxSource & 0x000000FFU) << ((I2C
1590:Drivers/STM32G4xx_HAL_Driver/Inc/stm32g4xx_ll_rcc.h **** }
1591:Drivers/STM32G4xx_HAL_Driver/Inc/stm32g4xx_ll_rcc.h **** 
1592:Drivers/STM32G4xx_HAL_Driver/Inc/stm32g4xx_ll_rcc.h **** /**
1593:Drivers/STM32G4xx_HAL_Driver/Inc/stm32g4xx_ll_rcc.h ****   * @brief  Configure LPTIMx clock source
1594:Drivers/STM32G4xx_HAL_Driver/Inc/stm32g4xx_ll_rcc.h ****   * @rmtoll CCIPR        LPTIM1SEL     LL_RCC_SetLPTIMClockSource
1595:Drivers/STM32G4xx_HAL_Driver/Inc/stm32g4xx_ll_rcc.h ****   * @param  LPTIMxSource This parameter can be one of the following values:
1596:Drivers/STM32G4xx_HAL_Driver/Inc/stm32g4xx_ll_rcc.h ****   *         @arg @ref LL_RCC_LPTIM1_CLKSOURCE_PCLK1
1597:Drivers/STM32G4xx_HAL_Driver/Inc/stm32g4xx_ll_rcc.h ****   *         @arg @ref LL_RCC_LPTIM1_CLKSOURCE_LSI
1598:Drivers/STM32G4xx_HAL_Driver/Inc/stm32g4xx_ll_rcc.h ****   *         @arg @ref LL_RCC_LPTIM1_CLKSOURCE_HSI
1599:Drivers/STM32G4xx_HAL_Driver/Inc/stm32g4xx_ll_rcc.h ****   *         @arg @ref LL_RCC_LPTIM1_CLKSOURCE_LSE
1600:Drivers/STM32G4xx_HAL_Driver/Inc/stm32g4xx_ll_rcc.h ****   * @retval None
1601:Drivers/STM32G4xx_HAL_Driver/Inc/stm32g4xx_ll_rcc.h ****   */
1602:Drivers/STM32G4xx_HAL_Driver/Inc/stm32g4xx_ll_rcc.h **** __STATIC_INLINE void LL_RCC_SetLPTIMClockSource(uint32_t LPTIMxSource)
1603:Drivers/STM32G4xx_HAL_Driver/Inc/stm32g4xx_ll_rcc.h **** {
1604:Drivers/STM32G4xx_HAL_Driver/Inc/stm32g4xx_ll_rcc.h ****   MODIFY_REG(RCC->CCIPR, RCC_CCIPR_LPTIM1SEL, LPTIMxSource);
1605:Drivers/STM32G4xx_HAL_Driver/Inc/stm32g4xx_ll_rcc.h **** }
1606:Drivers/STM32G4xx_HAL_Driver/Inc/stm32g4xx_ll_rcc.h **** 
1607:Drivers/STM32G4xx_HAL_Driver/Inc/stm32g4xx_ll_rcc.h **** /**
1608:Drivers/STM32G4xx_HAL_Driver/Inc/stm32g4xx_ll_rcc.h ****   * @brief  Configure SAIx clock source
1609:Drivers/STM32G4xx_HAL_Driver/Inc/stm32g4xx_ll_rcc.h ****   * @rmtoll CCIPR        SAI1SEL       LL_RCC_SetSAIClockSource
1610:Drivers/STM32G4xx_HAL_Driver/Inc/stm32g4xx_ll_rcc.h ****   * @param  SAIxSource This parameter can be one of the following values:
1611:Drivers/STM32G4xx_HAL_Driver/Inc/stm32g4xx_ll_rcc.h ****   *         @arg @ref LL_RCC_SAI1_CLKSOURCE_SYSCLK
1612:Drivers/STM32G4xx_HAL_Driver/Inc/stm32g4xx_ll_rcc.h ****   *         @arg @ref LL_RCC_SAI1_CLKSOURCE_PLL
1613:Drivers/STM32G4xx_HAL_Driver/Inc/stm32g4xx_ll_rcc.h ****   *         @arg @ref LL_RCC_SAI1_CLKSOURCE_PIN
1614:Drivers/STM32G4xx_HAL_Driver/Inc/stm32g4xx_ll_rcc.h ****   *         @arg @ref LL_RCC_SAI1_CLKSOURCE_HSI
1615:Drivers/STM32G4xx_HAL_Driver/Inc/stm32g4xx_ll_rcc.h ****   *
1616:Drivers/STM32G4xx_HAL_Driver/Inc/stm32g4xx_ll_rcc.h ****   *         (*) value not defined in all devices.
1617:Drivers/STM32G4xx_HAL_Driver/Inc/stm32g4xx_ll_rcc.h ****   * @retval None
1618:Drivers/STM32G4xx_HAL_Driver/Inc/stm32g4xx_ll_rcc.h ****   */
1619:Drivers/STM32G4xx_HAL_Driver/Inc/stm32g4xx_ll_rcc.h **** __STATIC_INLINE void LL_RCC_SetSAIClockSource(uint32_t SAIxSource)
ARM GAS  D:\apps\VSCode\data\tmp\ccGycOlE.s 			page 43


1620:Drivers/STM32G4xx_HAL_Driver/Inc/stm32g4xx_ll_rcc.h **** {
1621:Drivers/STM32G4xx_HAL_Driver/Inc/stm32g4xx_ll_rcc.h ****   MODIFY_REG(RCC->CCIPR, RCC_CCIPR_SAI1SEL, SAIxSource);
1622:Drivers/STM32G4xx_HAL_Driver/Inc/stm32g4xx_ll_rcc.h **** }
1623:Drivers/STM32G4xx_HAL_Driver/Inc/stm32g4xx_ll_rcc.h **** 
1624:Drivers/STM32G4xx_HAL_Driver/Inc/stm32g4xx_ll_rcc.h **** /**
1625:Drivers/STM32G4xx_HAL_Driver/Inc/stm32g4xx_ll_rcc.h ****   * @brief  Configure I2S clock source
1626:Drivers/STM32G4xx_HAL_Driver/Inc/stm32g4xx_ll_rcc.h ****   * @rmtoll CCIPR        I2S23SEL      LL_RCC_SetI2SClockSource
1627:Drivers/STM32G4xx_HAL_Driver/Inc/stm32g4xx_ll_rcc.h ****   * @param  I2SxSource This parameter can be one of the following values:
1628:Drivers/STM32G4xx_HAL_Driver/Inc/stm32g4xx_ll_rcc.h ****   *         @arg @ref LL_RCC_I2S_CLKSOURCE_SYSCLK
1629:Drivers/STM32G4xx_HAL_Driver/Inc/stm32g4xx_ll_rcc.h ****   *         @arg @ref LL_RCC_I2S_CLKSOURCE_PLL
1630:Drivers/STM32G4xx_HAL_Driver/Inc/stm32g4xx_ll_rcc.h ****   *         @arg @ref LL_RCC_I2S_CLKSOURCE_PIN
1631:Drivers/STM32G4xx_HAL_Driver/Inc/stm32g4xx_ll_rcc.h ****   *         @arg @ref LL_RCC_I2S_CLKSOURCE_HSI
1632:Drivers/STM32G4xx_HAL_Driver/Inc/stm32g4xx_ll_rcc.h ****   * @retval None
1633:Drivers/STM32G4xx_HAL_Driver/Inc/stm32g4xx_ll_rcc.h ****   */
1634:Drivers/STM32G4xx_HAL_Driver/Inc/stm32g4xx_ll_rcc.h **** __STATIC_INLINE void LL_RCC_SetI2SClockSource(uint32_t I2SxSource)
1635:Drivers/STM32G4xx_HAL_Driver/Inc/stm32g4xx_ll_rcc.h **** {
1636:Drivers/STM32G4xx_HAL_Driver/Inc/stm32g4xx_ll_rcc.h ****   MODIFY_REG(RCC->CCIPR, RCC_CCIPR_I2S23SEL, I2SxSource);
1637:Drivers/STM32G4xx_HAL_Driver/Inc/stm32g4xx_ll_rcc.h **** }
1638:Drivers/STM32G4xx_HAL_Driver/Inc/stm32g4xx_ll_rcc.h **** 
1639:Drivers/STM32G4xx_HAL_Driver/Inc/stm32g4xx_ll_rcc.h **** #if defined(FDCAN1)
1640:Drivers/STM32G4xx_HAL_Driver/Inc/stm32g4xx_ll_rcc.h **** /**
1641:Drivers/STM32G4xx_HAL_Driver/Inc/stm32g4xx_ll_rcc.h ****   * @brief  Configure FDCAN clock source
1642:Drivers/STM32G4xx_HAL_Driver/Inc/stm32g4xx_ll_rcc.h ****   * @rmtoll CCIPR        FDCANSEL      LL_RCC_SetFDCANClockSource
1643:Drivers/STM32G4xx_HAL_Driver/Inc/stm32g4xx_ll_rcc.h ****   * @param  FDCANxSource This parameter can be one of the following values:
1644:Drivers/STM32G4xx_HAL_Driver/Inc/stm32g4xx_ll_rcc.h ****   *         @arg @ref LL_RCC_FDCAN_CLKSOURCE_HSE
1645:Drivers/STM32G4xx_HAL_Driver/Inc/stm32g4xx_ll_rcc.h ****   *         @arg @ref LL_RCC_FDCAN_CLKSOURCE_PLL
1646:Drivers/STM32G4xx_HAL_Driver/Inc/stm32g4xx_ll_rcc.h ****   *         @arg @ref LL_RCC_FDCAN_CLKSOURCE_PCLK1
1647:Drivers/STM32G4xx_HAL_Driver/Inc/stm32g4xx_ll_rcc.h ****   * @retval None
1648:Drivers/STM32G4xx_HAL_Driver/Inc/stm32g4xx_ll_rcc.h ****   */
1649:Drivers/STM32G4xx_HAL_Driver/Inc/stm32g4xx_ll_rcc.h **** __STATIC_INLINE void LL_RCC_SetFDCANClockSource(uint32_t FDCANxSource)
1650:Drivers/STM32G4xx_HAL_Driver/Inc/stm32g4xx_ll_rcc.h **** {
1651:Drivers/STM32G4xx_HAL_Driver/Inc/stm32g4xx_ll_rcc.h ****   MODIFY_REG(RCC->CCIPR, RCC_CCIPR_FDCANSEL, FDCANxSource);
1652:Drivers/STM32G4xx_HAL_Driver/Inc/stm32g4xx_ll_rcc.h **** }
1653:Drivers/STM32G4xx_HAL_Driver/Inc/stm32g4xx_ll_rcc.h **** #endif /* FDCAN1 */
1654:Drivers/STM32G4xx_HAL_Driver/Inc/stm32g4xx_ll_rcc.h **** 
1655:Drivers/STM32G4xx_HAL_Driver/Inc/stm32g4xx_ll_rcc.h **** /**
1656:Drivers/STM32G4xx_HAL_Driver/Inc/stm32g4xx_ll_rcc.h ****   * @brief  Configure RNG clock source
1657:Drivers/STM32G4xx_HAL_Driver/Inc/stm32g4xx_ll_rcc.h ****   * @rmtoll CCIPR        CLK48SEL      LL_RCC_SetRNGClockSource
1658:Drivers/STM32G4xx_HAL_Driver/Inc/stm32g4xx_ll_rcc.h ****   * @param  RNGxSource This parameter can be one of the following values:
1659:Drivers/STM32G4xx_HAL_Driver/Inc/stm32g4xx_ll_rcc.h ****   *         @arg @ref LL_RCC_RNG_CLKSOURCE_HSI48
1660:Drivers/STM32G4xx_HAL_Driver/Inc/stm32g4xx_ll_rcc.h ****   *         @arg @ref LL_RCC_RNG_CLKSOURCE_PLL
1661:Drivers/STM32G4xx_HAL_Driver/Inc/stm32g4xx_ll_rcc.h ****   * @retval None
1662:Drivers/STM32G4xx_HAL_Driver/Inc/stm32g4xx_ll_rcc.h ****   */
1663:Drivers/STM32G4xx_HAL_Driver/Inc/stm32g4xx_ll_rcc.h **** __STATIC_INLINE void LL_RCC_SetRNGClockSource(uint32_t RNGxSource)
1664:Drivers/STM32G4xx_HAL_Driver/Inc/stm32g4xx_ll_rcc.h **** {
1665:Drivers/STM32G4xx_HAL_Driver/Inc/stm32g4xx_ll_rcc.h ****   MODIFY_REG(RCC->CCIPR, RCC_CCIPR_CLK48SEL, RNGxSource);
1666:Drivers/STM32G4xx_HAL_Driver/Inc/stm32g4xx_ll_rcc.h **** }
1667:Drivers/STM32G4xx_HAL_Driver/Inc/stm32g4xx_ll_rcc.h **** 
1668:Drivers/STM32G4xx_HAL_Driver/Inc/stm32g4xx_ll_rcc.h **** /**
1669:Drivers/STM32G4xx_HAL_Driver/Inc/stm32g4xx_ll_rcc.h ****   * @brief  Configure USB clock source
1670:Drivers/STM32G4xx_HAL_Driver/Inc/stm32g4xx_ll_rcc.h ****   * @rmtoll CCIPR        CLK48SEL      LL_RCC_SetUSBClockSource
1671:Drivers/STM32G4xx_HAL_Driver/Inc/stm32g4xx_ll_rcc.h ****   * @param  USBxSource This parameter can be one of the following values:
1672:Drivers/STM32G4xx_HAL_Driver/Inc/stm32g4xx_ll_rcc.h ****   *         @arg @ref LL_RCC_USB_CLKSOURCE_HSI48
1673:Drivers/STM32G4xx_HAL_Driver/Inc/stm32g4xx_ll_rcc.h ****   *         @arg @ref LL_RCC_USB_CLKSOURCE_PLL
1674:Drivers/STM32G4xx_HAL_Driver/Inc/stm32g4xx_ll_rcc.h ****   * @retval None
1675:Drivers/STM32G4xx_HAL_Driver/Inc/stm32g4xx_ll_rcc.h ****   */
1676:Drivers/STM32G4xx_HAL_Driver/Inc/stm32g4xx_ll_rcc.h **** __STATIC_INLINE void LL_RCC_SetUSBClockSource(uint32_t USBxSource)
ARM GAS  D:\apps\VSCode\data\tmp\ccGycOlE.s 			page 44


1677:Drivers/STM32G4xx_HAL_Driver/Inc/stm32g4xx_ll_rcc.h **** {
1678:Drivers/STM32G4xx_HAL_Driver/Inc/stm32g4xx_ll_rcc.h ****   MODIFY_REG(RCC->CCIPR, RCC_CCIPR_CLK48SEL, USBxSource);
1679:Drivers/STM32G4xx_HAL_Driver/Inc/stm32g4xx_ll_rcc.h **** }
1680:Drivers/STM32G4xx_HAL_Driver/Inc/stm32g4xx_ll_rcc.h **** 
1681:Drivers/STM32G4xx_HAL_Driver/Inc/stm32g4xx_ll_rcc.h **** /**
1682:Drivers/STM32G4xx_HAL_Driver/Inc/stm32g4xx_ll_rcc.h ****   * @brief  Configure ADC clock source
1683:Drivers/STM32G4xx_HAL_Driver/Inc/stm32g4xx_ll_rcc.h ****   * @rmtoll CCIPR        ADC12SEL         LL_RCC_SetADCClockSource\n
1684:Drivers/STM32G4xx_HAL_Driver/Inc/stm32g4xx_ll_rcc.h ****   *         CCIPR        ADC345SEL        LL_RCC_SetADCClockSource
1685:Drivers/STM32G4xx_HAL_Driver/Inc/stm32g4xx_ll_rcc.h ****   * @param  ADCxSource This parameter can be one of the following values:
1686:Drivers/STM32G4xx_HAL_Driver/Inc/stm32g4xx_ll_rcc.h ****   *         @arg @ref LL_RCC_ADC12_CLKSOURCE_NONE
1687:Drivers/STM32G4xx_HAL_Driver/Inc/stm32g4xx_ll_rcc.h ****   *         @arg @ref LL_RCC_ADC12_CLKSOURCE_PLL
1688:Drivers/STM32G4xx_HAL_Driver/Inc/stm32g4xx_ll_rcc.h ****   *         @arg @ref LL_RCC_ADC12_CLKSOURCE_SYSCLK
1689:Drivers/STM32G4xx_HAL_Driver/Inc/stm32g4xx_ll_rcc.h ****   *         @arg @ref LL_RCC_ADC345_CLKSOURCE_NONE   (*)
1690:Drivers/STM32G4xx_HAL_Driver/Inc/stm32g4xx_ll_rcc.h ****   *         @arg @ref LL_RCC_ADC345_CLKSOURCE_PLL    (*)
1691:Drivers/STM32G4xx_HAL_Driver/Inc/stm32g4xx_ll_rcc.h ****   *         @arg @ref LL_RCC_ADC345_CLKSOURCE_SYSCLK (*)
1692:Drivers/STM32G4xx_HAL_Driver/Inc/stm32g4xx_ll_rcc.h ****   *
1693:Drivers/STM32G4xx_HAL_Driver/Inc/stm32g4xx_ll_rcc.h ****   *         (*) value not defined in all devices.
1694:Drivers/STM32G4xx_HAL_Driver/Inc/stm32g4xx_ll_rcc.h ****   * @retval None
1695:Drivers/STM32G4xx_HAL_Driver/Inc/stm32g4xx_ll_rcc.h ****   */
1696:Drivers/STM32G4xx_HAL_Driver/Inc/stm32g4xx_ll_rcc.h **** __STATIC_INLINE void LL_RCC_SetADCClockSource(uint32_t ADCxSource)
1697:Drivers/STM32G4xx_HAL_Driver/Inc/stm32g4xx_ll_rcc.h **** {
1698:Drivers/STM32G4xx_HAL_Driver/Inc/stm32g4xx_ll_rcc.h ****   MODIFY_REG(RCC->CCIPR, 3U << ((ADCxSource & 0x001F0000U) >> 16U), ((ADCxSource & 0x000000FFU) << 
1699:Drivers/STM32G4xx_HAL_Driver/Inc/stm32g4xx_ll_rcc.h **** }
1700:Drivers/STM32G4xx_HAL_Driver/Inc/stm32g4xx_ll_rcc.h **** 
1701:Drivers/STM32G4xx_HAL_Driver/Inc/stm32g4xx_ll_rcc.h **** #if defined(QUADSPI)
1702:Drivers/STM32G4xx_HAL_Driver/Inc/stm32g4xx_ll_rcc.h **** /**
1703:Drivers/STM32G4xx_HAL_Driver/Inc/stm32g4xx_ll_rcc.h ****   * @brief  Configure QUADSPI clock source
1704:Drivers/STM32G4xx_HAL_Driver/Inc/stm32g4xx_ll_rcc.h ****   * @rmtoll CCIPR2         QSPISEL     LL_RCC_SetQUADSPIClockSource
1705:Drivers/STM32G4xx_HAL_Driver/Inc/stm32g4xx_ll_rcc.h ****   * @param  Source This parameter can be one of the following values:
1706:Drivers/STM32G4xx_HAL_Driver/Inc/stm32g4xx_ll_rcc.h ****   *         @arg @ref LL_RCC_QUADSPI_CLKSOURCE_SYSCLK
1707:Drivers/STM32G4xx_HAL_Driver/Inc/stm32g4xx_ll_rcc.h ****   *         @arg @ref LL_RCC_QUADSPI_CLKSOURCE_HSI
1708:Drivers/STM32G4xx_HAL_Driver/Inc/stm32g4xx_ll_rcc.h ****   *         @arg @ref LL_RCC_QUADSPI_CLKSOURCE_PLL
1709:Drivers/STM32G4xx_HAL_Driver/Inc/stm32g4xx_ll_rcc.h ****   * @retval None
1710:Drivers/STM32G4xx_HAL_Driver/Inc/stm32g4xx_ll_rcc.h ****   */
1711:Drivers/STM32G4xx_HAL_Driver/Inc/stm32g4xx_ll_rcc.h **** __STATIC_INLINE void LL_RCC_SetQUADSPIClockSource(uint32_t Source)
1712:Drivers/STM32G4xx_HAL_Driver/Inc/stm32g4xx_ll_rcc.h **** {
1713:Drivers/STM32G4xx_HAL_Driver/Inc/stm32g4xx_ll_rcc.h ****   MODIFY_REG(RCC->CCIPR2, RCC_CCIPR2_QSPISEL, Source);
1714:Drivers/STM32G4xx_HAL_Driver/Inc/stm32g4xx_ll_rcc.h **** }
1715:Drivers/STM32G4xx_HAL_Driver/Inc/stm32g4xx_ll_rcc.h **** #endif /* QUADSPI */
1716:Drivers/STM32G4xx_HAL_Driver/Inc/stm32g4xx_ll_rcc.h **** 
1717:Drivers/STM32G4xx_HAL_Driver/Inc/stm32g4xx_ll_rcc.h **** /**
1718:Drivers/STM32G4xx_HAL_Driver/Inc/stm32g4xx_ll_rcc.h ****   * @brief  Get USARTx clock source
1719:Drivers/STM32G4xx_HAL_Driver/Inc/stm32g4xx_ll_rcc.h ****   * @rmtoll CCIPR        USARTxSEL     LL_RCC_GetUSARTClockSource
1720:Drivers/STM32G4xx_HAL_Driver/Inc/stm32g4xx_ll_rcc.h ****   * @param  USARTx This parameter can be one of the following values:
1721:Drivers/STM32G4xx_HAL_Driver/Inc/stm32g4xx_ll_rcc.h ****   *         @arg @ref LL_RCC_USART1_CLKSOURCE
1722:Drivers/STM32G4xx_HAL_Driver/Inc/stm32g4xx_ll_rcc.h ****   *         @arg @ref LL_RCC_USART2_CLKSOURCE
1723:Drivers/STM32G4xx_HAL_Driver/Inc/stm32g4xx_ll_rcc.h ****   *         @arg @ref LL_RCC_USART3_CLKSOURCE
1724:Drivers/STM32G4xx_HAL_Driver/Inc/stm32g4xx_ll_rcc.h ****   * @retval Returned value can be one of the following values:
1725:Drivers/STM32G4xx_HAL_Driver/Inc/stm32g4xx_ll_rcc.h ****   *         @arg @ref LL_RCC_USART1_CLKSOURCE_PCLK2
1726:Drivers/STM32G4xx_HAL_Driver/Inc/stm32g4xx_ll_rcc.h ****   *         @arg @ref LL_RCC_USART1_CLKSOURCE_SYSCLK
1727:Drivers/STM32G4xx_HAL_Driver/Inc/stm32g4xx_ll_rcc.h ****   *         @arg @ref LL_RCC_USART1_CLKSOURCE_HSI
1728:Drivers/STM32G4xx_HAL_Driver/Inc/stm32g4xx_ll_rcc.h ****   *         @arg @ref LL_RCC_USART1_CLKSOURCE_LSE
1729:Drivers/STM32G4xx_HAL_Driver/Inc/stm32g4xx_ll_rcc.h ****   *         @arg @ref LL_RCC_USART2_CLKSOURCE_PCLK1
1730:Drivers/STM32G4xx_HAL_Driver/Inc/stm32g4xx_ll_rcc.h ****   *         @arg @ref LL_RCC_USART2_CLKSOURCE_SYSCLK
1731:Drivers/STM32G4xx_HAL_Driver/Inc/stm32g4xx_ll_rcc.h ****   *         @arg @ref LL_RCC_USART2_CLKSOURCE_HSI
1732:Drivers/STM32G4xx_HAL_Driver/Inc/stm32g4xx_ll_rcc.h ****   *         @arg @ref LL_RCC_USART2_CLKSOURCE_LSE
1733:Drivers/STM32G4xx_HAL_Driver/Inc/stm32g4xx_ll_rcc.h ****   *         @arg @ref LL_RCC_USART3_CLKSOURCE_PCLK1
ARM GAS  D:\apps\VSCode\data\tmp\ccGycOlE.s 			page 45


1734:Drivers/STM32G4xx_HAL_Driver/Inc/stm32g4xx_ll_rcc.h ****   *         @arg @ref LL_RCC_USART3_CLKSOURCE_SYSCLK
1735:Drivers/STM32G4xx_HAL_Driver/Inc/stm32g4xx_ll_rcc.h ****   *         @arg @ref LL_RCC_USART3_CLKSOURCE_HSI
1736:Drivers/STM32G4xx_HAL_Driver/Inc/stm32g4xx_ll_rcc.h ****   *         @arg @ref LL_RCC_USART3_CLKSOURCE_LSE
1737:Drivers/STM32G4xx_HAL_Driver/Inc/stm32g4xx_ll_rcc.h ****   */
1738:Drivers/STM32G4xx_HAL_Driver/Inc/stm32g4xx_ll_rcc.h **** __STATIC_INLINE uint32_t LL_RCC_GetUSARTClockSource(uint32_t USARTx)
1739:Drivers/STM32G4xx_HAL_Driver/Inc/stm32g4xx_ll_rcc.h **** {
1740:Drivers/STM32G4xx_HAL_Driver/Inc/stm32g4xx_ll_rcc.h ****   return (uint32_t)(READ_BIT(RCC->CCIPR, USARTx) | (USARTx << 16U));
1741:Drivers/STM32G4xx_HAL_Driver/Inc/stm32g4xx_ll_rcc.h **** }
1742:Drivers/STM32G4xx_HAL_Driver/Inc/stm32g4xx_ll_rcc.h **** 
1743:Drivers/STM32G4xx_HAL_Driver/Inc/stm32g4xx_ll_rcc.h **** #if defined(UART4)
1744:Drivers/STM32G4xx_HAL_Driver/Inc/stm32g4xx_ll_rcc.h **** /**
1745:Drivers/STM32G4xx_HAL_Driver/Inc/stm32g4xx_ll_rcc.h ****   * @brief  Get UARTx clock source
1746:Drivers/STM32G4xx_HAL_Driver/Inc/stm32g4xx_ll_rcc.h ****   * @rmtoll CCIPR        UARTxSEL      LL_RCC_GetUARTClockSource
1747:Drivers/STM32G4xx_HAL_Driver/Inc/stm32g4xx_ll_rcc.h ****   * @param  UARTx This parameter can be one of the following values:
1748:Drivers/STM32G4xx_HAL_Driver/Inc/stm32g4xx_ll_rcc.h ****   *         @arg @ref LL_RCC_UART4_CLKSOURCE (*)
1749:Drivers/STM32G4xx_HAL_Driver/Inc/stm32g4xx_ll_rcc.h ****   *         @arg @ref LL_RCC_UART5_CLKSOURCE (*)
1750:Drivers/STM32G4xx_HAL_Driver/Inc/stm32g4xx_ll_rcc.h ****   * @retval Returned value can be one of the following values:
1751:Drivers/STM32G4xx_HAL_Driver/Inc/stm32g4xx_ll_rcc.h ****   *         @arg @ref LL_RCC_UART4_CLKSOURCE_PCLK1 (*)
1752:Drivers/STM32G4xx_HAL_Driver/Inc/stm32g4xx_ll_rcc.h ****   *         @arg @ref LL_RCC_UART4_CLKSOURCE_SYSCLK (*)
1753:Drivers/STM32G4xx_HAL_Driver/Inc/stm32g4xx_ll_rcc.h ****   *         @arg @ref LL_RCC_UART4_CLKSOURCE_HSI (*)
1754:Drivers/STM32G4xx_HAL_Driver/Inc/stm32g4xx_ll_rcc.h ****   *         @arg @ref LL_RCC_UART4_CLKSOURCE_LSE (*)
1755:Drivers/STM32G4xx_HAL_Driver/Inc/stm32g4xx_ll_rcc.h ****   *         @arg @ref LL_RCC_UART5_CLKSOURCE_PCLK1 (*)
1756:Drivers/STM32G4xx_HAL_Driver/Inc/stm32g4xx_ll_rcc.h ****   *         @arg @ref LL_RCC_UART5_CLKSOURCE_SYSCLK (*)
1757:Drivers/STM32G4xx_HAL_Driver/Inc/stm32g4xx_ll_rcc.h ****   *         @arg @ref LL_RCC_UART5_CLKSOURCE_HSI (*)
1758:Drivers/STM32G4xx_HAL_Driver/Inc/stm32g4xx_ll_rcc.h ****   *         @arg @ref LL_RCC_UART5_CLKSOURCE_LSE (*)
1759:Drivers/STM32G4xx_HAL_Driver/Inc/stm32g4xx_ll_rcc.h ****   *
