ARM GAS  D:\apps\VSCode\data\tmp\cc6Ljmfb.s 			page 1


   1              		.cpu cortex-m4
   2              		.eabi_attribute 27, 1
   3              		.eabi_attribute 28, 1
   4              		.eabi_attribute 20, 1
   5              		.eabi_attribute 21, 1
   6              		.eabi_attribute 23, 3
   7              		.eabi_attribute 24, 1
   8              		.eabi_attribute 25, 1
   9              		.eabi_attribute 26, 1
  10              		.eabi_attribute 30, 2
  11              		.eabi_attribute 34, 1
  12              		.eabi_attribute 18, 4
  13              		.file	"stm32g4xx_ll_exti.c"
  14              		.text
  15              	.Ltext0:
  16              		.cfi_sections	.debug_frame
  17              		.section	.text.LL_EXTI_DeInit,"ax",%progbits
  18              		.align	1
  19              		.p2align 2,,3
  20              		.global	LL_EXTI_DeInit
  21              		.arch armv7e-m
  22              		.syntax unified
  23              		.thumb
  24              		.thumb_func
  25              		.fpu fpv4-sp-d16
  27              	LL_EXTI_DeInit:
  28              	.LFB162:
  29              		.file 1 "Drivers/STM32G4xx_HAL_Driver/Src/stm32g4xx_ll_exti.c"
   1:Drivers/STM32G4xx_HAL_Driver/Src/stm32g4xx_ll_exti.c **** /**
   2:Drivers/STM32G4xx_HAL_Driver/Src/stm32g4xx_ll_exti.c ****   ******************************************************************************
   3:Drivers/STM32G4xx_HAL_Driver/Src/stm32g4xx_ll_exti.c ****   * @file    stm32g4xx_ll_exti.c
   4:Drivers/STM32G4xx_HAL_Driver/Src/stm32g4xx_ll_exti.c ****   * @author  MCD Application Team
   5:Drivers/STM32G4xx_HAL_Driver/Src/stm32g4xx_ll_exti.c ****   * @brief   EXTI LL module driver.
   6:Drivers/STM32G4xx_HAL_Driver/Src/stm32g4xx_ll_exti.c ****   ******************************************************************************
   7:Drivers/STM32G4xx_HAL_Driver/Src/stm32g4xx_ll_exti.c ****   * @attention
   8:Drivers/STM32G4xx_HAL_Driver/Src/stm32g4xx_ll_exti.c ****   *
   9:Drivers/STM32G4xx_HAL_Driver/Src/stm32g4xx_ll_exti.c ****   * <h2><center>&copy; Copyright (c) 2019 STMicroelectronics.
  10:Drivers/STM32G4xx_HAL_Driver/Src/stm32g4xx_ll_exti.c ****   * All rights reserved.</center></h2>
  11:Drivers/STM32G4xx_HAL_Driver/Src/stm32g4xx_ll_exti.c ****   *
  12:Drivers/STM32G4xx_HAL_Driver/Src/stm32g4xx_ll_exti.c ****   * This software component is licensed by ST under BSD 3-Clause license,
  13:Drivers/STM32G4xx_HAL_Driver/Src/stm32g4xx_ll_exti.c ****   * the "License"; You may not use this file except in compliance with the
  14:Drivers/STM32G4xx_HAL_Driver/Src/stm32g4xx_ll_exti.c ****   * License. You may obtain a copy of the License at:
  15:Drivers/STM32G4xx_HAL_Driver/Src/stm32g4xx_ll_exti.c ****   *                        opensource.org/licenses/BSD-3-Clause
  16:Drivers/STM32G4xx_HAL_Driver/Src/stm32g4xx_ll_exti.c ****   *
  17:Drivers/STM32G4xx_HAL_Driver/Src/stm32g4xx_ll_exti.c ****   ******************************************************************************
  18:Drivers/STM32G4xx_HAL_Driver/Src/stm32g4xx_ll_exti.c ****   */
  19:Drivers/STM32G4xx_HAL_Driver/Src/stm32g4xx_ll_exti.c **** #if defined(USE_FULL_LL_DRIVER)
  20:Drivers/STM32G4xx_HAL_Driver/Src/stm32g4xx_ll_exti.c **** 
  21:Drivers/STM32G4xx_HAL_Driver/Src/stm32g4xx_ll_exti.c **** /* Includes ------------------------------------------------------------------*/
  22:Drivers/STM32G4xx_HAL_Driver/Src/stm32g4xx_ll_exti.c **** #include "stm32g4xx_ll_exti.h"
  23:Drivers/STM32G4xx_HAL_Driver/Src/stm32g4xx_ll_exti.c **** #ifdef  USE_FULL_ASSERT
  24:Drivers/STM32G4xx_HAL_Driver/Src/stm32g4xx_ll_exti.c **** #include "stm32_assert.h"
  25:Drivers/STM32G4xx_HAL_Driver/Src/stm32g4xx_ll_exti.c **** #else
  26:Drivers/STM32G4xx_HAL_Driver/Src/stm32g4xx_ll_exti.c **** #define assert_param(expr) ((void)0U)
  27:Drivers/STM32G4xx_HAL_Driver/Src/stm32g4xx_ll_exti.c **** #endif /* USE_FULL_ASSERT */
  28:Drivers/STM32G4xx_HAL_Driver/Src/stm32g4xx_ll_exti.c **** 
  29:Drivers/STM32G4xx_HAL_Driver/Src/stm32g4xx_ll_exti.c **** /** @addtogroup STM32G4xx_LL_Driver
ARM GAS  D:\apps\VSCode\data\tmp\cc6Ljmfb.s 			page 2


  30:Drivers/STM32G4xx_HAL_Driver/Src/stm32g4xx_ll_exti.c ****   * @{
  31:Drivers/STM32G4xx_HAL_Driver/Src/stm32g4xx_ll_exti.c ****   */
  32:Drivers/STM32G4xx_HAL_Driver/Src/stm32g4xx_ll_exti.c **** 
  33:Drivers/STM32G4xx_HAL_Driver/Src/stm32g4xx_ll_exti.c **** #if defined (EXTI)
  34:Drivers/STM32G4xx_HAL_Driver/Src/stm32g4xx_ll_exti.c **** 
  35:Drivers/STM32G4xx_HAL_Driver/Src/stm32g4xx_ll_exti.c **** /** @defgroup EXTI_LL EXTI
  36:Drivers/STM32G4xx_HAL_Driver/Src/stm32g4xx_ll_exti.c ****   * @{
  37:Drivers/STM32G4xx_HAL_Driver/Src/stm32g4xx_ll_exti.c ****   */
  38:Drivers/STM32G4xx_HAL_Driver/Src/stm32g4xx_ll_exti.c **** 
  39:Drivers/STM32G4xx_HAL_Driver/Src/stm32g4xx_ll_exti.c **** /* Private types -------------------------------------------------------------*/
  40:Drivers/STM32G4xx_HAL_Driver/Src/stm32g4xx_ll_exti.c **** /* Private variables ---------------------------------------------------------*/
  41:Drivers/STM32G4xx_HAL_Driver/Src/stm32g4xx_ll_exti.c **** /* Private constants ---------------------------------------------------------*/
  42:Drivers/STM32G4xx_HAL_Driver/Src/stm32g4xx_ll_exti.c **** /* Private macros ------------------------------------------------------------*/
  43:Drivers/STM32G4xx_HAL_Driver/Src/stm32g4xx_ll_exti.c **** /** @addtogroup EXTI_LL_Private_Macros
  44:Drivers/STM32G4xx_HAL_Driver/Src/stm32g4xx_ll_exti.c ****   * @{
  45:Drivers/STM32G4xx_HAL_Driver/Src/stm32g4xx_ll_exti.c ****   */
  46:Drivers/STM32G4xx_HAL_Driver/Src/stm32g4xx_ll_exti.c **** 
  47:Drivers/STM32G4xx_HAL_Driver/Src/stm32g4xx_ll_exti.c **** #define IS_LL_EXTI_LINE_0_31(__VALUE__)              (((__VALUE__) & ~LL_EXTI_LINE_ALL_0_31) == 0x0
  48:Drivers/STM32G4xx_HAL_Driver/Src/stm32g4xx_ll_exti.c **** #define IS_LL_EXTI_LINE_32_63(__VALUE__)             (((__VALUE__) & ~LL_EXTI_LINE_ALL_32_63) == 0x
  49:Drivers/STM32G4xx_HAL_Driver/Src/stm32g4xx_ll_exti.c **** 
  50:Drivers/STM32G4xx_HAL_Driver/Src/stm32g4xx_ll_exti.c **** #define IS_LL_EXTI_MODE(__VALUE__)                   (((__VALUE__) == LL_EXTI_MODE_IT)            \
  51:Drivers/STM32G4xx_HAL_Driver/Src/stm32g4xx_ll_exti.c ****                                                       || ((__VALUE__) == LL_EXTI_MODE_EVENT)       
  52:Drivers/STM32G4xx_HAL_Driver/Src/stm32g4xx_ll_exti.c ****                                                       || ((__VALUE__) == LL_EXTI_MODE_IT_EVENT))
  53:Drivers/STM32G4xx_HAL_Driver/Src/stm32g4xx_ll_exti.c **** 
  54:Drivers/STM32G4xx_HAL_Driver/Src/stm32g4xx_ll_exti.c **** 
  55:Drivers/STM32G4xx_HAL_Driver/Src/stm32g4xx_ll_exti.c **** #define IS_LL_EXTI_TRIGGER(__VALUE__)                (((__VALUE__) == LL_EXTI_TRIGGER_NONE)       \
  56:Drivers/STM32G4xx_HAL_Driver/Src/stm32g4xx_ll_exti.c ****                                                       || ((__VALUE__) == LL_EXTI_TRIGGER_RISING)   
  57:Drivers/STM32G4xx_HAL_Driver/Src/stm32g4xx_ll_exti.c ****                                                       || ((__VALUE__) == LL_EXTI_TRIGGER_FALLING)  
  58:Drivers/STM32G4xx_HAL_Driver/Src/stm32g4xx_ll_exti.c ****                                                       || ((__VALUE__) == LL_EXTI_TRIGGER_RISING_FAL
  59:Drivers/STM32G4xx_HAL_Driver/Src/stm32g4xx_ll_exti.c **** 
  60:Drivers/STM32G4xx_HAL_Driver/Src/stm32g4xx_ll_exti.c **** /**
  61:Drivers/STM32G4xx_HAL_Driver/Src/stm32g4xx_ll_exti.c ****   * @}
  62:Drivers/STM32G4xx_HAL_Driver/Src/stm32g4xx_ll_exti.c ****   */
  63:Drivers/STM32G4xx_HAL_Driver/Src/stm32g4xx_ll_exti.c **** 
  64:Drivers/STM32G4xx_HAL_Driver/Src/stm32g4xx_ll_exti.c **** /* Private function prototypes -----------------------------------------------*/
  65:Drivers/STM32G4xx_HAL_Driver/Src/stm32g4xx_ll_exti.c **** 
  66:Drivers/STM32G4xx_HAL_Driver/Src/stm32g4xx_ll_exti.c **** /* Exported functions --------------------------------------------------------*/
  67:Drivers/STM32G4xx_HAL_Driver/Src/stm32g4xx_ll_exti.c **** /** @addtogroup EXTI_LL_Exported_Functions
  68:Drivers/STM32G4xx_HAL_Driver/Src/stm32g4xx_ll_exti.c ****   * @{
  69:Drivers/STM32G4xx_HAL_Driver/Src/stm32g4xx_ll_exti.c ****   */
  70:Drivers/STM32G4xx_HAL_Driver/Src/stm32g4xx_ll_exti.c **** 
  71:Drivers/STM32G4xx_HAL_Driver/Src/stm32g4xx_ll_exti.c **** /** @addtogroup EXTI_LL_EF_Init
  72:Drivers/STM32G4xx_HAL_Driver/Src/stm32g4xx_ll_exti.c ****   * @{
  73:Drivers/STM32G4xx_HAL_Driver/Src/stm32g4xx_ll_exti.c ****   */
  74:Drivers/STM32G4xx_HAL_Driver/Src/stm32g4xx_ll_exti.c **** 
  75:Drivers/STM32G4xx_HAL_Driver/Src/stm32g4xx_ll_exti.c **** /**
  76:Drivers/STM32G4xx_HAL_Driver/Src/stm32g4xx_ll_exti.c ****   * @brief  De-initialize the EXTI registers to their default reset values.
  77:Drivers/STM32G4xx_HAL_Driver/Src/stm32g4xx_ll_exti.c ****   * @retval An ErrorStatus enumeration value:
  78:Drivers/STM32G4xx_HAL_Driver/Src/stm32g4xx_ll_exti.c ****   *          - 0x00: EXTI registers are de-initialized
  79:Drivers/STM32G4xx_HAL_Driver/Src/stm32g4xx_ll_exti.c ****   */
  80:Drivers/STM32G4xx_HAL_Driver/Src/stm32g4xx_ll_exti.c **** uint32_t LL_EXTI_DeInit(void)
  81:Drivers/STM32G4xx_HAL_Driver/Src/stm32g4xx_ll_exti.c **** {
  30              		.loc 1 81 1 view -0
  31              		.cfi_startproc
  32              		@ args = 0, pretend = 0, frame = 0
  33              		@ frame_needed = 0, uses_anonymous_args = 0
  34              		@ link register save eliminated.
ARM GAS  D:\apps\VSCode\data\tmp\cc6Ljmfb.s 			page 3


  82:Drivers/STM32G4xx_HAL_Driver/Src/stm32g4xx_ll_exti.c ****   /* Interrupt mask register set to default reset values */
  83:Drivers/STM32G4xx_HAL_Driver/Src/stm32g4xx_ll_exti.c ****   LL_EXTI_WriteReg(IMR1,   0x1F840000U);
  35              		.loc 1 83 3 view .LVU1
  36 0000 0B4B     		ldr	r3, .L4
  37 0002 0C4A     		ldr	r2, .L4+4
  84:Drivers/STM32G4xx_HAL_Driver/Src/stm32g4xx_ll_exti.c ****   /* Event mask register set to default reset values */
  85:Drivers/STM32G4xx_HAL_Driver/Src/stm32g4xx_ll_exti.c ****   LL_EXTI_WriteReg(EMR1,   0x00000000U);
  86:Drivers/STM32G4xx_HAL_Driver/Src/stm32g4xx_ll_exti.c ****   /* Rising Trigger selection register set to default reset values */
  87:Drivers/STM32G4xx_HAL_Driver/Src/stm32g4xx_ll_exti.c ****   LL_EXTI_WriteReg(RTSR1,  0x00000000U);
  88:Drivers/STM32G4xx_HAL_Driver/Src/stm32g4xx_ll_exti.c ****   /* Falling Trigger selection register set to default reset values */
  89:Drivers/STM32G4xx_HAL_Driver/Src/stm32g4xx_ll_exti.c ****   LL_EXTI_WriteReg(FTSR1,  0x00000000U);
  90:Drivers/STM32G4xx_HAL_Driver/Src/stm32g4xx_ll_exti.c ****   /* Software interrupt event register set to default reset values */
  91:Drivers/STM32G4xx_HAL_Driver/Src/stm32g4xx_ll_exti.c ****   LL_EXTI_WriteReg(SWIER1, 0x00000000U);
  92:Drivers/STM32G4xx_HAL_Driver/Src/stm32g4xx_ll_exti.c ****   /* Pending register clear */
  93:Drivers/STM32G4xx_HAL_Driver/Src/stm32g4xx_ll_exti.c ****   LL_EXTI_WriteReg(PR1,    0x007DFFFFU);
  38              		.loc 1 93 3 is_stmt 0 view .LVU2
  39 0004 0C48     		ldr	r0, .L4+8
  81:Drivers/STM32G4xx_HAL_Driver/Src/stm32g4xx_ll_exti.c ****   /* Interrupt mask register set to default reset values */
  40              		.loc 1 81 1 view .LVU3
  41 0006 10B4     		push	{r4}
  42              	.LCFI0:
  43              		.cfi_def_cfa_offset 4
  44              		.cfi_offset 4, -4
  94:Drivers/STM32G4xx_HAL_Driver/Src/stm32g4xx_ll_exti.c **** 
  95:Drivers/STM32G4xx_HAL_Driver/Src/stm32g4xx_ll_exti.c ****   /* Interrupt mask register 2 set to default reset values */
  96:Drivers/STM32G4xx_HAL_Driver/Src/stm32g4xx_ll_exti.c **** #if defined(LL_EXTI_LINE_32) && defined(LL_EXTI_LINE_33) && defined(LL_EXTI_LINE_35) && defined(LL_
  97:Drivers/STM32G4xx_HAL_Driver/Src/stm32g4xx_ll_exti.c ****   LL_EXTI_WriteReg(IMR2,        0x0000043CU);
  98:Drivers/STM32G4xx_HAL_Driver/Src/stm32g4xx_ll_exti.c **** #else
  99:Drivers/STM32G4xx_HAL_Driver/Src/stm32g4xx_ll_exti.c ****   LL_EXTI_WriteReg(IMR2,        0x00000034U);
 100:Drivers/STM32G4xx_HAL_Driver/Src/stm32g4xx_ll_exti.c **** #endif /* LL_EXTI_LINE_xx */
 101:Drivers/STM32G4xx_HAL_Driver/Src/stm32g4xx_ll_exti.c ****   /* Event mask register 2 set to default reset values */
 102:Drivers/STM32G4xx_HAL_Driver/Src/stm32g4xx_ll_exti.c ****   LL_EXTI_WriteReg(EMR2,        0x00000000U);
 103:Drivers/STM32G4xx_HAL_Driver/Src/stm32g4xx_ll_exti.c ****   /* Rising Trigger selection register 2 set to default reset values */
 104:Drivers/STM32G4xx_HAL_Driver/Src/stm32g4xx_ll_exti.c ****   LL_EXTI_WriteReg(RTSR2,       0x00000000U);
 105:Drivers/STM32G4xx_HAL_Driver/Src/stm32g4xx_ll_exti.c ****   /* Falling Trigger selection register 2 set to default reset values */
 106:Drivers/STM32G4xx_HAL_Driver/Src/stm32g4xx_ll_exti.c ****   LL_EXTI_WriteReg(FTSR2,       0x00000000U);
 107:Drivers/STM32G4xx_HAL_Driver/Src/stm32g4xx_ll_exti.c ****   /* Software interrupt event register 2 set to default reset values */
 108:Drivers/STM32G4xx_HAL_Driver/Src/stm32g4xx_ll_exti.c ****   LL_EXTI_WriteReg(SWIER2,      0x00000000U);
 109:Drivers/STM32G4xx_HAL_Driver/Src/stm32g4xx_ll_exti.c ****   /* Pending register 2 clear */
 110:Drivers/STM32G4xx_HAL_Driver/Src/stm32g4xx_ll_exti.c ****   LL_EXTI_WriteReg(PR2,         0x00000078U);
  45              		.loc 1 110 3 view .LVU4
  46 0008 7821     		movs	r1, #120
  83:Drivers/STM32G4xx_HAL_Driver/Src/stm32g4xx_ll_exti.c ****   /* Event mask register set to default reset values */
  47              		.loc 1 83 3 view .LVU5
  48 000a 1A60     		str	r2, [r3]
  85:Drivers/STM32G4xx_HAL_Driver/Src/stm32g4xx_ll_exti.c ****   /* Rising Trigger selection register set to default reset values */
  49              		.loc 1 85 3 is_stmt 1 view .LVU6
  97:Drivers/STM32G4xx_HAL_Driver/Src/stm32g4xx_ll_exti.c **** #else
  50              		.loc 1 97 3 is_stmt 0 view .LVU7
  51 000c 40F23C44 		movw	r4, #1084
  85:Drivers/STM32G4xx_HAL_Driver/Src/stm32g4xx_ll_exti.c ****   /* Rising Trigger selection register set to default reset values */
  52              		.loc 1 85 3 view .LVU8
  53 0010 0022     		movs	r2, #0
  54 0012 5A60     		str	r2, [r3, #4]
  87:Drivers/STM32G4xx_HAL_Driver/Src/stm32g4xx_ll_exti.c ****   /* Falling Trigger selection register set to default reset values */
  55              		.loc 1 87 3 is_stmt 1 view .LVU9
  56 0014 9A60     		str	r2, [r3, #8]
ARM GAS  D:\apps\VSCode\data\tmp\cc6Ljmfb.s 			page 4


  89:Drivers/STM32G4xx_HAL_Driver/Src/stm32g4xx_ll_exti.c ****   /* Software interrupt event register set to default reset values */
  57              		.loc 1 89 3 view .LVU10
  58 0016 DA60     		str	r2, [r3, #12]
  91:Drivers/STM32G4xx_HAL_Driver/Src/stm32g4xx_ll_exti.c ****   /* Pending register clear */
  59              		.loc 1 91 3 view .LVU11
  60 0018 1A61     		str	r2, [r3, #16]
  93:Drivers/STM32G4xx_HAL_Driver/Src/stm32g4xx_ll_exti.c **** 
  61              		.loc 1 93 3 view .LVU12
  62 001a 5861     		str	r0, [r3, #20]
  97:Drivers/STM32G4xx_HAL_Driver/Src/stm32g4xx_ll_exti.c **** #else
  63              		.loc 1 97 3 view .LVU13
  64 001c 1C62     		str	r4, [r3, #32]
 102:Drivers/STM32G4xx_HAL_Driver/Src/stm32g4xx_ll_exti.c ****   /* Rising Trigger selection register 2 set to default reset values */
  65              		.loc 1 102 3 view .LVU14
  66 001e 5A62     		str	r2, [r3, #36]
 104:Drivers/STM32G4xx_HAL_Driver/Src/stm32g4xx_ll_exti.c ****   /* Falling Trigger selection register 2 set to default reset values */
  67              		.loc 1 104 3 view .LVU15
  68 0020 9A62     		str	r2, [r3, #40]
 106:Drivers/STM32G4xx_HAL_Driver/Src/stm32g4xx_ll_exti.c ****   /* Software interrupt event register 2 set to default reset values */
  69              		.loc 1 106 3 view .LVU16
  70 0022 DA62     		str	r2, [r3, #44]
 108:Drivers/STM32G4xx_HAL_Driver/Src/stm32g4xx_ll_exti.c ****   /* Pending register 2 clear */
  71              		.loc 1 108 3 view .LVU17
  72 0024 1A63     		str	r2, [r3, #48]
  73              		.loc 1 110 3 view .LVU18
  74 0026 5963     		str	r1, [r3, #52]
 111:Drivers/STM32G4xx_HAL_Driver/Src/stm32g4xx_ll_exti.c **** 
 112:Drivers/STM32G4xx_HAL_Driver/Src/stm32g4xx_ll_exti.c ****   return 0x00u;
  75              		.loc 1 112 3 view .LVU19
 113:Drivers/STM32G4xx_HAL_Driver/Src/stm32g4xx_ll_exti.c **** }
  76              		.loc 1 113 1 is_stmt 0 view .LVU20
  77 0028 1046     		mov	r0, r2
  78 002a 5DF8044B 		ldr	r4, [sp], #4
  79              	.LCFI1:
  80              		.cfi_restore 4
  81              		.cfi_def_cfa_offset 0
  82 002e 7047     		bx	lr
  83              	.L5:
  84              		.align	2
  85              	.L4:
  86 0030 00040140 		.word	1073808384
  87 0034 0000841F 		.word	528744448
  88 0038 FFFF7D00 		.word	8257535
  89              		.cfi_endproc
  90              	.LFE162:
  92              		.section	.text.LL_EXTI_Init,"ax",%progbits
  93              		.align	1
  94              		.p2align 2,,3
  95              		.global	LL_EXTI_Init
  96              		.syntax unified
  97              		.thumb
  98              		.thumb_func
  99              		.fpu fpv4-sp-d16
 101              	LL_EXTI_Init:
 102              	.LVL0:
 103              	.LFB163:
 114:Drivers/STM32G4xx_HAL_Driver/Src/stm32g4xx_ll_exti.c **** 
ARM GAS  D:\apps\VSCode\data\tmp\cc6Ljmfb.s 			page 5


 115:Drivers/STM32G4xx_HAL_Driver/Src/stm32g4xx_ll_exti.c **** /**
 116:Drivers/STM32G4xx_HAL_Driver/Src/stm32g4xx_ll_exti.c ****   * @brief  Initialize the EXTI registers according to the specified parameters in EXTI_InitStruct.
 117:Drivers/STM32G4xx_HAL_Driver/Src/stm32g4xx_ll_exti.c ****   * @param  EXTI_InitStruct pointer to a @ref LL_EXTI_InitTypeDef structure.
 118:Drivers/STM32G4xx_HAL_Driver/Src/stm32g4xx_ll_exti.c ****   * @retval An ErrorStatus enumeration value:
 119:Drivers/STM32G4xx_HAL_Driver/Src/stm32g4xx_ll_exti.c ****   *          - 0x00: EXTI registers are initialized
 120:Drivers/STM32G4xx_HAL_Driver/Src/stm32g4xx_ll_exti.c ****   *          - any other calue : wrong configuration
 121:Drivers/STM32G4xx_HAL_Driver/Src/stm32g4xx_ll_exti.c ****   */
 122:Drivers/STM32G4xx_HAL_Driver/Src/stm32g4xx_ll_exti.c **** uint32_t LL_EXTI_Init(LL_EXTI_InitTypeDef *EXTI_InitStruct)
 123:Drivers/STM32G4xx_HAL_Driver/Src/stm32g4xx_ll_exti.c **** {
 104              		.loc 1 123 1 is_stmt 1 view -0
 105              		.cfi_startproc
 106              		@ args = 0, pretend = 0, frame = 0
 107              		@ frame_needed = 0, uses_anonymous_args = 0
 108              		@ link register save eliminated.
 124:Drivers/STM32G4xx_HAL_Driver/Src/stm32g4xx_ll_exti.c ****   uint32_t status = 0x00u;
 109              		.loc 1 124 3 view .LVU22
 125:Drivers/STM32G4xx_HAL_Driver/Src/stm32g4xx_ll_exti.c **** 
 126:Drivers/STM32G4xx_HAL_Driver/Src/stm32g4xx_ll_exti.c ****   /* Check the parameters */
 127:Drivers/STM32G4xx_HAL_Driver/Src/stm32g4xx_ll_exti.c ****   assert_param(IS_LL_EXTI_LINE_0_31(EXTI_InitStruct->Line_0_31));
 110              		.loc 1 127 3 view .LVU23
 128:Drivers/STM32G4xx_HAL_Driver/Src/stm32g4xx_ll_exti.c ****   assert_param(IS_LL_EXTI_LINE_32_63(EXTI_InitStruct->Line_32_63));
 111              		.loc 1 128 3 view .LVU24
 129:Drivers/STM32G4xx_HAL_Driver/Src/stm32g4xx_ll_exti.c ****   assert_param(IS_FUNCTIONAL_STATE(EXTI_InitStruct->LineCommand));
 112              		.loc 1 129 3 view .LVU25
 130:Drivers/STM32G4xx_HAL_Driver/Src/stm32g4xx_ll_exti.c ****   assert_param(IS_LL_EXTI_MODE(EXTI_InitStruct->Mode));
 113              		.loc 1 130 3 view .LVU26
 131:Drivers/STM32G4xx_HAL_Driver/Src/stm32g4xx_ll_exti.c **** 
 132:Drivers/STM32G4xx_HAL_Driver/Src/stm32g4xx_ll_exti.c ****   /* ENABLE LineCommand */
 133:Drivers/STM32G4xx_HAL_Driver/Src/stm32g4xx_ll_exti.c ****   if (EXTI_InitStruct->LineCommand != DISABLE)
 114              		.loc 1 133 3 view .LVU27
 123:Drivers/STM32G4xx_HAL_Driver/Src/stm32g4xx_ll_exti.c ****   uint32_t status = 0x00u;
 115              		.loc 1 123 1 is_stmt 0 view .LVU28
 116 0000 10B4     		push	{r4}
 117              	.LCFI2:
 118              		.cfi_def_cfa_offset 4
 119              		.cfi_offset 4, -4
 120              		.loc 1 133 6 view .LVU29
 121 0002 017A     		ldrb	r1, [r0, #8]	@ zero_extendqisi2
 123:Drivers/STM32G4xx_HAL_Driver/Src/stm32g4xx_ll_exti.c ****   uint32_t status = 0x00u;
 122              		.loc 1 123 1 view .LVU30
 123 0004 0346     		mov	r3, r0
 124 0006 0068     		ldr	r0, [r0]
 125              	.LVL1:
 126              		.loc 1 133 6 view .LVU31
 127 0008 0029     		cmp	r1, #0
 128 000a 34D0     		beq	.L7
 134:Drivers/STM32G4xx_HAL_Driver/Src/stm32g4xx_ll_exti.c ****   {
 135:Drivers/STM32G4xx_HAL_Driver/Src/stm32g4xx_ll_exti.c ****     assert_param(IS_LL_EXTI_TRIGGER(EXTI_InitStruct->Trigger));
 129              		.loc 1 135 5 is_stmt 1 view .LVU32
 136:Drivers/STM32G4xx_HAL_Driver/Src/stm32g4xx_ll_exti.c **** 
 137:Drivers/STM32G4xx_HAL_Driver/Src/stm32g4xx_ll_exti.c ****     /* Configure EXTI Lines in range from 0 to 31 */
 138:Drivers/STM32G4xx_HAL_Driver/Src/stm32g4xx_ll_exti.c ****     if (EXTI_InitStruct->Line_0_31 != LL_EXTI_LINE_NONE)
 130              		.loc 1 138 5 view .LVU33
 131              		.loc 1 138 8 is_stmt 0 view .LVU34
 132 000c F0B9     		cbnz	r0, .L43
 133              	.LVL2:
 134              	.L8:
ARM GAS  D:\apps\VSCode\data\tmp\cc6Ljmfb.s 			page 6


 139:Drivers/STM32G4xx_HAL_Driver/Src/stm32g4xx_ll_exti.c ****     {
 140:Drivers/STM32G4xx_HAL_Driver/Src/stm32g4xx_ll_exti.c ****       switch (EXTI_InitStruct->Mode)
 141:Drivers/STM32G4xx_HAL_Driver/Src/stm32g4xx_ll_exti.c ****       {
 142:Drivers/STM32G4xx_HAL_Driver/Src/stm32g4xx_ll_exti.c ****         case LL_EXTI_MODE_IT:
 143:Drivers/STM32G4xx_HAL_Driver/Src/stm32g4xx_ll_exti.c ****           /* First Disable Event on provided Lines */
 144:Drivers/STM32G4xx_HAL_Driver/Src/stm32g4xx_ll_exti.c ****           LL_EXTI_DisableEvent_0_31(EXTI_InitStruct->Line_0_31);
 145:Drivers/STM32G4xx_HAL_Driver/Src/stm32g4xx_ll_exti.c ****           /* Then Enable IT on provided Lines */
 146:Drivers/STM32G4xx_HAL_Driver/Src/stm32g4xx_ll_exti.c ****           LL_EXTI_EnableIT_0_31(EXTI_InitStruct->Line_0_31);
 147:Drivers/STM32G4xx_HAL_Driver/Src/stm32g4xx_ll_exti.c ****           break;
 148:Drivers/STM32G4xx_HAL_Driver/Src/stm32g4xx_ll_exti.c ****         case LL_EXTI_MODE_EVENT:
 149:Drivers/STM32G4xx_HAL_Driver/Src/stm32g4xx_ll_exti.c ****           /* First Disable IT on provided Lines */
 150:Drivers/STM32G4xx_HAL_Driver/Src/stm32g4xx_ll_exti.c ****           LL_EXTI_DisableIT_0_31(EXTI_InitStruct->Line_0_31);
 151:Drivers/STM32G4xx_HAL_Driver/Src/stm32g4xx_ll_exti.c ****           /* Then Enable Event on provided Lines */
 152:Drivers/STM32G4xx_HAL_Driver/Src/stm32g4xx_ll_exti.c ****           LL_EXTI_EnableEvent_0_31(EXTI_InitStruct->Line_0_31);
 153:Drivers/STM32G4xx_HAL_Driver/Src/stm32g4xx_ll_exti.c ****           break;
 154:Drivers/STM32G4xx_HAL_Driver/Src/stm32g4xx_ll_exti.c ****         case LL_EXTI_MODE_IT_EVENT:
 155:Drivers/STM32G4xx_HAL_Driver/Src/stm32g4xx_ll_exti.c ****           /* Directly Enable IT on provided Lines */
 156:Drivers/STM32G4xx_HAL_Driver/Src/stm32g4xx_ll_exti.c ****           LL_EXTI_EnableIT_0_31(EXTI_InitStruct->Line_0_31);
 157:Drivers/STM32G4xx_HAL_Driver/Src/stm32g4xx_ll_exti.c ****           /* Directly Enable Event on provided Lines */
 158:Drivers/STM32G4xx_HAL_Driver/Src/stm32g4xx_ll_exti.c ****           LL_EXTI_EnableEvent_0_31(EXTI_InitStruct->Line_0_31);
 159:Drivers/STM32G4xx_HAL_Driver/Src/stm32g4xx_ll_exti.c ****           break;
 160:Drivers/STM32G4xx_HAL_Driver/Src/stm32g4xx_ll_exti.c ****         default:
 161:Drivers/STM32G4xx_HAL_Driver/Src/stm32g4xx_ll_exti.c ****           status = 0x01u;
 162:Drivers/STM32G4xx_HAL_Driver/Src/stm32g4xx_ll_exti.c ****           break;
 163:Drivers/STM32G4xx_HAL_Driver/Src/stm32g4xx_ll_exti.c ****       }
 164:Drivers/STM32G4xx_HAL_Driver/Src/stm32g4xx_ll_exti.c ****       if (EXTI_InitStruct->Trigger != LL_EXTI_TRIGGER_NONE)
 165:Drivers/STM32G4xx_HAL_Driver/Src/stm32g4xx_ll_exti.c ****       {
 166:Drivers/STM32G4xx_HAL_Driver/Src/stm32g4xx_ll_exti.c ****         switch (EXTI_InitStruct->Trigger)
 167:Drivers/STM32G4xx_HAL_Driver/Src/stm32g4xx_ll_exti.c ****         {
 168:Drivers/STM32G4xx_HAL_Driver/Src/stm32g4xx_ll_exti.c ****           case LL_EXTI_TRIGGER_RISING:
 169:Drivers/STM32G4xx_HAL_Driver/Src/stm32g4xx_ll_exti.c ****             /* First Disable Falling Trigger on provided Lines */
 170:Drivers/STM32G4xx_HAL_Driver/Src/stm32g4xx_ll_exti.c ****             LL_EXTI_DisableFallingTrig_0_31(EXTI_InitStruct->Line_0_31);
 171:Drivers/STM32G4xx_HAL_Driver/Src/stm32g4xx_ll_exti.c ****             /* Then Enable Rising Trigger on provided Lines */
 172:Drivers/STM32G4xx_HAL_Driver/Src/stm32g4xx_ll_exti.c ****             LL_EXTI_EnableRisingTrig_0_31(EXTI_InitStruct->Line_0_31);
 173:Drivers/STM32G4xx_HAL_Driver/Src/stm32g4xx_ll_exti.c ****             break;
 174:Drivers/STM32G4xx_HAL_Driver/Src/stm32g4xx_ll_exti.c ****           case LL_EXTI_TRIGGER_FALLING:
 175:Drivers/STM32G4xx_HAL_Driver/Src/stm32g4xx_ll_exti.c ****             /* First Disable Rising Trigger on provided Lines */
 176:Drivers/STM32G4xx_HAL_Driver/Src/stm32g4xx_ll_exti.c ****             LL_EXTI_DisableRisingTrig_0_31(EXTI_InitStruct->Line_0_31);
 177:Drivers/STM32G4xx_HAL_Driver/Src/stm32g4xx_ll_exti.c ****             /* Then Enable Falling Trigger on provided Lines */
 178:Drivers/STM32G4xx_HAL_Driver/Src/stm32g4xx_ll_exti.c ****             LL_EXTI_EnableFallingTrig_0_31(EXTI_InitStruct->Line_0_31);
 179:Drivers/STM32G4xx_HAL_Driver/Src/stm32g4xx_ll_exti.c ****             break;
 180:Drivers/STM32G4xx_HAL_Driver/Src/stm32g4xx_ll_exti.c ****           case LL_EXTI_TRIGGER_RISING_FALLING:
 181:Drivers/STM32G4xx_HAL_Driver/Src/stm32g4xx_ll_exti.c ****             /* Enable Rising Trigger on provided Lines */
 182:Drivers/STM32G4xx_HAL_Driver/Src/stm32g4xx_ll_exti.c ****             LL_EXTI_EnableRisingTrig_0_31(EXTI_InitStruct->Line_0_31);
 183:Drivers/STM32G4xx_HAL_Driver/Src/stm32g4xx_ll_exti.c ****             /* Enable Falling Trigger on provided Lines */
 184:Drivers/STM32G4xx_HAL_Driver/Src/stm32g4xx_ll_exti.c ****             LL_EXTI_EnableFallingTrig_0_31(EXTI_InitStruct->Line_0_31);
 185:Drivers/STM32G4xx_HAL_Driver/Src/stm32g4xx_ll_exti.c ****             break;
 186:Drivers/STM32G4xx_HAL_Driver/Src/stm32g4xx_ll_exti.c ****           default:
 187:Drivers/STM32G4xx_HAL_Driver/Src/stm32g4xx_ll_exti.c ****             status |= 0x02u;
 188:Drivers/STM32G4xx_HAL_Driver/Src/stm32g4xx_ll_exti.c ****             break;
 189:Drivers/STM32G4xx_HAL_Driver/Src/stm32g4xx_ll_exti.c ****         }
 190:Drivers/STM32G4xx_HAL_Driver/Src/stm32g4xx_ll_exti.c ****       }
 191:Drivers/STM32G4xx_HAL_Driver/Src/stm32g4xx_ll_exti.c ****     }
 192:Drivers/STM32G4xx_HAL_Driver/Src/stm32g4xx_ll_exti.c ****     /* Configure EXTI Lines in range from 32 to 63 */
 193:Drivers/STM32G4xx_HAL_Driver/Src/stm32g4xx_ll_exti.c ****     if (EXTI_InitStruct->Line_32_63 != LL_EXTI_LINE_NONE)
 135              		.loc 1 193 5 is_stmt 1 view .LVU35
 136              		.loc 1 193 24 is_stmt 0 view .LVU36
ARM GAS  D:\apps\VSCode\data\tmp\cc6Ljmfb.s 			page 7


 137 000e 5A68     		ldr	r2, [r3, #4]
 138              		.loc 1 193 8 view .LVU37
 139 0010 CAB1     		cbz	r2, .L6
 194:Drivers/STM32G4xx_HAL_Driver/Src/stm32g4xx_ll_exti.c ****     {
 195:Drivers/STM32G4xx_HAL_Driver/Src/stm32g4xx_ll_exti.c ****       switch (EXTI_InitStruct->Mode)
 140              		.loc 1 195 7 is_stmt 1 view .LVU38
 141              		.loc 1 195 30 is_stmt 0 view .LVU39
 142 0012 597A     		ldrb	r1, [r3, #9]	@ zero_extendqisi2
 143              		.loc 1 195 7 view .LVU40
 144 0014 0129     		cmp	r1, #1
 145 0016 68D0     		beq	.L17
 146 0018 0029     		cmp	r1, #0
 147 001a 51D0     		beq	.L18
 148 001c 0229     		cmp	r1, #2
 149 001e 42D1     		bne	.L44
 196:Drivers/STM32G4xx_HAL_Driver/Src/stm32g4xx_ll_exti.c ****       {
 197:Drivers/STM32G4xx_HAL_Driver/Src/stm32g4xx_ll_exti.c ****         case LL_EXTI_MODE_IT:
 198:Drivers/STM32G4xx_HAL_Driver/Src/stm32g4xx_ll_exti.c ****           /* First Disable Event on provided Lines */
 199:Drivers/STM32G4xx_HAL_Driver/Src/stm32g4xx_ll_exti.c ****           LL_EXTI_DisableEvent_32_63(EXTI_InitStruct->Line_32_63);
 200:Drivers/STM32G4xx_HAL_Driver/Src/stm32g4xx_ll_exti.c ****           /* Then Enable IT on provided Lines */
 201:Drivers/STM32G4xx_HAL_Driver/Src/stm32g4xx_ll_exti.c ****           LL_EXTI_EnableIT_32_63(EXTI_InitStruct->Line_32_63);
 202:Drivers/STM32G4xx_HAL_Driver/Src/stm32g4xx_ll_exti.c ****           break;
 203:Drivers/STM32G4xx_HAL_Driver/Src/stm32g4xx_ll_exti.c ****         case LL_EXTI_MODE_EVENT:
 204:Drivers/STM32G4xx_HAL_Driver/Src/stm32g4xx_ll_exti.c ****           /* First Disable IT on provided Lines */
 205:Drivers/STM32G4xx_HAL_Driver/Src/stm32g4xx_ll_exti.c ****           LL_EXTI_DisableIT_32_63(EXTI_InitStruct->Line_32_63);
 206:Drivers/STM32G4xx_HAL_Driver/Src/stm32g4xx_ll_exti.c ****           /* Then Enable Event on provided Lines */
 207:Drivers/STM32G4xx_HAL_Driver/Src/stm32g4xx_ll_exti.c ****           LL_EXTI_EnableEvent_32_63(EXTI_InitStruct->Line_32_63);
 208:Drivers/STM32G4xx_HAL_Driver/Src/stm32g4xx_ll_exti.c ****           break;
 209:Drivers/STM32G4xx_HAL_Driver/Src/stm32g4xx_ll_exti.c ****         case LL_EXTI_MODE_IT_EVENT:
 210:Drivers/STM32G4xx_HAL_Driver/Src/stm32g4xx_ll_exti.c ****           /* Directly Enable IT on provided Lines */
 211:Drivers/STM32G4xx_HAL_Driver/Src/stm32g4xx_ll_exti.c ****           LL_EXTI_EnableIT_32_63(EXTI_InitStruct->Line_32_63);
 150              		.loc 1 211 11 is_stmt 1 view .LVU41
 151              	.LVL3:
 152              	.LBB58:
 153              	.LBI58:
 154              		.file 2 "Drivers/STM32G4xx_HAL_Driver/Inc/stm32g4xx_ll_exti.h"
   1:Drivers/STM32G4xx_HAL_Driver/Inc/stm32g4xx_ll_exti.h **** /**
   2:Drivers/STM32G4xx_HAL_Driver/Inc/stm32g4xx_ll_exti.h ****   ******************************************************************************
   3:Drivers/STM32G4xx_HAL_Driver/Inc/stm32g4xx_ll_exti.h ****   * @file    stm32g4xx_ll_exti.h
   4:Drivers/STM32G4xx_HAL_Driver/Inc/stm32g4xx_ll_exti.h ****   * @author  MCD Application Team
   5:Drivers/STM32G4xx_HAL_Driver/Inc/stm32g4xx_ll_exti.h ****   * @brief   Header file of EXTI LL module.
   6:Drivers/STM32G4xx_HAL_Driver/Inc/stm32g4xx_ll_exti.h ****   ******************************************************************************
   7:Drivers/STM32G4xx_HAL_Driver/Inc/stm32g4xx_ll_exti.h ****   * @attention
   8:Drivers/STM32G4xx_HAL_Driver/Inc/stm32g4xx_ll_exti.h ****   *
   9:Drivers/STM32G4xx_HAL_Driver/Inc/stm32g4xx_ll_exti.h ****   * <h2><center>&copy; Copyright (c) 2019 STMicroelectronics.
  10:Drivers/STM32G4xx_HAL_Driver/Inc/stm32g4xx_ll_exti.h ****   * All rights reserved.</center></h2>
  11:Drivers/STM32G4xx_HAL_Driver/Inc/stm32g4xx_ll_exti.h ****   *
  12:Drivers/STM32G4xx_HAL_Driver/Inc/stm32g4xx_ll_exti.h ****   * This software component is licensed by ST under BSD 3-Clause license,
  13:Drivers/STM32G4xx_HAL_Driver/Inc/stm32g4xx_ll_exti.h ****   * the "License"; You may not use this file except in compliance with the
  14:Drivers/STM32G4xx_HAL_Driver/Inc/stm32g4xx_ll_exti.h ****   * License. You may obtain a copy of the License at:
  15:Drivers/STM32G4xx_HAL_Driver/Inc/stm32g4xx_ll_exti.h ****   *                        opensource.org/licenses/BSD-3-Clause
  16:Drivers/STM32G4xx_HAL_Driver/Inc/stm32g4xx_ll_exti.h ****   *
  17:Drivers/STM32G4xx_HAL_Driver/Inc/stm32g4xx_ll_exti.h ****   ******************************************************************************
  18:Drivers/STM32G4xx_HAL_Driver/Inc/stm32g4xx_ll_exti.h ****   */
  19:Drivers/STM32G4xx_HAL_Driver/Inc/stm32g4xx_ll_exti.h **** 
  20:Drivers/STM32G4xx_HAL_Driver/Inc/stm32g4xx_ll_exti.h **** /* Define to prevent recursive inclusion -------------------------------------*/
  21:Drivers/STM32G4xx_HAL_Driver/Inc/stm32g4xx_ll_exti.h **** #ifndef __STM32G4xx_LL_EXTI_H
ARM GAS  D:\apps\VSCode\data\tmp\cc6Ljmfb.s 			page 8


  22:Drivers/STM32G4xx_HAL_Driver/Inc/stm32g4xx_ll_exti.h **** #define __STM32G4xx_LL_EXTI_H
  23:Drivers/STM32G4xx_HAL_Driver/Inc/stm32g4xx_ll_exti.h **** 
  24:Drivers/STM32G4xx_HAL_Driver/Inc/stm32g4xx_ll_exti.h **** #ifdef __cplusplus
  25:Drivers/STM32G4xx_HAL_Driver/Inc/stm32g4xx_ll_exti.h **** extern "C" {
  26:Drivers/STM32G4xx_HAL_Driver/Inc/stm32g4xx_ll_exti.h **** #endif
  27:Drivers/STM32G4xx_HAL_Driver/Inc/stm32g4xx_ll_exti.h **** 
  28:Drivers/STM32G4xx_HAL_Driver/Inc/stm32g4xx_ll_exti.h **** /* Includes ------------------------------------------------------------------*/
  29:Drivers/STM32G4xx_HAL_Driver/Inc/stm32g4xx_ll_exti.h **** #include "stm32g4xx.h"
  30:Drivers/STM32G4xx_HAL_Driver/Inc/stm32g4xx_ll_exti.h **** 
  31:Drivers/STM32G4xx_HAL_Driver/Inc/stm32g4xx_ll_exti.h **** /** @addtogroup STM32G4xx_LL_Driver
  32:Drivers/STM32G4xx_HAL_Driver/Inc/stm32g4xx_ll_exti.h ****   * @{
  33:Drivers/STM32G4xx_HAL_Driver/Inc/stm32g4xx_ll_exti.h ****   */
  34:Drivers/STM32G4xx_HAL_Driver/Inc/stm32g4xx_ll_exti.h **** 
  35:Drivers/STM32G4xx_HAL_Driver/Inc/stm32g4xx_ll_exti.h **** #if defined (EXTI)
  36:Drivers/STM32G4xx_HAL_Driver/Inc/stm32g4xx_ll_exti.h **** 
  37:Drivers/STM32G4xx_HAL_Driver/Inc/stm32g4xx_ll_exti.h **** /** @defgroup EXTI_LL EXTI
  38:Drivers/STM32G4xx_HAL_Driver/Inc/stm32g4xx_ll_exti.h ****   * @{
  39:Drivers/STM32G4xx_HAL_Driver/Inc/stm32g4xx_ll_exti.h ****   */
  40:Drivers/STM32G4xx_HAL_Driver/Inc/stm32g4xx_ll_exti.h **** 
  41:Drivers/STM32G4xx_HAL_Driver/Inc/stm32g4xx_ll_exti.h **** /* Private types -------------------------------------------------------------*/
  42:Drivers/STM32G4xx_HAL_Driver/Inc/stm32g4xx_ll_exti.h **** /* Private variables ---------------------------------------------------------*/
  43:Drivers/STM32G4xx_HAL_Driver/Inc/stm32g4xx_ll_exti.h **** /* Private constants ---------------------------------------------------------*/
  44:Drivers/STM32G4xx_HAL_Driver/Inc/stm32g4xx_ll_exti.h **** /* Private Macros ------------------------------------------------------------*/
  45:Drivers/STM32G4xx_HAL_Driver/Inc/stm32g4xx_ll_exti.h **** #if defined(USE_FULL_LL_DRIVER)
  46:Drivers/STM32G4xx_HAL_Driver/Inc/stm32g4xx_ll_exti.h **** /** @defgroup EXTI_LL_Private_Macros EXTI Private Macros
  47:Drivers/STM32G4xx_HAL_Driver/Inc/stm32g4xx_ll_exti.h ****   * @{
  48:Drivers/STM32G4xx_HAL_Driver/Inc/stm32g4xx_ll_exti.h ****   */
  49:Drivers/STM32G4xx_HAL_Driver/Inc/stm32g4xx_ll_exti.h **** /**
  50:Drivers/STM32G4xx_HAL_Driver/Inc/stm32g4xx_ll_exti.h ****   * @}
  51:Drivers/STM32G4xx_HAL_Driver/Inc/stm32g4xx_ll_exti.h ****   */
  52:Drivers/STM32G4xx_HAL_Driver/Inc/stm32g4xx_ll_exti.h **** #endif /*USE_FULL_LL_DRIVER*/
  53:Drivers/STM32G4xx_HAL_Driver/Inc/stm32g4xx_ll_exti.h **** /* Exported types ------------------------------------------------------------*/
  54:Drivers/STM32G4xx_HAL_Driver/Inc/stm32g4xx_ll_exti.h **** #if defined(USE_FULL_LL_DRIVER)
  55:Drivers/STM32G4xx_HAL_Driver/Inc/stm32g4xx_ll_exti.h **** /** @defgroup EXTI_LL_ES_INIT EXTI Exported Init structure
  56:Drivers/STM32G4xx_HAL_Driver/Inc/stm32g4xx_ll_exti.h ****   * @{
  57:Drivers/STM32G4xx_HAL_Driver/Inc/stm32g4xx_ll_exti.h ****   */
  58:Drivers/STM32G4xx_HAL_Driver/Inc/stm32g4xx_ll_exti.h **** typedef struct
  59:Drivers/STM32G4xx_HAL_Driver/Inc/stm32g4xx_ll_exti.h **** {
  60:Drivers/STM32G4xx_HAL_Driver/Inc/stm32g4xx_ll_exti.h **** 
  61:Drivers/STM32G4xx_HAL_Driver/Inc/stm32g4xx_ll_exti.h ****   uint32_t Line_0_31;           /*!< Specifies the EXTI lines to be enabled or disabled for Lines i
  62:Drivers/STM32G4xx_HAL_Driver/Inc/stm32g4xx_ll_exti.h ****                                      This parameter can be any combination of @ref EXTI_LL_EC_LINE 
  63:Drivers/STM32G4xx_HAL_Driver/Inc/stm32g4xx_ll_exti.h **** 
  64:Drivers/STM32G4xx_HAL_Driver/Inc/stm32g4xx_ll_exti.h ****   uint32_t Line_32_63;          /*!< Specifies the EXTI lines to be enabled or disabled for Lines i
  65:Drivers/STM32G4xx_HAL_Driver/Inc/stm32g4xx_ll_exti.h ****                                      This parameter can be any combination of @ref EXTI_LL_EC_LINE 
  66:Drivers/STM32G4xx_HAL_Driver/Inc/stm32g4xx_ll_exti.h **** 
  67:Drivers/STM32G4xx_HAL_Driver/Inc/stm32g4xx_ll_exti.h ****   FunctionalState LineCommand;  /*!< Specifies the new state of the selected EXTI lines.
  68:Drivers/STM32G4xx_HAL_Driver/Inc/stm32g4xx_ll_exti.h ****                                      This parameter can be set either to ENABLE or DISABLE */
  69:Drivers/STM32G4xx_HAL_Driver/Inc/stm32g4xx_ll_exti.h **** 
  70:Drivers/STM32G4xx_HAL_Driver/Inc/stm32g4xx_ll_exti.h ****   uint8_t Mode;                 /*!< Specifies the mode for the EXTI lines.
  71:Drivers/STM32G4xx_HAL_Driver/Inc/stm32g4xx_ll_exti.h ****                                      This parameter can be a value of @ref EXTI_LL_EC_MODE. */
  72:Drivers/STM32G4xx_HAL_Driver/Inc/stm32g4xx_ll_exti.h **** 
  73:Drivers/STM32G4xx_HAL_Driver/Inc/stm32g4xx_ll_exti.h ****   uint8_t Trigger;              /*!< Specifies the trigger signal active edge for the EXTI lines.
  74:Drivers/STM32G4xx_HAL_Driver/Inc/stm32g4xx_ll_exti.h ****                                      This parameter can be a value of @ref EXTI_LL_EC_TRIGGER. */
  75:Drivers/STM32G4xx_HAL_Driver/Inc/stm32g4xx_ll_exti.h **** } LL_EXTI_InitTypeDef;
  76:Drivers/STM32G4xx_HAL_Driver/Inc/stm32g4xx_ll_exti.h **** 
  77:Drivers/STM32G4xx_HAL_Driver/Inc/stm32g4xx_ll_exti.h **** /**
  78:Drivers/STM32G4xx_HAL_Driver/Inc/stm32g4xx_ll_exti.h ****   * @}
ARM GAS  D:\apps\VSCode\data\tmp\cc6Ljmfb.s 			page 9


  79:Drivers/STM32G4xx_HAL_Driver/Inc/stm32g4xx_ll_exti.h ****   */
  80:Drivers/STM32G4xx_HAL_Driver/Inc/stm32g4xx_ll_exti.h **** #endif /*USE_FULL_LL_DRIVER*/
  81:Drivers/STM32G4xx_HAL_Driver/Inc/stm32g4xx_ll_exti.h **** 
  82:Drivers/STM32G4xx_HAL_Driver/Inc/stm32g4xx_ll_exti.h **** /* Exported constants --------------------------------------------------------*/
  83:Drivers/STM32G4xx_HAL_Driver/Inc/stm32g4xx_ll_exti.h **** /** @defgroup EXTI_LL_Exported_Constants EXTI Exported Constants
  84:Drivers/STM32G4xx_HAL_Driver/Inc/stm32g4xx_ll_exti.h ****   * @{
  85:Drivers/STM32G4xx_HAL_Driver/Inc/stm32g4xx_ll_exti.h ****   */
  86:Drivers/STM32G4xx_HAL_Driver/Inc/stm32g4xx_ll_exti.h **** 
  87:Drivers/STM32G4xx_HAL_Driver/Inc/stm32g4xx_ll_exti.h **** /** @defgroup EXTI_LL_EC_LINE LINE
  88:Drivers/STM32G4xx_HAL_Driver/Inc/stm32g4xx_ll_exti.h ****   * @{
  89:Drivers/STM32G4xx_HAL_Driver/Inc/stm32g4xx_ll_exti.h ****   */
  90:Drivers/STM32G4xx_HAL_Driver/Inc/stm32g4xx_ll_exti.h **** #define LL_EXTI_LINE_0                 EXTI_IMR1_IM0           /*!< Extended line 0 */
  91:Drivers/STM32G4xx_HAL_Driver/Inc/stm32g4xx_ll_exti.h **** #define LL_EXTI_LINE_1                 EXTI_IMR1_IM1           /*!< Extended line 1 */
  92:Drivers/STM32G4xx_HAL_Driver/Inc/stm32g4xx_ll_exti.h **** #define LL_EXTI_LINE_2                 EXTI_IMR1_IM2           /*!< Extended line 2 */
  93:Drivers/STM32G4xx_HAL_Driver/Inc/stm32g4xx_ll_exti.h **** #define LL_EXTI_LINE_3                 EXTI_IMR1_IM3           /*!< Extended line 3 */
  94:Drivers/STM32G4xx_HAL_Driver/Inc/stm32g4xx_ll_exti.h **** #define LL_EXTI_LINE_4                 EXTI_IMR1_IM4           /*!< Extended line 4 */
  95:Drivers/STM32G4xx_HAL_Driver/Inc/stm32g4xx_ll_exti.h **** #define LL_EXTI_LINE_5                 EXTI_IMR1_IM5           /*!< Extended line 5 */
  96:Drivers/STM32G4xx_HAL_Driver/Inc/stm32g4xx_ll_exti.h **** #define LL_EXTI_LINE_6                 EXTI_IMR1_IM6           /*!< Extended line 6 */
  97:Drivers/STM32G4xx_HAL_Driver/Inc/stm32g4xx_ll_exti.h **** #define LL_EXTI_LINE_7                 EXTI_IMR1_IM7           /*!< Extended line 7 */
  98:Drivers/STM32G4xx_HAL_Driver/Inc/stm32g4xx_ll_exti.h **** #define LL_EXTI_LINE_8                 EXTI_IMR1_IM8           /*!< Extended line 8 */
  99:Drivers/STM32G4xx_HAL_Driver/Inc/stm32g4xx_ll_exti.h **** #define LL_EXTI_LINE_9                 EXTI_IMR1_IM9           /*!< Extended line 9 */
 100:Drivers/STM32G4xx_HAL_Driver/Inc/stm32g4xx_ll_exti.h **** #define LL_EXTI_LINE_10                EXTI_IMR1_IM10          /*!< Extended line 10 */
 101:Drivers/STM32G4xx_HAL_Driver/Inc/stm32g4xx_ll_exti.h **** #define LL_EXTI_LINE_11                EXTI_IMR1_IM11          /*!< Extended line 11 */
 102:Drivers/STM32G4xx_HAL_Driver/Inc/stm32g4xx_ll_exti.h **** #define LL_EXTI_LINE_12                EXTI_IMR1_IM12          /*!< Extended line 12 */
 103:Drivers/STM32G4xx_HAL_Driver/Inc/stm32g4xx_ll_exti.h **** #define LL_EXTI_LINE_13                EXTI_IMR1_IM13          /*!< Extended line 13 */
 104:Drivers/STM32G4xx_HAL_Driver/Inc/stm32g4xx_ll_exti.h **** #define LL_EXTI_LINE_14                EXTI_IMR1_IM14          /*!< Extended line 14 */
 105:Drivers/STM32G4xx_HAL_Driver/Inc/stm32g4xx_ll_exti.h **** #define LL_EXTI_LINE_15                EXTI_IMR1_IM15          /*!< Extended line 15 */
 106:Drivers/STM32G4xx_HAL_Driver/Inc/stm32g4xx_ll_exti.h **** #if defined(EXTI_IMR1_IM16)
 107:Drivers/STM32G4xx_HAL_Driver/Inc/stm32g4xx_ll_exti.h **** #define LL_EXTI_LINE_16                EXTI_IMR1_IM16          /*!< Extended line 16 */
 108:Drivers/STM32G4xx_HAL_Driver/Inc/stm32g4xx_ll_exti.h **** #endif /* EXTI_IMR1_IM16 */
 109:Drivers/STM32G4xx_HAL_Driver/Inc/stm32g4xx_ll_exti.h **** #define LL_EXTI_LINE_17                EXTI_IMR1_IM17          /*!< Extended line 17 */
 110:Drivers/STM32G4xx_HAL_Driver/Inc/stm32g4xx_ll_exti.h **** #if defined(EXTI_IMR1_IM18)
 111:Drivers/STM32G4xx_HAL_Driver/Inc/stm32g4xx_ll_exti.h **** #define LL_EXTI_LINE_18                EXTI_IMR1_IM18          /*!< Extended line 18 */
 112:Drivers/STM32G4xx_HAL_Driver/Inc/stm32g4xx_ll_exti.h **** #endif /* EXTI_IMR1_IM18 */
 113:Drivers/STM32G4xx_HAL_Driver/Inc/stm32g4xx_ll_exti.h **** #define LL_EXTI_LINE_19                EXTI_IMR1_IM19          /*!< Extended line 19 */
 114:Drivers/STM32G4xx_HAL_Driver/Inc/stm32g4xx_ll_exti.h **** #if defined(EXTI_IMR1_IM20)
 115:Drivers/STM32G4xx_HAL_Driver/Inc/stm32g4xx_ll_exti.h **** #define LL_EXTI_LINE_20                EXTI_IMR1_IM20          /*!< Extended line 20 */
 116:Drivers/STM32G4xx_HAL_Driver/Inc/stm32g4xx_ll_exti.h **** #endif /* EXTI_IMR1_IM20 */
 117:Drivers/STM32G4xx_HAL_Driver/Inc/stm32g4xx_ll_exti.h **** #if defined(EXTI_IMR1_IM21)
 118:Drivers/STM32G4xx_HAL_Driver/Inc/stm32g4xx_ll_exti.h **** #define LL_EXTI_LINE_21                EXTI_IMR1_IM21          /*!< Extended line 21 */
 119:Drivers/STM32G4xx_HAL_Driver/Inc/stm32g4xx_ll_exti.h **** #endif /* EXTI_IMR1_IM21 */
 120:Drivers/STM32G4xx_HAL_Driver/Inc/stm32g4xx_ll_exti.h **** #if defined(EXTI_IMR1_IM22)
 121:Drivers/STM32G4xx_HAL_Driver/Inc/stm32g4xx_ll_exti.h **** #define LL_EXTI_LINE_22                EXTI_IMR1_IM22          /*!< Extended line 22 */
 122:Drivers/STM32G4xx_HAL_Driver/Inc/stm32g4xx_ll_exti.h **** #endif /* EXTI_IMR1_IM22 */
 123:Drivers/STM32G4xx_HAL_Driver/Inc/stm32g4xx_ll_exti.h **** #define LL_EXTI_LINE_23                EXTI_IMR1_IM23          /*!< Extended line 23 */
 124:Drivers/STM32G4xx_HAL_Driver/Inc/stm32g4xx_ll_exti.h **** #if defined(EXTI_IMR1_IM24)
 125:Drivers/STM32G4xx_HAL_Driver/Inc/stm32g4xx_ll_exti.h **** #define LL_EXTI_LINE_24                EXTI_IMR1_IM24          /*!< Extended line 24 */
 126:Drivers/STM32G4xx_HAL_Driver/Inc/stm32g4xx_ll_exti.h **** #endif /* EXTI_IMR1_IM24 */
 127:Drivers/STM32G4xx_HAL_Driver/Inc/stm32g4xx_ll_exti.h **** #if defined(EXTI_IMR1_IM25)
 128:Drivers/STM32G4xx_HAL_Driver/Inc/stm32g4xx_ll_exti.h **** #define LL_EXTI_LINE_25                EXTI_IMR1_IM25          /*!< Extended line 25 */
 129:Drivers/STM32G4xx_HAL_Driver/Inc/stm32g4xx_ll_exti.h **** #endif /* EXTI_IMR1_IM25 */
 130:Drivers/STM32G4xx_HAL_Driver/Inc/stm32g4xx_ll_exti.h **** #if defined(EXTI_IMR1_IM26)
 131:Drivers/STM32G4xx_HAL_Driver/Inc/stm32g4xx_ll_exti.h **** #define LL_EXTI_LINE_26                EXTI_IMR1_IM26          /*!< Extended line 26 */
 132:Drivers/STM32G4xx_HAL_Driver/Inc/stm32g4xx_ll_exti.h **** #endif /* EXTI_IMR1_IM26 */
 133:Drivers/STM32G4xx_HAL_Driver/Inc/stm32g4xx_ll_exti.h **** #if defined(EXTI_IMR1_IM27)
 134:Drivers/STM32G4xx_HAL_Driver/Inc/stm32g4xx_ll_exti.h **** #define LL_EXTI_LINE_27                EXTI_IMR1_IM27          /*!< Extended line 27 */
 135:Drivers/STM32G4xx_HAL_Driver/Inc/stm32g4xx_ll_exti.h **** #endif /* EXTI_IMR1_IM27 */
ARM GAS  D:\apps\VSCode\data\tmp\cc6Ljmfb.s 			page 10


 136:Drivers/STM32G4xx_HAL_Driver/Inc/stm32g4xx_ll_exti.h **** #if defined(EXTI_IMR1_IM28)
 137:Drivers/STM32G4xx_HAL_Driver/Inc/stm32g4xx_ll_exti.h **** #define LL_EXTI_LINE_28                EXTI_IMR1_IM28          /*!< Extended line 28 */
 138:Drivers/STM32G4xx_HAL_Driver/Inc/stm32g4xx_ll_exti.h **** #endif /* EXTI_IMR1_IM28 */
 139:Drivers/STM32G4xx_HAL_Driver/Inc/stm32g4xx_ll_exti.h **** #if defined(EXTI_IMR1_IM29)
 140:Drivers/STM32G4xx_HAL_Driver/Inc/stm32g4xx_ll_exti.h **** #define LL_EXTI_LINE_29                EXTI_IMR1_IM29          /*!< Extended line 29 */
 141:Drivers/STM32G4xx_HAL_Driver/Inc/stm32g4xx_ll_exti.h **** #endif /* EXTI_IMR1_IM29 */
 142:Drivers/STM32G4xx_HAL_Driver/Inc/stm32g4xx_ll_exti.h **** #if defined(EXTI_IMR1_IM30)
 143:Drivers/STM32G4xx_HAL_Driver/Inc/stm32g4xx_ll_exti.h **** #define LL_EXTI_LINE_30                EXTI_IMR1_IM30          /*!< Extended line 30 */
 144:Drivers/STM32G4xx_HAL_Driver/Inc/stm32g4xx_ll_exti.h **** #endif /* EXTI_IMR1_IM30 */
 145:Drivers/STM32G4xx_HAL_Driver/Inc/stm32g4xx_ll_exti.h **** #if defined(EXTI_IMR1_IM31)
 146:Drivers/STM32G4xx_HAL_Driver/Inc/stm32g4xx_ll_exti.h **** #define LL_EXTI_LINE_31                EXTI_IMR1_IM31          /*!< Extended line 31 */
 147:Drivers/STM32G4xx_HAL_Driver/Inc/stm32g4xx_ll_exti.h **** #endif /* EXTI_IMR1_IM31 */
 148:Drivers/STM32G4xx_HAL_Driver/Inc/stm32g4xx_ll_exti.h **** #define LL_EXTI_LINE_ALL_0_31          EXTI_IMR1_IM            /*!< All Extended line not reserved*
 149:Drivers/STM32G4xx_HAL_Driver/Inc/stm32g4xx_ll_exti.h **** 
 150:Drivers/STM32G4xx_HAL_Driver/Inc/stm32g4xx_ll_exti.h **** #if defined(EXTI_IMR2_IM32)
 151:Drivers/STM32G4xx_HAL_Driver/Inc/stm32g4xx_ll_exti.h **** #define LL_EXTI_LINE_32                EXTI_IMR2_IM32          /*!< Extended line 32 */
 152:Drivers/STM32G4xx_HAL_Driver/Inc/stm32g4xx_ll_exti.h **** #endif /* EXTI_IMR2_IM32 */
 153:Drivers/STM32G4xx_HAL_Driver/Inc/stm32g4xx_ll_exti.h **** #if defined(EXTI_IMR2_IM33)
 154:Drivers/STM32G4xx_HAL_Driver/Inc/stm32g4xx_ll_exti.h **** #define LL_EXTI_LINE_33                EXTI_IMR2_IM33          /*!< Extended line 33 */
 155:Drivers/STM32G4xx_HAL_Driver/Inc/stm32g4xx_ll_exti.h **** #endif /* EXTI_IMR2_IM33 */
 156:Drivers/STM32G4xx_HAL_Driver/Inc/stm32g4xx_ll_exti.h **** #if defined(EXTI_IMR2_IM34)
 157:Drivers/STM32G4xx_HAL_Driver/Inc/stm32g4xx_ll_exti.h **** #define LL_EXTI_LINE_34                EXTI_IMR2_IM34          /*!< Extended line 34 */
 158:Drivers/STM32G4xx_HAL_Driver/Inc/stm32g4xx_ll_exti.h **** #endif /* EXTI_IMR2_IM34 */
 159:Drivers/STM32G4xx_HAL_Driver/Inc/stm32g4xx_ll_exti.h **** #if defined(EXTI_IMR2_IM35)
 160:Drivers/STM32G4xx_HAL_Driver/Inc/stm32g4xx_ll_exti.h **** #define LL_EXTI_LINE_35                EXTI_IMR2_IM35          /*!< Extended line 35 */
 161:Drivers/STM32G4xx_HAL_Driver/Inc/stm32g4xx_ll_exti.h **** #endif /* EXTI_IMR2_IM35 */
 162:Drivers/STM32G4xx_HAL_Driver/Inc/stm32g4xx_ll_exti.h **** #if defined(EXTI_IMR2_IM36)
 163:Drivers/STM32G4xx_HAL_Driver/Inc/stm32g4xx_ll_exti.h **** #define LL_EXTI_LINE_36                EXTI_IMR2_IM36          /*!< Extended line 36 */
 164:Drivers/STM32G4xx_HAL_Driver/Inc/stm32g4xx_ll_exti.h **** #endif /* EXTI_IMR2_IM36 */
 165:Drivers/STM32G4xx_HAL_Driver/Inc/stm32g4xx_ll_exti.h **** #if defined(EXTI_IMR2_IM37)
 166:Drivers/STM32G4xx_HAL_Driver/Inc/stm32g4xx_ll_exti.h **** #define LL_EXTI_LINE_37                EXTI_IMR2_IM37          /*!< Extended line 37 */
 167:Drivers/STM32G4xx_HAL_Driver/Inc/stm32g4xx_ll_exti.h **** #endif /* EXTI_IMR2_IM37 */
 168:Drivers/STM32G4xx_HAL_Driver/Inc/stm32g4xx_ll_exti.h **** #if defined(EXTI_IMR2_IM38)
 169:Drivers/STM32G4xx_HAL_Driver/Inc/stm32g4xx_ll_exti.h **** #define LL_EXTI_LINE_38                EXTI_IMR2_IM38          /*!< Extended line 38 */
 170:Drivers/STM32G4xx_HAL_Driver/Inc/stm32g4xx_ll_exti.h **** #endif /* EXTI_IMR2_IM38 */
 171:Drivers/STM32G4xx_HAL_Driver/Inc/stm32g4xx_ll_exti.h **** #if defined(EXTI_IMR2_IM39)
 172:Drivers/STM32G4xx_HAL_Driver/Inc/stm32g4xx_ll_exti.h **** #define LL_EXTI_LINE_39                EXTI_IMR2_IM39          /*!< Extended line 39 */
 173:Drivers/STM32G4xx_HAL_Driver/Inc/stm32g4xx_ll_exti.h **** #endif /* EXTI_IMR2_IM39 */
 174:Drivers/STM32G4xx_HAL_Driver/Inc/stm32g4xx_ll_exti.h **** #if defined(EXTI_IMR2_IM40)
 175:Drivers/STM32G4xx_HAL_Driver/Inc/stm32g4xx_ll_exti.h **** #define LL_EXTI_LINE_40                EXTI_IMR2_IM40          /*!< Extended line 40 */
 176:Drivers/STM32G4xx_HAL_Driver/Inc/stm32g4xx_ll_exti.h **** #endif /* EXTI_IMR2_IM40 */
 177:Drivers/STM32G4xx_HAL_Driver/Inc/stm32g4xx_ll_exti.h **** #if defined(EXTI_IMR2_IM41)
 178:Drivers/STM32G4xx_HAL_Driver/Inc/stm32g4xx_ll_exti.h **** #define LL_EXTI_LINE_41                EXTI_IMR2_IM41          /*!< Extended line 41 */
 179:Drivers/STM32G4xx_HAL_Driver/Inc/stm32g4xx_ll_exti.h **** #endif /* EXTI_IMR2_IM41 */
 180:Drivers/STM32G4xx_HAL_Driver/Inc/stm32g4xx_ll_exti.h **** #if defined(EXTI_IMR2_IM42)
 181:Drivers/STM32G4xx_HAL_Driver/Inc/stm32g4xx_ll_exti.h **** #define LL_EXTI_LINE_42                EXTI_IMR2_IM42          /*!< Extended line 42 */
 182:Drivers/STM32G4xx_HAL_Driver/Inc/stm32g4xx_ll_exti.h **** #endif /* EXTI_IMR2_IM42 */
 183:Drivers/STM32G4xx_HAL_Driver/Inc/stm32g4xx_ll_exti.h **** #define LL_EXTI_LINE_ALL_32_63         EXTI_IMR2_IM            /*!< All Extended line not reserved*
 184:Drivers/STM32G4xx_HAL_Driver/Inc/stm32g4xx_ll_exti.h **** 
 185:Drivers/STM32G4xx_HAL_Driver/Inc/stm32g4xx_ll_exti.h **** 
 186:Drivers/STM32G4xx_HAL_Driver/Inc/stm32g4xx_ll_exti.h **** #define LL_EXTI_LINE_ALL               (0xFFFFFFFFU)  /*!< All Extended line */
 187:Drivers/STM32G4xx_HAL_Driver/Inc/stm32g4xx_ll_exti.h **** 
 188:Drivers/STM32G4xx_HAL_Driver/Inc/stm32g4xx_ll_exti.h **** #if defined(USE_FULL_LL_DRIVER)
 189:Drivers/STM32G4xx_HAL_Driver/Inc/stm32g4xx_ll_exti.h **** #define LL_EXTI_LINE_NONE              0x00000000U             /*!< None Extended line */
 190:Drivers/STM32G4xx_HAL_Driver/Inc/stm32g4xx_ll_exti.h **** #endif /*USE_FULL_LL_DRIVER*/
 191:Drivers/STM32G4xx_HAL_Driver/Inc/stm32g4xx_ll_exti.h **** 
 192:Drivers/STM32G4xx_HAL_Driver/Inc/stm32g4xx_ll_exti.h **** /**
ARM GAS  D:\apps\VSCode\data\tmp\cc6Ljmfb.s 			page 11


 193:Drivers/STM32G4xx_HAL_Driver/Inc/stm32g4xx_ll_exti.h ****   * @}
 194:Drivers/STM32G4xx_HAL_Driver/Inc/stm32g4xx_ll_exti.h ****   */
 195:Drivers/STM32G4xx_HAL_Driver/Inc/stm32g4xx_ll_exti.h **** #if defined(USE_FULL_LL_DRIVER)
 196:Drivers/STM32G4xx_HAL_Driver/Inc/stm32g4xx_ll_exti.h **** 
 197:Drivers/STM32G4xx_HAL_Driver/Inc/stm32g4xx_ll_exti.h **** /** @defgroup EXTI_LL_EC_MODE Mode
 198:Drivers/STM32G4xx_HAL_Driver/Inc/stm32g4xx_ll_exti.h ****   * @{
 199:Drivers/STM32G4xx_HAL_Driver/Inc/stm32g4xx_ll_exti.h ****   */
 200:Drivers/STM32G4xx_HAL_Driver/Inc/stm32g4xx_ll_exti.h **** #define LL_EXTI_MODE_IT                 ((uint8_t)0x00U) /*!< Interrupt Mode */
 201:Drivers/STM32G4xx_HAL_Driver/Inc/stm32g4xx_ll_exti.h **** #define LL_EXTI_MODE_EVENT              ((uint8_t)0x01U) /*!< Event Mode */
 202:Drivers/STM32G4xx_HAL_Driver/Inc/stm32g4xx_ll_exti.h **** #define LL_EXTI_MODE_IT_EVENT           ((uint8_t)0x02U) /*!< Interrupt & Event Mode */
 203:Drivers/STM32G4xx_HAL_Driver/Inc/stm32g4xx_ll_exti.h **** /**
 204:Drivers/STM32G4xx_HAL_Driver/Inc/stm32g4xx_ll_exti.h ****   * @}
 205:Drivers/STM32G4xx_HAL_Driver/Inc/stm32g4xx_ll_exti.h ****   */
 206:Drivers/STM32G4xx_HAL_Driver/Inc/stm32g4xx_ll_exti.h **** 
 207:Drivers/STM32G4xx_HAL_Driver/Inc/stm32g4xx_ll_exti.h **** /** @defgroup EXTI_LL_EC_TRIGGER Edge Trigger
 208:Drivers/STM32G4xx_HAL_Driver/Inc/stm32g4xx_ll_exti.h ****   * @{
 209:Drivers/STM32G4xx_HAL_Driver/Inc/stm32g4xx_ll_exti.h ****   */
 210:Drivers/STM32G4xx_HAL_Driver/Inc/stm32g4xx_ll_exti.h **** #define LL_EXTI_TRIGGER_NONE            ((uint8_t)0x00U) /*!< No Trigger Mode */
 211:Drivers/STM32G4xx_HAL_Driver/Inc/stm32g4xx_ll_exti.h **** #define LL_EXTI_TRIGGER_RISING          ((uint8_t)0x01U) /*!< Trigger Rising Mode */
 212:Drivers/STM32G4xx_HAL_Driver/Inc/stm32g4xx_ll_exti.h **** #define LL_EXTI_TRIGGER_FALLING         ((uint8_t)0x02U) /*!< Trigger Falling Mode */
 213:Drivers/STM32G4xx_HAL_Driver/Inc/stm32g4xx_ll_exti.h **** #define LL_EXTI_TRIGGER_RISING_FALLING  ((uint8_t)0x03U) /*!< Trigger Rising & Falling Mode */
 214:Drivers/STM32G4xx_HAL_Driver/Inc/stm32g4xx_ll_exti.h **** 
 215:Drivers/STM32G4xx_HAL_Driver/Inc/stm32g4xx_ll_exti.h **** /**
 216:Drivers/STM32G4xx_HAL_Driver/Inc/stm32g4xx_ll_exti.h ****   * @}
 217:Drivers/STM32G4xx_HAL_Driver/Inc/stm32g4xx_ll_exti.h ****   */
 218:Drivers/STM32G4xx_HAL_Driver/Inc/stm32g4xx_ll_exti.h **** 
 219:Drivers/STM32G4xx_HAL_Driver/Inc/stm32g4xx_ll_exti.h **** 
 220:Drivers/STM32G4xx_HAL_Driver/Inc/stm32g4xx_ll_exti.h **** #endif /*USE_FULL_LL_DRIVER*/
 221:Drivers/STM32G4xx_HAL_Driver/Inc/stm32g4xx_ll_exti.h **** 
 222:Drivers/STM32G4xx_HAL_Driver/Inc/stm32g4xx_ll_exti.h **** 
 223:Drivers/STM32G4xx_HAL_Driver/Inc/stm32g4xx_ll_exti.h **** /**
 224:Drivers/STM32G4xx_HAL_Driver/Inc/stm32g4xx_ll_exti.h ****   * @}
 225:Drivers/STM32G4xx_HAL_Driver/Inc/stm32g4xx_ll_exti.h ****   */
 226:Drivers/STM32G4xx_HAL_Driver/Inc/stm32g4xx_ll_exti.h **** 
 227:Drivers/STM32G4xx_HAL_Driver/Inc/stm32g4xx_ll_exti.h **** /* Exported macro ------------------------------------------------------------*/
 228:Drivers/STM32G4xx_HAL_Driver/Inc/stm32g4xx_ll_exti.h **** /** @defgroup EXTI_LL_Exported_Macros EXTI Exported Macros
 229:Drivers/STM32G4xx_HAL_Driver/Inc/stm32g4xx_ll_exti.h ****   * @{
 230:Drivers/STM32G4xx_HAL_Driver/Inc/stm32g4xx_ll_exti.h ****   */
 231:Drivers/STM32G4xx_HAL_Driver/Inc/stm32g4xx_ll_exti.h **** 
 232:Drivers/STM32G4xx_HAL_Driver/Inc/stm32g4xx_ll_exti.h **** /** @defgroup EXTI_LL_EM_WRITE_READ Common Write and read registers Macros
 233:Drivers/STM32G4xx_HAL_Driver/Inc/stm32g4xx_ll_exti.h ****   * @{
 234:Drivers/STM32G4xx_HAL_Driver/Inc/stm32g4xx_ll_exti.h ****   */
 235:Drivers/STM32G4xx_HAL_Driver/Inc/stm32g4xx_ll_exti.h **** 
 236:Drivers/STM32G4xx_HAL_Driver/Inc/stm32g4xx_ll_exti.h **** /**
 237:Drivers/STM32G4xx_HAL_Driver/Inc/stm32g4xx_ll_exti.h ****   * @brief  Write a value in EXTI register
 238:Drivers/STM32G4xx_HAL_Driver/Inc/stm32g4xx_ll_exti.h ****   * @param  __REG__ Register to be written
 239:Drivers/STM32G4xx_HAL_Driver/Inc/stm32g4xx_ll_exti.h ****   * @param  __VALUE__ Value to be written in the register
 240:Drivers/STM32G4xx_HAL_Driver/Inc/stm32g4xx_ll_exti.h ****   * @retval None
 241:Drivers/STM32G4xx_HAL_Driver/Inc/stm32g4xx_ll_exti.h ****   */
 242:Drivers/STM32G4xx_HAL_Driver/Inc/stm32g4xx_ll_exti.h **** #define LL_EXTI_WriteReg(__REG__, __VALUE__) WRITE_REG(EXTI->__REG__, (__VALUE__))
 243:Drivers/STM32G4xx_HAL_Driver/Inc/stm32g4xx_ll_exti.h **** 
 244:Drivers/STM32G4xx_HAL_Driver/Inc/stm32g4xx_ll_exti.h **** /**
 245:Drivers/STM32G4xx_HAL_Driver/Inc/stm32g4xx_ll_exti.h ****   * @brief  Read a value in EXTI register
 246:Drivers/STM32G4xx_HAL_Driver/Inc/stm32g4xx_ll_exti.h ****   * @param  __REG__ Register to be read
 247:Drivers/STM32G4xx_HAL_Driver/Inc/stm32g4xx_ll_exti.h ****   * @retval Register value
 248:Drivers/STM32G4xx_HAL_Driver/Inc/stm32g4xx_ll_exti.h ****   */
 249:Drivers/STM32G4xx_HAL_Driver/Inc/stm32g4xx_ll_exti.h **** #define LL_EXTI_ReadReg(__REG__) READ_REG(EXTI->__REG__)
ARM GAS  D:\apps\VSCode\data\tmp\cc6Ljmfb.s 			page 12


 250:Drivers/STM32G4xx_HAL_Driver/Inc/stm32g4xx_ll_exti.h **** /**
 251:Drivers/STM32G4xx_HAL_Driver/Inc/stm32g4xx_ll_exti.h ****   * @}
 252:Drivers/STM32G4xx_HAL_Driver/Inc/stm32g4xx_ll_exti.h ****   */
 253:Drivers/STM32G4xx_HAL_Driver/Inc/stm32g4xx_ll_exti.h **** 
 254:Drivers/STM32G4xx_HAL_Driver/Inc/stm32g4xx_ll_exti.h **** 
 255:Drivers/STM32G4xx_HAL_Driver/Inc/stm32g4xx_ll_exti.h **** /**
 256:Drivers/STM32G4xx_HAL_Driver/Inc/stm32g4xx_ll_exti.h ****   * @}
 257:Drivers/STM32G4xx_HAL_Driver/Inc/stm32g4xx_ll_exti.h ****   */
 258:Drivers/STM32G4xx_HAL_Driver/Inc/stm32g4xx_ll_exti.h **** 
 259:Drivers/STM32G4xx_HAL_Driver/Inc/stm32g4xx_ll_exti.h **** 
 260:Drivers/STM32G4xx_HAL_Driver/Inc/stm32g4xx_ll_exti.h **** 
 261:Drivers/STM32G4xx_HAL_Driver/Inc/stm32g4xx_ll_exti.h **** /* Exported functions --------------------------------------------------------*/
 262:Drivers/STM32G4xx_HAL_Driver/Inc/stm32g4xx_ll_exti.h **** /** @defgroup EXTI_LL_Exported_Functions EXTI Exported Functions
 263:Drivers/STM32G4xx_HAL_Driver/Inc/stm32g4xx_ll_exti.h ****   * @{
 264:Drivers/STM32G4xx_HAL_Driver/Inc/stm32g4xx_ll_exti.h ****   */
 265:Drivers/STM32G4xx_HAL_Driver/Inc/stm32g4xx_ll_exti.h **** /** @defgroup EXTI_LL_EF_IT_Management IT_Management
 266:Drivers/STM32G4xx_HAL_Driver/Inc/stm32g4xx_ll_exti.h ****   * @{
 267:Drivers/STM32G4xx_HAL_Driver/Inc/stm32g4xx_ll_exti.h ****   */
 268:Drivers/STM32G4xx_HAL_Driver/Inc/stm32g4xx_ll_exti.h **** 
 269:Drivers/STM32G4xx_HAL_Driver/Inc/stm32g4xx_ll_exti.h **** /**
 270:Drivers/STM32G4xx_HAL_Driver/Inc/stm32g4xx_ll_exti.h ****   * @brief  Enable ExtiLine Interrupt request for Lines in range 0 to 31
 271:Drivers/STM32G4xx_HAL_Driver/Inc/stm32g4xx_ll_exti.h ****   * @note The reset value for the direct or internal lines (see RM)
 272:Drivers/STM32G4xx_HAL_Driver/Inc/stm32g4xx_ll_exti.h ****   *       is set to 1 in order to enable the interrupt by default.
 273:Drivers/STM32G4xx_HAL_Driver/Inc/stm32g4xx_ll_exti.h ****   *       Bits are set automatically at Power on.
 274:Drivers/STM32G4xx_HAL_Driver/Inc/stm32g4xx_ll_exti.h ****   * @rmtoll IMR1         IMx           LL_EXTI_EnableIT_0_31
 275:Drivers/STM32G4xx_HAL_Driver/Inc/stm32g4xx_ll_exti.h ****   * @param  ExtiLine This parameter can be one of the following values:
 276:Drivers/STM32G4xx_HAL_Driver/Inc/stm32g4xx_ll_exti.h ****   *         @arg @ref LL_EXTI_LINE_0
 277:Drivers/STM32G4xx_HAL_Driver/Inc/stm32g4xx_ll_exti.h ****   *         @arg @ref LL_EXTI_LINE_1
 278:Drivers/STM32G4xx_HAL_Driver/Inc/stm32g4xx_ll_exti.h ****   *         @arg @ref LL_EXTI_LINE_2
 279:Drivers/STM32G4xx_HAL_Driver/Inc/stm32g4xx_ll_exti.h ****   *         @arg @ref LL_EXTI_LINE_3
 280:Drivers/STM32G4xx_HAL_Driver/Inc/stm32g4xx_ll_exti.h ****   *         @arg @ref LL_EXTI_LINE_4
 281:Drivers/STM32G4xx_HAL_Driver/Inc/stm32g4xx_ll_exti.h ****   *         @arg @ref LL_EXTI_LINE_5
 282:Drivers/STM32G4xx_HAL_Driver/Inc/stm32g4xx_ll_exti.h ****   *         @arg @ref LL_EXTI_LINE_6
 283:Drivers/STM32G4xx_HAL_Driver/Inc/stm32g4xx_ll_exti.h ****   *         @arg @ref LL_EXTI_LINE_7
 284:Drivers/STM32G4xx_HAL_Driver/Inc/stm32g4xx_ll_exti.h ****   *         @arg @ref LL_EXTI_LINE_8
 285:Drivers/STM32G4xx_HAL_Driver/Inc/stm32g4xx_ll_exti.h ****   *         @arg @ref LL_EXTI_LINE_9
 286:Drivers/STM32G4xx_HAL_Driver/Inc/stm32g4xx_ll_exti.h ****   *         @arg @ref LL_EXTI_LINE_10
 287:Drivers/STM32G4xx_HAL_Driver/Inc/stm32g4xx_ll_exti.h ****   *         @arg @ref LL_EXTI_LINE_11
 288:Drivers/STM32G4xx_HAL_Driver/Inc/stm32g4xx_ll_exti.h ****   *         @arg @ref LL_EXTI_LINE_12
 289:Drivers/STM32G4xx_HAL_Driver/Inc/stm32g4xx_ll_exti.h ****   *         @arg @ref LL_EXTI_LINE_13
 290:Drivers/STM32G4xx_HAL_Driver/Inc/stm32g4xx_ll_exti.h ****   *         @arg @ref LL_EXTI_LINE_14
 291:Drivers/STM32G4xx_HAL_Driver/Inc/stm32g4xx_ll_exti.h ****   *         @arg @ref LL_EXTI_LINE_15
 292:Drivers/STM32G4xx_HAL_Driver/Inc/stm32g4xx_ll_exti.h ****   *         @arg @ref LL_EXTI_LINE_16
 293:Drivers/STM32G4xx_HAL_Driver/Inc/stm32g4xx_ll_exti.h ****   *         @arg @ref LL_EXTI_LINE_17
 294:Drivers/STM32G4xx_HAL_Driver/Inc/stm32g4xx_ll_exti.h ****   *         @arg @ref LL_EXTI_LINE_18
 295:Drivers/STM32G4xx_HAL_Driver/Inc/stm32g4xx_ll_exti.h ****   *         @arg @ref LL_EXTI_LINE_19
 296:Drivers/STM32G4xx_HAL_Driver/Inc/stm32g4xx_ll_exti.h ****   *         @arg @ref LL_EXTI_LINE_20
 297:Drivers/STM32G4xx_HAL_Driver/Inc/stm32g4xx_ll_exti.h ****   *         @arg @ref LL_EXTI_LINE_21
 298:Drivers/STM32G4xx_HAL_Driver/Inc/stm32g4xx_ll_exti.h ****   *         @arg @ref LL_EXTI_LINE_22
 299:Drivers/STM32G4xx_HAL_Driver/Inc/stm32g4xx_ll_exti.h ****   *         @arg @ref LL_EXTI_LINE_23
 300:Drivers/STM32G4xx_HAL_Driver/Inc/stm32g4xx_ll_exti.h ****   *         @arg @ref LL_EXTI_LINE_24
 301:Drivers/STM32G4xx_HAL_Driver/Inc/stm32g4xx_ll_exti.h ****   *         @arg @ref LL_EXTI_LINE_25
 302:Drivers/STM32G4xx_HAL_Driver/Inc/stm32g4xx_ll_exti.h ****   *         @arg @ref LL_EXTI_LINE_26
 303:Drivers/STM32G4xx_HAL_Driver/Inc/stm32g4xx_ll_exti.h ****   *         @arg @ref LL_EXTI_LINE_27
 304:Drivers/STM32G4xx_HAL_Driver/Inc/stm32g4xx_ll_exti.h ****   *         @arg @ref LL_EXTI_LINE_28
 305:Drivers/STM32G4xx_HAL_Driver/Inc/stm32g4xx_ll_exti.h ****   *         @arg @ref LL_EXTI_LINE_29
 306:Drivers/STM32G4xx_HAL_Driver/Inc/stm32g4xx_ll_exti.h ****   *         @arg @ref LL_EXTI_LINE_30
ARM GAS  D:\apps\VSCode\data\tmp\cc6Ljmfb.s 			page 13


 307:Drivers/STM32G4xx_HAL_Driver/Inc/stm32g4xx_ll_exti.h ****   *         @arg @ref LL_EXTI_LINE_31 (*)
 308:Drivers/STM32G4xx_HAL_Driver/Inc/stm32g4xx_ll_exti.h ****   *         @arg @ref LL_EXTI_LINE_ALL_0_31
 309:Drivers/STM32G4xx_HAL_Driver/Inc/stm32g4xx_ll_exti.h ****   * @note   (*): Available in some devices
 310:Drivers/STM32G4xx_HAL_Driver/Inc/stm32g4xx_ll_exti.h ****   * @note   Please check each device line mapping for EXTI Line availability
 311:Drivers/STM32G4xx_HAL_Driver/Inc/stm32g4xx_ll_exti.h ****   * @retval None
 312:Drivers/STM32G4xx_HAL_Driver/Inc/stm32g4xx_ll_exti.h ****   */
 313:Drivers/STM32G4xx_HAL_Driver/Inc/stm32g4xx_ll_exti.h **** __STATIC_INLINE void LL_EXTI_EnableIT_0_31(uint32_t ExtiLine)
 314:Drivers/STM32G4xx_HAL_Driver/Inc/stm32g4xx_ll_exti.h **** {
 315:Drivers/STM32G4xx_HAL_Driver/Inc/stm32g4xx_ll_exti.h ****   SET_BIT(EXTI->IMR1, ExtiLine);
 316:Drivers/STM32G4xx_HAL_Driver/Inc/stm32g4xx_ll_exti.h **** }
 317:Drivers/STM32G4xx_HAL_Driver/Inc/stm32g4xx_ll_exti.h **** /**
 318:Drivers/STM32G4xx_HAL_Driver/Inc/stm32g4xx_ll_exti.h ****   * @brief  Enable ExtiLine Interrupt request for Lines in range 32 to 63
 319:Drivers/STM32G4xx_HAL_Driver/Inc/stm32g4xx_ll_exti.h ****   * @note The reset value for the direct lines (lines from 32 to 34, line
 320:Drivers/STM32G4xx_HAL_Driver/Inc/stm32g4xx_ll_exti.h ****   *       39) is set to 1 in order to enable the interrupt by default.
 321:Drivers/STM32G4xx_HAL_Driver/Inc/stm32g4xx_ll_exti.h ****   *       Bits are set automatically at Power on.
 322:Drivers/STM32G4xx_HAL_Driver/Inc/stm32g4xx_ll_exti.h ****   * @rmtoll IMR2         IMx           LL_EXTI_EnableIT_32_63
 323:Drivers/STM32G4xx_HAL_Driver/Inc/stm32g4xx_ll_exti.h ****   * @param  ExtiLine This parameter can be one of the following values:
 324:Drivers/STM32G4xx_HAL_Driver/Inc/stm32g4xx_ll_exti.h ****   *         @arg @ref LL_EXTI_LINE_32 (*)
 325:Drivers/STM32G4xx_HAL_Driver/Inc/stm32g4xx_ll_exti.h ****   *         @arg @ref LL_EXTI_LINE_33 (*)
 326:Drivers/STM32G4xx_HAL_Driver/Inc/stm32g4xx_ll_exti.h ****   *         @arg @ref LL_EXTI_LINE_34
 327:Drivers/STM32G4xx_HAL_Driver/Inc/stm32g4xx_ll_exti.h ****   *         @arg @ref LL_EXTI_LINE_35 (*)
 328:Drivers/STM32G4xx_HAL_Driver/Inc/stm32g4xx_ll_exti.h ****   *         @arg @ref LL_EXTI_LINE_36
 329:Drivers/STM32G4xx_HAL_Driver/Inc/stm32g4xx_ll_exti.h ****   *         @arg @ref LL_EXTI_LINE_37
 330:Drivers/STM32G4xx_HAL_Driver/Inc/stm32g4xx_ll_exti.h ****   *         @arg @ref LL_EXTI_LINE_38
 331:Drivers/STM32G4xx_HAL_Driver/Inc/stm32g4xx_ll_exti.h ****   *         @arg @ref LL_EXTI_LINE_39
 332:Drivers/STM32G4xx_HAL_Driver/Inc/stm32g4xx_ll_exti.h ****   *         @arg @ref LL_EXTI_LINE_40
 333:Drivers/STM32G4xx_HAL_Driver/Inc/stm32g4xx_ll_exti.h ****   *         @arg @ref LL_EXTI_LINE_41
 334:Drivers/STM32G4xx_HAL_Driver/Inc/stm32g4xx_ll_exti.h ****   *         @arg @ref LL_EXTI_LINE_42(*)
 335:Drivers/STM32G4xx_HAL_Driver/Inc/stm32g4xx_ll_exti.h ****   *         @arg @ref LL_EXTI_LINE_ALL_32_63
 336:Drivers/STM32G4xx_HAL_Driver/Inc/stm32g4xx_ll_exti.h ****   * @note   (*): Available in some devices
 337:Drivers/STM32G4xx_HAL_Driver/Inc/stm32g4xx_ll_exti.h ****   * @retval None
 338:Drivers/STM32G4xx_HAL_Driver/Inc/stm32g4xx_ll_exti.h ****   */
 339:Drivers/STM32G4xx_HAL_Driver/Inc/stm32g4xx_ll_exti.h **** __STATIC_INLINE void LL_EXTI_EnableIT_32_63(uint32_t ExtiLine)
 155              		.loc 2 339 22 view .LVU42
 156              	.LBB59:
 340:Drivers/STM32G4xx_HAL_Driver/Inc/stm32g4xx_ll_exti.h **** {
 341:Drivers/STM32G4xx_HAL_Driver/Inc/stm32g4xx_ll_exti.h ****   SET_BIT(EXTI->IMR2, ExtiLine);
 157              		.loc 2 341 3 view .LVU43
 158 0020 5249     		ldr	r1, .L47
 159 0022 0C6A     		ldr	r4, [r1, #32]
 160 0024 2243     		orrs	r2, r2, r4
 161              	.LVL4:
 162              	.L41:
 163              		.loc 2 341 3 is_stmt 0 view .LVU44
 164 0026 0A62     		str	r2, [r1, #32]
 165              	.LBE59:
 166              	.LBE58:
 212:Drivers/STM32G4xx_HAL_Driver/Src/stm32g4xx_ll_exti.c ****           /* Directly Enable IT on provided Lines */
 213:Drivers/STM32G4xx_HAL_Driver/Src/stm32g4xx_ll_exti.c ****           LL_EXTI_EnableEvent_32_63(EXTI_InitStruct->Line_32_63);
 167              		.loc 1 213 11 is_stmt 1 view .LVU45
 168              	.LVL5:
 169              	.LBB60:
 170              	.LBI60:
 342:Drivers/STM32G4xx_HAL_Driver/Inc/stm32g4xx_ll_exti.h **** }
 343:Drivers/STM32G4xx_HAL_Driver/Inc/stm32g4xx_ll_exti.h **** 
 344:Drivers/STM32G4xx_HAL_Driver/Inc/stm32g4xx_ll_exti.h **** /**
 345:Drivers/STM32G4xx_HAL_Driver/Inc/stm32g4xx_ll_exti.h ****   * @brief  Disable ExtiLine Interrupt request for Lines in range 0 to 31
ARM GAS  D:\apps\VSCode\data\tmp\cc6Ljmfb.s 			page 14


 346:Drivers/STM32G4xx_HAL_Driver/Inc/stm32g4xx_ll_exti.h ****   * @note The reset value for the direct or internal lines (see RM)
 347:Drivers/STM32G4xx_HAL_Driver/Inc/stm32g4xx_ll_exti.h ****   *       is set to 1 in order to enable the interrupt by default.
 348:Drivers/STM32G4xx_HAL_Driver/Inc/stm32g4xx_ll_exti.h ****   *       Bits are set automatically at Power on.
 349:Drivers/STM32G4xx_HAL_Driver/Inc/stm32g4xx_ll_exti.h ****   * @rmtoll IMR1         IMx           LL_EXTI_DisableIT_0_31
 350:Drivers/STM32G4xx_HAL_Driver/Inc/stm32g4xx_ll_exti.h ****   * @param  ExtiLine This parameter can be one of the following values:
 351:Drivers/STM32G4xx_HAL_Driver/Inc/stm32g4xx_ll_exti.h ****   *         @arg @ref LL_EXTI_LINE_0
 352:Drivers/STM32G4xx_HAL_Driver/Inc/stm32g4xx_ll_exti.h ****   *         @arg @ref LL_EXTI_LINE_1
 353:Drivers/STM32G4xx_HAL_Driver/Inc/stm32g4xx_ll_exti.h ****   *         @arg @ref LL_EXTI_LINE_2
 354:Drivers/STM32G4xx_HAL_Driver/Inc/stm32g4xx_ll_exti.h ****   *         @arg @ref LL_EXTI_LINE_3
 355:Drivers/STM32G4xx_HAL_Driver/Inc/stm32g4xx_ll_exti.h ****   *         @arg @ref LL_EXTI_LINE_4
 356:Drivers/STM32G4xx_HAL_Driver/Inc/stm32g4xx_ll_exti.h ****   *         @arg @ref LL_EXTI_LINE_5
 357:Drivers/STM32G4xx_HAL_Driver/Inc/stm32g4xx_ll_exti.h ****   *         @arg @ref LL_EXTI_LINE_6
 358:Drivers/STM32G4xx_HAL_Driver/Inc/stm32g4xx_ll_exti.h ****   *         @arg @ref LL_EXTI_LINE_7
 359:Drivers/STM32G4xx_HAL_Driver/Inc/stm32g4xx_ll_exti.h ****   *         @arg @ref LL_EXTI_LINE_8
 360:Drivers/STM32G4xx_HAL_Driver/Inc/stm32g4xx_ll_exti.h ****   *         @arg @ref LL_EXTI_LINE_9
 361:Drivers/STM32G4xx_HAL_Driver/Inc/stm32g4xx_ll_exti.h ****   *         @arg @ref LL_EXTI_LINE_10
 362:Drivers/STM32G4xx_HAL_Driver/Inc/stm32g4xx_ll_exti.h ****   *         @arg @ref LL_EXTI_LINE_11
 363:Drivers/STM32G4xx_HAL_Driver/Inc/stm32g4xx_ll_exti.h ****   *         @arg @ref LL_EXTI_LINE_12
 364:Drivers/STM32G4xx_HAL_Driver/Inc/stm32g4xx_ll_exti.h ****   *         @arg @ref LL_EXTI_LINE_13
 365:Drivers/STM32G4xx_HAL_Driver/Inc/stm32g4xx_ll_exti.h ****   *         @arg @ref LL_EXTI_LINE_14
 366:Drivers/STM32G4xx_HAL_Driver/Inc/stm32g4xx_ll_exti.h ****   *         @arg @ref LL_EXTI_LINE_15
 367:Drivers/STM32G4xx_HAL_Driver/Inc/stm32g4xx_ll_exti.h ****   *         @arg @ref LL_EXTI_LINE_16
 368:Drivers/STM32G4xx_HAL_Driver/Inc/stm32g4xx_ll_exti.h ****   *         @arg @ref LL_EXTI_LINE_17
 369:Drivers/STM32G4xx_HAL_Driver/Inc/stm32g4xx_ll_exti.h ****   *         @arg @ref LL_EXTI_LINE_18
 370:Drivers/STM32G4xx_HAL_Driver/Inc/stm32g4xx_ll_exti.h ****   *         @arg @ref LL_EXTI_LINE_19
 371:Drivers/STM32G4xx_HAL_Driver/Inc/stm32g4xx_ll_exti.h ****   *         @arg @ref LL_EXTI_LINE_20
 372:Drivers/STM32G4xx_HAL_Driver/Inc/stm32g4xx_ll_exti.h ****   *         @arg @ref LL_EXTI_LINE_21
 373:Drivers/STM32G4xx_HAL_Driver/Inc/stm32g4xx_ll_exti.h ****   *         @arg @ref LL_EXTI_LINE_22
 374:Drivers/STM32G4xx_HAL_Driver/Inc/stm32g4xx_ll_exti.h ****   *         @arg @ref LL_EXTI_LINE_23
 375:Drivers/STM32G4xx_HAL_Driver/Inc/stm32g4xx_ll_exti.h ****   *         @arg @ref LL_EXTI_LINE_24
 376:Drivers/STM32G4xx_HAL_Driver/Inc/stm32g4xx_ll_exti.h ****   *         @arg @ref LL_EXTI_LINE_25
 377:Drivers/STM32G4xx_HAL_Driver/Inc/stm32g4xx_ll_exti.h ****   *         @arg @ref LL_EXTI_LINE_26
 378:Drivers/STM32G4xx_HAL_Driver/Inc/stm32g4xx_ll_exti.h ****   *         @arg @ref LL_EXTI_LINE_27
 379:Drivers/STM32G4xx_HAL_Driver/Inc/stm32g4xx_ll_exti.h ****   *         @arg @ref LL_EXTI_LINE_28
 380:Drivers/STM32G4xx_HAL_Driver/Inc/stm32g4xx_ll_exti.h ****   *         @arg @ref LL_EXTI_LINE_29
 381:Drivers/STM32G4xx_HAL_Driver/Inc/stm32g4xx_ll_exti.h ****   *         @arg @ref LL_EXTI_LINE_30
 382:Drivers/STM32G4xx_HAL_Driver/Inc/stm32g4xx_ll_exti.h ****   *         @arg @ref LL_EXTI_LINE_31
 383:Drivers/STM32G4xx_HAL_Driver/Inc/stm32g4xx_ll_exti.h ****   *         @arg @ref LL_EXTI_LINE_ALL_0_31 (*)
 384:Drivers/STM32G4xx_HAL_Driver/Inc/stm32g4xx_ll_exti.h ****   * @note   (*): Available in some devices
 385:Drivers/STM32G4xx_HAL_Driver/Inc/stm32g4xx_ll_exti.h ****   * @note   Please check each device line mapping for EXTI Line availability
 386:Drivers/STM32G4xx_HAL_Driver/Inc/stm32g4xx_ll_exti.h ****   * @retval None
 387:Drivers/STM32G4xx_HAL_Driver/Inc/stm32g4xx_ll_exti.h ****   */
 388:Drivers/STM32G4xx_HAL_Driver/Inc/stm32g4xx_ll_exti.h **** __STATIC_INLINE void LL_EXTI_DisableIT_0_31(uint32_t ExtiLine)
 389:Drivers/STM32G4xx_HAL_Driver/Inc/stm32g4xx_ll_exti.h **** {
 390:Drivers/STM32G4xx_HAL_Driver/Inc/stm32g4xx_ll_exti.h ****   CLEAR_BIT(EXTI->IMR1, ExtiLine);
 391:Drivers/STM32G4xx_HAL_Driver/Inc/stm32g4xx_ll_exti.h **** }
 392:Drivers/STM32G4xx_HAL_Driver/Inc/stm32g4xx_ll_exti.h **** 
 393:Drivers/STM32G4xx_HAL_Driver/Inc/stm32g4xx_ll_exti.h **** /**
 394:Drivers/STM32G4xx_HAL_Driver/Inc/stm32g4xx_ll_exti.h ****   * @brief  Disable ExtiLine Interrupt request for Lines in range 32 to 63
 395:Drivers/STM32G4xx_HAL_Driver/Inc/stm32g4xx_ll_exti.h ****   * @note The reset value for the direct lines (lines from 32 to 34, line
 396:Drivers/STM32G4xx_HAL_Driver/Inc/stm32g4xx_ll_exti.h ****   *       39) is set to 1 in order to enable the interrupt by default.
 397:Drivers/STM32G4xx_HAL_Driver/Inc/stm32g4xx_ll_exti.h ****   *       Bits are set automatically at Power on.
 398:Drivers/STM32G4xx_HAL_Driver/Inc/stm32g4xx_ll_exti.h ****   * @rmtoll IMR2         IMx           LL_EXTI_DisableIT_32_63
 399:Drivers/STM32G4xx_HAL_Driver/Inc/stm32g4xx_ll_exti.h ****   * @param  ExtiLine This parameter can be one of the following values:
 400:Drivers/STM32G4xx_HAL_Driver/Inc/stm32g4xx_ll_exti.h ****   *         @arg @ref LL_EXTI_LINE_32 (*)
 401:Drivers/STM32G4xx_HAL_Driver/Inc/stm32g4xx_ll_exti.h ****   *         @arg @ref LL_EXTI_LINE_33 (*)
 402:Drivers/STM32G4xx_HAL_Driver/Inc/stm32g4xx_ll_exti.h ****   *         @arg @ref LL_EXTI_LINE_34
ARM GAS  D:\apps\VSCode\data\tmp\cc6Ljmfb.s 			page 15


 403:Drivers/STM32G4xx_HAL_Driver/Inc/stm32g4xx_ll_exti.h ****   *         @arg @ref LL_EXTI_LINE_35 (*)
 404:Drivers/STM32G4xx_HAL_Driver/Inc/stm32g4xx_ll_exti.h ****   *         @arg @ref LL_EXTI_LINE_36
 405:Drivers/STM32G4xx_HAL_Driver/Inc/stm32g4xx_ll_exti.h ****   *         @arg @ref LL_EXTI_LINE_37
 406:Drivers/STM32G4xx_HAL_Driver/Inc/stm32g4xx_ll_exti.h ****   *         @arg @ref LL_EXTI_LINE_38
 407:Drivers/STM32G4xx_HAL_Driver/Inc/stm32g4xx_ll_exti.h ****   *         @arg @ref LL_EXTI_LINE_39
 408:Drivers/STM32G4xx_HAL_Driver/Inc/stm32g4xx_ll_exti.h ****   *         @arg @ref LL_EXTI_LINE_40
 409:Drivers/STM32G4xx_HAL_Driver/Inc/stm32g4xx_ll_exti.h ****   *         @arg @ref LL_EXTI_LINE_41
 410:Drivers/STM32G4xx_HAL_Driver/Inc/stm32g4xx_ll_exti.h ****   *         @arg @ref LL_EXTI_LINE_42(*)
 411:Drivers/STM32G4xx_HAL_Driver/Inc/stm32g4xx_ll_exti.h ****   *         @arg @ref LL_EXTI_LINE_ALL_32_63
 412:Drivers/STM32G4xx_HAL_Driver/Inc/stm32g4xx_ll_exti.h ****   * @note   (*): Available in some devices
 413:Drivers/STM32G4xx_HAL_Driver/Inc/stm32g4xx_ll_exti.h ****   * @retval None
 414:Drivers/STM32G4xx_HAL_Driver/Inc/stm32g4xx_ll_exti.h ****   */
 415:Drivers/STM32G4xx_HAL_Driver/Inc/stm32g4xx_ll_exti.h **** __STATIC_INLINE void LL_EXTI_DisableIT_32_63(uint32_t ExtiLine)
 416:Drivers/STM32G4xx_HAL_Driver/Inc/stm32g4xx_ll_exti.h **** {
 417:Drivers/STM32G4xx_HAL_Driver/Inc/stm32g4xx_ll_exti.h ****   CLEAR_BIT(EXTI->IMR2, ExtiLine);
 418:Drivers/STM32G4xx_HAL_Driver/Inc/stm32g4xx_ll_exti.h **** }
 419:Drivers/STM32G4xx_HAL_Driver/Inc/stm32g4xx_ll_exti.h **** 
 420:Drivers/STM32G4xx_HAL_Driver/Inc/stm32g4xx_ll_exti.h **** /**
 421:Drivers/STM32G4xx_HAL_Driver/Inc/stm32g4xx_ll_exti.h ****   * @brief  Indicate if ExtiLine Interrupt request is enabled for Lines in range 0 to 31
 422:Drivers/STM32G4xx_HAL_Driver/Inc/stm32g4xx_ll_exti.h ****   * @note The reset value for the direct or internal lines (see RM)
 423:Drivers/STM32G4xx_HAL_Driver/Inc/stm32g4xx_ll_exti.h ****   *       is set to 1 in order to enable the interrupt by default.
 424:Drivers/STM32G4xx_HAL_Driver/Inc/stm32g4xx_ll_exti.h ****   *       Bits are set automatically at Power on.
 425:Drivers/STM32G4xx_HAL_Driver/Inc/stm32g4xx_ll_exti.h ****   * @rmtoll IMR1         IMx           LL_EXTI_IsEnabledIT_0_31
 426:Drivers/STM32G4xx_HAL_Driver/Inc/stm32g4xx_ll_exti.h ****   * @param  ExtiLine This parameter can be one of the following values:
 427:Drivers/STM32G4xx_HAL_Driver/Inc/stm32g4xx_ll_exti.h ****   *         @arg @ref LL_EXTI_LINE_0
 428:Drivers/STM32G4xx_HAL_Driver/Inc/stm32g4xx_ll_exti.h ****   *         @arg @ref LL_EXTI_LINE_1
 429:Drivers/STM32G4xx_HAL_Driver/Inc/stm32g4xx_ll_exti.h ****   *         @arg @ref LL_EXTI_LINE_2
 430:Drivers/STM32G4xx_HAL_Driver/Inc/stm32g4xx_ll_exti.h ****   *         @arg @ref LL_EXTI_LINE_3
 431:Drivers/STM32G4xx_HAL_Driver/Inc/stm32g4xx_ll_exti.h ****   *         @arg @ref LL_EXTI_LINE_4
 432:Drivers/STM32G4xx_HAL_Driver/Inc/stm32g4xx_ll_exti.h ****   *         @arg @ref LL_EXTI_LINE_5
 433:Drivers/STM32G4xx_HAL_Driver/Inc/stm32g4xx_ll_exti.h ****   *         @arg @ref LL_EXTI_LINE_6
 434:Drivers/STM32G4xx_HAL_Driver/Inc/stm32g4xx_ll_exti.h ****   *         @arg @ref LL_EXTI_LINE_7
 435:Drivers/STM32G4xx_HAL_Driver/Inc/stm32g4xx_ll_exti.h ****   *         @arg @ref LL_EXTI_LINE_8
 436:Drivers/STM32G4xx_HAL_Driver/Inc/stm32g4xx_ll_exti.h ****   *         @arg @ref LL_EXTI_LINE_9
 437:Drivers/STM32G4xx_HAL_Driver/Inc/stm32g4xx_ll_exti.h ****   *         @arg @ref LL_EXTI_LINE_10
 438:Drivers/STM32G4xx_HAL_Driver/Inc/stm32g4xx_ll_exti.h ****   *         @arg @ref LL_EXTI_LINE_11
 439:Drivers/STM32G4xx_HAL_Driver/Inc/stm32g4xx_ll_exti.h ****   *         @arg @ref LL_EXTI_LINE_12
 440:Drivers/STM32G4xx_HAL_Driver/Inc/stm32g4xx_ll_exti.h ****   *         @arg @ref LL_EXTI_LINE_13
 441:Drivers/STM32G4xx_HAL_Driver/Inc/stm32g4xx_ll_exti.h ****   *         @arg @ref LL_EXTI_LINE_14
 442:Drivers/STM32G4xx_HAL_Driver/Inc/stm32g4xx_ll_exti.h ****   *         @arg @ref LL_EXTI_LINE_15
 443:Drivers/STM32G4xx_HAL_Driver/Inc/stm32g4xx_ll_exti.h ****   *         @arg @ref LL_EXTI_LINE_16
 444:Drivers/STM32G4xx_HAL_Driver/Inc/stm32g4xx_ll_exti.h ****   *         @arg @ref LL_EXTI_LINE_17
 445:Drivers/STM32G4xx_HAL_Driver/Inc/stm32g4xx_ll_exti.h ****   *         @arg @ref LL_EXTI_LINE_18
 446:Drivers/STM32G4xx_HAL_Driver/Inc/stm32g4xx_ll_exti.h ****   *         @arg @ref LL_EXTI_LINE_19
 447:Drivers/STM32G4xx_HAL_Driver/Inc/stm32g4xx_ll_exti.h ****   *         @arg @ref LL_EXTI_LINE_20
 448:Drivers/STM32G4xx_HAL_Driver/Inc/stm32g4xx_ll_exti.h ****   *         @arg @ref LL_EXTI_LINE_21
 449:Drivers/STM32G4xx_HAL_Driver/Inc/stm32g4xx_ll_exti.h ****   *         @arg @ref LL_EXTI_LINE_22
 450:Drivers/STM32G4xx_HAL_Driver/Inc/stm32g4xx_ll_exti.h ****   *         @arg @ref LL_EXTI_LINE_23
 451:Drivers/STM32G4xx_HAL_Driver/Inc/stm32g4xx_ll_exti.h ****   *         @arg @ref LL_EXTI_LINE_24
 452:Drivers/STM32G4xx_HAL_Driver/Inc/stm32g4xx_ll_exti.h ****   *         @arg @ref LL_EXTI_LINE_25
 453:Drivers/STM32G4xx_HAL_Driver/Inc/stm32g4xx_ll_exti.h ****   *         @arg @ref LL_EXTI_LINE_26
 454:Drivers/STM32G4xx_HAL_Driver/Inc/stm32g4xx_ll_exti.h ****   *         @arg @ref LL_EXTI_LINE_27
 455:Drivers/STM32G4xx_HAL_Driver/Inc/stm32g4xx_ll_exti.h ****   *         @arg @ref LL_EXTI_LINE_28
 456:Drivers/STM32G4xx_HAL_Driver/Inc/stm32g4xx_ll_exti.h ****   *         @arg @ref LL_EXTI_LINE_29
 457:Drivers/STM32G4xx_HAL_Driver/Inc/stm32g4xx_ll_exti.h ****   *         @arg @ref LL_EXTI_LINE_30
 458:Drivers/STM32G4xx_HAL_Driver/Inc/stm32g4xx_ll_exti.h ****   *         @arg @ref LL_EXTI_LINE_31 (*)
 459:Drivers/STM32G4xx_HAL_Driver/Inc/stm32g4xx_ll_exti.h ****   *         @arg @ref LL_EXTI_LINE_ALL_0_31
ARM GAS  D:\apps\VSCode\data\tmp\cc6Ljmfb.s 			page 16


 460:Drivers/STM32G4xx_HAL_Driver/Inc/stm32g4xx_ll_exti.h ****   * @note   (*): Available in some devices
 461:Drivers/STM32G4xx_HAL_Driver/Inc/stm32g4xx_ll_exti.h ****   * @note   Please check each device line mapping for EXTI Line availability
 462:Drivers/STM32G4xx_HAL_Driver/Inc/stm32g4xx_ll_exti.h ****   * @retval State of bit (1 or 0).
 463:Drivers/STM32G4xx_HAL_Driver/Inc/stm32g4xx_ll_exti.h ****   */
 464:Drivers/STM32G4xx_HAL_Driver/Inc/stm32g4xx_ll_exti.h **** __STATIC_INLINE uint32_t LL_EXTI_IsEnabledIT_0_31(uint32_t ExtiLine)
 465:Drivers/STM32G4xx_HAL_Driver/Inc/stm32g4xx_ll_exti.h **** {
 466:Drivers/STM32G4xx_HAL_Driver/Inc/stm32g4xx_ll_exti.h ****   return ((READ_BIT(EXTI->IMR1, ExtiLine) == (ExtiLine)) ? 1UL : 0UL);
 467:Drivers/STM32G4xx_HAL_Driver/Inc/stm32g4xx_ll_exti.h **** }
 468:Drivers/STM32G4xx_HAL_Driver/Inc/stm32g4xx_ll_exti.h **** 
 469:Drivers/STM32G4xx_HAL_Driver/Inc/stm32g4xx_ll_exti.h **** /**
 470:Drivers/STM32G4xx_HAL_Driver/Inc/stm32g4xx_ll_exti.h ****   * @brief  Indicate if ExtiLine Interrupt request is enabled for Lines in range 32 to 63
 471:Drivers/STM32G4xx_HAL_Driver/Inc/stm32g4xx_ll_exti.h ****   * @note The reset value for the direct lines (lines from 32 to 34, line
 472:Drivers/STM32G4xx_HAL_Driver/Inc/stm32g4xx_ll_exti.h ****   *       39) is set to 1 in order to enable the interrupt by default.
 473:Drivers/STM32G4xx_HAL_Driver/Inc/stm32g4xx_ll_exti.h ****   *       Bits are set automatically at Power on.
 474:Drivers/STM32G4xx_HAL_Driver/Inc/stm32g4xx_ll_exti.h ****   * @rmtoll IMR2         IMx           LL_EXTI_IsEnabledIT_32_63
 475:Drivers/STM32G4xx_HAL_Driver/Inc/stm32g4xx_ll_exti.h ****   * @param  ExtiLine This parameter can be one of the following values:
 476:Drivers/STM32G4xx_HAL_Driver/Inc/stm32g4xx_ll_exti.h ****   *         @arg @ref LL_EXTI_LINE_32 (*)
 477:Drivers/STM32G4xx_HAL_Driver/Inc/stm32g4xx_ll_exti.h ****   *         @arg @ref LL_EXTI_LINE_33 (*)
 478:Drivers/STM32G4xx_HAL_Driver/Inc/stm32g4xx_ll_exti.h ****   *         @arg @ref LL_EXTI_LINE_34
 479:Drivers/STM32G4xx_HAL_Driver/Inc/stm32g4xx_ll_exti.h ****   *         @arg @ref LL_EXTI_LINE_35 (*)
 480:Drivers/STM32G4xx_HAL_Driver/Inc/stm32g4xx_ll_exti.h ****   *         @arg @ref LL_EXTI_LINE_36
 481:Drivers/STM32G4xx_HAL_Driver/Inc/stm32g4xx_ll_exti.h ****   *         @arg @ref LL_EXTI_LINE_37
 482:Drivers/STM32G4xx_HAL_Driver/Inc/stm32g4xx_ll_exti.h ****   *         @arg @ref LL_EXTI_LINE_38
 483:Drivers/STM32G4xx_HAL_Driver/Inc/stm32g4xx_ll_exti.h ****   *         @arg @ref LL_EXTI_LINE_39
 484:Drivers/STM32G4xx_HAL_Driver/Inc/stm32g4xx_ll_exti.h ****   *         @arg @ref LL_EXTI_LINE_40
 485:Drivers/STM32G4xx_HAL_Driver/Inc/stm32g4xx_ll_exti.h ****   *         @arg @ref LL_EXTI_LINE_41
 486:Drivers/STM32G4xx_HAL_Driver/Inc/stm32g4xx_ll_exti.h ****   *         @arg @ref LL_EXTI_LINE_42(*)
 487:Drivers/STM32G4xx_HAL_Driver/Inc/stm32g4xx_ll_exti.h ****   *         @arg @ref LL_EXTI_LINE_ALL_32_63
 488:Drivers/STM32G4xx_HAL_Driver/Inc/stm32g4xx_ll_exti.h ****   * @note   (*): Available in some devices
 489:Drivers/STM32G4xx_HAL_Driver/Inc/stm32g4xx_ll_exti.h ****   * @retval State of bit (1 or 0).
 490:Drivers/STM32G4xx_HAL_Driver/Inc/stm32g4xx_ll_exti.h ****   */
 491:Drivers/STM32G4xx_HAL_Driver/Inc/stm32g4xx_ll_exti.h **** __STATIC_INLINE uint32_t LL_EXTI_IsEnabledIT_32_63(uint32_t ExtiLine)
 492:Drivers/STM32G4xx_HAL_Driver/Inc/stm32g4xx_ll_exti.h **** {
 493:Drivers/STM32G4xx_HAL_Driver/Inc/stm32g4xx_ll_exti.h ****   return ((READ_BIT(EXTI->IMR2, ExtiLine) == (ExtiLine)) ? 1UL : 0UL);
 494:Drivers/STM32G4xx_HAL_Driver/Inc/stm32g4xx_ll_exti.h **** }
 495:Drivers/STM32G4xx_HAL_Driver/Inc/stm32g4xx_ll_exti.h **** 
 496:Drivers/STM32G4xx_HAL_Driver/Inc/stm32g4xx_ll_exti.h **** /**
 497:Drivers/STM32G4xx_HAL_Driver/Inc/stm32g4xx_ll_exti.h ****   * @}
 498:Drivers/STM32G4xx_HAL_Driver/Inc/stm32g4xx_ll_exti.h ****   */
 499:Drivers/STM32G4xx_HAL_Driver/Inc/stm32g4xx_ll_exti.h **** 
 500:Drivers/STM32G4xx_HAL_Driver/Inc/stm32g4xx_ll_exti.h **** /** @defgroup EXTI_LL_EF_Event_Management Event_Management
 501:Drivers/STM32G4xx_HAL_Driver/Inc/stm32g4xx_ll_exti.h ****   * @{
 502:Drivers/STM32G4xx_HAL_Driver/Inc/stm32g4xx_ll_exti.h ****   */
 503:Drivers/STM32G4xx_HAL_Driver/Inc/stm32g4xx_ll_exti.h **** 
 504:Drivers/STM32G4xx_HAL_Driver/Inc/stm32g4xx_ll_exti.h **** /**
 505:Drivers/STM32G4xx_HAL_Driver/Inc/stm32g4xx_ll_exti.h ****   * @brief  Enable ExtiLine Event request for Lines in range 0 to 31
 506:Drivers/STM32G4xx_HAL_Driver/Inc/stm32g4xx_ll_exti.h ****   * @rmtoll EMR1         EMx           LL_EXTI_EnableEvent_0_31
 507:Drivers/STM32G4xx_HAL_Driver/Inc/stm32g4xx_ll_exti.h ****   * @param  ExtiLine This parameter can be one of the following values:
 508:Drivers/STM32G4xx_HAL_Driver/Inc/stm32g4xx_ll_exti.h ****   *         @arg @ref LL_EXTI_LINE_0
 509:Drivers/STM32G4xx_HAL_Driver/Inc/stm32g4xx_ll_exti.h ****   *         @arg @ref LL_EXTI_LINE_1
 510:Drivers/STM32G4xx_HAL_Driver/Inc/stm32g4xx_ll_exti.h ****   *         @arg @ref LL_EXTI_LINE_2
 511:Drivers/STM32G4xx_HAL_Driver/Inc/stm32g4xx_ll_exti.h ****   *         @arg @ref LL_EXTI_LINE_3
 512:Drivers/STM32G4xx_HAL_Driver/Inc/stm32g4xx_ll_exti.h ****   *         @arg @ref LL_EXTI_LINE_4
 513:Drivers/STM32G4xx_HAL_Driver/Inc/stm32g4xx_ll_exti.h ****   *         @arg @ref LL_EXTI_LINE_5
 514:Drivers/STM32G4xx_HAL_Driver/Inc/stm32g4xx_ll_exti.h ****   *         @arg @ref LL_EXTI_LINE_6
 515:Drivers/STM32G4xx_HAL_Driver/Inc/stm32g4xx_ll_exti.h ****   *         @arg @ref LL_EXTI_LINE_7
 516:Drivers/STM32G4xx_HAL_Driver/Inc/stm32g4xx_ll_exti.h ****   *         @arg @ref LL_EXTI_LINE_8
ARM GAS  D:\apps\VSCode\data\tmp\cc6Ljmfb.s 			page 17


 517:Drivers/STM32G4xx_HAL_Driver/Inc/stm32g4xx_ll_exti.h ****   *         @arg @ref LL_EXTI_LINE_9
 518:Drivers/STM32G4xx_HAL_Driver/Inc/stm32g4xx_ll_exti.h ****   *         @arg @ref LL_EXTI_LINE_10
 519:Drivers/STM32G4xx_HAL_Driver/Inc/stm32g4xx_ll_exti.h ****   *         @arg @ref LL_EXTI_LINE_11
 520:Drivers/STM32G4xx_HAL_Driver/Inc/stm32g4xx_ll_exti.h ****   *         @arg @ref LL_EXTI_LINE_12
 521:Drivers/STM32G4xx_HAL_Driver/Inc/stm32g4xx_ll_exti.h ****   *         @arg @ref LL_EXTI_LINE_13
 522:Drivers/STM32G4xx_HAL_Driver/Inc/stm32g4xx_ll_exti.h ****   *         @arg @ref LL_EXTI_LINE_14
 523:Drivers/STM32G4xx_HAL_Driver/Inc/stm32g4xx_ll_exti.h ****   *         @arg @ref LL_EXTI_LINE_15
 524:Drivers/STM32G4xx_HAL_Driver/Inc/stm32g4xx_ll_exti.h ****   *         @arg @ref LL_EXTI_LINE_16
 525:Drivers/STM32G4xx_HAL_Driver/Inc/stm32g4xx_ll_exti.h ****   *         @arg @ref LL_EXTI_LINE_17
 526:Drivers/STM32G4xx_HAL_Driver/Inc/stm32g4xx_ll_exti.h ****   *         @arg @ref LL_EXTI_LINE_18
 527:Drivers/STM32G4xx_HAL_Driver/Inc/stm32g4xx_ll_exti.h ****   *         @arg @ref LL_EXTI_LINE_19
 528:Drivers/STM32G4xx_HAL_Driver/Inc/stm32g4xx_ll_exti.h ****   *         @arg @ref LL_EXTI_LINE_20
 529:Drivers/STM32G4xx_HAL_Driver/Inc/stm32g4xx_ll_exti.h ****   *         @arg @ref LL_EXTI_LINE_21
 530:Drivers/STM32G4xx_HAL_Driver/Inc/stm32g4xx_ll_exti.h ****   *         @arg @ref LL_EXTI_LINE_22
 531:Drivers/STM32G4xx_HAL_Driver/Inc/stm32g4xx_ll_exti.h ****   *         @arg @ref LL_EXTI_LINE_23
 532:Drivers/STM32G4xx_HAL_Driver/Inc/stm32g4xx_ll_exti.h ****   *         @arg @ref LL_EXTI_LINE_24
 533:Drivers/STM32G4xx_HAL_Driver/Inc/stm32g4xx_ll_exti.h ****   *         @arg @ref LL_EXTI_LINE_25
 534:Drivers/STM32G4xx_HAL_Driver/Inc/stm32g4xx_ll_exti.h ****   *         @arg @ref LL_EXTI_LINE_26
 535:Drivers/STM32G4xx_HAL_Driver/Inc/stm32g4xx_ll_exti.h ****   *         @arg @ref LL_EXTI_LINE_27
 536:Drivers/STM32G4xx_HAL_Driver/Inc/stm32g4xx_ll_exti.h ****   *         @arg @ref LL_EXTI_LINE_28
 537:Drivers/STM32G4xx_HAL_Driver/Inc/stm32g4xx_ll_exti.h ****   *         @arg @ref LL_EXTI_LINE_29
 538:Drivers/STM32G4xx_HAL_Driver/Inc/stm32g4xx_ll_exti.h ****   *         @arg @ref LL_EXTI_LINE_30
 539:Drivers/STM32G4xx_HAL_Driver/Inc/stm32g4xx_ll_exti.h ****   *         @arg @ref LL_EXTI_LINE_31
 540:Drivers/STM32G4xx_HAL_Driver/Inc/stm32g4xx_ll_exti.h ****   *         @arg @ref LL_EXTI_LINE_ALL_0_31 (*)
 541:Drivers/STM32G4xx_HAL_Driver/Inc/stm32g4xx_ll_exti.h ****   * @note   (*): Available in some devices
 542:Drivers/STM32G4xx_HAL_Driver/Inc/stm32g4xx_ll_exti.h ****   * @note   Please check each device line mapping for EXTI Line availability
 543:Drivers/STM32G4xx_HAL_Driver/Inc/stm32g4xx_ll_exti.h ****   * @retval None
 544:Drivers/STM32G4xx_HAL_Driver/Inc/stm32g4xx_ll_exti.h ****   */
 545:Drivers/STM32G4xx_HAL_Driver/Inc/stm32g4xx_ll_exti.h **** __STATIC_INLINE void LL_EXTI_EnableEvent_0_31(uint32_t ExtiLine)
 546:Drivers/STM32G4xx_HAL_Driver/Inc/stm32g4xx_ll_exti.h **** {
 547:Drivers/STM32G4xx_HAL_Driver/Inc/stm32g4xx_ll_exti.h ****   SET_BIT(EXTI->EMR1, ExtiLine);
 548:Drivers/STM32G4xx_HAL_Driver/Inc/stm32g4xx_ll_exti.h **** 
 549:Drivers/STM32G4xx_HAL_Driver/Inc/stm32g4xx_ll_exti.h **** }
 550:Drivers/STM32G4xx_HAL_Driver/Inc/stm32g4xx_ll_exti.h **** 
 551:Drivers/STM32G4xx_HAL_Driver/Inc/stm32g4xx_ll_exti.h **** /**
 552:Drivers/STM32G4xx_HAL_Driver/Inc/stm32g4xx_ll_exti.h ****   * @brief  Enable ExtiLine Event request for Lines in range 32 to 63
 553:Drivers/STM32G4xx_HAL_Driver/Inc/stm32g4xx_ll_exti.h ****   * @rmtoll EMR2         EMx           LL_EXTI_EnableEvent_32_63
 554:Drivers/STM32G4xx_HAL_Driver/Inc/stm32g4xx_ll_exti.h ****   * @param  ExtiLine This parameter can be a combination of the following values:
 555:Drivers/STM32G4xx_HAL_Driver/Inc/stm32g4xx_ll_exti.h ****   *         @arg @ref LL_EXTI_LINE_32 (*)
 556:Drivers/STM32G4xx_HAL_Driver/Inc/stm32g4xx_ll_exti.h ****   *         @arg @ref LL_EXTI_LINE_33 (*)
 557:Drivers/STM32G4xx_HAL_Driver/Inc/stm32g4xx_ll_exti.h ****   *         @arg @ref LL_EXTI_LINE_34
 558:Drivers/STM32G4xx_HAL_Driver/Inc/stm32g4xx_ll_exti.h ****   *         @arg @ref LL_EXTI_LINE_35 (*)
 559:Drivers/STM32G4xx_HAL_Driver/Inc/stm32g4xx_ll_exti.h ****   *         @arg @ref LL_EXTI_LINE_36
 560:Drivers/STM32G4xx_HAL_Driver/Inc/stm32g4xx_ll_exti.h ****   *         @arg @ref LL_EXTI_LINE_37
 561:Drivers/STM32G4xx_HAL_Driver/Inc/stm32g4xx_ll_exti.h ****   *         @arg @ref LL_EXTI_LINE_38
 562:Drivers/STM32G4xx_HAL_Driver/Inc/stm32g4xx_ll_exti.h ****   *         @arg @ref LL_EXTI_LINE_39
 563:Drivers/STM32G4xx_HAL_Driver/Inc/stm32g4xx_ll_exti.h ****   *         @arg @ref LL_EXTI_LINE_40
 564:Drivers/STM32G4xx_HAL_Driver/Inc/stm32g4xx_ll_exti.h ****   *         @arg @ref LL_EXTI_LINE_41
 565:Drivers/STM32G4xx_HAL_Driver/Inc/stm32g4xx_ll_exti.h ****   *         @arg @ref LL_EXTI_LINE_42(*)
 566:Drivers/STM32G4xx_HAL_Driver/Inc/stm32g4xx_ll_exti.h ****   *         @arg @ref LL_EXTI_LINE_ALL_32_63
 567:Drivers/STM32G4xx_HAL_Driver/Inc/stm32g4xx_ll_exti.h ****   * @note   (*): Available in some devices
 568:Drivers/STM32G4xx_HAL_Driver/Inc/stm32g4xx_ll_exti.h ****   * @retval None
 569:Drivers/STM32G4xx_HAL_Driver/Inc/stm32g4xx_ll_exti.h ****   */
 570:Drivers/STM32G4xx_HAL_Driver/Inc/stm32g4xx_ll_exti.h **** __STATIC_INLINE void LL_EXTI_EnableEvent_32_63(uint32_t ExtiLine)
 171              		.loc 2 570 22 view .LVU46
 172              	.LBB61:
 571:Drivers/STM32G4xx_HAL_Driver/Inc/stm32g4xx_ll_exti.h **** {
ARM GAS  D:\apps\VSCode\data\tmp\cc6Ljmfb.s 			page 18


 572:Drivers/STM32G4xx_HAL_Driver/Inc/stm32g4xx_ll_exti.h ****   SET_BIT(EXTI->EMR2, ExtiLine);
 173              		.loc 2 572 3 view .LVU47
 174 0028 4A6A     		ldr	r2, [r1, #36]
 175 002a 5C68     		ldr	r4, [r3, #4]
 176 002c 2243     		orrs	r2, r2, r4
 177 002e 4A62     		str	r2, [r1, #36]
 178              	.LVL6:
 179              	.L21:
 180              		.loc 2 572 3 is_stmt 0 view .LVU48
 181              	.LBE61:
 182              	.LBE60:
 214:Drivers/STM32G4xx_HAL_Driver/Src/stm32g4xx_ll_exti.c ****           break;
 215:Drivers/STM32G4xx_HAL_Driver/Src/stm32g4xx_ll_exti.c ****         default:
 216:Drivers/STM32G4xx_HAL_Driver/Src/stm32g4xx_ll_exti.c ****           status |= 0x04u;
 217:Drivers/STM32G4xx_HAL_Driver/Src/stm32g4xx_ll_exti.c ****           break;
 218:Drivers/STM32G4xx_HAL_Driver/Src/stm32g4xx_ll_exti.c ****       }
 219:Drivers/STM32G4xx_HAL_Driver/Src/stm32g4xx_ll_exti.c ****       if (EXTI_InitStruct->Trigger != LL_EXTI_TRIGGER_NONE)
 183              		.loc 1 219 7 is_stmt 1 view .LVU49
 184              		.loc 1 219 26 is_stmt 0 view .LVU50
 185 0030 9A7A     		ldrb	r2, [r3, #10]	@ zero_extendqisi2
 186              		.loc 1 219 10 view .LVU51
 187 0032 42B1     		cbz	r2, .L6
 220:Drivers/STM32G4xx_HAL_Driver/Src/stm32g4xx_ll_exti.c ****       {
 221:Drivers/STM32G4xx_HAL_Driver/Src/stm32g4xx_ll_exti.c ****         switch (EXTI_InitStruct->Trigger)
 188              		.loc 1 221 9 is_stmt 1 view .LVU52
 189 0034 022A     		cmp	r2, #2
 190 0036 00F08280 		beq	.L22
 191 003a 032A     		cmp	r2, #3
 192 003c 75D0     		beq	.L23
 193 003e 012A     		cmp	r2, #1
 194 0040 68D0     		beq	.L45
 222:Drivers/STM32G4xx_HAL_Driver/Src/stm32g4xx_ll_exti.c ****         {
 223:Drivers/STM32G4xx_HAL_Driver/Src/stm32g4xx_ll_exti.c ****           case LL_EXTI_TRIGGER_RISING:
 224:Drivers/STM32G4xx_HAL_Driver/Src/stm32g4xx_ll_exti.c ****             /* First Disable Falling Trigger on provided Lines */
 225:Drivers/STM32G4xx_HAL_Driver/Src/stm32g4xx_ll_exti.c ****             LL_EXTI_DisableFallingTrig_32_63(EXTI_InitStruct->Line_32_63);
 226:Drivers/STM32G4xx_HAL_Driver/Src/stm32g4xx_ll_exti.c ****             /* Then Enable IT on provided Lines */
 227:Drivers/STM32G4xx_HAL_Driver/Src/stm32g4xx_ll_exti.c ****             LL_EXTI_EnableRisingTrig_32_63(EXTI_InitStruct->Line_32_63);
 228:Drivers/STM32G4xx_HAL_Driver/Src/stm32g4xx_ll_exti.c ****             break;
 229:Drivers/STM32G4xx_HAL_Driver/Src/stm32g4xx_ll_exti.c ****           case LL_EXTI_TRIGGER_FALLING:
 230:Drivers/STM32G4xx_HAL_Driver/Src/stm32g4xx_ll_exti.c ****             /* First Disable Rising Trigger on provided Lines */
 231:Drivers/STM32G4xx_HAL_Driver/Src/stm32g4xx_ll_exti.c ****             LL_EXTI_DisableRisingTrig_32_63(EXTI_InitStruct->Line_32_63);
 232:Drivers/STM32G4xx_HAL_Driver/Src/stm32g4xx_ll_exti.c ****             /* Then Enable Falling Trigger on provided Lines */
 233:Drivers/STM32G4xx_HAL_Driver/Src/stm32g4xx_ll_exti.c ****             LL_EXTI_EnableFallingTrig_32_63(EXTI_InitStruct->Line_32_63);
 234:Drivers/STM32G4xx_HAL_Driver/Src/stm32g4xx_ll_exti.c ****             break;
 235:Drivers/STM32G4xx_HAL_Driver/Src/stm32g4xx_ll_exti.c ****           case LL_EXTI_TRIGGER_RISING_FALLING:
 236:Drivers/STM32G4xx_HAL_Driver/Src/stm32g4xx_ll_exti.c ****             /* Enable Rising Trigger on provided Lines */
 237:Drivers/STM32G4xx_HAL_Driver/Src/stm32g4xx_ll_exti.c ****             LL_EXTI_EnableRisingTrig_32_63(EXTI_InitStruct->Line_32_63);
 238:Drivers/STM32G4xx_HAL_Driver/Src/stm32g4xx_ll_exti.c ****             /* Enable Falling Trigger on provided Lines */
 239:Drivers/STM32G4xx_HAL_Driver/Src/stm32g4xx_ll_exti.c ****             LL_EXTI_EnableFallingTrig_32_63(EXTI_InitStruct->Line_32_63);
 240:Drivers/STM32G4xx_HAL_Driver/Src/stm32g4xx_ll_exti.c ****             break;
 241:Drivers/STM32G4xx_HAL_Driver/Src/stm32g4xx_ll_exti.c ****           default:
 242:Drivers/STM32G4xx_HAL_Driver/Src/stm32g4xx_ll_exti.c ****             status |= 0x05u;
 195              		.loc 1 242 13 view .LVU53
 196              		.loc 1 242 20 is_stmt 0 view .LVU54
 197 0042 40F00500 		orr	r0, r0, #5
 198              	.LVL7:
 243:Drivers/STM32G4xx_HAL_Driver/Src/stm32g4xx_ll_exti.c ****             break;
ARM GAS  D:\apps\VSCode\data\tmp\cc6Ljmfb.s 			page 19


 199              		.loc 1 243 13 is_stmt 1 view .LVU55
 200              	.L6:
 244:Drivers/STM32G4xx_HAL_Driver/Src/stm32g4xx_ll_exti.c ****         }
 245:Drivers/STM32G4xx_HAL_Driver/Src/stm32g4xx_ll_exti.c ****       }
 246:Drivers/STM32G4xx_HAL_Driver/Src/stm32g4xx_ll_exti.c ****     }
 247:Drivers/STM32G4xx_HAL_Driver/Src/stm32g4xx_ll_exti.c ****   }
 248:Drivers/STM32G4xx_HAL_Driver/Src/stm32g4xx_ll_exti.c ****   /* DISABLE LineCommand */
 249:Drivers/STM32G4xx_HAL_Driver/Src/stm32g4xx_ll_exti.c ****   else
 250:Drivers/STM32G4xx_HAL_Driver/Src/stm32g4xx_ll_exti.c ****   {
 251:Drivers/STM32G4xx_HAL_Driver/Src/stm32g4xx_ll_exti.c ****     /* De-configure IT EXTI Lines in range from 0 to 31 */
 252:Drivers/STM32G4xx_HAL_Driver/Src/stm32g4xx_ll_exti.c ****     LL_EXTI_DisableIT_0_31(EXTI_InitStruct->Line_0_31);
 253:Drivers/STM32G4xx_HAL_Driver/Src/stm32g4xx_ll_exti.c ****     /* De-configure Event EXTI Lines in range from 0 to 31 */
 254:Drivers/STM32G4xx_HAL_Driver/Src/stm32g4xx_ll_exti.c ****     LL_EXTI_DisableEvent_0_31(EXTI_InitStruct->Line_0_31);
 255:Drivers/STM32G4xx_HAL_Driver/Src/stm32g4xx_ll_exti.c ****     /* De-configure IT EXTI Lines in range from 32 to 63 */
 256:Drivers/STM32G4xx_HAL_Driver/Src/stm32g4xx_ll_exti.c ****     LL_EXTI_DisableIT_32_63(EXTI_InitStruct->Line_32_63);
 257:Drivers/STM32G4xx_HAL_Driver/Src/stm32g4xx_ll_exti.c ****     /* De-configure Event EXTI Lines in range from 32 to 63 */
 258:Drivers/STM32G4xx_HAL_Driver/Src/stm32g4xx_ll_exti.c ****     LL_EXTI_DisableEvent_32_63(EXTI_InitStruct->Line_32_63);
 259:Drivers/STM32G4xx_HAL_Driver/Src/stm32g4xx_ll_exti.c ****   }
 260:Drivers/STM32G4xx_HAL_Driver/Src/stm32g4xx_ll_exti.c **** 
 261:Drivers/STM32G4xx_HAL_Driver/Src/stm32g4xx_ll_exti.c ****   return status;
 262:Drivers/STM32G4xx_HAL_Driver/Src/stm32g4xx_ll_exti.c **** }
 201              		.loc 1 262 1 is_stmt 0 view .LVU56
 202 0046 5DF8044B 		ldr	r4, [sp], #4
 203              	.LCFI3:
 204              		.cfi_remember_state
 205              		.cfi_restore 4
 206              		.cfi_def_cfa_offset 0
 207 004a 7047     		bx	lr
 208              	.LVL8:
 209              	.L43:
 210              	.LCFI4:
 211              		.cfi_restore_state
 140:Drivers/STM32G4xx_HAL_Driver/Src/stm32g4xx_ll_exti.c ****       {
 212              		.loc 1 140 7 is_stmt 1 view .LVU57
 140:Drivers/STM32G4xx_HAL_Driver/Src/stm32g4xx_ll_exti.c ****       {
 213              		.loc 1 140 30 is_stmt 0 view .LVU58
 214 004c 5A7A     		ldrb	r2, [r3, #9]	@ zero_extendqisi2
 140:Drivers/STM32G4xx_HAL_Driver/Src/stm32g4xx_ll_exti.c ****       {
 215              		.loc 1 140 7 view .LVU59
 216 004e 012A     		cmp	r2, #1
 217 0050 50D0     		beq	.L9
 218 0052 51B2     		sxtb	r1, r2
 219 0054 0029     		cmp	r1, #0
 220 0056 3DD0     		beq	.L10
 221 0058 022A     		cmp	r2, #2
 222 005a 27D0     		beq	.L11
 161:Drivers/STM32G4xx_HAL_Driver/Src/stm32g4xx_ll_exti.c ****           break;
 223              		.loc 1 161 18 view .LVU60
 224 005c 0120     		movs	r0, #1
 225              	.L12:
 226              	.LVL9:
 164:Drivers/STM32G4xx_HAL_Driver/Src/stm32g4xx_ll_exti.c ****       {
 227              		.loc 1 164 7 is_stmt 1 view .LVU61
 164:Drivers/STM32G4xx_HAL_Driver/Src/stm32g4xx_ll_exti.c ****       {
 228              		.loc 1 164 26 is_stmt 0 view .LVU62
 229 005e 9A7A     		ldrb	r2, [r3, #10]	@ zero_extendqisi2
 164:Drivers/STM32G4xx_HAL_Driver/Src/stm32g4xx_ll_exti.c ****       {
ARM GAS  D:\apps\VSCode\data\tmp\cc6Ljmfb.s 			page 20


 230              		.loc 1 164 10 view .LVU63
 231 0060 002A     		cmp	r2, #0
 232 0062 D4D0     		beq	.L8
 166:Drivers/STM32G4xx_HAL_Driver/Src/stm32g4xx_ll_exti.c ****         {
 233              		.loc 1 166 9 is_stmt 1 view .LVU64
 234 0064 022A     		cmp	r2, #2
 235 0066 4AD0     		beq	.L13
 236 0068 032A     		cmp	r2, #3
 237 006a 79D0     		beq	.L14
 238 006c 012A     		cmp	r2, #1
 239 006e 6CD0     		beq	.L46
 187:Drivers/STM32G4xx_HAL_Driver/Src/stm32g4xx_ll_exti.c ****             break;
 240              		.loc 1 187 13 view .LVU65
 187:Drivers/STM32G4xx_HAL_Driver/Src/stm32g4xx_ll_exti.c ****             break;
 241              		.loc 1 187 20 is_stmt 0 view .LVU66
 242 0070 40F00200 		orr	r0, r0, #2
 243              	.LVL10:
 188:Drivers/STM32G4xx_HAL_Driver/Src/stm32g4xx_ll_exti.c ****         }
 244              		.loc 1 188 13 is_stmt 1 view .LVU67
 245 0074 CBE7     		b	.L8
 246              	.LVL11:
 247              	.L7:
 252:Drivers/STM32G4xx_HAL_Driver/Src/stm32g4xx_ll_exti.c ****     /* De-configure Event EXTI Lines in range from 0 to 31 */
 248              		.loc 1 252 5 view .LVU68
 249              	.LBB62:
 250              	.LBI62:
 388:Drivers/STM32G4xx_HAL_Driver/Inc/stm32g4xx_ll_exti.h **** {
 251              		.loc 2 388 22 view .LVU69
 252              	.LBB63:
 390:Drivers/STM32G4xx_HAL_Driver/Inc/stm32g4xx_ll_exti.h **** }
 253              		.loc 2 390 3 view .LVU70
 254 0076 3D4A     		ldr	r2, .L47
 255 0078 1468     		ldr	r4, [r2]
 256 007a 24EA0000 		bic	r0, r4, r0
 257 007e 1060     		str	r0, [r2]
 258              	.LVL12:
 390:Drivers/STM32G4xx_HAL_Driver/Inc/stm32g4xx_ll_exti.h **** }
 259              		.loc 2 390 3 is_stmt 0 view .LVU71
 260              	.LBE63:
 261              	.LBE62:
 254:Drivers/STM32G4xx_HAL_Driver/Src/stm32g4xx_ll_exti.c ****     /* De-configure IT EXTI Lines in range from 32 to 63 */
 262              		.loc 1 254 5 is_stmt 1 view .LVU72
 263              	.LBB64:
 264              	.LBI64:
 573:Drivers/STM32G4xx_HAL_Driver/Inc/stm32g4xx_ll_exti.h **** }
 574:Drivers/STM32G4xx_HAL_Driver/Inc/stm32g4xx_ll_exti.h **** 
 575:Drivers/STM32G4xx_HAL_Driver/Inc/stm32g4xx_ll_exti.h **** /**
 576:Drivers/STM32G4xx_HAL_Driver/Inc/stm32g4xx_ll_exti.h ****   * @brief  Disable ExtiLine Event request for Lines in range 0 to 31
 577:Drivers/STM32G4xx_HAL_Driver/Inc/stm32g4xx_ll_exti.h ****   * @rmtoll EMR1         EMx           LL_EXTI_DisableEvent_0_31
 578:Drivers/STM32G4xx_HAL_Driver/Inc/stm32g4xx_ll_exti.h ****   * @param  ExtiLine This parameter can be one of the following values:
 579:Drivers/STM32G4xx_HAL_Driver/Inc/stm32g4xx_ll_exti.h ****   *         @arg @ref LL_EXTI_LINE_0
 580:Drivers/STM32G4xx_HAL_Driver/Inc/stm32g4xx_ll_exti.h ****   *         @arg @ref LL_EXTI_LINE_1
 581:Drivers/STM32G4xx_HAL_Driver/Inc/stm32g4xx_ll_exti.h ****   *         @arg @ref LL_EXTI_LINE_2
 582:Drivers/STM32G4xx_HAL_Driver/Inc/stm32g4xx_ll_exti.h ****   *         @arg @ref LL_EXTI_LINE_3
 583:Drivers/STM32G4xx_HAL_Driver/Inc/stm32g4xx_ll_exti.h ****   *         @arg @ref LL_EXTI_LINE_4
 584:Drivers/STM32G4xx_HAL_Driver/Inc/stm32g4xx_ll_exti.h ****   *         @arg @ref LL_EXTI_LINE_5
 585:Drivers/STM32G4xx_HAL_Driver/Inc/stm32g4xx_ll_exti.h ****   *         @arg @ref LL_EXTI_LINE_6
ARM GAS  D:\apps\VSCode\data\tmp\cc6Ljmfb.s 			page 21


 586:Drivers/STM32G4xx_HAL_Driver/Inc/stm32g4xx_ll_exti.h ****   *         @arg @ref LL_EXTI_LINE_7
 587:Drivers/STM32G4xx_HAL_Driver/Inc/stm32g4xx_ll_exti.h ****   *         @arg @ref LL_EXTI_LINE_8
 588:Drivers/STM32G4xx_HAL_Driver/Inc/stm32g4xx_ll_exti.h ****   *         @arg @ref LL_EXTI_LINE_9
 589:Drivers/STM32G4xx_HAL_Driver/Inc/stm32g4xx_ll_exti.h ****   *         @arg @ref LL_EXTI_LINE_10
 590:Drivers/STM32G4xx_HAL_Driver/Inc/stm32g4xx_ll_exti.h ****   *         @arg @ref LL_EXTI_LINE_11
 591:Drivers/STM32G4xx_HAL_Driver/Inc/stm32g4xx_ll_exti.h ****   *         @arg @ref LL_EXTI_LINE_12
 592:Drivers/STM32G4xx_HAL_Driver/Inc/stm32g4xx_ll_exti.h ****   *         @arg @ref LL_EXTI_LINE_13
 593:Drivers/STM32G4xx_HAL_Driver/Inc/stm32g4xx_ll_exti.h ****   *         @arg @ref LL_EXTI_LINE_14
 594:Drivers/STM32G4xx_HAL_Driver/Inc/stm32g4xx_ll_exti.h ****   *         @arg @ref LL_EXTI_LINE_15
 595:Drivers/STM32G4xx_HAL_Driver/Inc/stm32g4xx_ll_exti.h ****   *         @arg @ref LL_EXTI_LINE_16
 596:Drivers/STM32G4xx_HAL_Driver/Inc/stm32g4xx_ll_exti.h ****   *         @arg @ref LL_EXTI_LINE_17
 597:Drivers/STM32G4xx_HAL_Driver/Inc/stm32g4xx_ll_exti.h ****   *         @arg @ref LL_EXTI_LINE_18
 598:Drivers/STM32G4xx_HAL_Driver/Inc/stm32g4xx_ll_exti.h ****   *         @arg @ref LL_EXTI_LINE_19
 599:Drivers/STM32G4xx_HAL_Driver/Inc/stm32g4xx_ll_exti.h ****   *         @arg @ref LL_EXTI_LINE_20
 600:Drivers/STM32G4xx_HAL_Driver/Inc/stm32g4xx_ll_exti.h ****   *         @arg @ref LL_EXTI_LINE_21
 601:Drivers/STM32G4xx_HAL_Driver/Inc/stm32g4xx_ll_exti.h ****   *         @arg @ref LL_EXTI_LINE_22
 602:Drivers/STM32G4xx_HAL_Driver/Inc/stm32g4xx_ll_exti.h ****   *         @arg @ref LL_EXTI_LINE_23
 603:Drivers/STM32G4xx_HAL_Driver/Inc/stm32g4xx_ll_exti.h ****   *         @arg @ref LL_EXTI_LINE_24
 604:Drivers/STM32G4xx_HAL_Driver/Inc/stm32g4xx_ll_exti.h ****   *         @arg @ref LL_EXTI_LINE_25
 605:Drivers/STM32G4xx_HAL_Driver/Inc/stm32g4xx_ll_exti.h ****   *         @arg @ref LL_EXTI_LINE_26
 606:Drivers/STM32G4xx_HAL_Driver/Inc/stm32g4xx_ll_exti.h ****   *         @arg @ref LL_EXTI_LINE_27
 607:Drivers/STM32G4xx_HAL_Driver/Inc/stm32g4xx_ll_exti.h ****   *         @arg @ref LL_EXTI_LINE_28
 608:Drivers/STM32G4xx_HAL_Driver/Inc/stm32g4xx_ll_exti.h ****   *         @arg @ref LL_EXTI_LINE_29
 609:Drivers/STM32G4xx_HAL_Driver/Inc/stm32g4xx_ll_exti.h ****   *         @arg @ref LL_EXTI_LINE_30
 610:Drivers/STM32G4xx_HAL_Driver/Inc/stm32g4xx_ll_exti.h ****   *         @arg @ref LL_EXTI_LINE_31 (*)
 611:Drivers/STM32G4xx_HAL_Driver/Inc/stm32g4xx_ll_exti.h ****   *         @arg @ref LL_EXTI_LINE_ALL_0_31
 612:Drivers/STM32G4xx_HAL_Driver/Inc/stm32g4xx_ll_exti.h ****   * @note   (*): Available in some devices
 613:Drivers/STM32G4xx_HAL_Driver/Inc/stm32g4xx_ll_exti.h ****   * @note   Please check each device line mapping for EXTI Line availability
 614:Drivers/STM32G4xx_HAL_Driver/Inc/stm32g4xx_ll_exti.h ****   * @retval None
 615:Drivers/STM32G4xx_HAL_Driver/Inc/stm32g4xx_ll_exti.h ****   */
 616:Drivers/STM32G4xx_HAL_Driver/Inc/stm32g4xx_ll_exti.h **** __STATIC_INLINE void LL_EXTI_DisableEvent_0_31(uint32_t ExtiLine)
 265              		.loc 2 616 22 view .LVU73
 266              	.LBB65:
 617:Drivers/STM32G4xx_HAL_Driver/Inc/stm32g4xx_ll_exti.h **** {
 618:Drivers/STM32G4xx_HAL_Driver/Inc/stm32g4xx_ll_exti.h ****   CLEAR_BIT(EXTI->EMR1, ExtiLine);
 267              		.loc 2 618 3 view .LVU74
 268 0080 5068     		ldr	r0, [r2, #4]
 269 0082 1C68     		ldr	r4, [r3]
 270 0084 20EA0400 		bic	r0, r0, r4
 271 0088 5060     		str	r0, [r2, #4]
 272              	.LVL13:
 273              		.loc 2 618 3 is_stmt 0 view .LVU75
 274              	.LBE65:
 275              	.LBE64:
 256:Drivers/STM32G4xx_HAL_Driver/Src/stm32g4xx_ll_exti.c ****     /* De-configure Event EXTI Lines in range from 32 to 63 */
 276              		.loc 1 256 5 is_stmt 1 view .LVU76
 277              	.LBB66:
 278              	.LBI66:
 415:Drivers/STM32G4xx_HAL_Driver/Inc/stm32g4xx_ll_exti.h **** {
 279              		.loc 2 415 22 view .LVU77
 280              	.LBB67:
 417:Drivers/STM32G4xx_HAL_Driver/Inc/stm32g4xx_ll_exti.h **** }
 281              		.loc 2 417 3 view .LVU78
 282 008a 5C68     		ldr	r4, [r3, #4]
 283 008c 106A     		ldr	r0, [r2, #32]
 284 008e 20EA0400 		bic	r0, r0, r4
 285 0092 1062     		str	r0, [r2, #32]
ARM GAS  D:\apps\VSCode\data\tmp\cc6Ljmfb.s 			page 22


 286              	.LVL14:
 417:Drivers/STM32G4xx_HAL_Driver/Inc/stm32g4xx_ll_exti.h **** }
 287              		.loc 2 417 3 is_stmt 0 view .LVU79
 288              	.LBE67:
 289              	.LBE66:
 258:Drivers/STM32G4xx_HAL_Driver/Src/stm32g4xx_ll_exti.c ****   }
 290              		.loc 1 258 5 is_stmt 1 view .LVU80
 291              	.LBB68:
 292              	.LBI68:
 619:Drivers/STM32G4xx_HAL_Driver/Inc/stm32g4xx_ll_exti.h **** }
 620:Drivers/STM32G4xx_HAL_Driver/Inc/stm32g4xx_ll_exti.h **** 
 621:Drivers/STM32G4xx_HAL_Driver/Inc/stm32g4xx_ll_exti.h **** /**
 622:Drivers/STM32G4xx_HAL_Driver/Inc/stm32g4xx_ll_exti.h ****   * @brief  Disable ExtiLine Event request for Lines in range 32 to 63
 623:Drivers/STM32G4xx_HAL_Driver/Inc/stm32g4xx_ll_exti.h ****   * @rmtoll EMR2         EMx           LL_EXTI_DisableEvent_32_63
 624:Drivers/STM32G4xx_HAL_Driver/Inc/stm32g4xx_ll_exti.h ****   * @param  ExtiLine This parameter can be a combination of the following values:
 625:Drivers/STM32G4xx_HAL_Driver/Inc/stm32g4xx_ll_exti.h ****   *         @arg @ref LL_EXTI_LINE_32 (*)
 626:Drivers/STM32G4xx_HAL_Driver/Inc/stm32g4xx_ll_exti.h ****   *         @arg @ref LL_EXTI_LINE_33 (*)
 627:Drivers/STM32G4xx_HAL_Driver/Inc/stm32g4xx_ll_exti.h ****   *         @arg @ref LL_EXTI_LINE_34
 628:Drivers/STM32G4xx_HAL_Driver/Inc/stm32g4xx_ll_exti.h ****   *         @arg @ref LL_EXTI_LINE_35 (*)
 629:Drivers/STM32G4xx_HAL_Driver/Inc/stm32g4xx_ll_exti.h ****   *         @arg @ref LL_EXTI_LINE_36
 630:Drivers/STM32G4xx_HAL_Driver/Inc/stm32g4xx_ll_exti.h ****   *         @arg @ref LL_EXTI_LINE_37
 631:Drivers/STM32G4xx_HAL_Driver/Inc/stm32g4xx_ll_exti.h ****   *         @arg @ref LL_EXTI_LINE_38
 632:Drivers/STM32G4xx_HAL_Driver/Inc/stm32g4xx_ll_exti.h ****   *         @arg @ref LL_EXTI_LINE_39
 633:Drivers/STM32G4xx_HAL_Driver/Inc/stm32g4xx_ll_exti.h ****   *         @arg @ref LL_EXTI_LINE_40
 634:Drivers/STM32G4xx_HAL_Driver/Inc/stm32g4xx_ll_exti.h ****   *         @arg @ref LL_EXTI_LINE_41
 635:Drivers/STM32G4xx_HAL_Driver/Inc/stm32g4xx_ll_exti.h ****   *         @arg @ref LL_EXTI_LINE_42(*)
 636:Drivers/STM32G4xx_HAL_Driver/Inc/stm32g4xx_ll_exti.h ****   *         @arg @ref LL_EXTI_LINE_ALL_32_63
 637:Drivers/STM32G4xx_HAL_Driver/Inc/stm32g4xx_ll_exti.h ****   * @note   (*): Available in some devices
 638:Drivers/STM32G4xx_HAL_Driver/Inc/stm32g4xx_ll_exti.h ****   * @retval None
 639:Drivers/STM32G4xx_HAL_Driver/Inc/stm32g4xx_ll_exti.h ****   */
 640:Drivers/STM32G4xx_HAL_Driver/Inc/stm32g4xx_ll_exti.h **** __STATIC_INLINE void LL_EXTI_DisableEvent_32_63(uint32_t ExtiLine)
 293              		.loc 2 640 22 view .LVU81
 294              	.LBB69:
 641:Drivers/STM32G4xx_HAL_Driver/Inc/stm32g4xx_ll_exti.h **** {
 642:Drivers/STM32G4xx_HAL_Driver/Inc/stm32g4xx_ll_exti.h ****   CLEAR_BIT(EXTI->EMR2, ExtiLine);
 295              		.loc 2 642 3 view .LVU82
 296 0094 5868     		ldr	r0, [r3, #4]
 297 0096 536A     		ldr	r3, [r2, #36]
 298              	.LVL15:
 299              		.loc 2 642 3 is_stmt 0 view .LVU83
 300 0098 23EA0003 		bic	r3, r3, r0
 301 009c 5362     		str	r3, [r2, #36]
 302              	.LBE69:
 303              	.LBE68:
 124:Drivers/STM32G4xx_HAL_Driver/Src/stm32g4xx_ll_exti.c **** 
 304              		.loc 1 124 12 view .LVU84
 305 009e 0846     		mov	r0, r1
 306              	.LVL16:
 261:Drivers/STM32G4xx_HAL_Driver/Src/stm32g4xx_ll_exti.c **** }
 307              		.loc 1 261 3 is_stmt 1 view .LVU85
 308              		.loc 1 262 1 is_stmt 0 view .LVU86
 309 00a0 5DF8044B 		ldr	r4, [sp], #4
 310              	.LCFI5:
 311              		.cfi_remember_state
 312              		.cfi_restore 4
 313              		.cfi_def_cfa_offset 0
 314 00a4 7047     		bx	lr
ARM GAS  D:\apps\VSCode\data\tmp\cc6Ljmfb.s 			page 23


 315              	.LVL17:
 316              	.L44:
 317              	.LCFI6:
 318              		.cfi_restore_state
 216:Drivers/STM32G4xx_HAL_Driver/Src/stm32g4xx_ll_exti.c ****           break;
 319              		.loc 1 216 11 is_stmt 1 view .LVU87
 216:Drivers/STM32G4xx_HAL_Driver/Src/stm32g4xx_ll_exti.c ****           break;
 320              		.loc 1 216 18 is_stmt 0 view .LVU88
 321 00a6 40F00400 		orr	r0, r0, #4
 322              	.LVL18:
 217:Drivers/STM32G4xx_HAL_Driver/Src/stm32g4xx_ll_exti.c ****       }
 323              		.loc 1 217 11 is_stmt 1 view .LVU89
 324 00aa C1E7     		b	.L21
 325              	.LVL19:
 326              	.L11:
 156:Drivers/STM32G4xx_HAL_Driver/Src/stm32g4xx_ll_exti.c ****           /* Directly Enable Event on provided Lines */
 327              		.loc 1 156 11 view .LVU90
 328              	.LBB70:
 329              	.LBI70:
 313:Drivers/STM32G4xx_HAL_Driver/Inc/stm32g4xx_ll_exti.h **** {
 330              		.loc 2 313 22 view .LVU91
 331              	.LBB71:
 315:Drivers/STM32G4xx_HAL_Driver/Inc/stm32g4xx_ll_exti.h **** }
 332              		.loc 2 315 3 view .LVU92
 333 00ac 2F4A     		ldr	r2, .L47
 334 00ae 1168     		ldr	r1, [r2]
 335 00b0 0843     		orrs	r0, r0, r1
 336              	.LVL20:
 337              	.L39:
 315:Drivers/STM32G4xx_HAL_Driver/Inc/stm32g4xx_ll_exti.h **** }
 338              		.loc 2 315 3 is_stmt 0 view .LVU93
 339 00b2 1060     		str	r0, [r2]
 340              	.LBE71:
 341              	.LBE70:
 158:Drivers/STM32G4xx_HAL_Driver/Src/stm32g4xx_ll_exti.c ****           break;
 342              		.loc 1 158 11 is_stmt 1 view .LVU94
 343              	.LVL21:
 344              	.LBB72:
 345              	.LBI72:
 545:Drivers/STM32G4xx_HAL_Driver/Inc/stm32g4xx_ll_exti.h **** {
 346              		.loc 2 545 22 view .LVU95
 347              	.LBB73:
 547:Drivers/STM32G4xx_HAL_Driver/Inc/stm32g4xx_ll_exti.h **** 
 348              		.loc 2 547 3 view .LVU96
 349 00b4 1868     		ldr	r0, [r3]
 350 00b6 5168     		ldr	r1, [r2, #4]
 351 00b8 0143     		orrs	r1, r1, r0
 352 00ba 5160     		str	r1, [r2, #4]
 353              	.LVL22:
 547:Drivers/STM32G4xx_HAL_Driver/Inc/stm32g4xx_ll_exti.h **** 
 354              		.loc 2 547 3 is_stmt 0 view .LVU97
 355              	.LBE73:
 356              	.LBE72:
 124:Drivers/STM32G4xx_HAL_Driver/Src/stm32g4xx_ll_exti.c **** 
 357              		.loc 1 124 12 view .LVU98
 358 00bc 0020     		movs	r0, #0
 359              	.LVL23:
ARM GAS  D:\apps\VSCode\data\tmp\cc6Ljmfb.s 			page 24


 124:Drivers/STM32G4xx_HAL_Driver/Src/stm32g4xx_ll_exti.c **** 
 360              		.loc 1 124 12 view .LVU99
 361 00be CEE7     		b	.L12
 362              	.LVL24:
 363              	.L18:
 199:Drivers/STM32G4xx_HAL_Driver/Src/stm32g4xx_ll_exti.c ****           /* Then Enable IT on provided Lines */
 364              		.loc 1 199 11 is_stmt 1 view .LVU100
 365              	.LBB74:
 366              	.LBI74:
 640:Drivers/STM32G4xx_HAL_Driver/Inc/stm32g4xx_ll_exti.h **** {
 367              		.loc 2 640 22 view .LVU101
 368              	.LBB75:
 369              		.loc 2 642 3 view .LVU102
 370 00c0 2A49     		ldr	r1, .L47
 371 00c2 4C6A     		ldr	r4, [r1, #36]
 372 00c4 24EA0202 		bic	r2, r4, r2
 373              	.LVL25:
 374              		.loc 2 642 3 is_stmt 0 view .LVU103
 375 00c8 4A62     		str	r2, [r1, #36]
 376              	.LVL26:
 377              		.loc 2 642 3 view .LVU104
 378              	.LBE75:
 379              	.LBE74:
 201:Drivers/STM32G4xx_HAL_Driver/Src/stm32g4xx_ll_exti.c ****           break;
 380              		.loc 1 201 11 is_stmt 1 view .LVU105
 381              	.LBB76:
 382              	.LBI76:
 339:Drivers/STM32G4xx_HAL_Driver/Inc/stm32g4xx_ll_exti.h **** {
 383              		.loc 2 339 22 view .LVU106
 384              	.LBB77:
 341:Drivers/STM32G4xx_HAL_Driver/Inc/stm32g4xx_ll_exti.h **** }
 385              		.loc 2 341 3 view .LVU107
 386 00ca 0A6A     		ldr	r2, [r1, #32]
 387 00cc 5C68     		ldr	r4, [r3, #4]
 388 00ce 2243     		orrs	r2, r2, r4
 389 00d0 0A62     		str	r2, [r1, #32]
 390              	.LVL27:
 341:Drivers/STM32G4xx_HAL_Driver/Inc/stm32g4xx_ll_exti.h **** }
 391              		.loc 2 341 3 is_stmt 0 view .LVU108
 392 00d2 ADE7     		b	.L21
 393              	.LVL28:
 394              	.L10:
 341:Drivers/STM32G4xx_HAL_Driver/Inc/stm32g4xx_ll_exti.h **** }
 395              		.loc 2 341 3 view .LVU109
 396              	.LBE77:
 397              	.LBE76:
 144:Drivers/STM32G4xx_HAL_Driver/Src/stm32g4xx_ll_exti.c ****           /* Then Enable IT on provided Lines */
 398              		.loc 1 144 11 is_stmt 1 view .LVU110
 399              	.LBB78:
 400              	.LBI78:
 616:Drivers/STM32G4xx_HAL_Driver/Inc/stm32g4xx_ll_exti.h **** {
 401              		.loc 2 616 22 view .LVU111
 402              	.LBB79:
 618:Drivers/STM32G4xx_HAL_Driver/Inc/stm32g4xx_ll_exti.h **** }
 403              		.loc 2 618 3 view .LVU112
 404 00d4 254A     		ldr	r2, .L47
 405 00d6 5468     		ldr	r4, [r2, #4]
ARM GAS  D:\apps\VSCode\data\tmp\cc6Ljmfb.s 			page 25


 406 00d8 24EA0000 		bic	r0, r4, r0
 407              	.LVL29:
 618:Drivers/STM32G4xx_HAL_Driver/Inc/stm32g4xx_ll_exti.h **** }
 408              		.loc 2 618 3 is_stmt 0 view .LVU113
 409 00dc 5060     		str	r0, [r2, #4]
 410              	.LVL30:
 618:Drivers/STM32G4xx_HAL_Driver/Inc/stm32g4xx_ll_exti.h **** }
 411              		.loc 2 618 3 view .LVU114
 412              	.LBE79:
 413              	.LBE78:
 146:Drivers/STM32G4xx_HAL_Driver/Src/stm32g4xx_ll_exti.c ****           break;
 414              		.loc 1 146 11 is_stmt 1 view .LVU115
 415              	.LBB80:
 416              	.LBI80:
 313:Drivers/STM32G4xx_HAL_Driver/Inc/stm32g4xx_ll_exti.h **** {
 417              		.loc 2 313 22 view .LVU116
 418              	.LBB81:
 315:Drivers/STM32G4xx_HAL_Driver/Inc/stm32g4xx_ll_exti.h **** }
 419              		.loc 2 315 3 view .LVU117
 420 00de 1868     		ldr	r0, [r3]
 421 00e0 1468     		ldr	r4, [r2]
 422 00e2 0443     		orrs	r4, r4, r0
 423 00e4 1460     		str	r4, [r2]
 424              	.LVL31:
 315:Drivers/STM32G4xx_HAL_Driver/Inc/stm32g4xx_ll_exti.h **** }
 425              		.loc 2 315 3 is_stmt 0 view .LVU118
 426              	.LBE81:
 427              	.LBE80:
 124:Drivers/STM32G4xx_HAL_Driver/Src/stm32g4xx_ll_exti.c **** 
 428              		.loc 1 124 12 view .LVU119
 429 00e6 0846     		mov	r0, r1
 430              	.LVL32:
 124:Drivers/STM32G4xx_HAL_Driver/Src/stm32g4xx_ll_exti.c **** 
 431              		.loc 1 124 12 view .LVU120
 432 00e8 B9E7     		b	.L12
 433              	.LVL33:
 434              	.L17:
 205:Drivers/STM32G4xx_HAL_Driver/Src/stm32g4xx_ll_exti.c ****           /* Then Enable Event on provided Lines */
 435              		.loc 1 205 11 is_stmt 1 view .LVU121
 436              	.LBB82:
 437              	.LBI82:
 415:Drivers/STM32G4xx_HAL_Driver/Inc/stm32g4xx_ll_exti.h **** {
 438              		.loc 2 415 22 view .LVU122
 439              	.LBB83:
 417:Drivers/STM32G4xx_HAL_Driver/Inc/stm32g4xx_ll_exti.h **** }
 440              		.loc 2 417 3 view .LVU123
 441 00ea 2049     		ldr	r1, .L47
 442 00ec 0C6A     		ldr	r4, [r1, #32]
 443 00ee 24EA0202 		bic	r2, r4, r2
 444              	.LVL34:
 417:Drivers/STM32G4xx_HAL_Driver/Inc/stm32g4xx_ll_exti.h **** }
 445              		.loc 2 417 3 is_stmt 0 view .LVU124
 446 00f2 98E7     		b	.L41
 447              	.LVL35:
 448              	.L9:
 417:Drivers/STM32G4xx_HAL_Driver/Inc/stm32g4xx_ll_exti.h **** }
 449              		.loc 2 417 3 view .LVU125
ARM GAS  D:\apps\VSCode\data\tmp\cc6Ljmfb.s 			page 26


 450              	.LBE83:
 451              	.LBE82:
 150:Drivers/STM32G4xx_HAL_Driver/Src/stm32g4xx_ll_exti.c ****           /* Then Enable Event on provided Lines */
 452              		.loc 1 150 11 is_stmt 1 view .LVU126
 453              	.LBB84:
 454              	.LBI84:
 388:Drivers/STM32G4xx_HAL_Driver/Inc/stm32g4xx_ll_exti.h **** {
 455              		.loc 2 388 22 view .LVU127
 456              	.LBB85:
 390:Drivers/STM32G4xx_HAL_Driver/Inc/stm32g4xx_ll_exti.h **** }
 457              		.loc 2 390 3 view .LVU128
 458 00f4 1D4A     		ldr	r2, .L47
 459 00f6 1168     		ldr	r1, [r2]
 460 00f8 21EA0000 		bic	r0, r1, r0
 461              	.LVL36:
 390:Drivers/STM32G4xx_HAL_Driver/Inc/stm32g4xx_ll_exti.h **** }
 462              		.loc 2 390 3 is_stmt 0 view .LVU129
 463 00fc D9E7     		b	.L39
 464              	.LVL37:
 465              	.L13:
 390:Drivers/STM32G4xx_HAL_Driver/Inc/stm32g4xx_ll_exti.h **** }
 466              		.loc 2 390 3 view .LVU130
 467              	.LBE85:
 468              	.LBE84:
 176:Drivers/STM32G4xx_HAL_Driver/Src/stm32g4xx_ll_exti.c ****             /* Then Enable Falling Trigger on provided Lines */
 469              		.loc 1 176 13 is_stmt 1 view .LVU131
 470              	.LBB86:
 471              	.LBI86:
 643:Drivers/STM32G4xx_HAL_Driver/Inc/stm32g4xx_ll_exti.h **** }
 644:Drivers/STM32G4xx_HAL_Driver/Inc/stm32g4xx_ll_exti.h **** 
 645:Drivers/STM32G4xx_HAL_Driver/Inc/stm32g4xx_ll_exti.h **** /**
 646:Drivers/STM32G4xx_HAL_Driver/Inc/stm32g4xx_ll_exti.h ****   * @brief  Indicate if ExtiLine Event request is enabled for Lines in range 0 to 31
 647:Drivers/STM32G4xx_HAL_Driver/Inc/stm32g4xx_ll_exti.h ****   * @rmtoll EMR1         EMx           LL_EXTI_IsEnabledEvent_0_31
 648:Drivers/STM32G4xx_HAL_Driver/Inc/stm32g4xx_ll_exti.h ****   * @param  ExtiLine This parameter can be one of the following values:
 649:Drivers/STM32G4xx_HAL_Driver/Inc/stm32g4xx_ll_exti.h ****   *         @arg @ref LL_EXTI_LINE_0
 650:Drivers/STM32G4xx_HAL_Driver/Inc/stm32g4xx_ll_exti.h ****   *         @arg @ref LL_EXTI_LINE_1
 651:Drivers/STM32G4xx_HAL_Driver/Inc/stm32g4xx_ll_exti.h ****   *         @arg @ref LL_EXTI_LINE_2
 652:Drivers/STM32G4xx_HAL_Driver/Inc/stm32g4xx_ll_exti.h ****   *         @arg @ref LL_EXTI_LINE_3
 653:Drivers/STM32G4xx_HAL_Driver/Inc/stm32g4xx_ll_exti.h ****   *         @arg @ref LL_EXTI_LINE_4
 654:Drivers/STM32G4xx_HAL_Driver/Inc/stm32g4xx_ll_exti.h ****   *         @arg @ref LL_EXTI_LINE_5
 655:Drivers/STM32G4xx_HAL_Driver/Inc/stm32g4xx_ll_exti.h ****   *         @arg @ref LL_EXTI_LINE_6
 656:Drivers/STM32G4xx_HAL_Driver/Inc/stm32g4xx_ll_exti.h ****   *         @arg @ref LL_EXTI_LINE_7
 657:Drivers/STM32G4xx_HAL_Driver/Inc/stm32g4xx_ll_exti.h ****   *         @arg @ref LL_EXTI_LINE_8
 658:Drivers/STM32G4xx_HAL_Driver/Inc/stm32g4xx_ll_exti.h ****   *         @arg @ref LL_EXTI_LINE_9
 659:Drivers/STM32G4xx_HAL_Driver/Inc/stm32g4xx_ll_exti.h ****   *         @arg @ref LL_EXTI_LINE_10
 660:Drivers/STM32G4xx_HAL_Driver/Inc/stm32g4xx_ll_exti.h ****   *         @arg @ref LL_EXTI_LINE_11
 661:Drivers/STM32G4xx_HAL_Driver/Inc/stm32g4xx_ll_exti.h ****   *         @arg @ref LL_EXTI_LINE_12
 662:Drivers/STM32G4xx_HAL_Driver/Inc/stm32g4xx_ll_exti.h ****   *         @arg @ref LL_EXTI_LINE_13
 663:Drivers/STM32G4xx_HAL_Driver/Inc/stm32g4xx_ll_exti.h ****   *         @arg @ref LL_EXTI_LINE_14
 664:Drivers/STM32G4xx_HAL_Driver/Inc/stm32g4xx_ll_exti.h ****   *         @arg @ref LL_EXTI_LINE_15
 665:Drivers/STM32G4xx_HAL_Driver/Inc/stm32g4xx_ll_exti.h ****   *         @arg @ref LL_EXTI_LINE_16
 666:Drivers/STM32G4xx_HAL_Driver/Inc/stm32g4xx_ll_exti.h ****   *         @arg @ref LL_EXTI_LINE_17
 667:Drivers/STM32G4xx_HAL_Driver/Inc/stm32g4xx_ll_exti.h ****   *         @arg @ref LL_EXTI_LINE_18
 668:Drivers/STM32G4xx_HAL_Driver/Inc/stm32g4xx_ll_exti.h ****   *         @arg @ref LL_EXTI_LINE_19
 669:Drivers/STM32G4xx_HAL_Driver/Inc/stm32g4xx_ll_exti.h ****   *         @arg @ref LL_EXTI_LINE_20
 670:Drivers/STM32G4xx_HAL_Driver/Inc/stm32g4xx_ll_exti.h ****   *         @arg @ref LL_EXTI_LINE_21
 671:Drivers/STM32G4xx_HAL_Driver/Inc/stm32g4xx_ll_exti.h ****   *         @arg @ref LL_EXTI_LINE_22
ARM GAS  D:\apps\VSCode\data\tmp\cc6Ljmfb.s 			page 27


 672:Drivers/STM32G4xx_HAL_Driver/Inc/stm32g4xx_ll_exti.h ****   *         @arg @ref LL_EXTI_LINE_23
 673:Drivers/STM32G4xx_HAL_Driver/Inc/stm32g4xx_ll_exti.h ****   *         @arg @ref LL_EXTI_LINE_24
 674:Drivers/STM32G4xx_HAL_Driver/Inc/stm32g4xx_ll_exti.h ****   *         @arg @ref LL_EXTI_LINE_25
 675:Drivers/STM32G4xx_HAL_Driver/Inc/stm32g4xx_ll_exti.h ****   *         @arg @ref LL_EXTI_LINE_26
 676:Drivers/STM32G4xx_HAL_Driver/Inc/stm32g4xx_ll_exti.h ****   *         @arg @ref LL_EXTI_LINE_27
 677:Drivers/STM32G4xx_HAL_Driver/Inc/stm32g4xx_ll_exti.h ****   *         @arg @ref LL_EXTI_LINE_28
 678:Drivers/STM32G4xx_HAL_Driver/Inc/stm32g4xx_ll_exti.h ****   *         @arg @ref LL_EXTI_LINE_29
 679:Drivers/STM32G4xx_HAL_Driver/Inc/stm32g4xx_ll_exti.h ****   *         @arg @ref LL_EXTI_LINE_30
 680:Drivers/STM32G4xx_HAL_Driver/Inc/stm32g4xx_ll_exti.h ****   *         @arg @ref LL_EXTI_LINE_31
 681:Drivers/STM32G4xx_HAL_Driver/Inc/stm32g4xx_ll_exti.h ****   *         @arg @ref LL_EXTI_LINE_ALL_0_31 (*)
 682:Drivers/STM32G4xx_HAL_Driver/Inc/stm32g4xx_ll_exti.h ****   * @note   (*): Available in some devices
 683:Drivers/STM32G4xx_HAL_Driver/Inc/stm32g4xx_ll_exti.h ****   * @note   Please check each device line mapping for EXTI Line availability
 684:Drivers/STM32G4xx_HAL_Driver/Inc/stm32g4xx_ll_exti.h ****   * @retval State of bit (1 or 0).
 685:Drivers/STM32G4xx_HAL_Driver/Inc/stm32g4xx_ll_exti.h ****   */
 686:Drivers/STM32G4xx_HAL_Driver/Inc/stm32g4xx_ll_exti.h **** __STATIC_INLINE uint32_t LL_EXTI_IsEnabledEvent_0_31(uint32_t ExtiLine)
 687:Drivers/STM32G4xx_HAL_Driver/Inc/stm32g4xx_ll_exti.h **** {
 688:Drivers/STM32G4xx_HAL_Driver/Inc/stm32g4xx_ll_exti.h ****   return ((READ_BIT(EXTI->EMR1, ExtiLine) == (ExtiLine)) ? 1UL : 0UL);
 689:Drivers/STM32G4xx_HAL_Driver/Inc/stm32g4xx_ll_exti.h **** 
 690:Drivers/STM32G4xx_HAL_Driver/Inc/stm32g4xx_ll_exti.h **** }
 691:Drivers/STM32G4xx_HAL_Driver/Inc/stm32g4xx_ll_exti.h **** 
 692:Drivers/STM32G4xx_HAL_Driver/Inc/stm32g4xx_ll_exti.h **** /**
 693:Drivers/STM32G4xx_HAL_Driver/Inc/stm32g4xx_ll_exti.h ****   * @brief  Indicate if ExtiLine Event request is enabled for Lines in range 32 to 63
 694:Drivers/STM32G4xx_HAL_Driver/Inc/stm32g4xx_ll_exti.h ****   * @rmtoll EMR2         EMx           LL_EXTI_IsEnabledEvent_32_63
 695:Drivers/STM32G4xx_HAL_Driver/Inc/stm32g4xx_ll_exti.h ****   * @param  ExtiLine This parameter can be a combination of the following values:
 696:Drivers/STM32G4xx_HAL_Driver/Inc/stm32g4xx_ll_exti.h ****   *         @arg @ref LL_EXTI_LINE_32 (*)
 697:Drivers/STM32G4xx_HAL_Driver/Inc/stm32g4xx_ll_exti.h ****   *         @arg @ref LL_EXTI_LINE_33 (*)
 698:Drivers/STM32G4xx_HAL_Driver/Inc/stm32g4xx_ll_exti.h ****   *         @arg @ref LL_EXTI_LINE_34
 699:Drivers/STM32G4xx_HAL_Driver/Inc/stm32g4xx_ll_exti.h ****   *         @arg @ref LL_EXTI_LINE_35 (*)
 700:Drivers/STM32G4xx_HAL_Driver/Inc/stm32g4xx_ll_exti.h ****   *         @arg @ref LL_EXTI_LINE_36
 701:Drivers/STM32G4xx_HAL_Driver/Inc/stm32g4xx_ll_exti.h ****   *         @arg @ref LL_EXTI_LINE_37
 702:Drivers/STM32G4xx_HAL_Driver/Inc/stm32g4xx_ll_exti.h ****   *         @arg @ref LL_EXTI_LINE_38
 703:Drivers/STM32G4xx_HAL_Driver/Inc/stm32g4xx_ll_exti.h ****   *         @arg @ref LL_EXTI_LINE_39
 704:Drivers/STM32G4xx_HAL_Driver/Inc/stm32g4xx_ll_exti.h ****   *         @arg @ref LL_EXTI_LINE_40
 705:Drivers/STM32G4xx_HAL_Driver/Inc/stm32g4xx_ll_exti.h ****   *         @arg @ref LL_EXTI_LINE_41
 706:Drivers/STM32G4xx_HAL_Driver/Inc/stm32g4xx_ll_exti.h ****   *         @arg @ref LL_EXTI_LINE_42(*)
 707:Drivers/STM32G4xx_HAL_Driver/Inc/stm32g4xx_ll_exti.h ****   *         @arg @ref LL_EXTI_LINE_ALL_32_63
 708:Drivers/STM32G4xx_HAL_Driver/Inc/stm32g4xx_ll_exti.h ****   * @note   (*): Available in some devices
 709:Drivers/STM32G4xx_HAL_Driver/Inc/stm32g4xx_ll_exti.h ****   * @retval State of bit (1 or 0).
 710:Drivers/STM32G4xx_HAL_Driver/Inc/stm32g4xx_ll_exti.h ****   */
 711:Drivers/STM32G4xx_HAL_Driver/Inc/stm32g4xx_ll_exti.h **** __STATIC_INLINE uint32_t LL_EXTI_IsEnabledEvent_32_63(uint32_t ExtiLine)
 712:Drivers/STM32G4xx_HAL_Driver/Inc/stm32g4xx_ll_exti.h **** {
 713:Drivers/STM32G4xx_HAL_Driver/Inc/stm32g4xx_ll_exti.h ****   return ((READ_BIT(EXTI->EMR2, ExtiLine) == (ExtiLine)) ? 1UL : 0UL);
 714:Drivers/STM32G4xx_HAL_Driver/Inc/stm32g4xx_ll_exti.h **** }
 715:Drivers/STM32G4xx_HAL_Driver/Inc/stm32g4xx_ll_exti.h **** 
 716:Drivers/STM32G4xx_HAL_Driver/Inc/stm32g4xx_ll_exti.h **** /**
 717:Drivers/STM32G4xx_HAL_Driver/Inc/stm32g4xx_ll_exti.h ****   * @}
 718:Drivers/STM32G4xx_HAL_Driver/Inc/stm32g4xx_ll_exti.h ****   */
 719:Drivers/STM32G4xx_HAL_Driver/Inc/stm32g4xx_ll_exti.h **** 
 720:Drivers/STM32G4xx_HAL_Driver/Inc/stm32g4xx_ll_exti.h **** /** @defgroup EXTI_LL_EF_Rising_Trigger_Management Rising_Trigger_Management
 721:Drivers/STM32G4xx_HAL_Driver/Inc/stm32g4xx_ll_exti.h ****   * @{
 722:Drivers/STM32G4xx_HAL_Driver/Inc/stm32g4xx_ll_exti.h ****   */
 723:Drivers/STM32G4xx_HAL_Driver/Inc/stm32g4xx_ll_exti.h **** 
 724:Drivers/STM32G4xx_HAL_Driver/Inc/stm32g4xx_ll_exti.h **** /**
 725:Drivers/STM32G4xx_HAL_Driver/Inc/stm32g4xx_ll_exti.h ****   * @brief  Enable ExtiLine Rising Edge Trigger for Lines in range 0 to 31
 726:Drivers/STM32G4xx_HAL_Driver/Inc/stm32g4xx_ll_exti.h ****   * @note The configurable wakeup lines are edge-triggered. No glitch must be
 727:Drivers/STM32G4xx_HAL_Driver/Inc/stm32g4xx_ll_exti.h ****   *       generated on these lines. If a rising edge on a configurable interrupt
 728:Drivers/STM32G4xx_HAL_Driver/Inc/stm32g4xx_ll_exti.h ****   *       line occurs during a write operation in the EXTI_RTSR register, the
ARM GAS  D:\apps\VSCode\data\tmp\cc6Ljmfb.s 			page 28


 729:Drivers/STM32G4xx_HAL_Driver/Inc/stm32g4xx_ll_exti.h ****   *       pending bit is not set.
 730:Drivers/STM32G4xx_HAL_Driver/Inc/stm32g4xx_ll_exti.h ****   *       Rising and falling edge triggers can be set for
 731:Drivers/STM32G4xx_HAL_Driver/Inc/stm32g4xx_ll_exti.h ****   *       the same interrupt line. In this case, both generate a trigger
 732:Drivers/STM32G4xx_HAL_Driver/Inc/stm32g4xx_ll_exti.h ****   *       condition.
 733:Drivers/STM32G4xx_HAL_Driver/Inc/stm32g4xx_ll_exti.h ****   * @rmtoll RTSR1        RTx           LL_EXTI_EnableRisingTrig_0_31
 734:Drivers/STM32G4xx_HAL_Driver/Inc/stm32g4xx_ll_exti.h ****   * @param  ExtiLine This parameter can be a combination of the following values:
 735:Drivers/STM32G4xx_HAL_Driver/Inc/stm32g4xx_ll_exti.h ****   *         @arg @ref LL_EXTI_LINE_0
 736:Drivers/STM32G4xx_HAL_Driver/Inc/stm32g4xx_ll_exti.h ****   *         @arg @ref LL_EXTI_LINE_1
 737:Drivers/STM32G4xx_HAL_Driver/Inc/stm32g4xx_ll_exti.h ****   *         @arg @ref LL_EXTI_LINE_2
 738:Drivers/STM32G4xx_HAL_Driver/Inc/stm32g4xx_ll_exti.h ****   *         @arg @ref LL_EXTI_LINE_3
 739:Drivers/STM32G4xx_HAL_Driver/Inc/stm32g4xx_ll_exti.h ****   *         @arg @ref LL_EXTI_LINE_4
 740:Drivers/STM32G4xx_HAL_Driver/Inc/stm32g4xx_ll_exti.h ****   *         @arg @ref LL_EXTI_LINE_5
 741:Drivers/STM32G4xx_HAL_Driver/Inc/stm32g4xx_ll_exti.h ****   *         @arg @ref LL_EXTI_LINE_6
 742:Drivers/STM32G4xx_HAL_Driver/Inc/stm32g4xx_ll_exti.h ****   *         @arg @ref LL_EXTI_LINE_7
 743:Drivers/STM32G4xx_HAL_Driver/Inc/stm32g4xx_ll_exti.h ****   *         @arg @ref LL_EXTI_LINE_8
 744:Drivers/STM32G4xx_HAL_Driver/Inc/stm32g4xx_ll_exti.h ****   *         @arg @ref LL_EXTI_LINE_9
 745:Drivers/STM32G4xx_HAL_Driver/Inc/stm32g4xx_ll_exti.h ****   *         @arg @ref LL_EXTI_LINE_10
 746:Drivers/STM32G4xx_HAL_Driver/Inc/stm32g4xx_ll_exti.h ****   *         @arg @ref LL_EXTI_LINE_11
 747:Drivers/STM32G4xx_HAL_Driver/Inc/stm32g4xx_ll_exti.h ****   *         @arg @ref LL_EXTI_LINE_12
 748:Drivers/STM32G4xx_HAL_Driver/Inc/stm32g4xx_ll_exti.h ****   *         @arg @ref LL_EXTI_LINE_13
 749:Drivers/STM32G4xx_HAL_Driver/Inc/stm32g4xx_ll_exti.h ****   *         @arg @ref LL_EXTI_LINE_14
 750:Drivers/STM32G4xx_HAL_Driver/Inc/stm32g4xx_ll_exti.h ****   *         @arg @ref LL_EXTI_LINE_15
 751:Drivers/STM32G4xx_HAL_Driver/Inc/stm32g4xx_ll_exti.h ****   *         @arg @ref LL_EXTI_LINE_16
 752:Drivers/STM32G4xx_HAL_Driver/Inc/stm32g4xx_ll_exti.h ****   *         @arg @ref LL_EXTI_LINE_18
 753:Drivers/STM32G4xx_HAL_Driver/Inc/stm32g4xx_ll_exti.h ****   *         @arg @ref LL_EXTI_LINE_19
 754:Drivers/STM32G4xx_HAL_Driver/Inc/stm32g4xx_ll_exti.h ****   *         @arg @ref LL_EXTI_LINE_20
 755:Drivers/STM32G4xx_HAL_Driver/Inc/stm32g4xx_ll_exti.h ****   *         @arg @ref LL_EXTI_LINE_21
 756:Drivers/STM32G4xx_HAL_Driver/Inc/stm32g4xx_ll_exti.h ****   *         @arg @ref LL_EXTI_LINE_22
 757:Drivers/STM32G4xx_HAL_Driver/Inc/stm32g4xx_ll_exti.h ****   *         @arg @ref LL_EXTI_LINE_29
 758:Drivers/STM32G4xx_HAL_Driver/Inc/stm32g4xx_ll_exti.h ****   *         @arg @ref LL_EXTI_LINE_30
 759:Drivers/STM32G4xx_HAL_Driver/Inc/stm32g4xx_ll_exti.h ****   *         @arg @ref LL_EXTI_LINE_31 (*)
 760:Drivers/STM32G4xx_HAL_Driver/Inc/stm32g4xx_ll_exti.h ****   * @note   (*): Available in some devices
 761:Drivers/STM32G4xx_HAL_Driver/Inc/stm32g4xx_ll_exti.h ****   * @note   Please check each device line mapping for EXTI Line availability
 762:Drivers/STM32G4xx_HAL_Driver/Inc/stm32g4xx_ll_exti.h ****   * @retval None
 763:Drivers/STM32G4xx_HAL_Driver/Inc/stm32g4xx_ll_exti.h ****   */
 764:Drivers/STM32G4xx_HAL_Driver/Inc/stm32g4xx_ll_exti.h **** __STATIC_INLINE void LL_EXTI_EnableRisingTrig_0_31(uint32_t ExtiLine)
 765:Drivers/STM32G4xx_HAL_Driver/Inc/stm32g4xx_ll_exti.h **** {
 766:Drivers/STM32G4xx_HAL_Driver/Inc/stm32g4xx_ll_exti.h ****   SET_BIT(EXTI->RTSR1, ExtiLine);
 767:Drivers/STM32G4xx_HAL_Driver/Inc/stm32g4xx_ll_exti.h **** 
 768:Drivers/STM32G4xx_HAL_Driver/Inc/stm32g4xx_ll_exti.h **** }
 769:Drivers/STM32G4xx_HAL_Driver/Inc/stm32g4xx_ll_exti.h **** 
 770:Drivers/STM32G4xx_HAL_Driver/Inc/stm32g4xx_ll_exti.h **** /**
 771:Drivers/STM32G4xx_HAL_Driver/Inc/stm32g4xx_ll_exti.h ****   * @brief  Enable ExtiLine Rising Edge Trigger for Lines in range 32 to 63
 772:Drivers/STM32G4xx_HAL_Driver/Inc/stm32g4xx_ll_exti.h ****   * @note The configurable wakeup lines are edge-triggered. No glitch must be
 773:Drivers/STM32G4xx_HAL_Driver/Inc/stm32g4xx_ll_exti.h ****   *       generated on these lines. If a rising edge on a configurable interrupt
 774:Drivers/STM32G4xx_HAL_Driver/Inc/stm32g4xx_ll_exti.h ****   *       line occurs during a write operation in the EXTI_RTSR register, the
 775:Drivers/STM32G4xx_HAL_Driver/Inc/stm32g4xx_ll_exti.h ****   *       pending bit is not set.Rising and falling edge triggers can be set for
 776:Drivers/STM32G4xx_HAL_Driver/Inc/stm32g4xx_ll_exti.h ****   *       the same interrupt line. In this case, both generate a trigger
 777:Drivers/STM32G4xx_HAL_Driver/Inc/stm32g4xx_ll_exti.h ****   *       condition.
 778:Drivers/STM32G4xx_HAL_Driver/Inc/stm32g4xx_ll_exti.h ****   * @rmtoll RTSR2        RTx           LL_EXTI_EnableRisingTrig_32_63
 779:Drivers/STM32G4xx_HAL_Driver/Inc/stm32g4xx_ll_exti.h ****   * @param  ExtiLine This parameter can be a combination of the following values:
 780:Drivers/STM32G4xx_HAL_Driver/Inc/stm32g4xx_ll_exti.h ****   *         @arg @ref LL_EXTI_LINE_32 (*)
 781:Drivers/STM32G4xx_HAL_Driver/Inc/stm32g4xx_ll_exti.h ****   *         @arg @ref LL_EXTI_LINE_33 (*)
 782:Drivers/STM32G4xx_HAL_Driver/Inc/stm32g4xx_ll_exti.h ****   *         @arg @ref LL_EXTI_LINE_38
 783:Drivers/STM32G4xx_HAL_Driver/Inc/stm32g4xx_ll_exti.h ****   *         @arg @ref LL_EXTI_LINE_39
 784:Drivers/STM32G4xx_HAL_Driver/Inc/stm32g4xx_ll_exti.h ****   *         @arg @ref LL_EXTI_LINE_40
 785:Drivers/STM32G4xx_HAL_Driver/Inc/stm32g4xx_ll_exti.h ****   *         @arg @ref LL_EXTI_LINE_41
ARM GAS  D:\apps\VSCode\data\tmp\cc6Ljmfb.s 			page 29


 786:Drivers/STM32G4xx_HAL_Driver/Inc/stm32g4xx_ll_exti.h ****   * @note   (*): Available in some devices
 787:Drivers/STM32G4xx_HAL_Driver/Inc/stm32g4xx_ll_exti.h ****   * @retval None
 788:Drivers/STM32G4xx_HAL_Driver/Inc/stm32g4xx_ll_exti.h ****   */
 789:Drivers/STM32G4xx_HAL_Driver/Inc/stm32g4xx_ll_exti.h **** __STATIC_INLINE void LL_EXTI_EnableRisingTrig_32_63(uint32_t ExtiLine)
 790:Drivers/STM32G4xx_HAL_Driver/Inc/stm32g4xx_ll_exti.h **** {
 791:Drivers/STM32G4xx_HAL_Driver/Inc/stm32g4xx_ll_exti.h ****   SET_BIT(EXTI->RTSR2, ExtiLine);
 792:Drivers/STM32G4xx_HAL_Driver/Inc/stm32g4xx_ll_exti.h **** }
 793:Drivers/STM32G4xx_HAL_Driver/Inc/stm32g4xx_ll_exti.h **** 
 794:Drivers/STM32G4xx_HAL_Driver/Inc/stm32g4xx_ll_exti.h **** /**
 795:Drivers/STM32G4xx_HAL_Driver/Inc/stm32g4xx_ll_exti.h ****   * @brief  Disable ExtiLine Rising Edge Trigger for Lines in range 0 to 31
 796:Drivers/STM32G4xx_HAL_Driver/Inc/stm32g4xx_ll_exti.h ****   * @note The configurable wakeup lines are edge-triggered. No glitch must be
 797:Drivers/STM32G4xx_HAL_Driver/Inc/stm32g4xx_ll_exti.h ****   *       generated on these lines. If a rising edge on a configurable interrupt
 798:Drivers/STM32G4xx_HAL_Driver/Inc/stm32g4xx_ll_exti.h ****   *       line occurs during a write operation in the EXTI_RTSR register, the
 799:Drivers/STM32G4xx_HAL_Driver/Inc/stm32g4xx_ll_exti.h ****   *       pending bit is not set.
 800:Drivers/STM32G4xx_HAL_Driver/Inc/stm32g4xx_ll_exti.h ****   *       Rising and falling edge triggers can be set for
 801:Drivers/STM32G4xx_HAL_Driver/Inc/stm32g4xx_ll_exti.h ****   *       the same interrupt line. In this case, both generate a trigger
 802:Drivers/STM32G4xx_HAL_Driver/Inc/stm32g4xx_ll_exti.h ****   *       condition.
 803:Drivers/STM32G4xx_HAL_Driver/Inc/stm32g4xx_ll_exti.h ****   * @rmtoll RTSR1        RTx           LL_EXTI_DisableRisingTrig_0_31
 804:Drivers/STM32G4xx_HAL_Driver/Inc/stm32g4xx_ll_exti.h ****   * @param  ExtiLine This parameter can be a combination of the following values:
 805:Drivers/STM32G4xx_HAL_Driver/Inc/stm32g4xx_ll_exti.h ****   *         @arg @ref LL_EXTI_LINE_0
 806:Drivers/STM32G4xx_HAL_Driver/Inc/stm32g4xx_ll_exti.h ****   *         @arg @ref LL_EXTI_LINE_1
 807:Drivers/STM32G4xx_HAL_Driver/Inc/stm32g4xx_ll_exti.h ****   *         @arg @ref LL_EXTI_LINE_2
 808:Drivers/STM32G4xx_HAL_Driver/Inc/stm32g4xx_ll_exti.h ****   *         @arg @ref LL_EXTI_LINE_3
 809:Drivers/STM32G4xx_HAL_Driver/Inc/stm32g4xx_ll_exti.h ****   *         @arg @ref LL_EXTI_LINE_4
 810:Drivers/STM32G4xx_HAL_Driver/Inc/stm32g4xx_ll_exti.h ****   *         @arg @ref LL_EXTI_LINE_5
 811:Drivers/STM32G4xx_HAL_Driver/Inc/stm32g4xx_ll_exti.h ****   *         @arg @ref LL_EXTI_LINE_6
 812:Drivers/STM32G4xx_HAL_Driver/Inc/stm32g4xx_ll_exti.h ****   *         @arg @ref LL_EXTI_LINE_7
 813:Drivers/STM32G4xx_HAL_Driver/Inc/stm32g4xx_ll_exti.h ****   *         @arg @ref LL_EXTI_LINE_8
 814:Drivers/STM32G4xx_HAL_Driver/Inc/stm32g4xx_ll_exti.h ****   *         @arg @ref LL_EXTI_LINE_9
 815:Drivers/STM32G4xx_HAL_Driver/Inc/stm32g4xx_ll_exti.h ****   *         @arg @ref LL_EXTI_LINE_10
 816:Drivers/STM32G4xx_HAL_Driver/Inc/stm32g4xx_ll_exti.h ****   *         @arg @ref LL_EXTI_LINE_11
 817:Drivers/STM32G4xx_HAL_Driver/Inc/stm32g4xx_ll_exti.h ****   *         @arg @ref LL_EXTI_LINE_12
 818:Drivers/STM32G4xx_HAL_Driver/Inc/stm32g4xx_ll_exti.h ****   *         @arg @ref LL_EXTI_LINE_13
 819:Drivers/STM32G4xx_HAL_Driver/Inc/stm32g4xx_ll_exti.h ****   *         @arg @ref LL_EXTI_LINE_14
 820:Drivers/STM32G4xx_HAL_Driver/Inc/stm32g4xx_ll_exti.h ****   *         @arg @ref LL_EXTI_LINE_15
 821:Drivers/STM32G4xx_HAL_Driver/Inc/stm32g4xx_ll_exti.h ****   *         @arg @ref LL_EXTI_LINE_16
 822:Drivers/STM32G4xx_HAL_Driver/Inc/stm32g4xx_ll_exti.h ****   *         @arg @ref LL_EXTI_LINE_18
 823:Drivers/STM32G4xx_HAL_Driver/Inc/stm32g4xx_ll_exti.h ****   *         @arg @ref LL_EXTI_LINE_19
 824:Drivers/STM32G4xx_HAL_Driver/Inc/stm32g4xx_ll_exti.h ****   *         @arg @ref LL_EXTI_LINE_20
 825:Drivers/STM32G4xx_HAL_Driver/Inc/stm32g4xx_ll_exti.h ****   *         @arg @ref LL_EXTI_LINE_21
 826:Drivers/STM32G4xx_HAL_Driver/Inc/stm32g4xx_ll_exti.h ****   *         @arg @ref LL_EXTI_LINE_22
 827:Drivers/STM32G4xx_HAL_Driver/Inc/stm32g4xx_ll_exti.h ****   *         @arg @ref LL_EXTI_LINE_29
 828:Drivers/STM32G4xx_HAL_Driver/Inc/stm32g4xx_ll_exti.h ****   *         @arg @ref LL_EXTI_LINE_30
 829:Drivers/STM32G4xx_HAL_Driver/Inc/stm32g4xx_ll_exti.h ****   *         @arg @ref LL_EXTI_LINE_31 (*)
 830:Drivers/STM32G4xx_HAL_Driver/Inc/stm32g4xx_ll_exti.h ****   * @note   (*): Available in some devices
 831:Drivers/STM32G4xx_HAL_Driver/Inc/stm32g4xx_ll_exti.h ****   * @note   Please check each device line mapping for EXTI Line availability
 832:Drivers/STM32G4xx_HAL_Driver/Inc/stm32g4xx_ll_exti.h ****   * @retval None
 833:Drivers/STM32G4xx_HAL_Driver/Inc/stm32g4xx_ll_exti.h ****   */
 834:Drivers/STM32G4xx_HAL_Driver/Inc/stm32g4xx_ll_exti.h **** __STATIC_INLINE void LL_EXTI_DisableRisingTrig_0_31(uint32_t ExtiLine)
 472              		.loc 2 834 22 view .LVU132
 473              	.LBB87:
 835:Drivers/STM32G4xx_HAL_Driver/Inc/stm32g4xx_ll_exti.h **** {
 836:Drivers/STM32G4xx_HAL_Driver/Inc/stm32g4xx_ll_exti.h ****   CLEAR_BIT(EXTI->RTSR1, ExtiLine);
 474              		.loc 2 836 3 view .LVU133
 475 00fe 1B4A     		ldr	r2, .L47
 476 0100 1C68     		ldr	r4, [r3]
 477 0102 9168     		ldr	r1, [r2, #8]
ARM GAS  D:\apps\VSCode\data\tmp\cc6Ljmfb.s 			page 30


 478 0104 21EA0401 		bic	r1, r1, r4
 479              	.LVL38:
 480              	.L40:
 481              		.loc 2 836 3 is_stmt 0 view .LVU134
 482              	.LBE87:
 483              	.LBE86:
 484              	.LBB88:
 485              	.LBB89:
 766:Drivers/STM32G4xx_HAL_Driver/Inc/stm32g4xx_ll_exti.h **** 
 486              		.loc 2 766 3 view .LVU135
 487 0108 9160     		str	r1, [r2, #8]
 488              	.LBE89:
 489              	.LBE88:
 184:Drivers/STM32G4xx_HAL_Driver/Src/stm32g4xx_ll_exti.c ****             break;
 490              		.loc 1 184 13 is_stmt 1 view .LVU136
 491              	.LVL39:
 492              	.LBB91:
 493              	.LBI91:
 837:Drivers/STM32G4xx_HAL_Driver/Inc/stm32g4xx_ll_exti.h **** 
 838:Drivers/STM32G4xx_HAL_Driver/Inc/stm32g4xx_ll_exti.h **** }
 839:Drivers/STM32G4xx_HAL_Driver/Inc/stm32g4xx_ll_exti.h **** 
 840:Drivers/STM32G4xx_HAL_Driver/Inc/stm32g4xx_ll_exti.h **** /**
 841:Drivers/STM32G4xx_HAL_Driver/Inc/stm32g4xx_ll_exti.h ****   * @brief  Disable ExtiLine Rising Edge Trigger for Lines in range 32 to 63
 842:Drivers/STM32G4xx_HAL_Driver/Inc/stm32g4xx_ll_exti.h ****   * @note The configurable wakeup lines are edge-triggered. No glitch must be
 843:Drivers/STM32G4xx_HAL_Driver/Inc/stm32g4xx_ll_exti.h ****   *       generated on these lines. If a rising edge on a configurable interrupt
 844:Drivers/STM32G4xx_HAL_Driver/Inc/stm32g4xx_ll_exti.h ****   *       line occurs during a write operation in the EXTI_RTSR register, the
 845:Drivers/STM32G4xx_HAL_Driver/Inc/stm32g4xx_ll_exti.h ****   *       pending bit is not set.
 846:Drivers/STM32G4xx_HAL_Driver/Inc/stm32g4xx_ll_exti.h ****   *       Rising and falling edge triggers can be set for
 847:Drivers/STM32G4xx_HAL_Driver/Inc/stm32g4xx_ll_exti.h ****   *       the same interrupt line. In this case, both generate a trigger
 848:Drivers/STM32G4xx_HAL_Driver/Inc/stm32g4xx_ll_exti.h ****   *       condition.
 849:Drivers/STM32G4xx_HAL_Driver/Inc/stm32g4xx_ll_exti.h ****   * @rmtoll RTSR2        RTx           LL_EXTI_DisableRisingTrig_32_63
 850:Drivers/STM32G4xx_HAL_Driver/Inc/stm32g4xx_ll_exti.h ****   * @param  ExtiLine This parameter can be a combination of the following values:
 851:Drivers/STM32G4xx_HAL_Driver/Inc/stm32g4xx_ll_exti.h ****   *         @arg @ref LL_EXTI_LINE_32 (*)
 852:Drivers/STM32G4xx_HAL_Driver/Inc/stm32g4xx_ll_exti.h ****   *         @arg @ref LL_EXTI_LINE_33 (*)
 853:Drivers/STM32G4xx_HAL_Driver/Inc/stm32g4xx_ll_exti.h ****   *         @arg @ref LL_EXTI_LINE_38
 854:Drivers/STM32G4xx_HAL_Driver/Inc/stm32g4xx_ll_exti.h ****   *         @arg @ref LL_EXTI_LINE_39
 855:Drivers/STM32G4xx_HAL_Driver/Inc/stm32g4xx_ll_exti.h ****   *         @arg @ref LL_EXTI_LINE_40
 856:Drivers/STM32G4xx_HAL_Driver/Inc/stm32g4xx_ll_exti.h ****   *         @arg @ref LL_EXTI_LINE_41
 857:Drivers/STM32G4xx_HAL_Driver/Inc/stm32g4xx_ll_exti.h ****   * @note   (*): Available in some devices
 858:Drivers/STM32G4xx_HAL_Driver/Inc/stm32g4xx_ll_exti.h ****   * @retval None
 859:Drivers/STM32G4xx_HAL_Driver/Inc/stm32g4xx_ll_exti.h ****   */
 860:Drivers/STM32G4xx_HAL_Driver/Inc/stm32g4xx_ll_exti.h **** __STATIC_INLINE void LL_EXTI_DisableRisingTrig_32_63(uint32_t ExtiLine)
 861:Drivers/STM32G4xx_HAL_Driver/Inc/stm32g4xx_ll_exti.h **** {
 862:Drivers/STM32G4xx_HAL_Driver/Inc/stm32g4xx_ll_exti.h ****   CLEAR_BIT(EXTI->RTSR2, ExtiLine);
 863:Drivers/STM32G4xx_HAL_Driver/Inc/stm32g4xx_ll_exti.h **** }
 864:Drivers/STM32G4xx_HAL_Driver/Inc/stm32g4xx_ll_exti.h **** 
 865:Drivers/STM32G4xx_HAL_Driver/Inc/stm32g4xx_ll_exti.h **** /**
 866:Drivers/STM32G4xx_HAL_Driver/Inc/stm32g4xx_ll_exti.h ****   * @brief  Check if rising edge trigger is enabled for Lines in range 0 to 31
 867:Drivers/STM32G4xx_HAL_Driver/Inc/stm32g4xx_ll_exti.h ****   * @rmtoll RTSR1        RTx           LL_EXTI_IsEnabledRisingTrig_0_31
 868:Drivers/STM32G4xx_HAL_Driver/Inc/stm32g4xx_ll_exti.h ****   * @param  ExtiLine This parameter can be a combination of the following values:
 869:Drivers/STM32G4xx_HAL_Driver/Inc/stm32g4xx_ll_exti.h ****   *         @arg @ref LL_EXTI_LINE_0
 870:Drivers/STM32G4xx_HAL_Driver/Inc/stm32g4xx_ll_exti.h ****   *         @arg @ref LL_EXTI_LINE_1
 871:Drivers/STM32G4xx_HAL_Driver/Inc/stm32g4xx_ll_exti.h ****   *         @arg @ref LL_EXTI_LINE_2
 872:Drivers/STM32G4xx_HAL_Driver/Inc/stm32g4xx_ll_exti.h ****   *         @arg @ref LL_EXTI_LINE_3
 873:Drivers/STM32G4xx_HAL_Driver/Inc/stm32g4xx_ll_exti.h ****   *         @arg @ref LL_EXTI_LINE_4
 874:Drivers/STM32G4xx_HAL_Driver/Inc/stm32g4xx_ll_exti.h ****   *         @arg @ref LL_EXTI_LINE_5
 875:Drivers/STM32G4xx_HAL_Driver/Inc/stm32g4xx_ll_exti.h ****   *         @arg @ref LL_EXTI_LINE_6
ARM GAS  D:\apps\VSCode\data\tmp\cc6Ljmfb.s 			page 31


 876:Drivers/STM32G4xx_HAL_Driver/Inc/stm32g4xx_ll_exti.h ****   *         @arg @ref LL_EXTI_LINE_7
 877:Drivers/STM32G4xx_HAL_Driver/Inc/stm32g4xx_ll_exti.h ****   *         @arg @ref LL_EXTI_LINE_8
 878:Drivers/STM32G4xx_HAL_Driver/Inc/stm32g4xx_ll_exti.h ****   *         @arg @ref LL_EXTI_LINE_9
 879:Drivers/STM32G4xx_HAL_Driver/Inc/stm32g4xx_ll_exti.h ****   *         @arg @ref LL_EXTI_LINE_10
 880:Drivers/STM32G4xx_HAL_Driver/Inc/stm32g4xx_ll_exti.h ****   *         @arg @ref LL_EXTI_LINE_11
 881:Drivers/STM32G4xx_HAL_Driver/Inc/stm32g4xx_ll_exti.h ****   *         @arg @ref LL_EXTI_LINE_12
 882:Drivers/STM32G4xx_HAL_Driver/Inc/stm32g4xx_ll_exti.h ****   *         @arg @ref LL_EXTI_LINE_13
 883:Drivers/STM32G4xx_HAL_Driver/Inc/stm32g4xx_ll_exti.h ****   *         @arg @ref LL_EXTI_LINE_14
 884:Drivers/STM32G4xx_HAL_Driver/Inc/stm32g4xx_ll_exti.h ****   *         @arg @ref LL_EXTI_LINE_15
 885:Drivers/STM32G4xx_HAL_Driver/Inc/stm32g4xx_ll_exti.h ****   *         @arg @ref LL_EXTI_LINE_16
 886:Drivers/STM32G4xx_HAL_Driver/Inc/stm32g4xx_ll_exti.h ****   *         @arg @ref LL_EXTI_LINE_18
 887:Drivers/STM32G4xx_HAL_Driver/Inc/stm32g4xx_ll_exti.h ****   *         @arg @ref LL_EXTI_LINE_19
 888:Drivers/STM32G4xx_HAL_Driver/Inc/stm32g4xx_ll_exti.h ****   *         @arg @ref LL_EXTI_LINE_20
 889:Drivers/STM32G4xx_HAL_Driver/Inc/stm32g4xx_ll_exti.h ****   *         @arg @ref LL_EXTI_LINE_21
 890:Drivers/STM32G4xx_HAL_Driver/Inc/stm32g4xx_ll_exti.h ****   *         @arg @ref LL_EXTI_LINE_22
 891:Drivers/STM32G4xx_HAL_Driver/Inc/stm32g4xx_ll_exti.h ****   *         @arg @ref LL_EXTI_LINE_29
 892:Drivers/STM32G4xx_HAL_Driver/Inc/stm32g4xx_ll_exti.h ****   *         @arg @ref LL_EXTI_LINE_30
 893:Drivers/STM32G4xx_HAL_Driver/Inc/stm32g4xx_ll_exti.h ****   *         @arg @ref LL_EXTI_LINE_31 (*)
 894:Drivers/STM32G4xx_HAL_Driver/Inc/stm32g4xx_ll_exti.h ****   * @note   (*): Available in some devices
 895:Drivers/STM32G4xx_HAL_Driver/Inc/stm32g4xx_ll_exti.h ****   * @note   Please check each device line mapping for EXTI Line availability
 896:Drivers/STM32G4xx_HAL_Driver/Inc/stm32g4xx_ll_exti.h ****   * @retval State of bit (1 or 0).
 897:Drivers/STM32G4xx_HAL_Driver/Inc/stm32g4xx_ll_exti.h ****   */
 898:Drivers/STM32G4xx_HAL_Driver/Inc/stm32g4xx_ll_exti.h **** __STATIC_INLINE uint32_t LL_EXTI_IsEnabledRisingTrig_0_31(uint32_t ExtiLine)
 899:Drivers/STM32G4xx_HAL_Driver/Inc/stm32g4xx_ll_exti.h **** {
 900:Drivers/STM32G4xx_HAL_Driver/Inc/stm32g4xx_ll_exti.h ****   return ((READ_BIT(EXTI->RTSR1, ExtiLine) == (ExtiLine)) ? 1UL : 0UL);
 901:Drivers/STM32G4xx_HAL_Driver/Inc/stm32g4xx_ll_exti.h **** }
 902:Drivers/STM32G4xx_HAL_Driver/Inc/stm32g4xx_ll_exti.h **** 
 903:Drivers/STM32G4xx_HAL_Driver/Inc/stm32g4xx_ll_exti.h **** /**
 904:Drivers/STM32G4xx_HAL_Driver/Inc/stm32g4xx_ll_exti.h ****   * @brief  Check if rising edge trigger is enabled for Lines in range 32 to 63
 905:Drivers/STM32G4xx_HAL_Driver/Inc/stm32g4xx_ll_exti.h ****   * @rmtoll RTSR2        RTx           LL_EXTI_IsEnabledRisingTrig_32_63
 906:Drivers/STM32G4xx_HAL_Driver/Inc/stm32g4xx_ll_exti.h ****   * @param  ExtiLine This parameter can be a combination of the following values:
 907:Drivers/STM32G4xx_HAL_Driver/Inc/stm32g4xx_ll_exti.h ****   *         @arg @ref LL_EXTI_LINE_32 (*)
 908:Drivers/STM32G4xx_HAL_Driver/Inc/stm32g4xx_ll_exti.h ****   *         @arg @ref LL_EXTI_LINE_33 (*)
 909:Drivers/STM32G4xx_HAL_Driver/Inc/stm32g4xx_ll_exti.h ****   *         @arg @ref LL_EXTI_LINE_38
 910:Drivers/STM32G4xx_HAL_Driver/Inc/stm32g4xx_ll_exti.h ****   *         @arg @ref LL_EXTI_LINE_39
 911:Drivers/STM32G4xx_HAL_Driver/Inc/stm32g4xx_ll_exti.h ****   *         @arg @ref LL_EXTI_LINE_40
 912:Drivers/STM32G4xx_HAL_Driver/Inc/stm32g4xx_ll_exti.h ****   *         @arg @ref LL_EXTI_LINE_41
 913:Drivers/STM32G4xx_HAL_Driver/Inc/stm32g4xx_ll_exti.h ****   * @note   (*): Available in some devices
 914:Drivers/STM32G4xx_HAL_Driver/Inc/stm32g4xx_ll_exti.h ****   * @retval State of bit (1 or 0).
 915:Drivers/STM32G4xx_HAL_Driver/Inc/stm32g4xx_ll_exti.h ****   */
 916:Drivers/STM32G4xx_HAL_Driver/Inc/stm32g4xx_ll_exti.h **** __STATIC_INLINE uint32_t LL_EXTI_IsEnabledRisingTrig_32_63(uint32_t ExtiLine)
 917:Drivers/STM32G4xx_HAL_Driver/Inc/stm32g4xx_ll_exti.h **** {
 918:Drivers/STM32G4xx_HAL_Driver/Inc/stm32g4xx_ll_exti.h ****   return ((READ_BIT(EXTI->RTSR2, ExtiLine) == (ExtiLine)) ? 1UL : 0UL);
 919:Drivers/STM32G4xx_HAL_Driver/Inc/stm32g4xx_ll_exti.h **** }
 920:Drivers/STM32G4xx_HAL_Driver/Inc/stm32g4xx_ll_exti.h **** 
 921:Drivers/STM32G4xx_HAL_Driver/Inc/stm32g4xx_ll_exti.h **** /**
 922:Drivers/STM32G4xx_HAL_Driver/Inc/stm32g4xx_ll_exti.h ****   * @}
 923:Drivers/STM32G4xx_HAL_Driver/Inc/stm32g4xx_ll_exti.h ****   */
 924:Drivers/STM32G4xx_HAL_Driver/Inc/stm32g4xx_ll_exti.h **** 
 925:Drivers/STM32G4xx_HAL_Driver/Inc/stm32g4xx_ll_exti.h **** /** @defgroup EXTI_LL_EF_Falling_Trigger_Management Falling_Trigger_Management
 926:Drivers/STM32G4xx_HAL_Driver/Inc/stm32g4xx_ll_exti.h ****   * @{
 927:Drivers/STM32G4xx_HAL_Driver/Inc/stm32g4xx_ll_exti.h ****   */
 928:Drivers/STM32G4xx_HAL_Driver/Inc/stm32g4xx_ll_exti.h **** 
 929:Drivers/STM32G4xx_HAL_Driver/Inc/stm32g4xx_ll_exti.h **** /**
 930:Drivers/STM32G4xx_HAL_Driver/Inc/stm32g4xx_ll_exti.h ****   * @brief  Enable ExtiLine Falling Edge Trigger for Lines in range 0 to 31
 931:Drivers/STM32G4xx_HAL_Driver/Inc/stm32g4xx_ll_exti.h ****   * @note The configurable wakeup lines are edge-triggered. No glitch must be
 932:Drivers/STM32G4xx_HAL_Driver/Inc/stm32g4xx_ll_exti.h ****   *       generated on these lines. If a falling edge on a configurable interrupt
ARM GAS  D:\apps\VSCode\data\tmp\cc6Ljmfb.s 			page 32


 933:Drivers/STM32G4xx_HAL_Driver/Inc/stm32g4xx_ll_exti.h ****   *       line occurs during a write operation in the EXTI_FTSR register, the
 934:Drivers/STM32G4xx_HAL_Driver/Inc/stm32g4xx_ll_exti.h ****   *       pending bit is not set.
 935:Drivers/STM32G4xx_HAL_Driver/Inc/stm32g4xx_ll_exti.h ****   *       Rising and falling edge triggers can be set for
 936:Drivers/STM32G4xx_HAL_Driver/Inc/stm32g4xx_ll_exti.h ****   *       the same interrupt line. In this case, both generate a trigger
 937:Drivers/STM32G4xx_HAL_Driver/Inc/stm32g4xx_ll_exti.h ****   *       condition.
 938:Drivers/STM32G4xx_HAL_Driver/Inc/stm32g4xx_ll_exti.h ****   * @rmtoll FTSR1        FTx           LL_EXTI_EnableFallingTrig_0_31
 939:Drivers/STM32G4xx_HAL_Driver/Inc/stm32g4xx_ll_exti.h ****   * @param  ExtiLine This parameter can be a combination of the following values:
 940:Drivers/STM32G4xx_HAL_Driver/Inc/stm32g4xx_ll_exti.h ****   *         @arg @ref LL_EXTI_LINE_0
 941:Drivers/STM32G4xx_HAL_Driver/Inc/stm32g4xx_ll_exti.h ****   *         @arg @ref LL_EXTI_LINE_1
 942:Drivers/STM32G4xx_HAL_Driver/Inc/stm32g4xx_ll_exti.h ****   *         @arg @ref LL_EXTI_LINE_2
 943:Drivers/STM32G4xx_HAL_Driver/Inc/stm32g4xx_ll_exti.h ****   *         @arg @ref LL_EXTI_LINE_3
 944:Drivers/STM32G4xx_HAL_Driver/Inc/stm32g4xx_ll_exti.h ****   *         @arg @ref LL_EXTI_LINE_4
 945:Drivers/STM32G4xx_HAL_Driver/Inc/stm32g4xx_ll_exti.h ****   *         @arg @ref LL_EXTI_LINE_5
 946:Drivers/STM32G4xx_HAL_Driver/Inc/stm32g4xx_ll_exti.h ****   *         @arg @ref LL_EXTI_LINE_6
 947:Drivers/STM32G4xx_HAL_Driver/Inc/stm32g4xx_ll_exti.h ****   *         @arg @ref LL_EXTI_LINE_7
 948:Drivers/STM32G4xx_HAL_Driver/Inc/stm32g4xx_ll_exti.h ****   *         @arg @ref LL_EXTI_LINE_8
 949:Drivers/STM32G4xx_HAL_Driver/Inc/stm32g4xx_ll_exti.h ****   *         @arg @ref LL_EXTI_LINE_9
 950:Drivers/STM32G4xx_HAL_Driver/Inc/stm32g4xx_ll_exti.h ****   *         @arg @ref LL_EXTI_LINE_10
 951:Drivers/STM32G4xx_HAL_Driver/Inc/stm32g4xx_ll_exti.h ****   *         @arg @ref LL_EXTI_LINE_11
 952:Drivers/STM32G4xx_HAL_Driver/Inc/stm32g4xx_ll_exti.h ****   *         @arg @ref LL_EXTI_LINE_12
 953:Drivers/STM32G4xx_HAL_Driver/Inc/stm32g4xx_ll_exti.h ****   *         @arg @ref LL_EXTI_LINE_13
 954:Drivers/STM32G4xx_HAL_Driver/Inc/stm32g4xx_ll_exti.h ****   *         @arg @ref LL_EXTI_LINE_14
 955:Drivers/STM32G4xx_HAL_Driver/Inc/stm32g4xx_ll_exti.h ****   *         @arg @ref LL_EXTI_LINE_15
 956:Drivers/STM32G4xx_HAL_Driver/Inc/stm32g4xx_ll_exti.h ****   *         @arg @ref LL_EXTI_LINE_16
 957:Drivers/STM32G4xx_HAL_Driver/Inc/stm32g4xx_ll_exti.h ****   *         @arg @ref LL_EXTI_LINE_18
 958:Drivers/STM32G4xx_HAL_Driver/Inc/stm32g4xx_ll_exti.h ****   *         @arg @ref LL_EXTI_LINE_19
 959:Drivers/STM32G4xx_HAL_Driver/Inc/stm32g4xx_ll_exti.h ****   *         @arg @ref LL_EXTI_LINE_20
 960:Drivers/STM32G4xx_HAL_Driver/Inc/stm32g4xx_ll_exti.h ****   *         @arg @ref LL_EXTI_LINE_21
 961:Drivers/STM32G4xx_HAL_Driver/Inc/stm32g4xx_ll_exti.h ****   *         @arg @ref LL_EXTI_LINE_22
 962:Drivers/STM32G4xx_HAL_Driver/Inc/stm32g4xx_ll_exti.h ****   *         @arg @ref LL_EXTI_LINE_29
 963:Drivers/STM32G4xx_HAL_Driver/Inc/stm32g4xx_ll_exti.h ****   *         @arg @ref LL_EXTI_LINE_30
 964:Drivers/STM32G4xx_HAL_Driver/Inc/stm32g4xx_ll_exti.h ****   *         @arg @ref LL_EXTI_LINE_31 (*)
 965:Drivers/STM32G4xx_HAL_Driver/Inc/stm32g4xx_ll_exti.h ****   * @note   (*): Available in some devices
 966:Drivers/STM32G4xx_HAL_Driver/Inc/stm32g4xx_ll_exti.h ****   * @note   Please check each device line mapping for EXTI Line availability
 967:Drivers/STM32G4xx_HAL_Driver/Inc/stm32g4xx_ll_exti.h ****   * @retval None
 968:Drivers/STM32G4xx_HAL_Driver/Inc/stm32g4xx_ll_exti.h ****   */
 969:Drivers/STM32G4xx_HAL_Driver/Inc/stm32g4xx_ll_exti.h **** __STATIC_INLINE void LL_EXTI_EnableFallingTrig_0_31(uint32_t ExtiLine)
 494              		.loc 2 969 22 view .LVU137
 495              	.LBB92:
 970:Drivers/STM32G4xx_HAL_Driver/Inc/stm32g4xx_ll_exti.h **** {
 971:Drivers/STM32G4xx_HAL_Driver/Inc/stm32g4xx_ll_exti.h ****   SET_BIT(EXTI->FTSR1, ExtiLine);
 496              		.loc 2 971 3 view .LVU138
 497 010a D168     		ldr	r1, [r2, #12]
 498 010c 1C68     		ldr	r4, [r3]
 499 010e 2143     		orrs	r1, r1, r4
 500 0110 D160     		str	r1, [r2, #12]
 501              	.LVL40:
 502              		.loc 2 971 3 is_stmt 0 view .LVU139
 503 0112 7CE7     		b	.L8
 504              	.LVL41:
 505              	.L45:
 506              		.loc 2 971 3 view .LVU140
 507              	.LBE92:
 508              	.LBE91:
 225:Drivers/STM32G4xx_HAL_Driver/Src/stm32g4xx_ll_exti.c ****             /* Then Enable IT on provided Lines */
 509              		.loc 1 225 13 is_stmt 1 view .LVU141
 510              	.LBB93:
ARM GAS  D:\apps\VSCode\data\tmp\cc6Ljmfb.s 			page 33


 511              	.LBI93:
 972:Drivers/STM32G4xx_HAL_Driver/Inc/stm32g4xx_ll_exti.h **** }
 973:Drivers/STM32G4xx_HAL_Driver/Inc/stm32g4xx_ll_exti.h **** 
 974:Drivers/STM32G4xx_HAL_Driver/Inc/stm32g4xx_ll_exti.h **** /**
 975:Drivers/STM32G4xx_HAL_Driver/Inc/stm32g4xx_ll_exti.h ****   * @brief  Enable ExtiLine Falling Edge Trigger for Lines in range 32 to 63
 976:Drivers/STM32G4xx_HAL_Driver/Inc/stm32g4xx_ll_exti.h ****   * @note The configurable wakeup lines are edge-triggered. No glitch must be
 977:Drivers/STM32G4xx_HAL_Driver/Inc/stm32g4xx_ll_exti.h ****   *       generated on these lines. If a Falling edge on a configurable interrupt
 978:Drivers/STM32G4xx_HAL_Driver/Inc/stm32g4xx_ll_exti.h ****   *       line occurs during a write operation in the EXTI_FTSR register, the
 979:Drivers/STM32G4xx_HAL_Driver/Inc/stm32g4xx_ll_exti.h ****   *       pending bit is not set.
 980:Drivers/STM32G4xx_HAL_Driver/Inc/stm32g4xx_ll_exti.h ****   *       Rising and falling edge triggers can be set for
 981:Drivers/STM32G4xx_HAL_Driver/Inc/stm32g4xx_ll_exti.h ****   *       the same interrupt line. In this case, both generate a trigger
 982:Drivers/STM32G4xx_HAL_Driver/Inc/stm32g4xx_ll_exti.h ****   *       condition.
 983:Drivers/STM32G4xx_HAL_Driver/Inc/stm32g4xx_ll_exti.h ****   * @rmtoll FTSR2        FTx           LL_EXTI_EnableFallingTrig_32_63
 984:Drivers/STM32G4xx_HAL_Driver/Inc/stm32g4xx_ll_exti.h ****   * @param  ExtiLine This parameter can be a combination of the following values:
 985:Drivers/STM32G4xx_HAL_Driver/Inc/stm32g4xx_ll_exti.h ****   *         @arg @ref LL_EXTI_LINE_32 (*)
 986:Drivers/STM32G4xx_HAL_Driver/Inc/stm32g4xx_ll_exti.h ****   *         @arg @ref LL_EXTI_LINE_33 (*)
 987:Drivers/STM32G4xx_HAL_Driver/Inc/stm32g4xx_ll_exti.h ****   *         @arg @ref LL_EXTI_LINE_38
 988:Drivers/STM32G4xx_HAL_Driver/Inc/stm32g4xx_ll_exti.h ****   *         @arg @ref LL_EXTI_LINE_39
 989:Drivers/STM32G4xx_HAL_Driver/Inc/stm32g4xx_ll_exti.h ****   *         @arg @ref LL_EXTI_LINE_40
 990:Drivers/STM32G4xx_HAL_Driver/Inc/stm32g4xx_ll_exti.h ****   *         @arg @ref LL_EXTI_LINE_41
 991:Drivers/STM32G4xx_HAL_Driver/Inc/stm32g4xx_ll_exti.h ****   * @note   (*): Available in some devices
 992:Drivers/STM32G4xx_HAL_Driver/Inc/stm32g4xx_ll_exti.h ****   * @retval None
 993:Drivers/STM32G4xx_HAL_Driver/Inc/stm32g4xx_ll_exti.h ****   */
 994:Drivers/STM32G4xx_HAL_Driver/Inc/stm32g4xx_ll_exti.h **** __STATIC_INLINE void LL_EXTI_EnableFallingTrig_32_63(uint32_t ExtiLine)
 995:Drivers/STM32G4xx_HAL_Driver/Inc/stm32g4xx_ll_exti.h **** {
 996:Drivers/STM32G4xx_HAL_Driver/Inc/stm32g4xx_ll_exti.h ****   SET_BIT(EXTI->FTSR2, ExtiLine);
 997:Drivers/STM32G4xx_HAL_Driver/Inc/stm32g4xx_ll_exti.h **** }
 998:Drivers/STM32G4xx_HAL_Driver/Inc/stm32g4xx_ll_exti.h **** 
 999:Drivers/STM32G4xx_HAL_Driver/Inc/stm32g4xx_ll_exti.h **** /**
1000:Drivers/STM32G4xx_HAL_Driver/Inc/stm32g4xx_ll_exti.h ****   * @brief  Disable ExtiLine Falling Edge Trigger for Lines in range 0 to 31
1001:Drivers/STM32G4xx_HAL_Driver/Inc/stm32g4xx_ll_exti.h ****   * @note The configurable wakeup lines are edge-triggered. No glitch must be
1002:Drivers/STM32G4xx_HAL_Driver/Inc/stm32g4xx_ll_exti.h ****   *       generated on these lines. If a Falling edge on a configurable interrupt
1003:Drivers/STM32G4xx_HAL_Driver/Inc/stm32g4xx_ll_exti.h ****   *       line occurs during a write operation in the EXTI_FTSR register, the
1004:Drivers/STM32G4xx_HAL_Driver/Inc/stm32g4xx_ll_exti.h ****   *       pending bit is not set.
1005:Drivers/STM32G4xx_HAL_Driver/Inc/stm32g4xx_ll_exti.h ****   *       Rising and falling edge triggers can be set for the same interrupt line.
1006:Drivers/STM32G4xx_HAL_Driver/Inc/stm32g4xx_ll_exti.h ****   *       In this case, both generate a trigger condition.
1007:Drivers/STM32G4xx_HAL_Driver/Inc/stm32g4xx_ll_exti.h ****   * @rmtoll FTSR1        FTx           LL_EXTI_DisableFallingTrig_0_31
1008:Drivers/STM32G4xx_HAL_Driver/Inc/stm32g4xx_ll_exti.h ****   * @param  ExtiLine This parameter can be a combination of the following values:
1009:Drivers/STM32G4xx_HAL_Driver/Inc/stm32g4xx_ll_exti.h ****   *         @arg @ref LL_EXTI_LINE_0
1010:Drivers/STM32G4xx_HAL_Driver/Inc/stm32g4xx_ll_exti.h ****   *         @arg @ref LL_EXTI_LINE_1
1011:Drivers/STM32G4xx_HAL_Driver/Inc/stm32g4xx_ll_exti.h ****   *         @arg @ref LL_EXTI_LINE_2
1012:Drivers/STM32G4xx_HAL_Driver/Inc/stm32g4xx_ll_exti.h ****   *         @arg @ref LL_EXTI_LINE_3
1013:Drivers/STM32G4xx_HAL_Driver/Inc/stm32g4xx_ll_exti.h ****   *         @arg @ref LL_EXTI_LINE_4
1014:Drivers/STM32G4xx_HAL_Driver/Inc/stm32g4xx_ll_exti.h ****   *         @arg @ref LL_EXTI_LINE_5
1015:Drivers/STM32G4xx_HAL_Driver/Inc/stm32g4xx_ll_exti.h ****   *         @arg @ref LL_EXTI_LINE_6
1016:Drivers/STM32G4xx_HAL_Driver/Inc/stm32g4xx_ll_exti.h ****   *         @arg @ref LL_EXTI_LINE_7
1017:Drivers/STM32G4xx_HAL_Driver/Inc/stm32g4xx_ll_exti.h ****   *         @arg @ref LL_EXTI_LINE_8
1018:Drivers/STM32G4xx_HAL_Driver/Inc/stm32g4xx_ll_exti.h ****   *         @arg @ref LL_EXTI_LINE_9
1019:Drivers/STM32G4xx_HAL_Driver/Inc/stm32g4xx_ll_exti.h ****   *         @arg @ref LL_EXTI_LINE_10
1020:Drivers/STM32G4xx_HAL_Driver/Inc/stm32g4xx_ll_exti.h ****   *         @arg @ref LL_EXTI_LINE_11
1021:Drivers/STM32G4xx_HAL_Driver/Inc/stm32g4xx_ll_exti.h ****   *         @arg @ref LL_EXTI_LINE_12
1022:Drivers/STM32G4xx_HAL_Driver/Inc/stm32g4xx_ll_exti.h ****   *         @arg @ref LL_EXTI_LINE_13
1023:Drivers/STM32G4xx_HAL_Driver/Inc/stm32g4xx_ll_exti.h ****   *         @arg @ref LL_EXTI_LINE_14
1024:Drivers/STM32G4xx_HAL_Driver/Inc/stm32g4xx_ll_exti.h ****   *         @arg @ref LL_EXTI_LINE_15
1025:Drivers/STM32G4xx_HAL_Driver/Inc/stm32g4xx_ll_exti.h ****   *         @arg @ref LL_EXTI_LINE_16
1026:Drivers/STM32G4xx_HAL_Driver/Inc/stm32g4xx_ll_exti.h ****   *         @arg @ref LL_EXTI_LINE_18
1027:Drivers/STM32G4xx_HAL_Driver/Inc/stm32g4xx_ll_exti.h ****   *         @arg @ref LL_EXTI_LINE_19
ARM GAS  D:\apps\VSCode\data\tmp\cc6Ljmfb.s 			page 34


1028:Drivers/STM32G4xx_HAL_Driver/Inc/stm32g4xx_ll_exti.h ****   *         @arg @ref LL_EXTI_LINE_20
1029:Drivers/STM32G4xx_HAL_Driver/Inc/stm32g4xx_ll_exti.h ****   *         @arg @ref LL_EXTI_LINE_21
1030:Drivers/STM32G4xx_HAL_Driver/Inc/stm32g4xx_ll_exti.h ****   *         @arg @ref LL_EXTI_LINE_22
1031:Drivers/STM32G4xx_HAL_Driver/Inc/stm32g4xx_ll_exti.h ****   *         @arg @ref LL_EXTI_LINE_29
1032:Drivers/STM32G4xx_HAL_Driver/Inc/stm32g4xx_ll_exti.h ****   *         @arg @ref LL_EXTI_LINE_30
1033:Drivers/STM32G4xx_HAL_Driver/Inc/stm32g4xx_ll_exti.h ****   *         @arg @ref LL_EXTI_LINE_31 (*)
1034:Drivers/STM32G4xx_HAL_Driver/Inc/stm32g4xx_ll_exti.h ****   * @note   (*): Available in some devices
1035:Drivers/STM32G4xx_HAL_Driver/Inc/stm32g4xx_ll_exti.h ****   * @note   Please check each device line mapping for EXTI Line availability
1036:Drivers/STM32G4xx_HAL_Driver/Inc/stm32g4xx_ll_exti.h ****   * @retval None
1037:Drivers/STM32G4xx_HAL_Driver/Inc/stm32g4xx_ll_exti.h ****   */
1038:Drivers/STM32G4xx_HAL_Driver/Inc/stm32g4xx_ll_exti.h **** __STATIC_INLINE void LL_EXTI_DisableFallingTrig_0_31(uint32_t ExtiLine)
1039:Drivers/STM32G4xx_HAL_Driver/Inc/stm32g4xx_ll_exti.h **** {
1040:Drivers/STM32G4xx_HAL_Driver/Inc/stm32g4xx_ll_exti.h ****   CLEAR_BIT(EXTI->FTSR1, ExtiLine);
1041:Drivers/STM32G4xx_HAL_Driver/Inc/stm32g4xx_ll_exti.h **** }
1042:Drivers/STM32G4xx_HAL_Driver/Inc/stm32g4xx_ll_exti.h **** 
1043:Drivers/STM32G4xx_HAL_Driver/Inc/stm32g4xx_ll_exti.h **** /**
1044:Drivers/STM32G4xx_HAL_Driver/Inc/stm32g4xx_ll_exti.h ****   * @brief  Disable ExtiLine Falling Edge Trigger for Lines in range 32 to 63
1045:Drivers/STM32G4xx_HAL_Driver/Inc/stm32g4xx_ll_exti.h ****   * @note The configurable wakeup lines are edge-triggered. No glitch must be
1046:Drivers/STM32G4xx_HAL_Driver/Inc/stm32g4xx_ll_exti.h ****   *       generated on these lines. If a Falling edge on a configurable interrupt
1047:Drivers/STM32G4xx_HAL_Driver/Inc/stm32g4xx_ll_exti.h ****   *       line occurs during a write operation in the EXTI_FTSR register, the
1048:Drivers/STM32G4xx_HAL_Driver/Inc/stm32g4xx_ll_exti.h ****   *       pending bit is not set.
1049:Drivers/STM32G4xx_HAL_Driver/Inc/stm32g4xx_ll_exti.h ****   *       Rising and falling edge triggers can be set for the same interrupt line.
1050:Drivers/STM32G4xx_HAL_Driver/Inc/stm32g4xx_ll_exti.h ****   *       In this case, both generate a trigger condition.
1051:Drivers/STM32G4xx_HAL_Driver/Inc/stm32g4xx_ll_exti.h ****   * @rmtoll FTSR2        FTx           LL_EXTI_DisableFallingTrig_32_63
1052:Drivers/STM32G4xx_HAL_Driver/Inc/stm32g4xx_ll_exti.h ****   * @param  ExtiLine This parameter can be a combination of the following values:
1053:Drivers/STM32G4xx_HAL_Driver/Inc/stm32g4xx_ll_exti.h ****   *         @arg @ref LL_EXTI_LINE_32 (*)
1054:Drivers/STM32G4xx_HAL_Driver/Inc/stm32g4xx_ll_exti.h ****   *         @arg @ref LL_EXTI_LINE_33 (*)
1055:Drivers/STM32G4xx_HAL_Driver/Inc/stm32g4xx_ll_exti.h ****   *         @arg @ref LL_EXTI_LINE_38
1056:Drivers/STM32G4xx_HAL_Driver/Inc/stm32g4xx_ll_exti.h ****   *         @arg @ref LL_EXTI_LINE_39
1057:Drivers/STM32G4xx_HAL_Driver/Inc/stm32g4xx_ll_exti.h ****   *         @arg @ref LL_EXTI_LINE_40
1058:Drivers/STM32G4xx_HAL_Driver/Inc/stm32g4xx_ll_exti.h ****   *         @arg @ref LL_EXTI_LINE_41
1059:Drivers/STM32G4xx_HAL_Driver/Inc/stm32g4xx_ll_exti.h ****   * @note   (*): Available in some devices
1060:Drivers/STM32G4xx_HAL_Driver/Inc/stm32g4xx_ll_exti.h ****   * @retval None
1061:Drivers/STM32G4xx_HAL_Driver/Inc/stm32g4xx_ll_exti.h ****   */
1062:Drivers/STM32G4xx_HAL_Driver/Inc/stm32g4xx_ll_exti.h **** __STATIC_INLINE void LL_EXTI_DisableFallingTrig_32_63(uint32_t ExtiLine)
 512              		.loc 2 1062 22 view .LVU142
 513              	.LBB94:
1063:Drivers/STM32G4xx_HAL_Driver/Inc/stm32g4xx_ll_exti.h **** {
1064:Drivers/STM32G4xx_HAL_Driver/Inc/stm32g4xx_ll_exti.h ****   CLEAR_BIT(EXTI->FTSR2, ExtiLine);
 514              		.loc 2 1064 3 view .LVU143
 515 0114 154A     		ldr	r2, .L47
 516 0116 5C68     		ldr	r4, [r3, #4]
 517 0118 D16A     		ldr	r1, [r2, #44]
 518 011a 21EA0401 		bic	r1, r1, r4
 519 011e D162     		str	r1, [r2, #44]
 520              	.LVL42:
 521              		.loc 2 1064 3 is_stmt 0 view .LVU144
 522              	.LBE94:
 523              	.LBE93:
 227:Drivers/STM32G4xx_HAL_Driver/Src/stm32g4xx_ll_exti.c ****             break;
 524              		.loc 1 227 13 is_stmt 1 view .LVU145
 525              	.LBB95:
 526              	.LBI95:
 789:Drivers/STM32G4xx_HAL_Driver/Inc/stm32g4xx_ll_exti.h **** {
 527              		.loc 2 789 22 view .LVU146
 528              	.LBB96:
 791:Drivers/STM32G4xx_HAL_Driver/Inc/stm32g4xx_ll_exti.h **** }
ARM GAS  D:\apps\VSCode\data\tmp\cc6Ljmfb.s 			page 35


 529              		.loc 2 791 3 view .LVU147
 530 0120 5968     		ldr	r1, [r3, #4]
 531 0122 936A     		ldr	r3, [r2, #40]
 532              	.LVL43:
 791:Drivers/STM32G4xx_HAL_Driver/Inc/stm32g4xx_ll_exti.h **** }
 533              		.loc 2 791 3 is_stmt 0 view .LVU148
 534 0124 0B43     		orrs	r3, r3, r1
 535 0126 9362     		str	r3, [r2, #40]
 536 0128 8DE7     		b	.L6
 537              	.LVL44:
 538              	.L23:
 791:Drivers/STM32G4xx_HAL_Driver/Inc/stm32g4xx_ll_exti.h **** }
 539              		.loc 2 791 3 view .LVU149
 540              	.LBE96:
 541              	.LBE95:
 237:Drivers/STM32G4xx_HAL_Driver/Src/stm32g4xx_ll_exti.c ****             /* Enable Falling Trigger on provided Lines */
 542              		.loc 1 237 13 is_stmt 1 view .LVU150
 543              	.LBB97:
 544              	.LBI97:
 789:Drivers/STM32G4xx_HAL_Driver/Inc/stm32g4xx_ll_exti.h **** {
 545              		.loc 2 789 22 view .LVU151
 546              	.LBB98:
 791:Drivers/STM32G4xx_HAL_Driver/Inc/stm32g4xx_ll_exti.h **** }
 547              		.loc 2 791 3 view .LVU152
 548 012a 104A     		ldr	r2, .L47
 549 012c 5C68     		ldr	r4, [r3, #4]
 550 012e 916A     		ldr	r1, [r2, #40]
 551 0130 2143     		orrs	r1, r1, r4
 552              	.LVL45:
 553              	.L42:
 791:Drivers/STM32G4xx_HAL_Driver/Inc/stm32g4xx_ll_exti.h **** }
 554              		.loc 2 791 3 is_stmt 0 view .LVU153
 555 0132 9162     		str	r1, [r2, #40]
 556              	.LBE98:
 557              	.LBE97:
 239:Drivers/STM32G4xx_HAL_Driver/Src/stm32g4xx_ll_exti.c ****             break;
 558              		.loc 1 239 13 is_stmt 1 view .LVU154
 559              	.LVL46:
 560              	.LBB99:
 561              	.LBI99:
 994:Drivers/STM32G4xx_HAL_Driver/Inc/stm32g4xx_ll_exti.h **** {
 562              		.loc 2 994 22 view .LVU155
 563              	.LBB100:
 996:Drivers/STM32G4xx_HAL_Driver/Inc/stm32g4xx_ll_exti.h **** }
 564              		.loc 2 996 3 view .LVU156
 565 0134 5968     		ldr	r1, [r3, #4]
 566 0136 D36A     		ldr	r3, [r2, #44]
 567              	.LVL47:
 996:Drivers/STM32G4xx_HAL_Driver/Inc/stm32g4xx_ll_exti.h **** }
 568              		.loc 2 996 3 is_stmt 0 view .LVU157
 569 0138 0B43     		orrs	r3, r3, r1
 570 013a D362     		str	r3, [r2, #44]
 571 013c 83E7     		b	.L6
 572              	.LVL48:
 573              	.L22:
 996:Drivers/STM32G4xx_HAL_Driver/Inc/stm32g4xx_ll_exti.h **** }
 574              		.loc 2 996 3 view .LVU158
ARM GAS  D:\apps\VSCode\data\tmp\cc6Ljmfb.s 			page 36


 575              	.LBE100:
 576              	.LBE99:
 231:Drivers/STM32G4xx_HAL_Driver/Src/stm32g4xx_ll_exti.c ****             /* Then Enable Falling Trigger on provided Lines */
 577              		.loc 1 231 13 is_stmt 1 view .LVU159
 578              	.LBB101:
 579              	.LBI101:
 860:Drivers/STM32G4xx_HAL_Driver/Inc/stm32g4xx_ll_exti.h **** {
 580              		.loc 2 860 22 view .LVU160
 581              	.LBB102:
 862:Drivers/STM32G4xx_HAL_Driver/Inc/stm32g4xx_ll_exti.h **** }
 582              		.loc 2 862 3 view .LVU161
 583 013e 0B4A     		ldr	r2, .L47
 584 0140 5C68     		ldr	r4, [r3, #4]
 585 0142 916A     		ldr	r1, [r2, #40]
 586 0144 21EA0401 		bic	r1, r1, r4
 587 0148 F3E7     		b	.L42
 588              	.LVL49:
 589              	.L46:
 862:Drivers/STM32G4xx_HAL_Driver/Inc/stm32g4xx_ll_exti.h **** }
 590              		.loc 2 862 3 is_stmt 0 view .LVU162
 591              	.LBE102:
 592              	.LBE101:
 170:Drivers/STM32G4xx_HAL_Driver/Src/stm32g4xx_ll_exti.c ****             /* Then Enable Rising Trigger on provided Lines */
 593              		.loc 1 170 13 is_stmt 1 view .LVU163
 594              	.LBB103:
 595              	.LBI103:
1038:Drivers/STM32G4xx_HAL_Driver/Inc/stm32g4xx_ll_exti.h **** {
 596              		.loc 2 1038 22 view .LVU164
 597              	.LBB104:
1040:Drivers/STM32G4xx_HAL_Driver/Inc/stm32g4xx_ll_exti.h **** }
 598              		.loc 2 1040 3 view .LVU165
 599 014a 084A     		ldr	r2, .L47
 600 014c 1C68     		ldr	r4, [r3]
 601 014e D168     		ldr	r1, [r2, #12]
 602 0150 21EA0401 		bic	r1, r1, r4
 603 0154 D160     		str	r1, [r2, #12]
 604              	.LVL50:
1040:Drivers/STM32G4xx_HAL_Driver/Inc/stm32g4xx_ll_exti.h **** }
 605              		.loc 2 1040 3 is_stmt 0 view .LVU166
 606              	.LBE104:
 607              	.LBE103:
 172:Drivers/STM32G4xx_HAL_Driver/Src/stm32g4xx_ll_exti.c ****             break;
 608              		.loc 1 172 13 is_stmt 1 view .LVU167
 609              	.LBB105:
 610              	.LBI105:
 764:Drivers/STM32G4xx_HAL_Driver/Inc/stm32g4xx_ll_exti.h **** {
 611              		.loc 2 764 22 view .LVU168
 612              	.LBB106:
 766:Drivers/STM32G4xx_HAL_Driver/Inc/stm32g4xx_ll_exti.h **** 
 613              		.loc 2 766 3 view .LVU169
 614 0156 9168     		ldr	r1, [r2, #8]
 615 0158 1C68     		ldr	r4, [r3]
 616 015a 2143     		orrs	r1, r1, r4
 617 015c 9160     		str	r1, [r2, #8]
 618              	.LVL51:
 766:Drivers/STM32G4xx_HAL_Driver/Inc/stm32g4xx_ll_exti.h **** 
 619              		.loc 2 766 3 is_stmt 0 view .LVU170
ARM GAS  D:\apps\VSCode\data\tmp\cc6Ljmfb.s 			page 37


 620 015e 56E7     		b	.L8
 621              	.LVL52:
 622              	.L14:
 766:Drivers/STM32G4xx_HAL_Driver/Inc/stm32g4xx_ll_exti.h **** 
 623              		.loc 2 766 3 view .LVU171
 624              	.LBE106:
 625              	.LBE105:
 182:Drivers/STM32G4xx_HAL_Driver/Src/stm32g4xx_ll_exti.c ****             /* Enable Falling Trigger on provided Lines */
 626              		.loc 1 182 13 is_stmt 1 view .LVU172
 627              	.LBB107:
 628              	.LBI88:
 764:Drivers/STM32G4xx_HAL_Driver/Inc/stm32g4xx_ll_exti.h **** {
 629              		.loc 2 764 22 view .LVU173
 630              	.LBB90:
 766:Drivers/STM32G4xx_HAL_Driver/Inc/stm32g4xx_ll_exti.h **** 
 631              		.loc 2 766 3 view .LVU174
 632 0160 024A     		ldr	r2, .L47
 633 0162 1C68     		ldr	r4, [r3]
 634 0164 9168     		ldr	r1, [r2, #8]
 635 0166 2143     		orrs	r1, r1, r4
 636 0168 CEE7     		b	.L40
 637              	.L48:
 638 016a 00BF     		.align	2
 639              	.L47:
 640 016c 00040140 		.word	1073808384
 641              	.LBE90:
 642              	.LBE107:
 643              		.cfi_endproc
 644              	.LFE163:
 646              		.section	.text.LL_EXTI_StructInit,"ax",%progbits
 647              		.align	1
 648              		.p2align 2,,3
 649              		.global	LL_EXTI_StructInit
 650              		.syntax unified
 651              		.thumb
 652              		.thumb_func
 653              		.fpu fpv4-sp-d16
 655              	LL_EXTI_StructInit:
 656              	.LVL53:
 657              	.LFB164:
 263:Drivers/STM32G4xx_HAL_Driver/Src/stm32g4xx_ll_exti.c **** 
 264:Drivers/STM32G4xx_HAL_Driver/Src/stm32g4xx_ll_exti.c **** /**
 265:Drivers/STM32G4xx_HAL_Driver/Src/stm32g4xx_ll_exti.c ****   * @brief  Set each @ref LL_EXTI_InitTypeDef field to default value.
 266:Drivers/STM32G4xx_HAL_Driver/Src/stm32g4xx_ll_exti.c ****   * @param  EXTI_InitStruct Pointer to a @ref LL_EXTI_InitTypeDef structure.
 267:Drivers/STM32G4xx_HAL_Driver/Src/stm32g4xx_ll_exti.c ****   * @retval None
 268:Drivers/STM32G4xx_HAL_Driver/Src/stm32g4xx_ll_exti.c ****   */
 269:Drivers/STM32G4xx_HAL_Driver/Src/stm32g4xx_ll_exti.c **** void LL_EXTI_StructInit(LL_EXTI_InitTypeDef *EXTI_InitStruct)
 270:Drivers/STM32G4xx_HAL_Driver/Src/stm32g4xx_ll_exti.c **** {
 658              		.loc 1 270 1 view -0
 659              		.cfi_startproc
 660              		@ args = 0, pretend = 0, frame = 0
 661              		@ frame_needed = 0, uses_anonymous_args = 0
 662              		@ link register save eliminated.
 271:Drivers/STM32G4xx_HAL_Driver/Src/stm32g4xx_ll_exti.c ****   EXTI_InitStruct->Line_0_31      = LL_EXTI_LINE_NONE;
 663              		.loc 1 271 3 view .LVU176
 272:Drivers/STM32G4xx_HAL_Driver/Src/stm32g4xx_ll_exti.c ****   EXTI_InitStruct->Line_32_63     = LL_EXTI_LINE_NONE;
 664              		.loc 1 272 3 view .LVU177
ARM GAS  D:\apps\VSCode\data\tmp\cc6Ljmfb.s 			page 38


 273:Drivers/STM32G4xx_HAL_Driver/Src/stm32g4xx_ll_exti.c ****   EXTI_InitStruct->LineCommand    = DISABLE;
 665              		.loc 1 273 3 view .LVU178
 274:Drivers/STM32G4xx_HAL_Driver/Src/stm32g4xx_ll_exti.c ****   EXTI_InitStruct->Mode           = LL_EXTI_MODE_IT;
 666              		.loc 1 274 3 view .LVU179
 275:Drivers/STM32G4xx_HAL_Driver/Src/stm32g4xx_ll_exti.c ****   EXTI_InitStruct->Trigger        = LL_EXTI_TRIGGER_FALLING;
 667              		.loc 1 275 3 view .LVU180
 271:Drivers/STM32G4xx_HAL_Driver/Src/stm32g4xx_ll_exti.c ****   EXTI_InitStruct->Line_32_63     = LL_EXTI_LINE_NONE;
 668              		.loc 1 271 35 is_stmt 0 view .LVU181
 669 0000 0023     		movs	r3, #0
 670              		.loc 1 275 35 view .LVU182
 671 0002 0222     		movs	r2, #2
 672 0004 8272     		strb	r2, [r0, #10]
 272:Drivers/STM32G4xx_HAL_Driver/Src/stm32g4xx_ll_exti.c ****   EXTI_InitStruct->LineCommand    = DISABLE;
 673              		.loc 1 272 35 view .LVU183
 674 0006 C0E90033 		strd	r3, r3, [r0]
 273:Drivers/STM32G4xx_HAL_Driver/Src/stm32g4xx_ll_exti.c ****   EXTI_InitStruct->Mode           = LL_EXTI_MODE_IT;
 675              		.loc 1 273 35 view .LVU184
 676 000a 0381     		strh	r3, [r0, #8]	@ movhi
 276:Drivers/STM32G4xx_HAL_Driver/Src/stm32g4xx_ll_exti.c **** }
 677              		.loc 1 276 1 view .LVU185
 678 000c 7047     		bx	lr
 679              		.cfi_endproc
 680              	.LFE164:
 682 000e 00BF     		.text
 683              	.Letext0:
 684              		.file 3 "d:\\apps\\embedded_gcc\\arm_gcc\\arm-none-eabi\\include\\machine\\_default_types.h"
 685              		.file 4 "d:\\apps\\embedded_gcc\\arm_gcc\\arm-none-eabi\\include\\sys\\_stdint.h"
 686              		.file 5 "Drivers/CMSIS/Include/core_cm4.h"
 687              		.file 6 "Drivers/CMSIS/Device/ST/STM32G4xx/Include/system_stm32g4xx.h"
 688              		.file 7 "Drivers/CMSIS/Device/ST/STM32G4xx/Include/stm32g474xx.h"
 689              		.file 8 "Drivers/CMSIS/Device/ST/STM32G4xx/Include/stm32g4xx.h"
ARM GAS  D:\apps\VSCode\data\tmp\cc6Ljmfb.s 			page 39

