ARM GAS  D:\apps\VSCode\data\tmp\ccbZzZbG.s 			page 1


   1              		.cpu cortex-m4
   2              		.eabi_attribute 27, 1
   3              		.eabi_attribute 28, 1
   4              		.eabi_attribute 20, 1
   5              		.eabi_attribute 21, 1
   6              		.eabi_attribute 23, 3
   7              		.eabi_attribute 24, 1
   8              		.eabi_attribute 25, 1
   9              		.eabi_attribute 26, 1
  10              		.eabi_attribute 30, 1
  11              		.eabi_attribute 34, 1
  12              		.eabi_attribute 18, 4
  13              		.file	"utils.c"
  14              		.text
  15              	.Ltext0:
  16              		.cfi_sections	.debug_frame
  17              		.section	.text.uint16_cmp_func,"ax",%progbits
  18              		.align	1
  19              		.arch armv7e-m
  20              		.syntax unified
  21              		.thumb
  22              		.thumb_func
  23              		.fpu fpv4-sp-d16
  25              	uint16_cmp_func:
  26              	.LVL0:
  27              	.LFB37:
  28              		.file 1 "Src/utils.c"
   1:Src/utils.c   **** /*
   2:Src/utils.c   **** 	Copyright 2016 - 2019 Benjamin Vedder	benjamin@vedder.se
   3:Src/utils.c   **** 
   4:Src/utils.c   **** 	This file is part of the VESC firmware.
   5:Src/utils.c   **** 
   6:Src/utils.c   **** 	The VESC firmware is free software: you can redistribute it and/or modify
   7:Src/utils.c   ****     it under the terms of the GNU General Public License as published by
   8:Src/utils.c   ****     the Free Software Foundation, either version 3 of the License, or
   9:Src/utils.c   ****     (at your option) any later version.
  10:Src/utils.c   **** 
  11:Src/utils.c   ****     The VESC firmware is distributed in the hope that it will be useful,
  12:Src/utils.c   ****     but WITHOUT ANY WARRANTY; without even the implied warranty of
  13:Src/utils.c   ****     MERCHANTABILITY or FITNESS FOR A PARTICULAR PURPOSE.  See the
  14:Src/utils.c   ****     GNU General Public License for more details.
  15:Src/utils.c   **** 
  16:Src/utils.c   ****     You should have received a copy of the GNU General Public License
  17:Src/utils.c   ****     along with this program.  If not, see <http://www.gnu.org/licenses/>.
  18:Src/utils.c   ****     */
  19:Src/utils.c   **** 
  20:Src/utils.c   **** #include "utils.h"
  21:Src/utils.c   **** //#include <math.h>
  22:Src/utils.c   **** #include <string.h>
  23:Src/utils.c   **** #include <stdlib.h>
  24:Src/utils.c   **** 
  25:Src/utils.c   **** // Private variables
  26:Src/utils.c   **** static volatile int sys_lock_cnt = 0;
  27:Src/utils.c   **** 
  28:Src/utils.c   **** void utils_step_towards(float *value, float goal, float step)
  29:Src/utils.c   **** {
  30:Src/utils.c   **** 	if (*value < goal)
ARM GAS  D:\apps\VSCode\data\tmp\ccbZzZbG.s 			page 2


  31:Src/utils.c   **** 	{
  32:Src/utils.c   **** 		if ((*value + step) < goal)
  33:Src/utils.c   **** 		{
  34:Src/utils.c   **** 			*value += step;
  35:Src/utils.c   **** 		}
  36:Src/utils.c   **** 		else
  37:Src/utils.c   **** 		{
  38:Src/utils.c   **** 			*value = goal;
  39:Src/utils.c   **** 		}
  40:Src/utils.c   **** 	}
  41:Src/utils.c   **** 	else if (*value > goal)
  42:Src/utils.c   **** 	{
  43:Src/utils.c   **** 		if ((*value - step) > goal)
  44:Src/utils.c   **** 		{
  45:Src/utils.c   **** 			*value -= step;
  46:Src/utils.c   **** 		}
  47:Src/utils.c   **** 		else
  48:Src/utils.c   **** 		{
  49:Src/utils.c   **** 			*value = goal;
  50:Src/utils.c   **** 		}
  51:Src/utils.c   **** 	}
  52:Src/utils.c   **** }
  53:Src/utils.c   **** 
  54:Src/utils.c   **** float utils_calc_ratio(float low, float high, float val)
  55:Src/utils.c   **** {
  56:Src/utils.c   **** 	return (val - low) / (high - low);
  57:Src/utils.c   **** }
  58:Src/utils.c   **** 
  59:Src/utils.c   **** /**
  60:Src/utils.c   ****  * Make sure that 0 <= angle < 360
  61:Src/utils.c   ****  *
  62:Src/utils.c   ****  * @param angle
  63:Src/utils.c   ****  * The angle to normalize.
  64:Src/utils.c   ****  */
  65:Src/utils.c   **** void utils_norm_angle(float *angle)
  66:Src/utils.c   **** {
  67:Src/utils.c   **** 	*angle = fmodf(*angle, 360.0);
  68:Src/utils.c   **** 
  69:Src/utils.c   **** 	if (*angle < 0.0)
  70:Src/utils.c   **** 	{
  71:Src/utils.c   **** 		*angle += 360.0;
  72:Src/utils.c   **** 	}
  73:Src/utils.c   **** }
  74:Src/utils.c   **** 
  75:Src/utils.c   **** /**
  76:Src/utils.c   ****  * Make sure that -pi <= angle < pi,
  77:Src/utils.c   ****  *
  78:Src/utils.c   ****  * TODO: Maybe use fmodf instead?
  79:Src/utils.c   ****  *
  80:Src/utils.c   ****  * @param angle
  81:Src/utils.c   ****  * The angle to normalize in radians.
  82:Src/utils.c   ****  * WARNING: Don't use too large angles.
  83:Src/utils.c   ****  */
  84:Src/utils.c   **** void utils_norm_angle_rad(float *angle)
  85:Src/utils.c   **** {
  86:Src/utils.c   **** 	while (*angle < -MF_PI)
  87:Src/utils.c   **** 	{
ARM GAS  D:\apps\VSCode\data\tmp\ccbZzZbG.s 			page 3


  88:Src/utils.c   **** 		*angle += 2.0f * M_2PI;
  89:Src/utils.c   **** 	}
  90:Src/utils.c   **** 
  91:Src/utils.c   **** 	while (*angle > MF_PI)
  92:Src/utils.c   **** 	{
  93:Src/utils.c   **** 		*angle -= M_2PI;
  94:Src/utils.c   **** 	}
  95:Src/utils.c   **** }
  96:Src/utils.c   **** 
  97:Src/utils.c   **** int utils_truncate_number(float *number, float min, float max)
  98:Src/utils.c   **** {
  99:Src/utils.c   **** 	int did_trunc = 0;
 100:Src/utils.c   **** 
 101:Src/utils.c   **** 	if (*number > max)
 102:Src/utils.c   **** 	{
 103:Src/utils.c   **** 		*number = max;
 104:Src/utils.c   **** 		did_trunc = 1;
 105:Src/utils.c   **** 	}
 106:Src/utils.c   **** 	else if (*number < min)
 107:Src/utils.c   **** 	{
 108:Src/utils.c   **** 		*number = min;
 109:Src/utils.c   **** 		did_trunc = 1;
 110:Src/utils.c   **** 	}
 111:Src/utils.c   **** 
 112:Src/utils.c   **** 	return did_trunc;
 113:Src/utils.c   **** }
 114:Src/utils.c   **** 
 115:Src/utils.c   **** int utils_truncate_number_int(int *number, int min, int max)
 116:Src/utils.c   **** {
 117:Src/utils.c   **** 	int did_trunc = 0;
 118:Src/utils.c   **** 
 119:Src/utils.c   **** 	if (*number > max)
 120:Src/utils.c   **** 	{
 121:Src/utils.c   **** 		*number = max;
 122:Src/utils.c   **** 		did_trunc = 1;
 123:Src/utils.c   **** 	}
 124:Src/utils.c   **** 	else if (*number < min)
 125:Src/utils.c   **** 	{
 126:Src/utils.c   **** 		*number = min;
 127:Src/utils.c   **** 		did_trunc = 1;
 128:Src/utils.c   **** 	}
 129:Src/utils.c   **** 
 130:Src/utils.c   **** 	return did_trunc;
 131:Src/utils.c   **** }
 132:Src/utils.c   **** 
 133:Src/utils.c   **** int utils_truncate_number_abs(float *number, float max)
 134:Src/utils.c   **** {
 135:Src/utils.c   **** 	int did_trunc = 0;
 136:Src/utils.c   **** 
 137:Src/utils.c   **** 	if (*number > max)
 138:Src/utils.c   **** 	{
 139:Src/utils.c   **** 		*number = max;
 140:Src/utils.c   **** 		did_trunc = 1;
 141:Src/utils.c   **** 	}
 142:Src/utils.c   **** 	else if (*number < -max)
 143:Src/utils.c   **** 	{
 144:Src/utils.c   **** 		*number = -max;
ARM GAS  D:\apps\VSCode\data\tmp\ccbZzZbG.s 			page 4


 145:Src/utils.c   **** 		did_trunc = 1;
 146:Src/utils.c   **** 	}
 147:Src/utils.c   **** 
 148:Src/utils.c   **** 	return did_trunc;
 149:Src/utils.c   **** }
 150:Src/utils.c   **** 
 151:Src/utils.c   **** float utils_map(float x, float in_min, float in_max, float out_min, float out_max)
 152:Src/utils.c   **** {
 153:Src/utils.c   **** 	return (x - in_min) * (out_max - out_min) / (in_max - in_min) + out_min;
 154:Src/utils.c   **** }
 155:Src/utils.c   **** 
 156:Src/utils.c   **** int utils_map_int(int x, int in_min, int in_max, int out_min, int out_max)
 157:Src/utils.c   **** {
 158:Src/utils.c   **** 	return (x - in_min) * (out_max - out_min) / (in_max - in_min) + out_min;
 159:Src/utils.c   **** }
 160:Src/utils.c   **** 
 161:Src/utils.c   **** /**
 162:Src/utils.c   ****  * Truncate absolute values less than tres to zero. The value
 163:Src/utils.c   ****  * tres will be mapped to 0 and the value max to max.
 164:Src/utils.c   ****  */
 165:Src/utils.c   **** void utils_deadband(float *value, float tres, float max)
 166:Src/utils.c   **** {
 167:Src/utils.c   **** 	if (fabsf(*value) < tres)
 168:Src/utils.c   **** 	{
 169:Src/utils.c   **** 		*value = 0.0;
 170:Src/utils.c   **** 	}
 171:Src/utils.c   **** 	else
 172:Src/utils.c   **** 	{
 173:Src/utils.c   **** 		float k = max / (max - tres);
 174:Src/utils.c   **** 		if (*value > 0.0)
 175:Src/utils.c   **** 		{
 176:Src/utils.c   **** 			*value = k * *value + max * (1.0 - k);
 177:Src/utils.c   **** 		}
 178:Src/utils.c   **** 		else
 179:Src/utils.c   **** 		{
 180:Src/utils.c   **** 			*value = -(k * -*value + max * (1.0 - k));
 181:Src/utils.c   **** 		}
 182:Src/utils.c   **** 	}
 183:Src/utils.c   **** }
 184:Src/utils.c   **** 
 185:Src/utils.c   **** /**
 186:Src/utils.c   ****  * Get the difference between two angles. Will always be between -180 and +180 degrees.
 187:Src/utils.c   ****  * @param angle1
 188:Src/utils.c   ****  * The first angle
 189:Src/utils.c   ****  * @param angle2
 190:Src/utils.c   ****  * The second angle
 191:Src/utils.c   ****  * @return
 192:Src/utils.c   ****  * The difference between the angles
 193:Src/utils.c   ****  */
 194:Src/utils.c   **** float utils_angle_difference(float angle1, float angle2)
 195:Src/utils.c   **** {
 196:Src/utils.c   **** 	// Faster in most cases
 197:Src/utils.c   **** 	float difference = angle1 - angle2;
 198:Src/utils.c   **** 	while (difference < -180.0)
 199:Src/utils.c   **** 		difference += 2.0 * 180.0;
 200:Src/utils.c   **** 	while (difference > 180.0)
 201:Src/utils.c   **** 		difference -= 2.0 * 180.0;
ARM GAS  D:\apps\VSCode\data\tmp\ccbZzZbG.s 			page 5


 202:Src/utils.c   **** 	return difference;
 203:Src/utils.c   **** }
 204:Src/utils.c   **** 
 205:Src/utils.c   **** /**
 206:Src/utils.c   ****  * Get the difference between two angles. Will always be between -pi and +pi radians.
 207:Src/utils.c   ****  * @param angle1
 208:Src/utils.c   ****  * The first angle in radians
 209:Src/utils.c   ****  * @param angle2
 210:Src/utils.c   ****  * The second angle in radians
 211:Src/utils.c   ****  * @return
 212:Src/utils.c   ****  * The difference between the angles in radians
 213:Src/utils.c   ****  */
 214:Src/utils.c   **** float utils_angle_difference_rad(float angle1, float angle2)
 215:Src/utils.c   **** {
 216:Src/utils.c   **** 	float difference = angle1 - angle2;
 217:Src/utils.c   **** 	while (difference < -MF_PI)
 218:Src/utils.c   **** 		difference += M_2PI;
 219:Src/utils.c   **** 	while (difference > MF_PI)
 220:Src/utils.c   **** 		difference -= M_2PI;
 221:Src/utils.c   **** 	return difference;
 222:Src/utils.c   **** }
 223:Src/utils.c   **** 
 224:Src/utils.c   **** /**
 225:Src/utils.c   ****  * Takes the average of a number of angles.
 226:Src/utils.c   ****  *
 227:Src/utils.c   ****  * @param angles
 228:Src/utils.c   ****  * The angles in radians.
 229:Src/utils.c   ****  *
 230:Src/utils.c   ****  * @param angles_num
 231:Src/utils.c   ****  * The number of angles.
 232:Src/utils.c   ****  *
 233:Src/utils.c   ****  * @param weights
 234:Src/utils.c   ****  * The weight of the summarized angles
 235:Src/utils.c   ****  *
 236:Src/utils.c   ****  * @return
 237:Src/utils.c   ****  * The average angle.
 238:Src/utils.c   ****  */
 239:Src/utils.c   **** float utils_avg_angles_rad_fast(float *angles, float *weights, int angles_num)
 240:Src/utils.c   **** {
 241:Src/utils.c   **** 	float s_sum = 0.0;
 242:Src/utils.c   **** 	float c_sum = 0.0;
 243:Src/utils.c   **** 
 244:Src/utils.c   **** 	for (int i = 0; i < angles_num; i++)
 245:Src/utils.c   **** 	{
 246:Src/utils.c   **** 		float s, c;
 247:Src/utils.c   **** 		s = utSin(angles[i]);
 248:Src/utils.c   **** 		c = utCos(angles[i]);
 249:Src/utils.c   **** 		s_sum += s * weights[i];
 250:Src/utils.c   **** 		c_sum += c * weights[i];
 251:Src/utils.c   **** 	}
 252:Src/utils.c   **** 
 253:Src/utils.c   **** 	return utils_fast_atan2(s_sum, c_sum);
 254:Src/utils.c   **** }
 255:Src/utils.c   **** 
 256:Src/utils.c   **** /* Returns average value of 2 angles */
 257:Src/utils.c   **** float utils_avg_angle_rad_fast(float angle1, float angle2)
 258:Src/utils.c   **** {
ARM GAS  D:\apps\VSCode\data\tmp\ccbZzZbG.s 			page 6


 259:Src/utils.c   **** 		float s1, c1, s2, c2;
 260:Src/utils.c   **** 		s1 = utSin(angle1);
 261:Src/utils.c   **** 		c1 = utCos(angle1);
 262:Src/utils.c   **** 		s2 = utSin(angle2);
 263:Src/utils.c   **** 		c2 = utCos(angle2);
 264:Src/utils.c   **** 
 265:Src/utils.c   **** 	return utils_fast_atan2(s1 + s2, c1 + c2);
 266:Src/utils.c   **** }
 267:Src/utils.c   **** 
 268:Src/utils.c   **** /**
 269:Src/utils.c   ****  * Get the middle value of three values
 270:Src/utils.c   ****  *
 271:Src/utils.c   ****  * @param a
 272:Src/utils.c   ****  * First value
 273:Src/utils.c   ****  *
 274:Src/utils.c   ****  * @param b
 275:Src/utils.c   ****  * Second value
 276:Src/utils.c   ****  *
 277:Src/utils.c   ****  * @param c
 278:Src/utils.c   ****  * Third value
 279:Src/utils.c   ****  *
 280:Src/utils.c   ****  * @return
 281:Src/utils.c   ****  * The middle value
 282:Src/utils.c   ****  */
 283:Src/utils.c   **** float utils_middle_of_3(float a, float b, float c)
 284:Src/utils.c   **** {
 285:Src/utils.c   **** 	float middle;
 286:Src/utils.c   **** 
 287:Src/utils.c   **** 	if ((a <= b) && (a <= c))
 288:Src/utils.c   **** 	{
 289:Src/utils.c   **** 		middle = (b <= c) ? b : c;
 290:Src/utils.c   **** 	}
 291:Src/utils.c   **** 	else if ((b <= a) && (b <= c))
 292:Src/utils.c   **** 	{
 293:Src/utils.c   **** 		middle = (a <= c) ? a : c;
 294:Src/utils.c   **** 	}
 295:Src/utils.c   **** 	else
 296:Src/utils.c   **** 	{
 297:Src/utils.c   **** 		middle = (a <= b) ? a : b;
 298:Src/utils.c   **** 	}
 299:Src/utils.c   **** 	return middle;
 300:Src/utils.c   **** }
 301:Src/utils.c   **** 
 302:Src/utils.c   **** /**
 303:Src/utils.c   ****  * Get the middle value of three values
 304:Src/utils.c   ****  *
 305:Src/utils.c   ****  * @param a
 306:Src/utils.c   ****  * First value
 307:Src/utils.c   ****  *
 308:Src/utils.c   ****  * @param b
 309:Src/utils.c   ****  * Second value
 310:Src/utils.c   ****  *
 311:Src/utils.c   ****  * @param c
 312:Src/utils.c   ****  * Third value
 313:Src/utils.c   ****  *
 314:Src/utils.c   ****  * @return
 315:Src/utils.c   ****  * The middle value
ARM GAS  D:\apps\VSCode\data\tmp\ccbZzZbG.s 			page 7


 316:Src/utils.c   ****  */
 317:Src/utils.c   **** int utils_middle_of_3_int(int a, int b, int c)
 318:Src/utils.c   **** {
 319:Src/utils.c   **** 	int middle;
 320:Src/utils.c   **** 
 321:Src/utils.c   **** 	if ((a <= b) && (a <= c))
 322:Src/utils.c   **** 	{
 323:Src/utils.c   **** 		middle = (b <= c) ? b : c;
 324:Src/utils.c   **** 	}
 325:Src/utils.c   **** 	else if ((b <= a) && (b <= c))
 326:Src/utils.c   **** 	{
 327:Src/utils.c   **** 		middle = (a <= c) ? a : c;
 328:Src/utils.c   **** 	}
 329:Src/utils.c   **** 	else
 330:Src/utils.c   **** 	{
 331:Src/utils.c   **** 		middle = (a <= b) ? a : b;
 332:Src/utils.c   **** 	}
 333:Src/utils.c   **** 	return middle;
 334:Src/utils.c   **** }
 335:Src/utils.c   **** 
 336:Src/utils.c   **** // Fast inverse square-root
 337:Src/utils.c   **** // See: http://en.wikipedia.org/wiki/Fast_inverse_square_root
 338:Src/utils.c   **** float utils_fast_inv_sqrt(float x)
 339:Src/utils.c   **** {
 340:Src/utils.c   **** 	union {
 341:Src/utils.c   **** 		float as_float;
 342:Src/utils.c   **** 		long as_int;
 343:Src/utils.c   **** 	} un;
 344:Src/utils.c   **** 
 345:Src/utils.c   **** 	float xhalf = 0.5f * x;
 346:Src/utils.c   **** 	un.as_float = x;
 347:Src/utils.c   **** 	un.as_int = 0x5f3759df - (un.as_int >> 1);
 348:Src/utils.c   **** 	un.as_float = un.as_float * (1.5f - xhalf * un.as_float * un.as_float);
 349:Src/utils.c   **** 	return un.as_float;
 350:Src/utils.c   **** }
 351:Src/utils.c   **** 
 352:Src/utils.c   **** /**
 353:Src/utils.c   ****  * Fast atan2
 354:Src/utils.c   ****  * ~160 CPU ticks on Cortex-M4F
 355:Src/utils.c   ****  * See http://www.dspguru.com/dsp/tricks/fixed-point-atan2-with-self-normalization
 356:Src/utils.c   ****  *
 357:Src/utils.c   ****  * @param y
 358:Src/utils.c   ****  * y
 359:Src/utils.c   ****  *
 360:Src/utils.c   ****  * @param x
 361:Src/utils.c   ****  * x
 362:Src/utils.c   ****  *
 363:Src/utils.c   ****  * @return
 364:Src/utils.c   ****  * The angle in radians
 365:Src/utils.c   ****  */
 366:Src/utils.c   **** float utils_fast_atan2(float y, float x)
 367:Src/utils.c   **** {
 368:Src/utils.c   **** 	float abs_y = fabsf(y) + 1e-20f; // kludge to prevent 0/0 condition
 369:Src/utils.c   **** 	float angle;
 370:Src/utils.c   **** 
 371:Src/utils.c   **** 	if (x >= 0)
 372:Src/utils.c   **** 	{
ARM GAS  D:\apps\VSCode\data\tmp\ccbZzZbG.s 			page 8


 373:Src/utils.c   **** 		float r = (x - abs_y) / (x + abs_y);
 374:Src/utils.c   **** 		float rsq = r * r;
 375:Src/utils.c   **** 		angle = ((0.1963f * rsq) - 0.9817f) * r + (MF_PI / 4.0f);
 376:Src/utils.c   **** 	}
 377:Src/utils.c   **** 	else
 378:Src/utils.c   **** 	{
 379:Src/utils.c   **** 		float r = (x + abs_y) / (abs_y - x);
 380:Src/utils.c   **** 		float rsq = r * r;
 381:Src/utils.c   **** 		angle = ((0.1963f * rsq) - 0.9817f) * r + (3.0f * MF_PI / 4.0f);
 382:Src/utils.c   **** 	}
 383:Src/utils.c   **** 
 384:Src/utils.c   **** 	if (y < 0)
 385:Src/utils.c   **** 	{
 386:Src/utils.c   **** 		return (-angle);
 387:Src/utils.c   **** 	}
 388:Src/utils.c   **** 	else
 389:Src/utils.c   **** 	{
 390:Src/utils.c   **** 		return (angle);
 391:Src/utils.c   **** 	}
 392:Src/utils.c   **** }
 393:Src/utils.c   **** 
 394:Src/utils.c   **** /**
 395:Src/utils.c   ****  * Truncate the magnitude of a vector.
 396:Src/utils.c   ****  *
 397:Src/utils.c   ****  * @param x
 398:Src/utils.c   ****  * The first component.
 399:Src/utils.c   ****  *
 400:Src/utils.c   ****  * @param y
 401:Src/utils.c   ****  * The second component.
 402:Src/utils.c   ****  *
 403:Src/utils.c   ****  * @param max
 404:Src/utils.c   ****  * The maximum magnitude.
 405:Src/utils.c   ****  *
 406:Src/utils.c   ****  * @return
 407:Src/utils.c   ****  * True if saturation happened, false otherwise
 408:Src/utils.c   ****  */
 409:Src/utils.c   **** bool utils_saturate_vector_2d(float *x, float *y, float max)
 410:Src/utils.c   **** {
 411:Src/utils.c   **** 	bool retval = false;
 412:Src/utils.c   **** 	float mag = sqrtf(SQ(*x) + SQ(*y));
 413:Src/utils.c   **** 	max = fabsf(max);
 414:Src/utils.c   **** 
 415:Src/utils.c   **** 	if (mag < 1e-10f)
 416:Src/utils.c   **** 	{
 417:Src/utils.c   **** 		mag = 1e-10f;
 418:Src/utils.c   **** 	}
 419:Src/utils.c   **** 
 420:Src/utils.c   **** 	if (mag > max)
 421:Src/utils.c   **** 	{
 422:Src/utils.c   **** 		const float f = max / mag;
 423:Src/utils.c   **** 		*x *= f;
 424:Src/utils.c   **** 		*y *= f;
 425:Src/utils.c   **** 		retval = true;
 426:Src/utils.c   **** 	}
 427:Src/utils.c   **** 
 428:Src/utils.c   **** 	return retval;
 429:Src/utils.c   **** }
ARM GAS  D:\apps\VSCode\data\tmp\ccbZzZbG.s 			page 9


 430:Src/utils.c   **** 
 431:Src/utils.c   **** /**
 432:Src/utils.c   ****  * Fast sine and cosine implementation.
 433:Src/utils.c   ****  *
 434:Src/utils.c   ****  * See http://lab.polygonal.de/?p=205
 435:Src/utils.c   ****  *
 436:Src/utils.c   ****  * @param angle
 437:Src/utils.c   ****  * The angle in radians
 438:Src/utils.c   ****  * WARNING: Don't use too large angles.
 439:Src/utils.c   ****  *
 440:Src/utils.c   ****  * @param sin
 441:Src/utils.c   ****  * A pointer to store the sine value.
 442:Src/utils.c   ****  *
 443:Src/utils.c   ****  * @param cos
 444:Src/utils.c   ****  * A pointer to store the cosine value.
 445:Src/utils.c   ****  */
 446:Src/utils.c   **** void utils_fast_sincos(float angle, float *sin, float *cos)
 447:Src/utils.c   **** {
 448:Src/utils.c   **** 	//always wrap input angle to -PI..PI
 449:Src/utils.c   **** 	while (angle < -M_PI)
 450:Src/utils.c   **** 	{
 451:Src/utils.c   **** 		angle += 2.0f * M_PI;
 452:Src/utils.c   **** 	}
 453:Src/utils.c   **** 
 454:Src/utils.c   **** 	while (angle > M_PI)
 455:Src/utils.c   **** 	{
 456:Src/utils.c   **** 		angle -= 2.0f * M_PI;
 457:Src/utils.c   **** 	}
 458:Src/utils.c   **** 
 459:Src/utils.c   **** 	// compute sine
 460:Src/utils.c   **** 	if (angle < 0.0f)
 461:Src/utils.c   **** 	{
 462:Src/utils.c   **** 		*sin = 1.27323954f * angle + 0.405284735f * angle * angle;
 463:Src/utils.c   **** 	}
 464:Src/utils.c   **** 	else
 465:Src/utils.c   **** 	{
 466:Src/utils.c   **** 		*sin = 1.27323954f * angle - 0.405284735f * angle * angle;
 467:Src/utils.c   **** 	}
 468:Src/utils.c   **** 
 469:Src/utils.c   **** 	// compute cosine: sin(x + PI/2) = cos(x)
 470:Src/utils.c   **** 	angle += 0.5f * M_PI;
 471:Src/utils.c   **** 
 472:Src/utils.c   **** 	if (angle > M_PI)
 473:Src/utils.c   **** 	{
 474:Src/utils.c   **** 		angle -= 2.0f * M_PI;
 475:Src/utils.c   **** 	}
 476:Src/utils.c   **** 
 477:Src/utils.c   **** 	if (angle < 0.0f)
 478:Src/utils.c   **** 	{
 479:Src/utils.c   **** 		*cos = 1.27323954f * angle + 0.405284735f * angle * angle;
 480:Src/utils.c   **** 	}
 481:Src/utils.c   **** 	else
 482:Src/utils.c   **** 	{
 483:Src/utils.c   **** 		*cos = 1.27323954f * angle - 0.405284735f * angle * angle;
 484:Src/utils.c   **** 	}
 485:Src/utils.c   **** }
 486:Src/utils.c   **** 
ARM GAS  D:\apps\VSCode\data\tmp\ccbZzZbG.s 			page 10


 487:Src/utils.c   **** /**
 488:Src/utils.c   ****  * Fast sine implementation. (~100 cycles)
 489:Src/utils.c   ****  *
 490:Src/utils.c   ****  * See http://lab.polygonal.de/?p=205
 491:Src/utils.c   ****  *
 492:Src/utils.c   ****  * @param angle
 493:Src/utils.c   ****  * The angle in radians
 494:Src/utils.c   ****  * WARNING: Don't use too large angles.
 495:Src/utils.c   **** 
 496:Src/utils.c   ****  */
 497:Src/utils.c   **** float utSin(float angle)
 498:Src/utils.c   **** {
 499:Src/utils.c   **** 	float fsin;
 500:Src/utils.c   **** 	//always wrap input angle to -PI..PI
 501:Src/utils.c   **** 	while (angle < -MF_PI)
 502:Src/utils.c   **** 	{
 503:Src/utils.c   **** 		angle += M_2PI;
 504:Src/utils.c   **** 	}
 505:Src/utils.c   **** 
 506:Src/utils.c   **** 	while (angle > MF_PI)
 507:Src/utils.c   **** 	{
 508:Src/utils.c   **** 		angle -= M_2PI;
 509:Src/utils.c   **** 	}
 510:Src/utils.c   **** 
 511:Src/utils.c   **** 	if (angle < 0.f)
 512:Src/utils.c   **** 	{
 513:Src/utils.c   **** 		fsin = 1.27323954f * angle + 0.405284735f * angle * angle;
 514:Src/utils.c   **** 
 515:Src/utils.c   **** 		if (fsin < 0.f)
 516:Src/utils.c   **** 		{
 517:Src/utils.c   **** 			fsin = 0.225f * (fsin * -fsin - fsin) + fsin;
 518:Src/utils.c   **** 		}
 519:Src/utils.c   **** 		else
 520:Src/utils.c   **** 		{
 521:Src/utils.c   **** 			fsin = 0.225f * (fsin * fsin - fsin) + fsin;
 522:Src/utils.c   **** 		}
 523:Src/utils.c   **** 	}
 524:Src/utils.c   **** 	else
 525:Src/utils.c   **** 	{
 526:Src/utils.c   **** 		fsin = 1.27323954f * angle - 0.405284735f * angle * angle;
 527:Src/utils.c   **** 
 528:Src/utils.c   **** 		if (fsin < 0.f)
 529:Src/utils.c   **** 		{
 530:Src/utils.c   **** 			fsin = 0.225f * (fsin * -fsin - fsin) + fsin;
 531:Src/utils.c   **** 		}
 532:Src/utils.c   **** 		else
 533:Src/utils.c   **** 		{
 534:Src/utils.c   **** 			fsin = 0.225f * (fsin * fsin - fsin) + fsin;
 535:Src/utils.c   **** 		}
 536:Src/utils.c   **** 	}
 537:Src/utils.c   **** 	return fsin;
 538:Src/utils.c   **** }
 539:Src/utils.c   **** 
 540:Src/utils.c   **** /**
 541:Src/utils.c   ****  * Fast cos implementation. (~100 cycles)
 542:Src/utils.c   ****  *
 543:Src/utils.c   ****  * See http://lab.polygonal.de/?p=205
ARM GAS  D:\apps\VSCode\data\tmp\ccbZzZbG.s 			page 11


 544:Src/utils.c   ****  *
 545:Src/utils.c   ****  * @param angle
 546:Src/utils.c   ****  * The angle in radians
 547:Src/utils.c   ****  * WARNING: Don't use too large angles.
 548:Src/utils.c   ****  * 
 549:Src/utils.c   ****  */
 550:Src/utils.c   **** float utCos(float angle)
 551:Src/utils.c   **** {
 552:Src/utils.c   **** 	float fsin;
 553:Src/utils.c   **** 	//always wrap input angle to -PI..PI
 554:Src/utils.c   **** 	while (angle < -MF_PI)
 555:Src/utils.c   **** 	{
 556:Src/utils.c   **** 		angle += M_2PI;
 557:Src/utils.c   **** 	}
 558:Src/utils.c   **** 
 559:Src/utils.c   **** 	while (angle > MF_PI)
 560:Src/utils.c   **** 	{
 561:Src/utils.c   **** 		angle -= M_2PI;
 562:Src/utils.c   **** 	}
 563:Src/utils.c   **** 
 564:Src/utils.c   **** 	// compute cosine: sin(x + PI/2) = cos(x)
 565:Src/utils.c   **** 	angle += M_PI2;
 566:Src/utils.c   **** 	if (angle > MF_PI)
 567:Src/utils.c   **** 	{
 568:Src/utils.c   **** 		angle -= M_2PI;
 569:Src/utils.c   **** 	}
 570:Src/utils.c   **** 
 571:Src/utils.c   **** 	if (angle < 0.0f)
 572:Src/utils.c   **** 	{
 573:Src/utils.c   **** 		fsin = 1.27323954f * angle + 0.405284735f * angle * angle;
 574:Src/utils.c   **** 
 575:Src/utils.c   **** 		if (fsin < 0.0f)
 576:Src/utils.c   **** 		{
 577:Src/utils.c   **** 			fsin = 0.225f * (fsin * -fsin - fsin) + fsin;
 578:Src/utils.c   **** 		}
 579:Src/utils.c   **** 		else
 580:Src/utils.c   **** 		{
 581:Src/utils.c   **** 			fsin = 0.225f * (fsin * fsin - fsin) + fsin;
 582:Src/utils.c   **** 		}
 583:Src/utils.c   **** 	}
 584:Src/utils.c   **** 	else
 585:Src/utils.c   **** 	{
 586:Src/utils.c   **** 		fsin = 1.27323954f * angle - 0.405284735f * angle * angle;
 587:Src/utils.c   **** 
 588:Src/utils.c   **** 		if (fsin < 0.0f)
 589:Src/utils.c   **** 		{
 590:Src/utils.c   **** 			fsin = 0.225f * (fsin * -fsin - fsin) + fsin;
 591:Src/utils.c   **** 		}
 592:Src/utils.c   **** 		else
 593:Src/utils.c   **** 		{
 594:Src/utils.c   **** 			fsin = 0.225f * (fsin * fsin - fsin) + fsin;
 595:Src/utils.c   **** 		}
 596:Src/utils.c   **** 	}
 597:Src/utils.c   **** 	return fsin;
 598:Src/utils.c   **** }
 599:Src/utils.c   **** 
 600:Src/utils.c   **** /**
ARM GAS  D:\apps\VSCode\data\tmp\ccbZzZbG.s 			page 12


 601:Src/utils.c   ****  * Calculate the values with the lowest magnitude.
 602:Src/utils.c   ****  *
 603:Src/utils.c   ****  * @param va
 604:Src/utils.c   ****  * The first value.
 605:Src/utils.c   ****  *
 606:Src/utils.c   ****  * @param vb
 607:Src/utils.c   ****  * The second value.
 608:Src/utils.c   ****  *
 609:Src/utils.c   ****  * @return
 610:Src/utils.c   ****  * The value with the lowest magnitude.
 611:Src/utils.c   ****  */
 612:Src/utils.c   **** float utils_min_abs(float va, float vb)
 613:Src/utils.c   **** {
 614:Src/utils.c   **** 	float res;
 615:Src/utils.c   **** 	if (fabsf(va) < fabsf(vb))
 616:Src/utils.c   **** 	{
 617:Src/utils.c   **** 		res = va;
 618:Src/utils.c   **** 	}
 619:Src/utils.c   **** 	else
 620:Src/utils.c   **** 	{
 621:Src/utils.c   **** 		res = vb;
 622:Src/utils.c   **** 	}
 623:Src/utils.c   **** 
 624:Src/utils.c   **** 	return res;
 625:Src/utils.c   **** }
 626:Src/utils.c   **** 
 627:Src/utils.c   **** /**
 628:Src/utils.c   ****  * Calculate the values with the highest magnitude.
 629:Src/utils.c   ****  *
 630:Src/utils.c   ****  * @param va
 631:Src/utils.c   ****  * The first value.
 632:Src/utils.c   ****  *
 633:Src/utils.c   ****  * @param vb
 634:Src/utils.c   ****  * The second value.
 635:Src/utils.c   ****  *
 636:Src/utils.c   ****  * @return
 637:Src/utils.c   ****  * The value with the highest magnitude.
 638:Src/utils.c   ****  */
 639:Src/utils.c   **** float utils_max_abs(float va, float vb)
 640:Src/utils.c   **** {
 641:Src/utils.c   **** 	float res;
 642:Src/utils.c   **** 	if (fabsf(va) > fabsf(vb))
 643:Src/utils.c   **** 	{
 644:Src/utils.c   **** 		res = va;
 645:Src/utils.c   **** 	}
 646:Src/utils.c   **** 	else
 647:Src/utils.c   **** 	{
 648:Src/utils.c   **** 		res = vb;
 649:Src/utils.c   **** 	}
 650:Src/utils.c   **** 
 651:Src/utils.c   **** 	return res;
 652:Src/utils.c   **** }
 653:Src/utils.c   **** 
 654:Src/utils.c   **** /**
 655:Src/utils.c   ****  * Create string representation of the binary content of a byte
 656:Src/utils.c   ****  *
 657:Src/utils.c   ****  * @param x
ARM GAS  D:\apps\VSCode\data\tmp\ccbZzZbG.s 			page 13


 658:Src/utils.c   ****  * The byte.
 659:Src/utils.c   ****  *
 660:Src/utils.c   ****  * @param b
 661:Src/utils.c   ****  * Array to store the string representation in.
 662:Src/utils.c   ****  */
 663:Src/utils.c   **** void utils_byte_to_binary(int x, char *b)
 664:Src/utils.c   **** {
 665:Src/utils.c   **** 	b[0] = '\0';
 666:Src/utils.c   **** 
 667:Src/utils.c   **** 	int z;
 668:Src/utils.c   **** 	for (z = 128; z > 0; z >>= 1)
 669:Src/utils.c   **** 	{
 670:Src/utils.c   **** 		strcat(b, ((x & z) == z) ? "1" : "0");
 671:Src/utils.c   **** 	}
 672:Src/utils.c   **** }
 673:Src/utils.c   **** 
 674:Src/utils.c   **** float utils_throttle_curve(float val, float curve_acc, float curve_brake, int mode)
 675:Src/utils.c   **** {
 676:Src/utils.c   **** 	float ret = 0.0;
 677:Src/utils.c   **** 
 678:Src/utils.c   **** 	if (val < -1.0)
 679:Src/utils.c   **** 	{
 680:Src/utils.c   **** 		val = -1.0;
 681:Src/utils.c   **** 	}
 682:Src/utils.c   **** 
 683:Src/utils.c   **** 	if (val > 1.0)
 684:Src/utils.c   **** 	{
 685:Src/utils.c   **** 		val = 1.0;
 686:Src/utils.c   **** 	}
 687:Src/utils.c   **** 
 688:Src/utils.c   **** 	float val_a = fabsf(val);
 689:Src/utils.c   **** 
 690:Src/utils.c   **** 	float curve;
 691:Src/utils.c   **** 	if (val >= 0.0)
 692:Src/utils.c   **** 	{
 693:Src/utils.c   **** 		curve = curve_acc;
 694:Src/utils.c   **** 	}
 695:Src/utils.c   **** 	else
 696:Src/utils.c   **** 	{
 697:Src/utils.c   **** 		curve = curve_brake;
 698:Src/utils.c   **** 	}
 699:Src/utils.c   **** 
 700:Src/utils.c   **** 	// See
 701:Src/utils.c   **** 	// http://math.stackexchange.com/questions/297768/how-would-i-create-a-exponential-ramp-function-f
 702:Src/utils.c   **** 	if (mode == 0)
 703:Src/utils.c   **** 	{ // Exponential
 704:Src/utils.c   **** 		if (curve >= 0.0)
 705:Src/utils.c   **** 		{
 706:Src/utils.c   **** 			ret = 1.0 - powf(1.0 - val_a, 1.0 + curve);
 707:Src/utils.c   **** 		}
 708:Src/utils.c   **** 		else
 709:Src/utils.c   **** 		{
 710:Src/utils.c   **** 			ret = powf(val_a, 1.0 - curve);
 711:Src/utils.c   **** 		}
 712:Src/utils.c   **** 	}
 713:Src/utils.c   **** 	else if (mode == 1)
 714:Src/utils.c   **** 	{ // Natural
ARM GAS  D:\apps\VSCode\data\tmp\ccbZzZbG.s 			page 14


 715:Src/utils.c   **** 		if (fabsf(curve) < 1e-10)
 716:Src/utils.c   **** 		{
 717:Src/utils.c   **** 			ret = val_a;
 718:Src/utils.c   **** 		}
 719:Src/utils.c   **** 		else
 720:Src/utils.c   **** 		{
 721:Src/utils.c   **** 			if (curve >= 0.0)
 722:Src/utils.c   **** 			{
 723:Src/utils.c   **** 				ret = 1.0 - ((expf(curve * (1.0 - val_a)) - 1.0) / (expf(curve) - 1.0));
 724:Src/utils.c   **** 			}
 725:Src/utils.c   **** 			else
 726:Src/utils.c   **** 			{
 727:Src/utils.c   **** 				ret = (expf(-curve * val_a) - 1.0) / (expf(-curve) - 1.0);
 728:Src/utils.c   **** 			}
 729:Src/utils.c   **** 		}
 730:Src/utils.c   **** 	}
 731:Src/utils.c   **** 	else if (mode == 2)
 732:Src/utils.c   **** 	{ // Polynomial
 733:Src/utils.c   **** 		if (curve >= 0.0)
 734:Src/utils.c   **** 		{
 735:Src/utils.c   **** 			ret = 1.0 - ((1.0 - val_a) / (1.0 + curve * val_a));
 736:Src/utils.c   **** 		}
 737:Src/utils.c   **** 		else
 738:Src/utils.c   **** 		{
 739:Src/utils.c   **** 			ret = val_a / (1.0 - curve * (1.0 - val_a));
 740:Src/utils.c   **** 		}
 741:Src/utils.c   **** 	}
 742:Src/utils.c   **** 	else
 743:Src/utils.c   **** 	{ // Linear
 744:Src/utils.c   **** 		ret = val_a;
 745:Src/utils.c   **** 	}
 746:Src/utils.c   **** 
 747:Src/utils.c   **** 	if (val < 0.0)
 748:Src/utils.c   **** 	{
 749:Src/utils.c   **** 		ret = -ret;
 750:Src/utils.c   **** 	}
 751:Src/utils.c   **** 
 752:Src/utils.c   **** 	return ret;
 753:Src/utils.c   **** }
 754:Src/utils.c   **** 
 755:Src/utils.c   **** uint32_t utils_crc32c(uint8_t *data, uint32_t len)
 756:Src/utils.c   **** {
 757:Src/utils.c   **** 	uint32_t crc = 0xFFFFFFFF;
 758:Src/utils.c   **** 
 759:Src/utils.c   **** 	for (uint32_t i = 0; i < len; i++)
 760:Src/utils.c   **** 	{
 761:Src/utils.c   **** 		uint32_t byte = data[i];
 762:Src/utils.c   **** 		crc = crc ^ byte;
 763:Src/utils.c   **** 
 764:Src/utils.c   **** 		for (int j = 7; j >= 0; j--)
 765:Src/utils.c   **** 		{
 766:Src/utils.c   **** 			uint32_t mask = -(crc & 1);
 767:Src/utils.c   **** 			crc = (crc >> 1) ^ (0x82F63B78 & mask);
 768:Src/utils.c   **** 		}
 769:Src/utils.c   **** 	}
 770:Src/utils.c   **** 
 771:Src/utils.c   **** 	return ~crc;
ARM GAS  D:\apps\VSCode\data\tmp\ccbZzZbG.s 			page 15


 772:Src/utils.c   **** }
 773:Src/utils.c   **** 
 774:Src/utils.c   **** // Yes, this is only the average...
 775:Src/utils.c   **** void utils_fft32_bin0(float *real_in, float *real, float *imag)
 776:Src/utils.c   **** {
 777:Src/utils.c   **** 	*real = 0.0;
 778:Src/utils.c   **** 	*imag = 0.0;
 779:Src/utils.c   **** 
 780:Src/utils.c   **** 	for (int i = 0; i < 32; i++)
 781:Src/utils.c   **** 	{
 782:Src/utils.c   **** 		*real += real_in[i];
 783:Src/utils.c   **** 	}
 784:Src/utils.c   **** 
 785:Src/utils.c   **** 	*real /= 32.0;
 786:Src/utils.c   **** }
 787:Src/utils.c   **** 
 788:Src/utils.c   **** void utils_fft16_bin0(float *real_in, float *real, float *imag)
 789:Src/utils.c   **** {
 790:Src/utils.c   **** 	*real = 0.0;
 791:Src/utils.c   **** 	*imag = 0.0;
 792:Src/utils.c   **** 
 793:Src/utils.c   **** 	for (int i = 0; i < 16; i++)
 794:Src/utils.c   **** 	{
 795:Src/utils.c   **** 		*real += real_in[i];
 796:Src/utils.c   **** 	}
 797:Src/utils.c   **** 
 798:Src/utils.c   **** 	*real /= 16.0;
 799:Src/utils.c   **** }
 800:Src/utils.c   **** 
 801:Src/utils.c   **** void utils_fft8_bin0(float *real_in, float *real, float *imag)
 802:Src/utils.c   **** {
 803:Src/utils.c   **** 	*real = 0.0;
 804:Src/utils.c   **** 	*imag = 0.0;
 805:Src/utils.c   **** 
 806:Src/utils.c   **** 	for (int i = 0; i < 8; i++)
 807:Src/utils.c   **** 	{
 808:Src/utils.c   **** 		*real += real_in[i];
 809:Src/utils.c   **** 	}
 810:Src/utils.c   **** 
 811:Src/utils.c   **** 	*real /= 8.0;
 812:Src/utils.c   **** }
 813:Src/utils.c   **** 
 814:Src/utils.c   **** /**
 815:Src/utils.c   ****  * Get ID of second motor.
 816:Src/utils.c   ****  *
 817:Src/utils.c   ****  * @return
 818:Src/utils.c   ****  * id for second motor. -1 if this hardware only has one motor.
 819:Src/utils.c   ****  */
 820:Src/utils.c   **** uint8_t utils_second_motor_id(void)
 821:Src/utils.c   **** {
 822:Src/utils.c   **** #ifdef HW_HAS_DUAL_MOTORS
 823:Src/utils.c   **** 	uint8_t id_next = app_get_configuration()->controller_id + 1;
 824:Src/utils.c   **** 	if (id_next == 255)
 825:Src/utils.c   **** 	{
 826:Src/utils.c   **** 		id_next = 0;
 827:Src/utils.c   **** 	}
 828:Src/utils.c   **** 	return id_next;
ARM GAS  D:\apps\VSCode\data\tmp\ccbZzZbG.s 			page 16


 829:Src/utils.c   **** #else
 830:Src/utils.c   **** 	return 0;
 831:Src/utils.c   **** #endif
 832:Src/utils.c   **** }
 833:Src/utils.c   **** 
 834:Src/utils.c   **** // A mapping of a samsung 30q cell for % remaining capacity vs. voltage from
 835:Src/utils.c   **** // 4.2 to 3.2, note that the you lose 15% of the 3Ah rated capacity in this range
 836:Src/utils.c   **** float utils_batt_liion_norm_v_to_capacity(float norm_v)
 837:Src/utils.c   **** {
 838:Src/utils.c   **** 	// constants for polynomial fit of lithium ion battery
 839:Src/utils.c   **** 	const float li_p[] = {
 840:Src/utils.c   **** 		-2.979767, 5.487810, -3.501286, 1.675683, 0.317147};
 841:Src/utils.c   **** 	utils_truncate_number(&norm_v, 0.0, 1.0);
 842:Src/utils.c   **** 	float v2 = norm_v * norm_v;
 843:Src/utils.c   **** 	float v3 = v2 * norm_v;
 844:Src/utils.c   **** 	float v4 = v3 * norm_v;
 845:Src/utils.c   **** 	float v5 = v4 * norm_v;
 846:Src/utils.c   **** 	float capacity = li_p[0] * v5 + li_p[1] * v4 + li_p[2] * v3 +
 847:Src/utils.c   **** 					 li_p[3] * v2 + li_p[4] * norm_v;
 848:Src/utils.c   **** 	return capacity;
 849:Src/utils.c   **** }
 850:Src/utils.c   **** 
 851:Src/utils.c   **** static int uint16_cmp_func(const void *a, const void *b)
 852:Src/utils.c   **** {
  29              		.loc 1 852 1 view -0
  30              		.cfi_startproc
  31              		@ args = 0, pretend = 0, frame = 0
  32              		@ frame_needed = 0, uses_anonymous_args = 0
  33              		@ link register save eliminated.
 853:Src/utils.c   **** 	return (*(uint16_t *)a - *(uint16_t *)b);
  34              		.loc 1 853 2 view .LVU1
  35              		.loc 1 853 10 is_stmt 0 view .LVU2
  36 0000 0088     		ldrh	r0, [r0]
  37              	.LVL1:
  38              		.loc 1 853 27 view .LVU3
  39 0002 0B88     		ldrh	r3, [r1]
 854:Src/utils.c   **** }
  40              		.loc 1 854 1 view .LVU4
  41 0004 C01A     		subs	r0, r0, r3
  42 0006 7047     		bx	lr
  43              		.cfi_endproc
  44              	.LFE37:
  46              		.section	.text.utils_step_towards,"ax",%progbits
  47              		.align	1
  48              		.global	utils_step_towards
  49              		.syntax unified
  50              		.thumb
  51              		.thumb_func
  52              		.fpu fpv4-sp-d16
  54              	utils_step_towards:
  55              	.LVL2:
  56              	.LFB5:
  29:Src/utils.c   **** 	if (*value < goal)
  57              		.loc 1 29 1 is_stmt 1 view -0
  58              		.cfi_startproc
  59              		@ args = 0, pretend = 0, frame = 0
  60              		@ frame_needed = 0, uses_anonymous_args = 0
ARM GAS  D:\apps\VSCode\data\tmp\ccbZzZbG.s 			page 17


  61              		@ link register save eliminated.
  30:Src/utils.c   **** 	{
  62              		.loc 1 30 2 view .LVU6
  30:Src/utils.c   **** 	{
  63              		.loc 1 30 6 is_stmt 0 view .LVU7
  64 0000 D0ED007A 		vldr.32	s15, [r0]
  30:Src/utils.c   **** 	{
  65              		.loc 1 30 5 view .LVU8
  66 0004 F4EEC07A 		vcmpe.f32	s15, s0
  67 0008 F1EE10FA 		vmrs	APSR_nzcv, FPSCR
  68 000c 0CD5     		bpl	.L15
  32:Src/utils.c   **** 		{
  69              		.loc 1 32 3 is_stmt 1 view .LVU9
  32:Src/utils.c   **** 		{
  70              		.loc 1 32 15 is_stmt 0 view .LVU10
  71 000e 77EEA07A 		vadd.f32	s15, s15, s1
  32:Src/utils.c   **** 		{
  72              		.loc 1 32 6 view .LVU11
  73 0012 F4EEC07A 		vcmpe.f32	s15, s0
  74 0016 F1EE10FA 		vmrs	APSR_nzcv, FPSCR
  75 001a 02D5     		bpl	.L16
  34:Src/utils.c   **** 		}
  76              		.loc 1 34 4 is_stmt 1 view .LVU12
  34:Src/utils.c   **** 		}
  77              		.loc 1 34 11 is_stmt 0 view .LVU13
  78 001c C0ED007A 		vstr.32	s15, [r0]
  79 0020 7047     		bx	lr
  80              	.L16:
  38:Src/utils.c   **** 		}
  81              		.loc 1 38 4 is_stmt 1 view .LVU14
  38:Src/utils.c   **** 		}
  82              		.loc 1 38 11 is_stmt 0 view .LVU15
  83 0022 80ED000A 		vstr.32	s0, [r0]
  84 0026 7047     		bx	lr
  85              	.L15:
  41:Src/utils.c   **** 	{
  86              		.loc 1 41 7 is_stmt 1 view .LVU16
  41:Src/utils.c   **** 	{
  87              		.loc 1 41 10 is_stmt 0 view .LVU17
  88 0028 F4EEC07A 		vcmpe.f32	s15, s0
  89 002c F1EE10FA 		vmrs	APSR_nzcv, FPSCR
  90 0030 0BDD     		ble	.L2
  43:Src/utils.c   **** 		{
  91              		.loc 1 43 3 is_stmt 1 view .LVU18
  43:Src/utils.c   **** 		{
  92              		.loc 1 43 15 is_stmt 0 view .LVU19
  93 0032 77EEE07A 		vsub.f32	s15, s15, s1
  43:Src/utils.c   **** 		{
  94              		.loc 1 43 6 view .LVU20
  95 0036 F4EEC07A 		vcmpe.f32	s15, s0
  96 003a F1EE10FA 		vmrs	APSR_nzcv, FPSCR
  97 003e 02DD     		ble	.L17
  45:Src/utils.c   **** 		}
  98              		.loc 1 45 4 is_stmt 1 view .LVU21
  45:Src/utils.c   **** 		}
  99              		.loc 1 45 11 is_stmt 0 view .LVU22
 100 0040 C0ED007A 		vstr.32	s15, [r0]
ARM GAS  D:\apps\VSCode\data\tmp\ccbZzZbG.s 			page 18


 101 0044 7047     		bx	lr
 102              	.L17:
  49:Src/utils.c   **** 		}
 103              		.loc 1 49 4 is_stmt 1 view .LVU23
  49:Src/utils.c   **** 		}
 104              		.loc 1 49 11 is_stmt 0 view .LVU24
 105 0046 80ED000A 		vstr.32	s0, [r0]
 106              	.L2:
  52:Src/utils.c   **** 
 107              		.loc 1 52 1 view .LVU25
 108 004a 7047     		bx	lr
 109              		.cfi_endproc
 110              	.LFE5:
 112              		.section	.text.utils_calc_ratio,"ax",%progbits
 113              		.align	1
 114              		.global	utils_calc_ratio
 115              		.syntax unified
 116              		.thumb
 117              		.thumb_func
 118              		.fpu fpv4-sp-d16
 120              	utils_calc_ratio:
 121              	.LVL3:
 122              	.LFB6:
  55:Src/utils.c   **** 	return (val - low) / (high - low);
 123              		.loc 1 55 1 is_stmt 1 view -0
 124              		.cfi_startproc
 125              		@ args = 0, pretend = 0, frame = 0
 126              		@ frame_needed = 0, uses_anonymous_args = 0
 127              		@ link register save eliminated.
  56:Src/utils.c   **** }
 128              		.loc 1 56 2 view .LVU27
  56:Src/utils.c   **** }
 129              		.loc 1 56 14 is_stmt 0 view .LVU28
 130 0000 31EE401A 		vsub.f32	s2, s2, s0
 131              	.LVL4:
  56:Src/utils.c   **** }
 132              		.loc 1 56 29 view .LVU29
 133 0004 30EEC00A 		vsub.f32	s0, s1, s0
 134              	.LVL5:
  57:Src/utils.c   **** 
 135              		.loc 1 57 1 view .LVU30
 136 0008 81EE000A 		vdiv.f32	s0, s2, s0
 137 000c 7047     		bx	lr
 138              		.cfi_endproc
 139              	.LFE6:
 141              		.section	.text.utils_norm_angle,"ax",%progbits
 142              		.align	1
 143              		.global	utils_norm_angle
 144              		.syntax unified
 145              		.thumb
 146              		.thumb_func
 147              		.fpu fpv4-sp-d16
 149              	utils_norm_angle:
 150              	.LVL6:
 151              	.LFB7:
  66:Src/utils.c   **** 	*angle = fmodf(*angle, 360.0);
 152              		.loc 1 66 1 is_stmt 1 view -0
ARM GAS  D:\apps\VSCode\data\tmp\ccbZzZbG.s 			page 19


 153              		.cfi_startproc
 154              		@ args = 0, pretend = 0, frame = 0
 155              		@ frame_needed = 0, uses_anonymous_args = 0
  66:Src/utils.c   **** 	*angle = fmodf(*angle, 360.0);
 156              		.loc 1 66 1 is_stmt 0 view .LVU32
 157 0000 10B5     		push	{r4, lr}
 158              	.LCFI0:
 159              		.cfi_def_cfa_offset 8
 160              		.cfi_offset 4, -8
 161              		.cfi_offset 14, -4
 162 0002 0446     		mov	r4, r0
  67:Src/utils.c   **** 
 163              		.loc 1 67 2 is_stmt 1 view .LVU33
  67:Src/utils.c   **** 
 164              		.loc 1 67 11 is_stmt 0 view .LVU34
 165 0004 DFED0A0A 		vldr.32	s1, .L25
 166 0008 90ED000A 		vldr.32	s0, [r0]
 167 000c FFF7FEFF 		bl	fmodf
 168              	.LVL7:
  67:Src/utils.c   **** 
 169              		.loc 1 67 9 view .LVU35
 170 0010 84ED000A 		vstr.32	s0, [r4]
  69:Src/utils.c   **** 	{
 171              		.loc 1 69 2 is_stmt 1 view .LVU36
  69:Src/utils.c   **** 	{
 172              		.loc 1 69 5 is_stmt 0 view .LVU37
 173 0014 B5EEC00A 		vcmpe.f32	s0, #0
 174 0018 F1EE10FA 		vmrs	APSR_nzcv, FPSCR
 175 001c 00D4     		bmi	.L24
 176              	.L19:
  73:Src/utils.c   **** 
 177              		.loc 1 73 1 view .LVU38
 178 001e 10BD     		pop	{r4, pc}
 179              	.LVL8:
 180              	.L24:
  71:Src/utils.c   **** 	}
 181              		.loc 1 71 3 is_stmt 1 view .LVU39
  71:Src/utils.c   **** 	}
 182              		.loc 1 71 10 is_stmt 0 view .LVU40
 183 0020 DFED037A 		vldr.32	s15, .L25
 184 0024 30EE270A 		vadd.f32	s0, s0, s15
 185 0028 84ED000A 		vstr.32	s0, [r4]
  73:Src/utils.c   **** 
 186              		.loc 1 73 1 view .LVU41
 187 002c F7E7     		b	.L19
 188              	.L26:
 189 002e 00BF     		.align	2
 190              	.L25:
 191 0030 0000B443 		.word	1135869952
 192              		.cfi_endproc
 193              	.LFE7:
 195              		.section	.text.utils_norm_angle_rad,"ax",%progbits
 196              		.align	1
 197              		.global	utils_norm_angle_rad
 198              		.syntax unified
 199              		.thumb
 200              		.thumb_func
ARM GAS  D:\apps\VSCode\data\tmp\ccbZzZbG.s 			page 20


 201              		.fpu fpv4-sp-d16
 203              	utils_norm_angle_rad:
 204              	.LVL9:
 205              	.LFB8:
  85:Src/utils.c   **** 	while (*angle < -MF_PI)
 206              		.loc 1 85 1 is_stmt 1 view -0
 207              		.cfi_startproc
 208              		@ args = 0, pretend = 0, frame = 0
 209              		@ frame_needed = 0, uses_anonymous_args = 0
 210              		@ link register save eliminated.
  86:Src/utils.c   **** 	{
 211              		.loc 1 86 2 view .LVU43
 212              	.L28:
  86:Src/utils.c   **** 	{
 213              		.loc 1 86 9 is_stmt 0 view .LVU44
 214 0000 D0ED007A 		vldr.32	s15, [r0]
  86:Src/utils.c   **** 	{
 215              		.loc 1 86 8 view .LVU45
 216 0004 9FED0E7A 		vldr.32	s14, .L32
 217 0008 F4EEC77A 		vcmpe.f32	s15, s14
 218 000c F1EE10FA 		vmrs	APSR_nzcv, FPSCR
 219 0010 0CD5     		bpl	.L30
  88:Src/utils.c   **** 	}
 220              		.loc 1 88 3 is_stmt 1 view .LVU46
  88:Src/utils.c   **** 	}
 221              		.loc 1 88 10 is_stmt 0 view .LVU47
 222 0012 9FED0C7A 		vldr.32	s14, .L32+4
 223 0016 77EE877A 		vadd.f32	s15, s15, s14
 224 001a C0ED007A 		vstr.32	s15, [r0]
 225 001e EFE7     		b	.L28
 226              	.L31:
  93:Src/utils.c   **** 	}
 227              		.loc 1 93 3 is_stmt 1 view .LVU48
  93:Src/utils.c   **** 	}
 228              		.loc 1 93 10 is_stmt 0 view .LVU49
 229 0020 9FED097A 		vldr.32	s14, .L32+8
 230 0024 77EEC77A 		vsub.f32	s15, s15, s14
 231 0028 C0ED007A 		vstr.32	s15, [r0]
 232              	.L30:
  91:Src/utils.c   **** 	{
 233              		.loc 1 91 9 view .LVU50
 234 002c D0ED007A 		vldr.32	s15, [r0]
  91:Src/utils.c   **** 	{
 235              		.loc 1 91 8 view .LVU51
 236 0030 9FED067A 		vldr.32	s14, .L32+12
 237 0034 F4EEC77A 		vcmpe.f32	s15, s14
 238 0038 F1EE10FA 		vmrs	APSR_nzcv, FPSCR
 239 003c F0DC     		bgt	.L31
  95:Src/utils.c   **** 
 240              		.loc 1 95 1 view .LVU52
 241 003e 7047     		bx	lr
 242              	.L33:
 243              		.align	2
 244              	.L32:
 245 0040 DB0F49C0 		.word	-1068953637
 246 0044 DB0F4941 		.word	1095307227
 247 0048 DB0FC940 		.word	1086918619
ARM GAS  D:\apps\VSCode\data\tmp\ccbZzZbG.s 			page 21


 248 004c DB0F4940 		.word	1078530011
 249              		.cfi_endproc
 250              	.LFE8:
 252              		.section	.text.utils_truncate_number,"ax",%progbits
 253              		.align	1
 254              		.global	utils_truncate_number
 255              		.syntax unified
 256              		.thumb
 257              		.thumb_func
 258              		.fpu fpv4-sp-d16
 260              	utils_truncate_number:
 261              	.LVL10:
 262              	.LFB9:
  98:Src/utils.c   **** 	int did_trunc = 0;
 263              		.loc 1 98 1 is_stmt 1 view -0
 264              		.cfi_startproc
 265              		@ args = 0, pretend = 0, frame = 0
 266              		@ frame_needed = 0, uses_anonymous_args = 0
 267              		@ link register save eliminated.
  99:Src/utils.c   **** 
 268              		.loc 1 99 2 view .LVU54
 101:Src/utils.c   **** 	{
 269              		.loc 1 101 2 view .LVU55
 101:Src/utils.c   **** 	{
 270              		.loc 1 101 6 is_stmt 0 view .LVU56
 271 0000 D0ED007A 		vldr.32	s15, [r0]
 101:Src/utils.c   **** 	{
 272              		.loc 1 101 5 view .LVU57
 273 0004 F4EEE07A 		vcmpe.f32	s15, s1
 274 0008 F1EE10FA 		vmrs	APSR_nzcv, FPSCR
 275 000c 03DD     		ble	.L42
 103:Src/utils.c   **** 		did_trunc = 1;
 276              		.loc 1 103 3 is_stmt 1 view .LVU58
 103:Src/utils.c   **** 		did_trunc = 1;
 277              		.loc 1 103 11 is_stmt 0 view .LVU59
 278 000e C0ED000A 		vstr.32	s1, [r0]
 104:Src/utils.c   **** 	}
 279              		.loc 1 104 3 is_stmt 1 view .LVU60
 280              	.LVL11:
 104:Src/utils.c   **** 	}
 281              		.loc 1 104 13 is_stmt 0 view .LVU61
 282 0012 0120     		movs	r0, #1
 283              	.LVL12:
 104:Src/utils.c   **** 	}
 284              		.loc 1 104 13 view .LVU62
 285 0014 7047     		bx	lr
 286              	.LVL13:
 287              	.L42:
 106:Src/utils.c   **** 	{
 288              		.loc 1 106 7 is_stmt 1 view .LVU63
 106:Src/utils.c   **** 	{
 289              		.loc 1 106 10 is_stmt 0 view .LVU64
 290 0016 F4EEC07A 		vcmpe.f32	s15, s0
 291 001a F1EE10FA 		vmrs	APSR_nzcv, FPSCR
 292 001e 03D5     		bpl	.L43
 108:Src/utils.c   **** 		did_trunc = 1;
 293              		.loc 1 108 3 is_stmt 1 view .LVU65
ARM GAS  D:\apps\VSCode\data\tmp\ccbZzZbG.s 			page 22


 108:Src/utils.c   **** 		did_trunc = 1;
 294              		.loc 1 108 11 is_stmt 0 view .LVU66
 295 0020 80ED000A 		vstr.32	s0, [r0]
 109:Src/utils.c   **** 	}
 296              		.loc 1 109 3 is_stmt 1 view .LVU67
 297              	.LVL14:
 109:Src/utils.c   **** 	}
 298              		.loc 1 109 13 is_stmt 0 view .LVU68
 299 0024 0120     		movs	r0, #1
 300              	.LVL15:
 109:Src/utils.c   **** 	}
 301              		.loc 1 109 13 view .LVU69
 302 0026 7047     		bx	lr
 303              	.LVL16:
 304              	.L43:
  99:Src/utils.c   **** 
 305              		.loc 1 99 6 view .LVU70
 306 0028 0020     		movs	r0, #0
 307              	.LVL17:
 112:Src/utils.c   **** }
 308              		.loc 1 112 2 is_stmt 1 view .LVU71
 113:Src/utils.c   **** 
 309              		.loc 1 113 1 is_stmt 0 view .LVU72
 310 002a 7047     		bx	lr
 311              		.cfi_endproc
 312              	.LFE9:
 314              		.section	.text.utils_truncate_number_int,"ax",%progbits
 315              		.align	1
 316              		.global	utils_truncate_number_int
 317              		.syntax unified
 318              		.thumb
 319              		.thumb_func
 320              		.fpu fpv4-sp-d16
 322              	utils_truncate_number_int:
 323              	.LVL18:
 324              	.LFB10:
 116:Src/utils.c   **** 	int did_trunc = 0;
 325              		.loc 1 116 1 is_stmt 1 view -0
 326              		.cfi_startproc
 327              		@ args = 0, pretend = 0, frame = 0
 328              		@ frame_needed = 0, uses_anonymous_args = 0
 329              		@ link register save eliminated.
 117:Src/utils.c   **** 
 330              		.loc 1 117 2 view .LVU74
 119:Src/utils.c   **** 	{
 331              		.loc 1 119 2 view .LVU75
 119:Src/utils.c   **** 	{
 332              		.loc 1 119 6 is_stmt 0 view .LVU76
 333 0000 0368     		ldr	r3, [r0]
 119:Src/utils.c   **** 	{
 334              		.loc 1 119 5 view .LVU77
 335 0002 9342     		cmp	r3, r2
 336 0004 02DD     		ble	.L45
 121:Src/utils.c   **** 		did_trunc = 1;
 337              		.loc 1 121 3 is_stmt 1 view .LVU78
 121:Src/utils.c   **** 		did_trunc = 1;
 338              		.loc 1 121 11 is_stmt 0 view .LVU79
ARM GAS  D:\apps\VSCode\data\tmp\ccbZzZbG.s 			page 23


 339 0006 0260     		str	r2, [r0]
 122:Src/utils.c   **** 	}
 340              		.loc 1 122 3 is_stmt 1 view .LVU80
 341              	.LVL19:
 122:Src/utils.c   **** 	}
 342              		.loc 1 122 13 is_stmt 0 view .LVU81
 343 0008 0120     		movs	r0, #1
 344              	.LVL20:
 122:Src/utils.c   **** 	}
 345              		.loc 1 122 13 view .LVU82
 346 000a 7047     		bx	lr
 347              	.LVL21:
 348              	.L45:
 124:Src/utils.c   **** 	{
 349              		.loc 1 124 7 is_stmt 1 view .LVU83
 124:Src/utils.c   **** 	{
 350              		.loc 1 124 10 is_stmt 0 view .LVU84
 351 000c 8B42     		cmp	r3, r1
 352 000e 02DA     		bge	.L47
 126:Src/utils.c   **** 		did_trunc = 1;
 353              		.loc 1 126 3 is_stmt 1 view .LVU85
 126:Src/utils.c   **** 		did_trunc = 1;
 354              		.loc 1 126 11 is_stmt 0 view .LVU86
 355 0010 0160     		str	r1, [r0]
 127:Src/utils.c   **** 	}
 356              		.loc 1 127 3 is_stmt 1 view .LVU87
 357              	.LVL22:
 127:Src/utils.c   **** 	}
 358              		.loc 1 127 13 is_stmt 0 view .LVU88
 359 0012 0120     		movs	r0, #1
 360              	.LVL23:
 127:Src/utils.c   **** 	}
 361              		.loc 1 127 13 view .LVU89
 362 0014 7047     		bx	lr
 363              	.LVL24:
 364              	.L47:
 117:Src/utils.c   **** 
 365              		.loc 1 117 6 view .LVU90
 366 0016 0020     		movs	r0, #0
 367              	.LVL25:
 130:Src/utils.c   **** }
 368              		.loc 1 130 2 is_stmt 1 view .LVU91
 131:Src/utils.c   **** 
 369              		.loc 1 131 1 is_stmt 0 view .LVU92
 370 0018 7047     		bx	lr
 371              		.cfi_endproc
 372              	.LFE10:
 374              		.section	.text.utils_truncate_number_abs,"ax",%progbits
 375              		.align	1
 376              		.global	utils_truncate_number_abs
 377              		.syntax unified
 378              		.thumb
 379              		.thumb_func
 380              		.fpu fpv4-sp-d16
 382              	utils_truncate_number_abs:
 383              	.LVL26:
 384              	.LFB11:
ARM GAS  D:\apps\VSCode\data\tmp\ccbZzZbG.s 			page 24


 134:Src/utils.c   **** 	int did_trunc = 0;
 385              		.loc 1 134 1 is_stmt 1 view -0
 386              		.cfi_startproc
 387              		@ args = 0, pretend = 0, frame = 0
 388              		@ frame_needed = 0, uses_anonymous_args = 0
 389              		@ link register save eliminated.
 135:Src/utils.c   **** 
 390              		.loc 1 135 2 view .LVU94
 137:Src/utils.c   **** 	{
 391              		.loc 1 137 2 view .LVU95
 137:Src/utils.c   **** 	{
 392              		.loc 1 137 6 is_stmt 0 view .LVU96
 393 0000 D0ED007A 		vldr.32	s15, [r0]
 137:Src/utils.c   **** 	{
 394              		.loc 1 137 5 view .LVU97
 395 0004 F4EEC07A 		vcmpe.f32	s15, s0
 396 0008 F1EE10FA 		vmrs	APSR_nzcv, FPSCR
 397 000c 03DD     		ble	.L56
 139:Src/utils.c   **** 		did_trunc = 1;
 398              		.loc 1 139 3 is_stmt 1 view .LVU98
 139:Src/utils.c   **** 		did_trunc = 1;
 399              		.loc 1 139 11 is_stmt 0 view .LVU99
 400 000e 80ED000A 		vstr.32	s0, [r0]
 140:Src/utils.c   **** 	}
 401              		.loc 1 140 3 is_stmt 1 view .LVU100
 402              	.LVL27:
 140:Src/utils.c   **** 	}
 403              		.loc 1 140 13 is_stmt 0 view .LVU101
 404 0012 0120     		movs	r0, #1
 405              	.LVL28:
 140:Src/utils.c   **** 	}
 406              		.loc 1 140 13 view .LVU102
 407 0014 7047     		bx	lr
 408              	.LVL29:
 409              	.L56:
 142:Src/utils.c   **** 	{
 410              		.loc 1 142 7 is_stmt 1 view .LVU103
 142:Src/utils.c   **** 	{
 411              		.loc 1 142 21 is_stmt 0 view .LVU104
 412 0016 B1EE400A 		vneg.f32	s0, s0
 413              	.LVL30:
 142:Src/utils.c   **** 	{
 414              		.loc 1 142 10 view .LVU105
 415 001a F4EEC07A 		vcmpe.f32	s15, s0
 416 001e F1EE10FA 		vmrs	APSR_nzcv, FPSCR
 417 0022 03D5     		bpl	.L57
 144:Src/utils.c   **** 		did_trunc = 1;
 418              		.loc 1 144 3 is_stmt 1 view .LVU106
 144:Src/utils.c   **** 		did_trunc = 1;
 419              		.loc 1 144 11 is_stmt 0 view .LVU107
 420 0024 80ED000A 		vstr.32	s0, [r0]
 145:Src/utils.c   **** 	}
 421              		.loc 1 145 3 is_stmt 1 view .LVU108
 422              	.LVL31:
 145:Src/utils.c   **** 	}
 423              		.loc 1 145 13 is_stmt 0 view .LVU109
 424 0028 0120     		movs	r0, #1
ARM GAS  D:\apps\VSCode\data\tmp\ccbZzZbG.s 			page 25


 425              	.LVL32:
 145:Src/utils.c   **** 	}
 426              		.loc 1 145 13 view .LVU110
 427 002a 7047     		bx	lr
 428              	.LVL33:
 429              	.L57:
 135:Src/utils.c   **** 
 430              		.loc 1 135 6 view .LVU111
 431 002c 0020     		movs	r0, #0
 432              	.LVL34:
 148:Src/utils.c   **** }
 433              		.loc 1 148 2 is_stmt 1 view .LVU112
 149:Src/utils.c   **** 
 434              		.loc 1 149 1 is_stmt 0 view .LVU113
 435 002e 7047     		bx	lr
 436              		.cfi_endproc
 437              	.LFE11:
 439              		.section	.text.utils_map,"ax",%progbits
 440              		.align	1
 441              		.global	utils_map
 442              		.syntax unified
 443              		.thumb
 444              		.thumb_func
 445              		.fpu fpv4-sp-d16
 447              	utils_map:
 448              	.LVL35:
 449              	.LFB12:
 152:Src/utils.c   **** 	return (x - in_min) * (out_max - out_min) / (in_max - in_min) + out_min;
 450              		.loc 1 152 1 is_stmt 1 view -0
 451              		.cfi_startproc
 452              		@ args = 0, pretend = 0, frame = 0
 453              		@ frame_needed = 0, uses_anonymous_args = 0
 454              		@ link register save eliminated.
 153:Src/utils.c   **** }
 455              		.loc 1 153 2 view .LVU115
 153:Src/utils.c   **** }
 456              		.loc 1 153 12 is_stmt 0 view .LVU116
 457 0000 30EE600A 		vsub.f32	s0, s0, s1
 458              	.LVL36:
 153:Src/utils.c   **** }
 459              		.loc 1 153 33 view .LVU117
 460 0004 32EE612A 		vsub.f32	s4, s4, s3
 461              	.LVL37:
 153:Src/utils.c   **** }
 462              		.loc 1 153 22 view .LVU118
 463 0008 20EE022A 		vmul.f32	s4, s0, s4
 153:Src/utils.c   **** }
 464              		.loc 1 153 54 view .LVU119
 465 000c 31EE601A 		vsub.f32	s2, s2, s1
 466              	.LVL38:
 153:Src/utils.c   **** }
 467              		.loc 1 153 44 view .LVU120
 468 0010 82EE010A 		vdiv.f32	s0, s4, s2
 154:Src/utils.c   **** 
 469              		.loc 1 154 1 view .LVU121
 470 0014 30EE210A 		vadd.f32	s0, s0, s3
 471 0018 7047     		bx	lr
ARM GAS  D:\apps\VSCode\data\tmp\ccbZzZbG.s 			page 26


 472              		.cfi_endproc
 473              	.LFE12:
 475              		.section	.text.utils_map_int,"ax",%progbits
 476              		.align	1
 477              		.global	utils_map_int
 478              		.syntax unified
 479              		.thumb
 480              		.thumb_func
 481              		.fpu fpv4-sp-d16
 483              	utils_map_int:
 484              	.LVL39:
 485              	.LFB13:
 157:Src/utils.c   **** 	return (x - in_min) * (out_max - out_min) / (in_max - in_min) + out_min;
 486              		.loc 1 157 1 is_stmt 1 view -0
 487              		.cfi_startproc
 488              		@ args = 4, pretend = 0, frame = 0
 489              		@ frame_needed = 0, uses_anonymous_args = 0
 490              		@ link register save eliminated.
 157:Src/utils.c   **** 	return (x - in_min) * (out_max - out_min) / (in_max - in_min) + out_min;
 491              		.loc 1 157 1 is_stmt 0 view .LVU123
 492 0000 10B4     		push	{r4}
 493              	.LCFI1:
 494              		.cfi_def_cfa_offset 4
 495              		.cfi_offset 4, -4
 158:Src/utils.c   **** }
 496              		.loc 1 158 2 is_stmt 1 view .LVU124
 158:Src/utils.c   **** }
 497              		.loc 1 158 12 is_stmt 0 view .LVU125
 498 0002 401A     		subs	r0, r0, r1
 499              	.LVL40:
 158:Src/utils.c   **** }
 500              		.loc 1 158 33 view .LVU126
 501 0004 019C     		ldr	r4, [sp, #4]
 502 0006 E41A     		subs	r4, r4, r3
 158:Src/utils.c   **** }
 503              		.loc 1 158 22 view .LVU127
 504 0008 04FB00F0 		mul	r0, r4, r0
 158:Src/utils.c   **** }
 505              		.loc 1 158 54 view .LVU128
 506 000c 521A     		subs	r2, r2, r1
 507              	.LVL41:
 158:Src/utils.c   **** }
 508              		.loc 1 158 44 view .LVU129
 509 000e 90FBF2F0 		sdiv	r0, r0, r2
 159:Src/utils.c   **** 
 510              		.loc 1 159 1 view .LVU130
 511 0012 1844     		add	r0, r0, r3
 512 0014 5DF8044B 		ldr	r4, [sp], #4
 513              	.LCFI2:
 514              		.cfi_restore 4
 515              		.cfi_def_cfa_offset 0
 516              	.LVL42:
 159:Src/utils.c   **** 
 517              		.loc 1 159 1 view .LVU131
 518 0018 7047     		bx	lr
 519              		.cfi_endproc
 520              	.LFE13:
ARM GAS  D:\apps\VSCode\data\tmp\ccbZzZbG.s 			page 27


 522              		.global	__aeabi_f2d
 523              		.global	__aeabi_dsub
 524              		.global	__aeabi_dmul
 525              		.global	__aeabi_dadd
 526              		.global	__aeabi_d2f
 527              		.section	.text.utils_deadband,"ax",%progbits
 528              		.align	1
 529              		.global	utils_deadband
 530              		.syntax unified
 531              		.thumb
 532              		.thumb_func
 533              		.fpu fpv4-sp-d16
 535              	utils_deadband:
 536              	.LVL43:
 537              	.LFB14:
 166:Src/utils.c   **** 	if (fabsf(*value) < tres)
 538              		.loc 1 166 1 is_stmt 1 view -0
 539              		.cfi_startproc
 540              		@ args = 0, pretend = 0, frame = 0
 541              		@ frame_needed = 0, uses_anonymous_args = 0
 167:Src/utils.c   **** 	{
 542              		.loc 1 167 2 view .LVU133
 167:Src/utils.c   **** 	{
 543              		.loc 1 167 12 is_stmt 0 view .LVU134
 544 0000 D0ED007A 		vldr.32	s15, [r0]
 167:Src/utils.c   **** 	{
 545              		.loc 1 167 6 view .LVU135
 546 0004 B0EEE77A 		vabs.f32	s14, s15
 167:Src/utils.c   **** 	{
 547              		.loc 1 167 5 view .LVU136
 548 0008 B4EEC07A 		vcmpe.f32	s14, s0
 549 000c F1EE10FA 		vmrs	APSR_nzcv, FPSCR
 550 0010 02D5     		bpl	.L69
 169:Src/utils.c   **** 	}
 551              		.loc 1 169 3 is_stmt 1 view .LVU137
 169:Src/utils.c   **** 	}
 552              		.loc 1 169 10 is_stmt 0 view .LVU138
 553 0012 0023     		movs	r3, #0
 554 0014 0360     		str	r3, [r0]	@ float
 555 0016 7047     		bx	lr
 556              	.L69:
 166:Src/utils.c   **** 	if (fabsf(*value) < tres)
 557              		.loc 1 166 1 view .LVU139
 558 0018 2DE9D043 		push	{r4, r6, r7, r8, r9, lr}
 559              	.LCFI3:
 560              		.cfi_def_cfa_offset 24
 561              		.cfi_offset 4, -24
 562              		.cfi_offset 6, -20
 563              		.cfi_offset 7, -16
 564              		.cfi_offset 8, -12
 565              		.cfi_offset 9, -8
 566              		.cfi_offset 14, -4
 567 001c 2DED028B 		vpush.64	{d8}
 568              	.LCFI4:
 569              		.cfi_def_cfa_offset 32
 570              		.cfi_offset 80, -32
 571              		.cfi_offset 81, -28
ARM GAS  D:\apps\VSCode\data\tmp\ccbZzZbG.s 			page 28


 572 0020 B0EE608A 		vmov.f32	s16, s1
 573 0024 0446     		mov	r4, r0
 574              	.LBB2:
 173:Src/utils.c   **** 		if (*value > 0.0)
 575              		.loc 1 173 3 is_stmt 1 view .LVU140
 173:Src/utils.c   **** 		if (*value > 0.0)
 576              		.loc 1 173 24 is_stmt 0 view .LVU141
 577 0026 30EEC00A 		vsub.f32	s0, s1, s0
 578              	.LVL44:
 173:Src/utils.c   **** 		if (*value > 0.0)
 579              		.loc 1 173 9 view .LVU142
 580 002a C0EE808A 		vdiv.f32	s17, s1, s0
 581              	.LVL45:
 174:Src/utils.c   **** 		{
 582              		.loc 1 174 3 is_stmt 1 view .LVU143
 174:Src/utils.c   **** 		{
 583              		.loc 1 174 6 is_stmt 0 view .LVU144
 584 002e F5EEC07A 		vcmpe.f32	s15, #0
 585 0032 F1EE10FA 		vmrs	APSR_nzcv, FPSCR
 586 0036 28DD     		ble	.L70
 176:Src/utils.c   **** 		}
 587              		.loc 1 176 4 is_stmt 1 view .LVU145
 176:Src/utils.c   **** 		}
 588              		.loc 1 176 15 is_stmt 0 view .LVU146
 589 0038 67EEA87A 		vmul.f32	s15, s15, s17
 590 003c 17EE900A 		vmov	r0, s15
 591              	.LVL46:
 176:Src/utils.c   **** 		}
 592              		.loc 1 176 15 view .LVU147
 593 0040 FFF7FEFF 		bl	__aeabi_f2d
 594              	.LVL47:
 176:Src/utils.c   **** 		}
 595              		.loc 1 176 15 view .LVU148
 596 0044 0646     		mov	r6, r0
 597 0046 0F46     		mov	r7, r1
 176:Src/utils.c   **** 		}
 598              		.loc 1 176 37 view .LVU149
 599 0048 18EE900A 		vmov	r0, s17
 600 004c FFF7FEFF 		bl	__aeabi_f2d
 601              	.LVL48:
 602 0050 0246     		mov	r2, r0
 603 0052 0B46     		mov	r3, r1
 604 0054 0020     		movs	r0, #0
 605 0056 2149     		ldr	r1, .L74
 606 0058 FFF7FEFF 		bl	__aeabi_dsub
 607              	.LVL49:
 608 005c 8046     		mov	r8, r0
 609 005e 8946     		mov	r9, r1
 176:Src/utils.c   **** 		}
 610              		.loc 1 176 30 view .LVU150
 611 0060 18EE100A 		vmov	r0, s16
 612 0064 FFF7FEFF 		bl	__aeabi_f2d
 613              	.LVL50:
 614 0068 4246     		mov	r2, r8
 615 006a 4B46     		mov	r3, r9
 616 006c FFF7FEFF 		bl	__aeabi_dmul
 617              	.LVL51:
ARM GAS  D:\apps\VSCode\data\tmp\ccbZzZbG.s 			page 29


 176:Src/utils.c   **** 		}
 618              		.loc 1 176 24 view .LVU151
 619 0070 0246     		mov	r2, r0
 620 0072 0B46     		mov	r3, r1
 621 0074 3046     		mov	r0, r6
 622 0076 3946     		mov	r1, r7
 623 0078 FFF7FEFF 		bl	__aeabi_dadd
 624              	.LVL52:
 625 007c FFF7FEFF 		bl	__aeabi_d2f
 626              	.LVL53:
 176:Src/utils.c   **** 		}
 627              		.loc 1 176 11 view .LVU152
 628 0080 2060     		str	r0, [r4]	@ float
 629              	.L61:
 630              	.LBE2:
 183:Src/utils.c   **** 
 631              		.loc 1 183 1 view .LVU153
 632 0082 BDEC028B 		vldm	sp!, {d8}
 633              	.LCFI5:
 634              		.cfi_remember_state
 635              		.cfi_restore 80
 636              		.cfi_restore 81
 637              		.cfi_def_cfa_offset 24
 638              	.LVL54:
 183:Src/utils.c   **** 
 639              		.loc 1 183 1 view .LVU154
 640 0086 BDE8D083 		pop	{r4, r6, r7, r8, r9, pc}
 641              	.LVL55:
 642              	.L70:
 643              	.LCFI6:
 644              		.cfi_restore_state
 645              	.LBB3:
 180:Src/utils.c   **** 		}
 646              		.loc 1 180 4 is_stmt 1 view .LVU155
 180:Src/utils.c   **** 		}
 647              		.loc 1 180 17 is_stmt 0 view .LVU156
 648 008a 67EEE87A 		vnmul.f32	s15, s15, s17
 649 008e 17EE900A 		vmov	r0, s15
 650              	.LVL56:
 180:Src/utils.c   **** 		}
 651              		.loc 1 180 17 view .LVU157
 652 0092 FFF7FEFF 		bl	__aeabi_f2d
 653              	.LVL57:
 180:Src/utils.c   **** 		}
 654              		.loc 1 180 17 view .LVU158
 655 0096 0646     		mov	r6, r0
 656 0098 0F46     		mov	r7, r1
 180:Src/utils.c   **** 		}
 657              		.loc 1 180 40 view .LVU159
 658 009a 18EE900A 		vmov	r0, s17
 659 009e FFF7FEFF 		bl	__aeabi_f2d
 660              	.LVL58:
 661 00a2 0246     		mov	r2, r0
 662 00a4 0B46     		mov	r3, r1
 663 00a6 0020     		movs	r0, #0
 664 00a8 0C49     		ldr	r1, .L74
 665 00aa FFF7FEFF 		bl	__aeabi_dsub
ARM GAS  D:\apps\VSCode\data\tmp\ccbZzZbG.s 			page 30


 666              	.LVL59:
 667 00ae 8046     		mov	r8, r0
 668 00b0 8946     		mov	r9, r1
 180:Src/utils.c   **** 		}
 669              		.loc 1 180 33 view .LVU160
 670 00b2 18EE100A 		vmov	r0, s16
 671 00b6 FFF7FEFF 		bl	__aeabi_f2d
 672              	.LVL60:
 673 00ba 4246     		mov	r2, r8
 674 00bc 4B46     		mov	r3, r9
 675 00be FFF7FEFF 		bl	__aeabi_dmul
 676              	.LVL61:
 180:Src/utils.c   **** 		}
 677              		.loc 1 180 27 view .LVU161
 678 00c2 0246     		mov	r2, r0
 679 00c4 0B46     		mov	r3, r1
 680 00c6 3046     		mov	r0, r6
 681 00c8 3946     		mov	r1, r7
 682 00ca FFF7FEFF 		bl	__aeabi_dadd
 683              	.LVL62:
 684 00ce FFF7FEFF 		bl	__aeabi_d2f
 685              	.LVL63:
 180:Src/utils.c   **** 		}
 686              		.loc 1 180 11 view .LVU162
 687 00d2 80F00040 		eor	r0, r0, #-2147483648
 688 00d6 2060     		str	r0, [r4]	@ float
 689              	.LBE3:
 183:Src/utils.c   **** 
 690              		.loc 1 183 1 view .LVU163
 691 00d8 D3E7     		b	.L61
 692              	.L75:
 693 00da 00BF     		.align	2
 694              	.L74:
 695 00dc 0000F03F 		.word	1072693248
 696              		.cfi_endproc
 697              	.LFE14:
 699              		.section	.text.utils_angle_difference,"ax",%progbits
 700              		.align	1
 701              		.global	utils_angle_difference
 702              		.syntax unified
 703              		.thumb
 704              		.thumb_func
 705              		.fpu fpv4-sp-d16
 707              	utils_angle_difference:
 708              	.LVL64:
 709              	.LFB15:
 195:Src/utils.c   **** 	// Faster in most cases
 710              		.loc 1 195 1 is_stmt 1 view -0
 711              		.cfi_startproc
 712              		@ args = 0, pretend = 0, frame = 0
 713              		@ frame_needed = 0, uses_anonymous_args = 0
 714              		@ link register save eliminated.
 197:Src/utils.c   **** 	while (difference < -180.0)
 715              		.loc 1 197 2 view .LVU165
 197:Src/utils.c   **** 	while (difference < -180.0)
 716              		.loc 1 197 8 is_stmt 0 view .LVU166
 717 0000 30EE600A 		vsub.f32	s0, s0, s1
ARM GAS  D:\apps\VSCode\data\tmp\ccbZzZbG.s 			page 31


 718              	.LVL65:
 198:Src/utils.c   **** 		difference += 2.0 * 180.0;
 719              		.loc 1 198 2 is_stmt 1 view .LVU167
 720              	.L77:
 198:Src/utils.c   **** 		difference += 2.0 * 180.0;
 721              		.loc 1 198 8 is_stmt 0 view .LVU168
 722 0004 DFED0B7A 		vldr.32	s15, .L81
 723 0008 B4EEE70A 		vcmpe.f32	s0, s15
 724 000c F1EE10FA 		vmrs	APSR_nzcv, FPSCR
 725 0010 08D5     		bpl	.L79
 199:Src/utils.c   **** 	while (difference > 180.0)
 726              		.loc 1 199 3 is_stmt 1 view .LVU169
 199:Src/utils.c   **** 	while (difference > 180.0)
 727              		.loc 1 199 14 is_stmt 0 view .LVU170
 728 0012 DFED097A 		vldr.32	s15, .L81+4
 729 0016 30EE270A 		vadd.f32	s0, s0, s15
 730              	.LVL66:
 199:Src/utils.c   **** 	while (difference > 180.0)
 731              		.loc 1 199 14 view .LVU171
 732 001a F3E7     		b	.L77
 733              	.L80:
 201:Src/utils.c   **** 	return difference;
 734              		.loc 1 201 3 is_stmt 1 view .LVU172
 201:Src/utils.c   **** 	return difference;
 735              		.loc 1 201 14 is_stmt 0 view .LVU173
 736 001c DFED067A 		vldr.32	s15, .L81+4
 737 0020 30EE670A 		vsub.f32	s0, s0, s15
 738              	.LVL67:
 739              	.L79:
 200:Src/utils.c   **** 		difference -= 2.0 * 180.0;
 740              		.loc 1 200 8 view .LVU174
 741 0024 DFED057A 		vldr.32	s15, .L81+8
 742 0028 B4EEE70A 		vcmpe.f32	s0, s15
 743 002c F1EE10FA 		vmrs	APSR_nzcv, FPSCR
 744 0030 F4DC     		bgt	.L80
 203:Src/utils.c   **** 
 745              		.loc 1 203 1 view .LVU175
 746 0032 7047     		bx	lr
 747              	.L82:
 748              		.align	2
 749              	.L81:
 750 0034 000034C3 		.word	-1020002304
 751 0038 0000B443 		.word	1135869952
 752 003c 00003443 		.word	1127481344
 753              		.cfi_endproc
 754              	.LFE15:
 756              		.section	.text.utils_angle_difference_rad,"ax",%progbits
 757              		.align	1
 758              		.global	utils_angle_difference_rad
 759              		.syntax unified
 760              		.thumb
 761              		.thumb_func
 762              		.fpu fpv4-sp-d16
 764              	utils_angle_difference_rad:
 765              	.LVL68:
 766              	.LFB16:
 215:Src/utils.c   **** 	float difference = angle1 - angle2;
ARM GAS  D:\apps\VSCode\data\tmp\ccbZzZbG.s 			page 32


 767              		.loc 1 215 1 is_stmt 1 view -0
 768              		.cfi_startproc
 769              		@ args = 0, pretend = 0, frame = 0
 770              		@ frame_needed = 0, uses_anonymous_args = 0
 771              		@ link register save eliminated.
 216:Src/utils.c   **** 	while (difference < -MF_PI)
 772              		.loc 1 216 2 view .LVU177
 216:Src/utils.c   **** 	while (difference < -MF_PI)
 773              		.loc 1 216 8 is_stmt 0 view .LVU178
 774 0000 30EE600A 		vsub.f32	s0, s0, s1
 775              	.LVL69:
 217:Src/utils.c   **** 		difference += M_2PI;
 776              		.loc 1 217 2 is_stmt 1 view .LVU179
 777              	.L84:
 217:Src/utils.c   **** 		difference += M_2PI;
 778              		.loc 1 217 8 is_stmt 0 view .LVU180
 779 0004 DFED0B7A 		vldr.32	s15, .L88
 780 0008 B4EEE70A 		vcmpe.f32	s0, s15
 781 000c F1EE10FA 		vmrs	APSR_nzcv, FPSCR
 782 0010 08D5     		bpl	.L86
 218:Src/utils.c   **** 	while (difference > MF_PI)
 783              		.loc 1 218 3 is_stmt 1 view .LVU181
 218:Src/utils.c   **** 	while (difference > MF_PI)
 784              		.loc 1 218 14 is_stmt 0 view .LVU182
 785 0012 DFED097A 		vldr.32	s15, .L88+4
 786 0016 30EE270A 		vadd.f32	s0, s0, s15
 787              	.LVL70:
 218:Src/utils.c   **** 	while (difference > MF_PI)
 788              		.loc 1 218 14 view .LVU183
 789 001a F3E7     		b	.L84
 790              	.L87:
 220:Src/utils.c   **** 	return difference;
 791              		.loc 1 220 3 is_stmt 1 view .LVU184
 220:Src/utils.c   **** 	return difference;
 792              		.loc 1 220 14 is_stmt 0 view .LVU185
 793 001c DFED067A 		vldr.32	s15, .L88+4
 794 0020 30EE670A 		vsub.f32	s0, s0, s15
 795              	.LVL71:
 796              	.L86:
 219:Src/utils.c   **** 		difference -= M_2PI;
 797              		.loc 1 219 8 view .LVU186
 798 0024 DFED057A 		vldr.32	s15, .L88+8
 799 0028 B4EEE70A 		vcmpe.f32	s0, s15
 800 002c F1EE10FA 		vmrs	APSR_nzcv, FPSCR
 801 0030 F4DC     		bgt	.L87
 222:Src/utils.c   **** 
 802              		.loc 1 222 1 view .LVU187
 803 0032 7047     		bx	lr
 804              	.L89:
 805              		.align	2
 806              	.L88:
 807 0034 DB0F49C0 		.word	-1068953637
 808 0038 DB0FC940 		.word	1086918619
 809 003c DB0F4940 		.word	1078530011
 810              		.cfi_endproc
 811              	.LFE16:
 813              		.section	.text.utils_middle_of_3,"ax",%progbits
ARM GAS  D:\apps\VSCode\data\tmp\ccbZzZbG.s 			page 33


 814              		.align	1
 815              		.global	utils_middle_of_3
 816              		.syntax unified
 817              		.thumb
 818              		.thumb_func
 819              		.fpu fpv4-sp-d16
 821              	utils_middle_of_3:
 822              	.LVL72:
 823              	.LFB19:
 284:Src/utils.c   **** 	float middle;
 824              		.loc 1 284 1 is_stmt 1 view -0
 825              		.cfi_startproc
 826              		@ args = 0, pretend = 0, frame = 0
 827              		@ frame_needed = 0, uses_anonymous_args = 0
 828              		@ link register save eliminated.
 285:Src/utils.c   **** 
 829              		.loc 1 285 2 view .LVU189
 287:Src/utils.c   **** 	{
 830              		.loc 1 287 2 view .LVU190
 287:Src/utils.c   **** 	{
 831              		.loc 1 287 5 is_stmt 0 view .LVU191
 832 0000 B4EEE00A 		vcmpe.f32	s0, s1
 833 0004 F1EE10FA 		vmrs	APSR_nzcv, FPSCR
 834 0008 0CD8     		bhi	.L91
 287:Src/utils.c   **** 	{
 835              		.loc 1 287 15 discriminator 1 view .LVU192
 836 000a B4EEC10A 		vcmpe.f32	s0, s2
 837 000e F1EE10FA 		vmrs	APSR_nzcv, FPSCR
 838 0012 07D8     		bhi	.L91
 289:Src/utils.c   **** 	}
 839              		.loc 1 289 3 is_stmt 1 view .LVU193
 289:Src/utils.c   **** 	}
 840              		.loc 1 289 25 is_stmt 0 view .LVU194
 841 0014 F4EEC10A 		vcmpe.f32	s1, s2
 842 0018 F1EE10FA 		vmrs	APSR_nzcv, FPSCR
 843 001c 18D8     		bhi	.L111
 844 001e B0EE600A 		vmov.f32	s0, s1
 845              	.LVL73:
 289:Src/utils.c   **** 	}
 846              		.loc 1 289 25 view .LVU195
 847 0022 7047     		bx	lr
 848              	.LVL74:
 849              	.L91:
 291:Src/utils.c   **** 	{
 850              		.loc 1 291 7 is_stmt 1 view .LVU196
 291:Src/utils.c   **** 	{
 851              		.loc 1 291 10 is_stmt 0 view .LVU197
 852 0024 B4EEE00A 		vcmpe.f32	s0, s1
 853 0028 F1EE10FA 		vmrs	APSR_nzcv, FPSCR
 854 002c 0ADB     		blt	.L96
 291:Src/utils.c   **** 	{
 855              		.loc 1 291 20 discriminator 1 view .LVU198
 856 002e F4EEC10A 		vcmpe.f32	s1, s2
 857 0032 F1EE10FA 		vmrs	APSR_nzcv, FPSCR
 858 0036 05D8     		bhi	.L96
 293:Src/utils.c   **** 	}
 859              		.loc 1 293 3 is_stmt 1 view .LVU199
ARM GAS  D:\apps\VSCode\data\tmp\ccbZzZbG.s 			page 34


 293:Src/utils.c   **** 	}
 860              		.loc 1 293 25 is_stmt 0 view .LVU200
 861 0038 B4EEC10A 		vcmpe.f32	s0, s2
 862 003c F1EE10FA 		vmrs	APSR_nzcv, FPSCR
 863 0040 09D8     		bhi	.L112
 864 0042 7047     		bx	lr
 865              	.L96:
 297:Src/utils.c   **** 	}
 866              		.loc 1 297 3 is_stmt 1 view .LVU201
 297:Src/utils.c   **** 	}
 867              		.loc 1 297 25 is_stmt 0 view .LVU202
 868 0044 B4EEE00A 		vcmpe.f32	s0, s1
 869 0048 F1EE10FA 		vmrs	APSR_nzcv, FPSCR
 870 004c 06D8     		bhi	.L113
 871 004e 7047     		bx	lr
 872              	.L111:
 289:Src/utils.c   **** 	}
 873              		.loc 1 289 25 view .LVU203
 874 0050 B0EE410A 		vmov.f32	s0, s2
 875              	.LVL75:
 289:Src/utils.c   **** 	}
 876              		.loc 1 289 25 view .LVU204
 877 0054 7047     		bx	lr
 878              	.LVL76:
 879              	.L112:
 293:Src/utils.c   **** 	}
 880              		.loc 1 293 25 view .LVU205
 881 0056 B0EE410A 		vmov.f32	s0, s2
 882              	.LVL77:
 293:Src/utils.c   **** 	}
 883              		.loc 1 293 25 view .LVU206
 884 005a 7047     		bx	lr
 885              	.LVL78:
 886              	.L113:
 297:Src/utils.c   **** 	}
 887              		.loc 1 297 25 view .LVU207
 888 005c B0EE600A 		vmov.f32	s0, s1
 889              	.LVL79:
 299:Src/utils.c   **** }
 890              		.loc 1 299 2 is_stmt 1 view .LVU208
 300:Src/utils.c   **** 
 891              		.loc 1 300 1 is_stmt 0 view .LVU209
 892 0060 7047     		bx	lr
 893              		.cfi_endproc
 894              	.LFE19:
 896              		.section	.text.utils_middle_of_3_int,"ax",%progbits
 897              		.align	1
 898              		.global	utils_middle_of_3_int
 899              		.syntax unified
 900              		.thumb
 901              		.thumb_func
 902              		.fpu fpv4-sp-d16
 904              	utils_middle_of_3_int:
 905              	.LVL80:
 906              	.LFB20:
 318:Src/utils.c   **** 	int middle;
 907              		.loc 1 318 1 is_stmt 1 view -0
ARM GAS  D:\apps\VSCode\data\tmp\ccbZzZbG.s 			page 35


 908              		.cfi_startproc
 909              		@ args = 0, pretend = 0, frame = 0
 910              		@ frame_needed = 0, uses_anonymous_args = 0
 911              		@ link register save eliminated.
 319:Src/utils.c   **** 
 912              		.loc 1 319 2 view .LVU211
 321:Src/utils.c   **** 	{
 913              		.loc 1 321 2 view .LVU212
 321:Src/utils.c   **** 	{
 914              		.loc 1 321 5 is_stmt 0 view .LVU213
 915 0000 8842     		cmp	r0, r1
 916 0002 06DC     		bgt	.L115
 321:Src/utils.c   **** 	{
 917              		.loc 1 321 15 discriminator 1 view .LVU214
 918 0004 9042     		cmp	r0, r2
 919 0006 04DC     		bgt	.L115
 323:Src/utils.c   **** 	}
 920              		.loc 1 323 3 is_stmt 1 view .LVU215
 323:Src/utils.c   **** 	}
 921              		.loc 1 323 10 is_stmt 0 view .LVU216
 922 0008 9142     		cmp	r1, r2
 923 000a A8BF     		it	ge
 924 000c 1146     		movge	r1, r2
 925              	.LVL81:
 323:Src/utils.c   **** 	}
 926              		.loc 1 323 10 view .LVU217
 927 000e 0846     		mov	r0, r1
 928              	.LVL82:
 323:Src/utils.c   **** 	}
 929              		.loc 1 323 10 view .LVU218
 930 0010 7047     		bx	lr
 931              	.LVL83:
 932              	.L115:
 325:Src/utils.c   **** 	{
 933              		.loc 1 325 7 is_stmt 1 view .LVU219
 325:Src/utils.c   **** 	{
 934              		.loc 1 325 10 is_stmt 0 view .LVU220
 935 0012 8842     		cmp	r0, r1
 936 0014 05DB     		blt	.L117
 325:Src/utils.c   **** 	{
 937              		.loc 1 325 20 discriminator 1 view .LVU221
 938 0016 9142     		cmp	r1, r2
 939 0018 03DC     		bgt	.L117
 327:Src/utils.c   **** 	}
 940              		.loc 1 327 3 is_stmt 1 view .LVU222
 327:Src/utils.c   **** 	}
 941              		.loc 1 327 10 is_stmt 0 view .LVU223
 942 001a 9042     		cmp	r0, r2
 943 001c A8BF     		it	ge
 944 001e 1046     		movge	r0, r2
 945              	.LVL84:
 327:Src/utils.c   **** 	}
 946              		.loc 1 327 10 view .LVU224
 947 0020 7047     		bx	lr
 948              	.LVL85:
 949              	.L117:
 331:Src/utils.c   **** 	}
ARM GAS  D:\apps\VSCode\data\tmp\ccbZzZbG.s 			page 36


 950              		.loc 1 331 3 is_stmt 1 view .LVU225
 331:Src/utils.c   **** 	}
 951              		.loc 1 331 10 is_stmt 0 view .LVU226
 952 0022 8842     		cmp	r0, r1
 953 0024 A8BF     		it	ge
 954 0026 0846     		movge	r0, r1
 955              	.LVL86:
 333:Src/utils.c   **** }
 956              		.loc 1 333 2 is_stmt 1 view .LVU227
 334:Src/utils.c   **** 
 957              		.loc 1 334 1 is_stmt 0 view .LVU228
 958 0028 7047     		bx	lr
 959              		.cfi_endproc
 960              	.LFE20:
 962              		.section	.text.utils_fast_inv_sqrt,"ax",%progbits
 963              		.align	1
 964              		.global	utils_fast_inv_sqrt
 965              		.syntax unified
 966              		.thumb
 967              		.thumb_func
 968              		.fpu fpv4-sp-d16
 970              	utils_fast_inv_sqrt:
 971              	.LVL87:
 972              	.LFB21:
 339:Src/utils.c   **** 	union {
 973              		.loc 1 339 1 is_stmt 1 view -0
 974              		.cfi_startproc
 975              		@ args = 0, pretend = 0, frame = 0
 976              		@ frame_needed = 0, uses_anonymous_args = 0
 977              		@ link register save eliminated.
 340:Src/utils.c   **** 		float as_float;
 978              		.loc 1 340 2 view .LVU230
 345:Src/utils.c   **** 	un.as_float = x;
 979              		.loc 1 345 2 view .LVU231
 345:Src/utils.c   **** 	un.as_float = x;
 980              		.loc 1 345 8 is_stmt 0 view .LVU232
 981 0000 F6EE007A 		vmov.f32	s15, #5.0e-1
 982 0004 60EE277A 		vmul.f32	s15, s0, s15
 983              	.LVL88:
 346:Src/utils.c   **** 	un.as_int = 0x5f3759df - (un.as_int >> 1);
 984              		.loc 1 346 2 is_stmt 1 view .LVU233
 347:Src/utils.c   **** 	un.as_float = un.as_float * (1.5f - xhalf * un.as_float * un.as_float);
 985              		.loc 1 347 2 view .LVU234
 348:Src/utils.c   **** 	return un.as_float;
 986              		.loc 1 348 2 view .LVU235
 987 0008 084B     		ldr	r3, .L119
 988 000a 10EE102A 		vmov	r2, s0	@ int
 989 000e A3EB6203 		sub	r3, r3, r2, asr #1
 990 0012 00EE103A 		vmov	s0, r3	@ int
 991              	.LVL89:
 348:Src/utils.c   **** 	return un.as_float;
 992              		.loc 1 348 44 is_stmt 0 view .LVU236
 993 0016 67EE807A 		vmul.f32	s15, s15, s0
 994              	.LVL90:
 348:Src/utils.c   **** 	return un.as_float;
 995              		.loc 1 348 58 view .LVU237
 996 001a 67EE807A 		vmul.f32	s15, s15, s0
ARM GAS  D:\apps\VSCode\data\tmp\ccbZzZbG.s 			page 37


 348:Src/utils.c   **** 	return un.as_float;
 997              		.loc 1 348 36 view .LVU238
 998 001e B7EE087A 		vmov.f32	s14, #1.5e+0
 999 0022 77EE677A 		vsub.f32	s15, s14, s15
 349:Src/utils.c   **** }
 1000              		.loc 1 349 2 is_stmt 1 view .LVU239
 350:Src/utils.c   **** 
 1001              		.loc 1 350 1 is_stmt 0 view .LVU240
 1002 0026 27EE800A 		vmul.f32	s0, s15, s0
 1003 002a 7047     		bx	lr
 1004              	.L120:
 1005              		.align	2
 1006              	.L119:
 1007 002c DF59375F 		.word	1597463007
 1008              		.cfi_endproc
 1009              	.LFE21:
 1011              		.section	.text.utils_fast_atan2,"ax",%progbits
 1012              		.align	1
 1013              		.global	utils_fast_atan2
 1014              		.syntax unified
 1015              		.thumb
 1016              		.thumb_func
 1017              		.fpu fpv4-sp-d16
 1019              	utils_fast_atan2:
 1020              	.LVL91:
 1021              	.LFB22:
 367:Src/utils.c   **** 	float abs_y = fabsf(y) + 1e-20f; // kludge to prevent 0/0 condition
 1022              		.loc 1 367 1 is_stmt 1 view -0
 1023              		.cfi_startproc
 1024              		@ args = 0, pretend = 0, frame = 0
 1025              		@ frame_needed = 0, uses_anonymous_args = 0
 1026              		@ link register save eliminated.
 368:Src/utils.c   **** 	float angle;
 1027              		.loc 1 368 2 view .LVU242
 368:Src/utils.c   **** 	float angle;
 1028              		.loc 1 368 16 is_stmt 0 view .LVU243
 1029 0000 F0EEC07A 		vabs.f32	s15, s0
 368:Src/utils.c   **** 	float angle;
 1030              		.loc 1 368 8 view .LVU244
 1031 0004 9FED207A 		vldr.32	s14, .L131
 1032 0008 77EE877A 		vadd.f32	s15, s15, s14
 1033              	.LVL92:
 369:Src/utils.c   **** 
 1034              		.loc 1 369 2 is_stmt 1 view .LVU245
 371:Src/utils.c   **** 	{
 1035              		.loc 1 371 2 view .LVU246
 371:Src/utils.c   **** 	{
 1036              		.loc 1 371 5 is_stmt 0 view .LVU247
 1037 000c F5EEC00A 		vcmpe.f32	s1, #0
 1038 0010 F1EE10FA 		vmrs	APSR_nzcv, FPSCR
 1039 0014 1DDB     		blt	.L129
 1040              	.LBB4:
 373:Src/utils.c   **** 		float rsq = r * r;
 1041              		.loc 1 373 3 is_stmt 1 view .LVU248
 373:Src/utils.c   **** 		float rsq = r * r;
 1042              		.loc 1 373 16 is_stmt 0 view .LVU249
 1043 0016 70EEE76A 		vsub.f32	s13, s1, s15
ARM GAS  D:\apps\VSCode\data\tmp\ccbZzZbG.s 			page 38


 373:Src/utils.c   **** 		float rsq = r * r;
 1044              		.loc 1 373 30 view .LVU250
 1045 001a 77EEA00A 		vadd.f32	s1, s15, s1
 1046              	.LVL93:
 373:Src/utils.c   **** 		float rsq = r * r;
 1047              		.loc 1 373 9 view .LVU251
 1048 001e 86EEA07A 		vdiv.f32	s14, s13, s1
 1049              	.LVL94:
 374:Src/utils.c   **** 		angle = ((0.1963f * rsq) - 0.9817f) * r + (MF_PI / 4.0f);
 1050              		.loc 1 374 3 is_stmt 1 view .LVU252
 374:Src/utils.c   **** 		angle = ((0.1963f * rsq) - 0.9817f) * r + (MF_PI / 4.0f);
 1051              		.loc 1 374 9 is_stmt 0 view .LVU253
 1052 0022 67EE077A 		vmul.f32	s15, s14, s14
 1053              	.LVL95:
 375:Src/utils.c   **** 	}
 1054              		.loc 1 375 3 is_stmt 1 view .LVU254
 375:Src/utils.c   **** 	}
 1055              		.loc 1 375 21 is_stmt 0 view .LVU255
 1056 0026 DFED196A 		vldr.32	s13, .L131+4
 1057 002a 67EEA67A 		vmul.f32	s15, s15, s13
 1058              	.LVL96:
 375:Src/utils.c   **** 	}
 1059              		.loc 1 375 28 view .LVU256
 1060 002e DFED186A 		vldr.32	s13, .L131+8
 1061 0032 77EEE67A 		vsub.f32	s15, s15, s13
 375:Src/utils.c   **** 	}
 1062              		.loc 1 375 39 view .LVU257
 1063 0036 67EE877A 		vmul.f32	s15, s15, s14
 375:Src/utils.c   **** 	}
 1064              		.loc 1 375 9 view .LVU258
 1065 003a 9FED167A 		vldr.32	s14, .L131+12
 1066              	.LVL97:
 375:Src/utils.c   **** 	}
 1067              		.loc 1 375 9 view .LVU259
 1068 003e 77EE877A 		vadd.f32	s15, s15, s14
 1069              	.LVL98:
 1070              	.L124:
 375:Src/utils.c   **** 	}
 1071              		.loc 1 375 9 view .LVU260
 1072              	.LBE4:
 384:Src/utils.c   **** 	{
 1073              		.loc 1 384 2 is_stmt 1 view .LVU261
 384:Src/utils.c   **** 	{
 1074              		.loc 1 384 5 is_stmt 0 view .LVU262
 1075 0042 B5EEC00A 		vcmpe.f32	s0, #0
 1076 0046 F1EE10FA 		vmrs	APSR_nzcv, FPSCR
 1077 004a 19D4     		bmi	.L130
 1078              	.LVL99:
 1079              	.L121:
 392:Src/utils.c   **** 
 1080              		.loc 1 392 1 view .LVU263
 1081 004c B0EE670A 		vmov.f32	s0, s15
 1082              	.LVL100:
 392:Src/utils.c   **** 
 1083              		.loc 1 392 1 view .LVU264
 1084 0050 7047     		bx	lr
 1085              	.LVL101:
ARM GAS  D:\apps\VSCode\data\tmp\ccbZzZbG.s 			page 39


 1086              	.L129:
 1087              	.LBB5:
 379:Src/utils.c   **** 		float rsq = r * r;
 1088              		.loc 1 379 3 is_stmt 1 view .LVU265
 379:Src/utils.c   **** 		float rsq = r * r;
 1089              		.loc 1 379 16 is_stmt 0 view .LVU266
 1090 0052 77EEA06A 		vadd.f32	s13, s15, s1
 379:Src/utils.c   **** 		float rsq = r * r;
 1091              		.loc 1 379 34 view .LVU267
 1092 0056 77EEE07A 		vsub.f32	s15, s15, s1
 1093              	.LVL102:
 379:Src/utils.c   **** 		float rsq = r * r;
 1094              		.loc 1 379 9 view .LVU268
 1095 005a 86EEA77A 		vdiv.f32	s14, s13, s15
 1096              	.LVL103:
 380:Src/utils.c   **** 		angle = ((0.1963f * rsq) - 0.9817f) * r + (3.0f * MF_PI / 4.0f);
 1097              		.loc 1 380 3 is_stmt 1 view .LVU269
 380:Src/utils.c   **** 		angle = ((0.1963f * rsq) - 0.9817f) * r + (3.0f * MF_PI / 4.0f);
 1098              		.loc 1 380 9 is_stmt 0 view .LVU270
 1099 005e 67EE077A 		vmul.f32	s15, s14, s14
 1100              	.LVL104:
 381:Src/utils.c   **** 	}
 1101              		.loc 1 381 3 is_stmt 1 view .LVU271
 381:Src/utils.c   **** 	}
 1102              		.loc 1 381 21 is_stmt 0 view .LVU272
 1103 0062 DFED0A6A 		vldr.32	s13, .L131+4
 1104 0066 67EEA67A 		vmul.f32	s15, s15, s13
 1105              	.LVL105:
 381:Src/utils.c   **** 	}
 1106              		.loc 1 381 28 view .LVU273
 1107 006a DFED096A 		vldr.32	s13, .L131+8
 1108 006e 77EEE67A 		vsub.f32	s15, s15, s13
 381:Src/utils.c   **** 	}
 1109              		.loc 1 381 39 view .LVU274
 1110 0072 67EE877A 		vmul.f32	s15, s15, s14
 381:Src/utils.c   **** 	}
 1111              		.loc 1 381 9 view .LVU275
 1112 0076 9FED087A 		vldr.32	s14, .L131+16
 1113              	.LVL106:
 381:Src/utils.c   **** 	}
 1114              		.loc 1 381 9 view .LVU276
 1115 007a 77EE877A 		vadd.f32	s15, s15, s14
 1116              	.LVL107:
 381:Src/utils.c   **** 	}
 1117              		.loc 1 381 9 view .LVU277
 1118 007e E0E7     		b	.L124
 1119              	.LVL108:
 1120              	.L130:
 381:Src/utils.c   **** 	}
 1121              		.loc 1 381 9 view .LVU278
 1122              	.LBE5:
 386:Src/utils.c   **** 	}
 1123              		.loc 1 386 3 is_stmt 1 view .LVU279
 386:Src/utils.c   **** 	}
 1124              		.loc 1 386 11 is_stmt 0 view .LVU280
 1125 0080 F1EE677A 		vneg.f32	s15, s15
 1126              	.LVL109:
ARM GAS  D:\apps\VSCode\data\tmp\ccbZzZbG.s 			page 40


 386:Src/utils.c   **** 	}
 1127              		.loc 1 386 11 view .LVU281
 1128 0084 E2E7     		b	.L121
 1129              	.L132:
 1130 0086 00BF     		.align	2
 1131              	.L131:
 1132 0088 08E53C1E 		.word	507307272
 1133 008c DE02493E 		.word	1044972254
 1134 0090 B1507B3F 		.word	1065046193
 1135 0094 DB0F493F 		.word	1061752795
 1136 0098 E4CB1640 		.word	1075235812
 1137              		.cfi_endproc
 1138              	.LFE22:
 1140              		.section	.text.utils_saturate_vector_2d,"ax",%progbits
 1141              		.align	1
 1142              		.global	utils_saturate_vector_2d
 1143              		.syntax unified
 1144              		.thumb
 1145              		.thumb_func
 1146              		.fpu fpv4-sp-d16
 1148              	utils_saturate_vector_2d:
 1149              	.LVL110:
 1150              	.LFB23:
 410:Src/utils.c   **** 	bool retval = false;
 1151              		.loc 1 410 1 is_stmt 1 view -0
 1152              		.cfi_startproc
 1153              		@ args = 0, pretend = 0, frame = 0
 1154              		@ frame_needed = 0, uses_anonymous_args = 0
 410:Src/utils.c   **** 	bool retval = false;
 1155              		.loc 1 410 1 is_stmt 0 view .LVU283
 1156 0000 38B5     		push	{r3, r4, r5, lr}
 1157              	.LCFI7:
 1158              		.cfi_def_cfa_offset 16
 1159              		.cfi_offset 3, -16
 1160              		.cfi_offset 4, -12
 1161              		.cfi_offset 5, -8
 1162              		.cfi_offset 14, -4
 1163 0002 2DED028B 		vpush.64	{d8}
 1164              	.LCFI8:
 1165              		.cfi_def_cfa_offset 24
 1166              		.cfi_offset 80, -24
 1167              		.cfi_offset 81, -20
 1168 0006 0546     		mov	r5, r0
 1169 0008 0C46     		mov	r4, r1
 1170 000a B0EE408A 		vmov.f32	s16, s0
 411:Src/utils.c   **** 	float mag = sqrtf(SQ(*x) + SQ(*y));
 1171              		.loc 1 411 2 is_stmt 1 view .LVU284
 1172              	.LVL111:
 412:Src/utils.c   **** 	max = fabsf(max);
 1173              		.loc 1 412 2 view .LVU285
 412:Src/utils.c   **** 	max = fabsf(max);
 1174              		.loc 1 412 20 is_stmt 0 view .LVU286
 1175 000e 90ED000A 		vldr.32	s0, [r0]
 1176              	.LVL112:
 412:Src/utils.c   **** 	max = fabsf(max);
 1177              		.loc 1 412 20 view .LVU287
 1178 0012 20EE000A 		vmul.f32	s0, s0, s0
ARM GAS  D:\apps\VSCode\data\tmp\ccbZzZbG.s 			page 41


 412:Src/utils.c   **** 	max = fabsf(max);
 1179              		.loc 1 412 29 view .LVU288
 1180 0016 D1ED007A 		vldr.32	s15, [r1]
 1181 001a 67EEA77A 		vmul.f32	s15, s15, s15
 412:Src/utils.c   **** 	max = fabsf(max);
 1182              		.loc 1 412 14 view .LVU289
 1183 001e 30EE270A 		vadd.f32	s0, s0, s15
 1184 0022 FFF7FEFF 		bl	sqrtf
 1185              	.LVL113:
 413:Src/utils.c   **** 
 1186              		.loc 1 413 2 is_stmt 1 view .LVU290
 413:Src/utils.c   **** 
 1187              		.loc 1 413 6 is_stmt 0 view .LVU291
 1188 0026 F0EEC87A 		vabs.f32	s15, s16
 1189              	.LVL114:
 415:Src/utils.c   **** 	{
 1190              		.loc 1 415 2 is_stmt 1 view .LVU292
 415:Src/utils.c   **** 	{
 1191              		.loc 1 415 5 is_stmt 0 view .LVU293
 1192 002a 9FED117A 		vldr.32	s14, .L142
 1193 002e B4EEC70A 		vcmpe.f32	s0, s14
 1194 0032 F1EE10FA 		vmrs	APSR_nzcv, FPSCR
 1195 0036 01D5     		bpl	.L134
 417:Src/utils.c   **** 	}
 1196              		.loc 1 417 7 view .LVU294
 1197 0038 B0EE470A 		vmov.f32	s0, s14
 1198              	.LVL115:
 1199              	.L134:
 420:Src/utils.c   **** 	{
 1200              		.loc 1 420 2 is_stmt 1 view .LVU295
 420:Src/utils.c   **** 	{
 1201              		.loc 1 420 5 is_stmt 0 view .LVU296
 1202 003c B4EEE70A 		vcmpe.f32	s0, s15
 1203 0040 F1EE10FA 		vmrs	APSR_nzcv, FPSCR
 1204 0044 0FDD     		ble	.L140
 1205              	.LBB6:
 422:Src/utils.c   **** 		*x *= f;
 1206              		.loc 1 422 3 is_stmt 1 view .LVU297
 422:Src/utils.c   **** 		*x *= f;
 1207              		.loc 1 422 15 is_stmt 0 view .LVU298
 1208 0046 C7EE806A 		vdiv.f32	s13, s15, s0
 1209              	.LVL116:
 423:Src/utils.c   **** 		*y *= f;
 1210              		.loc 1 423 3 is_stmt 1 view .LVU299
 423:Src/utils.c   **** 		*y *= f;
 1211              		.loc 1 423 6 is_stmt 0 view .LVU300
 1212 004a 95ED007A 		vldr.32	s14, [r5]
 1213 004e 27EE267A 		vmul.f32	s14, s14, s13
 1214 0052 85ED007A 		vstr.32	s14, [r5]
 424:Src/utils.c   **** 		retval = true;
 1215              		.loc 1 424 3 is_stmt 1 view .LVU301
 424:Src/utils.c   **** 		retval = true;
 1216              		.loc 1 424 6 is_stmt 0 view .LVU302
 1217 0056 D4ED007A 		vldr.32	s15, [r4]
 1218              	.LVL117:
 424:Src/utils.c   **** 		retval = true;
 1219              		.loc 1 424 6 view .LVU303
ARM GAS  D:\apps\VSCode\data\tmp\ccbZzZbG.s 			page 42


 1220 005a 67EEA67A 		vmul.f32	s15, s15, s13
 1221 005e C4ED007A 		vstr.32	s15, [r4]
 425:Src/utils.c   **** 	}
 1222              		.loc 1 425 3 is_stmt 1 view .LVU304
 1223              	.LVL118:
 425:Src/utils.c   **** 	}
 1224              		.loc 1 425 10 is_stmt 0 view .LVU305
 1225 0062 0120     		movs	r0, #1
 1226 0064 00E0     		b	.L135
 1227              	.LVL119:
 1228              	.L140:
 425:Src/utils.c   **** 	}
 1229              		.loc 1 425 10 view .LVU306
 1230              	.LBE6:
 411:Src/utils.c   **** 	float mag = sqrtf(SQ(*x) + SQ(*y));
 1231              		.loc 1 411 7 view .LVU307
 1232 0066 0020     		movs	r0, #0
 1233              	.LVL120:
 1234              	.L135:
 428:Src/utils.c   **** }
 1235              		.loc 1 428 2 is_stmt 1 view .LVU308
 429:Src/utils.c   **** 
 1236              		.loc 1 429 1 is_stmt 0 view .LVU309
 1237 0068 BDEC028B 		vldm	sp!, {d8}
 1238              	.LCFI9:
 1239              		.cfi_restore 80
 1240              		.cfi_restore 81
 1241              		.cfi_def_cfa_offset 16
 1242              	.LVL121:
 429:Src/utils.c   **** 
 1243              		.loc 1 429 1 view .LVU310
 1244 006c 38BD     		pop	{r3, r4, r5, pc}
 1245              	.LVL122:
 1246              	.L143:
 429:Src/utils.c   **** 
 1247              		.loc 1 429 1 view .LVU311
 1248 006e 00BF     		.align	2
 1249              	.L142:
 1250 0070 FFE6DB2E 		.word	786163455
 1251              		.cfi_endproc
 1252              	.LFE23:
 1254              		.global	__aeabi_dcmplt
 1255              		.global	__aeabi_dcmpgt
 1256              		.section	.text.utils_fast_sincos,"ax",%progbits
 1257              		.align	1
 1258              		.global	utils_fast_sincos
 1259              		.syntax unified
 1260              		.thumb
 1261              		.thumb_func
 1262              		.fpu fpv4-sp-d16
 1264              	utils_fast_sincos:
 1265              	.LVL123:
 1266              	.LFB24:
 447:Src/utils.c   **** 	//always wrap input angle to -PI..PI
 1267              		.loc 1 447 1 is_stmt 1 view -0
 1268              		.cfi_startproc
 1269              		@ args = 0, pretend = 0, frame = 0
ARM GAS  D:\apps\VSCode\data\tmp\ccbZzZbG.s 			page 43


 1270              		@ frame_needed = 0, uses_anonymous_args = 0
 447:Src/utils.c   **** 	//always wrap input angle to -PI..PI
 1271              		.loc 1 447 1 is_stmt 0 view .LVU313
 1272 0000 2DE9F041 		push	{r4, r5, r6, r7, r8, lr}
 1273              	.LCFI10:
 1274              		.cfi_def_cfa_offset 24
 1275              		.cfi_offset 4, -24
 1276              		.cfi_offset 5, -20
 1277              		.cfi_offset 6, -16
 1278              		.cfi_offset 7, -12
 1279              		.cfi_offset 8, -8
 1280              		.cfi_offset 14, -4
 1281 0004 2DED028B 		vpush.64	{d8}
 1282              	.LCFI11:
 1283              		.cfi_def_cfa_offset 32
 1284              		.cfi_offset 80, -32
 1285              		.cfi_offset 81, -28
 1286 0008 10EE104A 		vmov	r4, s0
 1287 000c 8046     		mov	r8, r0
 1288 000e 0D46     		mov	r5, r1
 449:Src/utils.c   **** 	{
 1289              		.loc 1 449 2 is_stmt 1 view .LVU314
 1290              	.LVL124:
 1291              	.L145:
 449:Src/utils.c   **** 	{
 1292              		.loc 1 449 15 is_stmt 0 view .LVU315
 1293 0010 2046     		mov	r0, r4	@ float
 1294 0012 FFF7FEFF 		bl	__aeabi_f2d
 1295              	.LVL125:
 1296 0016 0646     		mov	r6, r0
 1297 0018 0F46     		mov	r7, r1
 449:Src/utils.c   **** 	{
 1298              		.loc 1 449 8 view .LVU316
 1299 001a 55A3     		adr	r3, .L165+32
 1300 001c D3E90023 		ldrd	r2, [r3]
 1301 0020 FFF7FEFF 		bl	__aeabi_dcmplt
 1302              	.LVL126:
 1303 0024 A0B1     		cbz	r0, .L147
 451:Src/utils.c   **** 	}
 1304              		.loc 1 451 3 is_stmt 1 view .LVU317
 451:Src/utils.c   **** 	}
 1305              		.loc 1 451 9 is_stmt 0 view .LVU318
 1306 0026 4EA3     		adr	r3, .L165+16
 1307 0028 D3E90023 		ldrd	r2, [r3]
 1308 002c 3046     		mov	r0, r6
 1309 002e 3946     		mov	r1, r7
 1310 0030 FFF7FEFF 		bl	__aeabi_dadd
 1311              	.LVL127:
 1312 0034 FFF7FEFF 		bl	__aeabi_d2f
 1313              	.LVL128:
 1314 0038 0446     		mov	r4, r0	@ float
 1315              	.LVL129:
 451:Src/utils.c   **** 	}
 1316              		.loc 1 451 9 view .LVU319
 1317 003a E9E7     		b	.L145
 1318              	.LVL130:
 1319              	.L148:
ARM GAS  D:\apps\VSCode\data\tmp\ccbZzZbG.s 			page 44


 456:Src/utils.c   **** 	}
 1320              		.loc 1 456 3 is_stmt 1 view .LVU320
 456:Src/utils.c   **** 	}
 1321              		.loc 1 456 9 is_stmt 0 view .LVU321
 1322 003c 48A3     		adr	r3, .L165+16
 1323 003e D3E90023 		ldrd	r2, [r3]
 1324 0042 3046     		mov	r0, r6
 1325 0044 3946     		mov	r1, r7
 1326 0046 FFF7FEFF 		bl	__aeabi_dsub
 1327              	.LVL131:
 1328 004a FFF7FEFF 		bl	__aeabi_d2f
 1329              	.LVL132:
 1330 004e 0446     		mov	r4, r0	@ float
 1331              	.LVL133:
 1332              	.L147:
 454:Src/utils.c   **** 	{
 1333              		.loc 1 454 15 view .LVU322
 1334 0050 2046     		mov	r0, r4	@ float
 1335 0052 FFF7FEFF 		bl	__aeabi_f2d
 1336              	.LVL134:
 1337 0056 0646     		mov	r6, r0
 1338 0058 0F46     		mov	r7, r1
 454:Src/utils.c   **** 	{
 1339              		.loc 1 454 8 view .LVU323
 1340 005a 3FA3     		adr	r3, .L165+8
 1341 005c D3E90023 		ldrd	r2, [r3]
 1342 0060 FFF7FEFF 		bl	__aeabi_dcmpgt
 1343              	.LVL135:
 1344 0064 0028     		cmp	r0, #0
 1345 0066 E9D1     		bne	.L148
 460:Src/utils.c   **** 	{
 1346              		.loc 1 460 2 is_stmt 1 view .LVU324
 460:Src/utils.c   **** 	{
 1347              		.loc 1 460 5 is_stmt 0 view .LVU325
 1348 0068 07EE904A 		vmov	s15, r4
 1349 006c F5EEC07A 		vcmpe.f32	s15, #0
 1350 0070 F1EE10FA 		vmrs	APSR_nzcv, FPSCR
 1351 0074 48D4     		bmi	.L163
 466:Src/utils.c   **** 	}
 1352              		.loc 1 466 3 is_stmt 1 view .LVU326
 466:Src/utils.c   **** 	}
 1353              		.loc 1 466 22 is_stmt 0 view .LVU327
 1354 0076 DFED3C7A 		vldr.32	s15, .L165+24
 1355 007a 07EE104A 		vmov	s14, r4
 1356 007e 67EE277A 		vmul.f32	s15, s14, s15
 466:Src/utils.c   **** 	}
 1357              		.loc 1 466 45 view .LVU328
 1358 0082 9FED3A7A 		vldr.32	s14, .L165+28
 1359 0086 06EE904A 		vmov	s13, r4
 1360 008a 26EE877A 		vmul.f32	s14, s13, s14
 466:Src/utils.c   **** 	}
 1361              		.loc 1 466 53 view .LVU329
 1362 008e 27EE267A 		vmul.f32	s14, s14, s13
 466:Src/utils.c   **** 	}
 1363              		.loc 1 466 30 view .LVU330
 1364 0092 77EEC77A 		vsub.f32	s15, s15, s14
 466:Src/utils.c   **** 	}
ARM GAS  D:\apps\VSCode\data\tmp\ccbZzZbG.s 			page 45


 1365              		.loc 1 466 8 view .LVU331
 1366 0096 C8ED007A 		vstr.32	s15, [r8]
 1367              	.L151:
 470:Src/utils.c   **** 
 1368              		.loc 1 470 2 is_stmt 1 view .LVU332
 470:Src/utils.c   **** 
 1369              		.loc 1 470 8 is_stmt 0 view .LVU333
 1370 009a 2DA3     		adr	r3, .L165
 1371 009c D3E90023 		ldrd	r2, [r3]
 1372 00a0 3046     		mov	r0, r6
 1373 00a2 3946     		mov	r1, r7
 1374 00a4 FFF7FEFF 		bl	__aeabi_dadd
 1375              	.LVL136:
 1376 00a8 FFF7FEFF 		bl	__aeabi_d2f
 1377              	.LVL137:
 1378 00ac 08EE100A 		vmov	s16, r0
 1379              	.LVL138:
 472:Src/utils.c   **** 	{
 1380              		.loc 1 472 2 is_stmt 1 view .LVU334
 472:Src/utils.c   **** 	{
 1381              		.loc 1 472 12 is_stmt 0 view .LVU335
 1382 00b0 FFF7FEFF 		bl	__aeabi_f2d
 1383              	.LVL139:
 472:Src/utils.c   **** 	{
 1384              		.loc 1 472 12 view .LVU336
 1385 00b4 0646     		mov	r6, r0
 1386 00b6 0F46     		mov	r7, r1
 472:Src/utils.c   **** 	{
 1387              		.loc 1 472 5 view .LVU337
 1388 00b8 27A3     		adr	r3, .L165+8
 1389 00ba D3E90023 		ldrd	r2, [r3]
 1390 00be FFF7FEFF 		bl	__aeabi_dcmpgt
 1391              	.LVL140:
 1392 00c2 50B1     		cbz	r0, .L152
 474:Src/utils.c   **** 	}
 1393              		.loc 1 474 3 is_stmt 1 view .LVU338
 474:Src/utils.c   **** 	}
 1394              		.loc 1 474 9 is_stmt 0 view .LVU339
 1395 00c4 26A3     		adr	r3, .L165+16
 1396 00c6 D3E90023 		ldrd	r2, [r3]
 1397 00ca 3046     		mov	r0, r6
 1398 00cc 3946     		mov	r1, r7
 1399 00ce FFF7FEFF 		bl	__aeabi_dsub
 1400              	.LVL141:
 1401 00d2 FFF7FEFF 		bl	__aeabi_d2f
 1402              	.LVL142:
 1403 00d6 08EE100A 		vmov	s16, r0
 1404              	.LVL143:
 1405              	.L152:
 477:Src/utils.c   **** 	{
 1406              		.loc 1 477 2 is_stmt 1 view .LVU340
 477:Src/utils.c   **** 	{
 1407              		.loc 1 477 5 is_stmt 0 view .LVU341
 1408 00da B5EEC08A 		vcmpe.f32	s16, #0
 1409 00de F1EE10FA 		vmrs	APSR_nzcv, FPSCR
 1410 00e2 24D4     		bmi	.L164
 483:Src/utils.c   **** 	}
ARM GAS  D:\apps\VSCode\data\tmp\ccbZzZbG.s 			page 46


 1411              		.loc 1 483 3 is_stmt 1 view .LVU342
 483:Src/utils.c   **** 	}
 1412              		.loc 1 483 22 is_stmt 0 view .LVU343
 1413 00e4 DFED207A 		vldr.32	s15, .L165+24
 1414 00e8 68EE277A 		vmul.f32	s15, s16, s15
 483:Src/utils.c   **** 	}
 1415              		.loc 1 483 45 view .LVU344
 1416 00ec 9FED1F7A 		vldr.32	s14, .L165+28
 1417 00f0 28EE077A 		vmul.f32	s14, s16, s14
 483:Src/utils.c   **** 	}
 1418              		.loc 1 483 53 view .LVU345
 1419 00f4 27EE088A 		vmul.f32	s16, s14, s16
 1420              	.LVL144:
 483:Src/utils.c   **** 	}
 1421              		.loc 1 483 30 view .LVU346
 1422 00f8 37EEC88A 		vsub.f32	s16, s15, s16
 483:Src/utils.c   **** 	}
 1423              		.loc 1 483 8 view .LVU347
 1424 00fc 85ED008A 		vstr.32	s16, [r5]
 1425              	.L144:
 485:Src/utils.c   **** 
 1426              		.loc 1 485 1 view .LVU348
 1427 0100 BDEC028B 		vldm	sp!, {d8}
 1428              	.LCFI12:
 1429              		.cfi_remember_state
 1430              		.cfi_restore 80
 1431              		.cfi_restore 81
 1432              		.cfi_def_cfa_offset 24
 1433 0104 BDE8F081 		pop	{r4, r5, r6, r7, r8, pc}
 1434              	.LVL145:
 1435              	.L163:
 1436              	.LCFI13:
 1437              		.cfi_restore_state
 462:Src/utils.c   **** 	}
 1438              		.loc 1 462 3 is_stmt 1 view .LVU349
 462:Src/utils.c   **** 	}
 1439              		.loc 1 462 22 is_stmt 0 view .LVU350
 1440 0108 DFED177A 		vldr.32	s15, .L165+24
 1441 010c 07EE104A 		vmov	s14, r4
 1442 0110 67EE277A 		vmul.f32	s15, s14, s15
 462:Src/utils.c   **** 	}
 1443              		.loc 1 462 45 view .LVU351
 1444 0114 9FED157A 		vldr.32	s14, .L165+28
 1445 0118 06EE904A 		vmov	s13, r4
 1446 011c 26EE877A 		vmul.f32	s14, s13, s14
 462:Src/utils.c   **** 	}
 1447              		.loc 1 462 53 view .LVU352
 1448 0120 27EE267A 		vmul.f32	s14, s14, s13
 462:Src/utils.c   **** 	}
 1449              		.loc 1 462 30 view .LVU353
 1450 0124 77EE877A 		vadd.f32	s15, s15, s14
 462:Src/utils.c   **** 	}
 1451              		.loc 1 462 8 view .LVU354
 1452 0128 C8ED007A 		vstr.32	s15, [r8]
 1453 012c B5E7     		b	.L151
 1454              	.LVL146:
 1455              	.L164:
ARM GAS  D:\apps\VSCode\data\tmp\ccbZzZbG.s 			page 47


 479:Src/utils.c   **** 	}
 1456              		.loc 1 479 3 is_stmt 1 view .LVU355
 479:Src/utils.c   **** 	}
 1457              		.loc 1 479 22 is_stmt 0 view .LVU356
 1458 012e DFED0E7A 		vldr.32	s15, .L165+24
 1459 0132 68EE277A 		vmul.f32	s15, s16, s15
 479:Src/utils.c   **** 	}
 1460              		.loc 1 479 45 view .LVU357
 1461 0136 9FED0D7A 		vldr.32	s14, .L165+28
 1462 013a 28EE077A 		vmul.f32	s14, s16, s14
 479:Src/utils.c   **** 	}
 1463              		.loc 1 479 53 view .LVU358
 1464 013e 27EE088A 		vmul.f32	s16, s14, s16
 1465              	.LVL147:
 479:Src/utils.c   **** 	}
 1466              		.loc 1 479 30 view .LVU359
 1467 0142 37EE888A 		vadd.f32	s16, s15, s16
 479:Src/utils.c   **** 	}
 1468              		.loc 1 479 8 view .LVU360
 1469 0146 85ED008A 		vstr.32	s16, [r5]
 1470 014a D9E7     		b	.L144
 1471              	.L166:
 1472 014c AFF30080 		.align	3
 1473              	.L165:
 1474 0150 182D4454 		.word	1413754136
 1475 0154 FB21F93F 		.word	1073291771
 1476 0158 182D4454 		.word	1413754136
 1477 015c FB210940 		.word	1074340347
 1478 0160 182D4454 		.word	1413754136
 1479 0164 FB211940 		.word	1075388923
 1480 0168 83F9A23F 		.word	1067645315
 1481 016c 7B81CF3E 		.word	1053786491
 1482 0170 182D4454 		.word	1413754136
 1483 0174 FB2109C0 		.word	-1073143301
 1484              		.cfi_endproc
 1485              	.LFE24:
 1487              		.section	.text.utSin,"ax",%progbits
 1488              		.align	1
 1489              		.global	utSin
 1490              		.syntax unified
 1491              		.thumb
 1492              		.thumb_func
 1493              		.fpu fpv4-sp-d16
 1495              	utSin:
 1496              	.LVL148:
 1497              	.LFB25:
 498:Src/utils.c   **** 	float fsin;
 1498              		.loc 1 498 1 is_stmt 1 view -0
 1499              		.cfi_startproc
 1500              		@ args = 0, pretend = 0, frame = 0
 1501              		@ frame_needed = 0, uses_anonymous_args = 0
 1502              		@ link register save eliminated.
 499:Src/utils.c   **** 	//always wrap input angle to -PI..PI
 1503              		.loc 1 499 2 view .LVU362
 501:Src/utils.c   **** 	{
 1504              		.loc 1 501 2 view .LVU363
 1505              	.L168:
ARM GAS  D:\apps\VSCode\data\tmp\ccbZzZbG.s 			page 48


 501:Src/utils.c   **** 	{
 1506              		.loc 1 501 8 is_stmt 0 view .LVU364
 1507 0000 DFED347A 		vldr.32	s15, .L188
 1508 0004 B4EEE70A 		vcmpe.f32	s0, s15
 1509 0008 F1EE10FA 		vmrs	APSR_nzcv, FPSCR
 1510 000c 08D5     		bpl	.L170
 503:Src/utils.c   **** 	}
 1511              		.loc 1 503 3 is_stmt 1 view .LVU365
 503:Src/utils.c   **** 	}
 1512              		.loc 1 503 9 is_stmt 0 view .LVU366
 1513 000e DFED327A 		vldr.32	s15, .L188+4
 1514 0012 30EE270A 		vadd.f32	s0, s0, s15
 1515              	.LVL149:
 503:Src/utils.c   **** 	}
 1516              		.loc 1 503 9 view .LVU367
 1517 0016 F3E7     		b	.L168
 1518              	.L171:
 508:Src/utils.c   **** 	}
 1519              		.loc 1 508 3 is_stmt 1 view .LVU368
 508:Src/utils.c   **** 	}
 1520              		.loc 1 508 9 is_stmt 0 view .LVU369
 1521 0018 DFED2F7A 		vldr.32	s15, .L188+4
 1522 001c 30EE670A 		vsub.f32	s0, s0, s15
 1523              	.LVL150:
 1524              	.L170:
 506:Src/utils.c   **** 	{
 1525              		.loc 1 506 8 view .LVU370
 1526 0020 DFED2E7A 		vldr.32	s15, .L188+8
 1527 0024 B4EEE70A 		vcmpe.f32	s0, s15
 1528 0028 F1EE10FA 		vmrs	APSR_nzcv, FPSCR
 1529 002c F4DC     		bgt	.L171
 511:Src/utils.c   **** 	{
 1530              		.loc 1 511 2 is_stmt 1 view .LVU371
 511:Src/utils.c   **** 	{
 1531              		.loc 1 511 5 is_stmt 0 view .LVU372
 1532 002e B5EEC00A 		vcmpe.f32	s0, #0
 1533 0032 F1EE10FA 		vmrs	APSR_nzcv, FPSCR
 1534 0036 1BD4     		bmi	.L185
 526:Src/utils.c   **** 
 1535              		.loc 1 526 3 is_stmt 1 view .LVU373
 526:Src/utils.c   **** 
 1536              		.loc 1 526 22 is_stmt 0 view .LVU374
 1537 0038 DFED297A 		vldr.32	s15, .L188+12
 1538 003c 60EE277A 		vmul.f32	s15, s0, s15
 526:Src/utils.c   **** 
 1539              		.loc 1 526 45 view .LVU375
 1540 0040 9FED287A 		vldr.32	s14, .L188+16
 1541 0044 20EE077A 		vmul.f32	s14, s0, s14
 526:Src/utils.c   **** 
 1542              		.loc 1 526 53 view .LVU376
 1543 0048 27EE000A 		vmul.f32	s0, s14, s0
 1544              	.LVL151:
 526:Src/utils.c   **** 
 1545              		.loc 1 526 8 view .LVU377
 1546 004c 37EEC00A 		vsub.f32	s0, s15, s0
 1547              	.LVL152:
 528:Src/utils.c   **** 		{
ARM GAS  D:\apps\VSCode\data\tmp\ccbZzZbG.s 			page 49


 1548              		.loc 1 528 3 is_stmt 1 view .LVU378
 528:Src/utils.c   **** 		{
 1549              		.loc 1 528 6 is_stmt 0 view .LVU379
 1550 0050 B5EEC00A 		vcmpe.f32	s0, #0
 1551 0054 F1EE10FA 		vmrs	APSR_nzcv, FPSCR
 1552 0058 31D4     		bmi	.L186
 534:Src/utils.c   **** 		}
 1553              		.loc 1 534 4 is_stmt 1 view .LVU380
 534:Src/utils.c   **** 		}
 1554              		.loc 1 534 26 is_stmt 0 view .LVU381
 1555 005a 60EE007A 		vmul.f32	s15, s0, s0
 534:Src/utils.c   **** 		}
 1556              		.loc 1 534 33 view .LVU382
 1557 005e 77EEC07A 		vsub.f32	s15, s15, s0
 534:Src/utils.c   **** 		}
 1558              		.loc 1 534 18 view .LVU383
 1559 0062 9FED217A 		vldr.32	s14, .L188+20
 1560 0066 67EE877A 		vmul.f32	s15, s15, s14
 534:Src/utils.c   **** 		}
 1561              		.loc 1 534 9 view .LVU384
 1562 006a 37EE800A 		vadd.f32	s0, s15, s0
 1563              	.LVL153:
 537:Src/utils.c   **** }
 1564              		.loc 1 537 2 is_stmt 1 view .LVU385
 538:Src/utils.c   **** 
 1565              		.loc 1 538 1 is_stmt 0 view .LVU386
 1566 006e 7047     		bx	lr
 1567              	.LVL154:
 1568              	.L185:
 513:Src/utils.c   **** 
 1569              		.loc 1 513 3 is_stmt 1 view .LVU387
 513:Src/utils.c   **** 
 1570              		.loc 1 513 22 is_stmt 0 view .LVU388
 1571 0070 DFED1B7A 		vldr.32	s15, .L188+12
 1572 0074 60EE277A 		vmul.f32	s15, s0, s15
 513:Src/utils.c   **** 
 1573              		.loc 1 513 45 view .LVU389
 1574 0078 9FED1A7A 		vldr.32	s14, .L188+16
 1575 007c 20EE077A 		vmul.f32	s14, s0, s14
 513:Src/utils.c   **** 
 1576              		.loc 1 513 53 view .LVU390
 1577 0080 27EE000A 		vmul.f32	s0, s14, s0
 1578              	.LVL155:
 513:Src/utils.c   **** 
 1579              		.loc 1 513 8 view .LVU391
 1580 0084 37EE800A 		vadd.f32	s0, s15, s0
 1581              	.LVL156:
 515:Src/utils.c   **** 		{
 1582              		.loc 1 515 3 is_stmt 1 view .LVU392
 515:Src/utils.c   **** 		{
 1583              		.loc 1 515 6 is_stmt 0 view .LVU393
 1584 0088 B5EEC00A 		vcmpe.f32	s0, #0
 1585 008c F1EE10FA 		vmrs	APSR_nzcv, FPSCR
 1586 0090 0AD4     		bmi	.L187
 521:Src/utils.c   **** 		}
 1587              		.loc 1 521 4 is_stmt 1 view .LVU394
 521:Src/utils.c   **** 		}
ARM GAS  D:\apps\VSCode\data\tmp\ccbZzZbG.s 			page 50


 1588              		.loc 1 521 26 is_stmt 0 view .LVU395
 1589 0092 60EE007A 		vmul.f32	s15, s0, s0
 521:Src/utils.c   **** 		}
 1590              		.loc 1 521 33 view .LVU396
 1591 0096 77EEC07A 		vsub.f32	s15, s15, s0
 521:Src/utils.c   **** 		}
 1592              		.loc 1 521 18 view .LVU397
 1593 009a 9FED137A 		vldr.32	s14, .L188+20
 1594 009e 67EE877A 		vmul.f32	s15, s15, s14
 521:Src/utils.c   **** 		}
 1595              		.loc 1 521 9 view .LVU398
 1596 00a2 37EE800A 		vadd.f32	s0, s15, s0
 1597              	.LVL157:
 521:Src/utils.c   **** 		}
 1598              		.loc 1 521 9 view .LVU399
 1599 00a6 7047     		bx	lr
 1600              	.L187:
 517:Src/utils.c   **** 		}
 1601              		.loc 1 517 4 is_stmt 1 view .LVU400
 517:Src/utils.c   **** 		}
 1602              		.loc 1 517 26 is_stmt 0 view .LVU401
 1603 00a8 60EE407A 		vnmul.f32	s15, s0, s0
 517:Src/utils.c   **** 		}
 1604              		.loc 1 517 34 view .LVU402
 1605 00ac 77EEC07A 		vsub.f32	s15, s15, s0
 517:Src/utils.c   **** 		}
 1606              		.loc 1 517 18 view .LVU403
 1607 00b0 9FED0D7A 		vldr.32	s14, .L188+20
 1608 00b4 67EE877A 		vmul.f32	s15, s15, s14
 517:Src/utils.c   **** 		}
 1609              		.loc 1 517 9 view .LVU404
 1610 00b8 37EE800A 		vadd.f32	s0, s15, s0
 1611              	.LVL158:
 517:Src/utils.c   **** 		}
 1612              		.loc 1 517 9 view .LVU405
 1613 00bc 7047     		bx	lr
 1614              	.L186:
 530:Src/utils.c   **** 		}
 1615              		.loc 1 530 4 is_stmt 1 view .LVU406
 530:Src/utils.c   **** 		}
 1616              		.loc 1 530 26 is_stmt 0 view .LVU407
 1617 00be 60EE407A 		vnmul.f32	s15, s0, s0
 530:Src/utils.c   **** 		}
 1618              		.loc 1 530 34 view .LVU408
 1619 00c2 77EEC07A 		vsub.f32	s15, s15, s0
 530:Src/utils.c   **** 		}
 1620              		.loc 1 530 18 view .LVU409
 1621 00c6 9FED087A 		vldr.32	s14, .L188+20
 1622 00ca 67EE877A 		vmul.f32	s15, s15, s14
 530:Src/utils.c   **** 		}
 1623              		.loc 1 530 9 view .LVU410
 1624 00ce 37EE800A 		vadd.f32	s0, s15, s0
 1625              	.LVL159:
 530:Src/utils.c   **** 		}
 1626              		.loc 1 530 9 view .LVU411
 1627 00d2 7047     		bx	lr
 1628              	.L189:
ARM GAS  D:\apps\VSCode\data\tmp\ccbZzZbG.s 			page 51


 1629              		.align	2
 1630              	.L188:
 1631 00d4 DB0F49C0 		.word	-1068953637
 1632 00d8 DB0FC940 		.word	1086918619
 1633 00dc DB0F4940 		.word	1078530011
 1634 00e0 83F9A23F 		.word	1067645315
 1635 00e4 7B81CF3E 		.word	1053786491
 1636 00e8 6666663E 		.word	1046898278
 1637              		.cfi_endproc
 1638              	.LFE25:
 1640              		.section	.text.utCos,"ax",%progbits
 1641              		.align	1
 1642              		.global	utCos
 1643              		.syntax unified
 1644              		.thumb
 1645              		.thumb_func
 1646              		.fpu fpv4-sp-d16
 1648              	utCos:
 1649              	.LVL160:
 1650              	.LFB26:
 551:Src/utils.c   **** 	float fsin;
 1651              		.loc 1 551 1 is_stmt 1 view -0
 1652              		.cfi_startproc
 1653              		@ args = 0, pretend = 0, frame = 0
 1654              		@ frame_needed = 0, uses_anonymous_args = 0
 1655              		@ link register save eliminated.
 552:Src/utils.c   **** 	//always wrap input angle to -PI..PI
 1656              		.loc 1 552 2 view .LVU413
 554:Src/utils.c   **** 	{
 1657              		.loc 1 554 2 view .LVU414
 1658              	.L191:
 554:Src/utils.c   **** 	{
 1659              		.loc 1 554 8 is_stmt 0 view .LVU415
 1660 0000 DFED3C7A 		vldr.32	s15, .L214
 1661 0004 B4EEE70A 		vcmpe.f32	s0, s15
 1662 0008 F1EE10FA 		vmrs	APSR_nzcv, FPSCR
 1663 000c 08D5     		bpl	.L193
 556:Src/utils.c   **** 	}
 1664              		.loc 1 556 3 is_stmt 1 view .LVU416
 556:Src/utils.c   **** 	}
 1665              		.loc 1 556 9 is_stmt 0 view .LVU417
 1666 000e DFED3A7A 		vldr.32	s15, .L214+4
 1667 0012 30EE270A 		vadd.f32	s0, s0, s15
 1668              	.LVL161:
 556:Src/utils.c   **** 	}
 1669              		.loc 1 556 9 view .LVU418
 1670 0016 F3E7     		b	.L191
 1671              	.L194:
 561:Src/utils.c   **** 	}
 1672              		.loc 1 561 3 is_stmt 1 view .LVU419
 561:Src/utils.c   **** 	}
 1673              		.loc 1 561 9 is_stmt 0 view .LVU420
 1674 0018 DFED377A 		vldr.32	s15, .L214+4
 1675 001c 30EE670A 		vsub.f32	s0, s0, s15
 1676              	.LVL162:
 1677              	.L193:
 559:Src/utils.c   **** 	{
ARM GAS  D:\apps\VSCode\data\tmp\ccbZzZbG.s 			page 52


 1678              		.loc 1 559 8 view .LVU421
 1679 0020 DFED367A 		vldr.32	s15, .L214+8
 1680 0024 B4EEE70A 		vcmpe.f32	s0, s15
 1681 0028 F1EE10FA 		vmrs	APSR_nzcv, FPSCR
 1682 002c F4DC     		bgt	.L194
 565:Src/utils.c   **** 	if (angle > MF_PI)
 1683              		.loc 1 565 2 is_stmt 1 view .LVU422
 565:Src/utils.c   **** 	if (angle > MF_PI)
 1684              		.loc 1 565 8 is_stmt 0 view .LVU423
 1685 002e DFED347A 		vldr.32	s15, .L214+12
 1686 0032 30EE270A 		vadd.f32	s0, s0, s15
 1687              	.LVL163:
 566:Src/utils.c   **** 	{
 1688              		.loc 1 566 2 is_stmt 1 view .LVU424
 566:Src/utils.c   **** 	{
 1689              		.loc 1 566 5 is_stmt 0 view .LVU425
 1690 0036 DFED317A 		vldr.32	s15, .L214+8
 1691 003a B4EEE70A 		vcmpe.f32	s0, s15
 1692 003e F1EE10FA 		vmrs	APSR_nzcv, FPSCR
 1693 0042 03DD     		ble	.L195
 568:Src/utils.c   **** 	}
 1694              		.loc 1 568 3 is_stmt 1 view .LVU426
 568:Src/utils.c   **** 	}
 1695              		.loc 1 568 9 is_stmt 0 view .LVU427
 1696 0044 DFED2C7A 		vldr.32	s15, .L214+4
 1697 0048 30EE670A 		vsub.f32	s0, s0, s15
 1698              	.LVL164:
 1699              	.L195:
 571:Src/utils.c   **** 	{
 1700              		.loc 1 571 2 is_stmt 1 view .LVU428
 571:Src/utils.c   **** 	{
 1701              		.loc 1 571 5 is_stmt 0 view .LVU429
 1702 004c B5EEC00A 		vcmpe.f32	s0, #0
 1703 0050 F1EE10FA 		vmrs	APSR_nzcv, FPSCR
 1704 0054 1BD4     		bmi	.L211
 586:Src/utils.c   **** 
 1705              		.loc 1 586 3 is_stmt 1 view .LVU430
 586:Src/utils.c   **** 
 1706              		.loc 1 586 22 is_stmt 0 view .LVU431
 1707 0056 DFED2B7A 		vldr.32	s15, .L214+16
 1708 005a 60EE277A 		vmul.f32	s15, s0, s15
 586:Src/utils.c   **** 
 1709              		.loc 1 586 45 view .LVU432
 1710 005e 9FED2A7A 		vldr.32	s14, .L214+20
 1711 0062 20EE077A 		vmul.f32	s14, s0, s14
 586:Src/utils.c   **** 
 1712              		.loc 1 586 53 view .LVU433
 1713 0066 27EE000A 		vmul.f32	s0, s14, s0
 1714              	.LVL165:
 586:Src/utils.c   **** 
 1715              		.loc 1 586 8 view .LVU434
 1716 006a 37EEC00A 		vsub.f32	s0, s15, s0
 1717              	.LVL166:
 588:Src/utils.c   **** 		{
 1718              		.loc 1 588 3 is_stmt 1 view .LVU435
 588:Src/utils.c   **** 		{
 1719              		.loc 1 588 6 is_stmt 0 view .LVU436
ARM GAS  D:\apps\VSCode\data\tmp\ccbZzZbG.s 			page 53


 1720 006e B5EEC00A 		vcmpe.f32	s0, #0
 1721 0072 F1EE10FA 		vmrs	APSR_nzcv, FPSCR
 1722 0076 31D4     		bmi	.L212
 594:Src/utils.c   **** 		}
 1723              		.loc 1 594 4 is_stmt 1 view .LVU437
 594:Src/utils.c   **** 		}
 1724              		.loc 1 594 26 is_stmt 0 view .LVU438
 1725 0078 60EE007A 		vmul.f32	s15, s0, s0
 594:Src/utils.c   **** 		}
 1726              		.loc 1 594 33 view .LVU439
 1727 007c 77EEC07A 		vsub.f32	s15, s15, s0
 594:Src/utils.c   **** 		}
 1728              		.loc 1 594 18 view .LVU440
 1729 0080 9FED227A 		vldr.32	s14, .L214+24
 1730 0084 67EE877A 		vmul.f32	s15, s15, s14
 594:Src/utils.c   **** 		}
 1731              		.loc 1 594 9 view .LVU441
 1732 0088 37EE800A 		vadd.f32	s0, s15, s0
 1733              	.LVL167:
 597:Src/utils.c   **** }
 1734              		.loc 1 597 2 is_stmt 1 view .LVU442
 598:Src/utils.c   **** 
 1735              		.loc 1 598 1 is_stmt 0 view .LVU443
 1736 008c 7047     		bx	lr
 1737              	.LVL168:
 1738              	.L211:
 573:Src/utils.c   **** 
 1739              		.loc 1 573 3 is_stmt 1 view .LVU444
 573:Src/utils.c   **** 
 1740              		.loc 1 573 22 is_stmt 0 view .LVU445
 1741 008e DFED1D7A 		vldr.32	s15, .L214+16
 1742 0092 60EE277A 		vmul.f32	s15, s0, s15
 573:Src/utils.c   **** 
 1743              		.loc 1 573 45 view .LVU446
 1744 0096 9FED1C7A 		vldr.32	s14, .L214+20
 1745 009a 20EE077A 		vmul.f32	s14, s0, s14
 573:Src/utils.c   **** 
 1746              		.loc 1 573 53 view .LVU447
 1747 009e 27EE000A 		vmul.f32	s0, s14, s0
 1748              	.LVL169:
 573:Src/utils.c   **** 
 1749              		.loc 1 573 8 view .LVU448
 1750 00a2 37EE800A 		vadd.f32	s0, s15, s0
 1751              	.LVL170:
 575:Src/utils.c   **** 		{
 1752              		.loc 1 575 3 is_stmt 1 view .LVU449
 575:Src/utils.c   **** 		{
 1753              		.loc 1 575 6 is_stmt 0 view .LVU450
 1754 00a6 B5EEC00A 		vcmpe.f32	s0, #0
 1755 00aa F1EE10FA 		vmrs	APSR_nzcv, FPSCR
 1756 00ae 0AD4     		bmi	.L213
 581:Src/utils.c   **** 		}
 1757              		.loc 1 581 4 is_stmt 1 view .LVU451
 581:Src/utils.c   **** 		}
 1758              		.loc 1 581 26 is_stmt 0 view .LVU452
 1759 00b0 60EE007A 		vmul.f32	s15, s0, s0
 581:Src/utils.c   **** 		}
ARM GAS  D:\apps\VSCode\data\tmp\ccbZzZbG.s 			page 54


 1760              		.loc 1 581 33 view .LVU453
 1761 00b4 77EEC07A 		vsub.f32	s15, s15, s0
 581:Src/utils.c   **** 		}
 1762              		.loc 1 581 18 view .LVU454
 1763 00b8 9FED147A 		vldr.32	s14, .L214+24
 1764 00bc 67EE877A 		vmul.f32	s15, s15, s14
 581:Src/utils.c   **** 		}
 1765              		.loc 1 581 9 view .LVU455
 1766 00c0 37EE800A 		vadd.f32	s0, s15, s0
 1767              	.LVL171:
 581:Src/utils.c   **** 		}
 1768              		.loc 1 581 9 view .LVU456
 1769 00c4 7047     		bx	lr
 1770              	.L213:
 577:Src/utils.c   **** 		}
 1771              		.loc 1 577 4 is_stmt 1 view .LVU457
 577:Src/utils.c   **** 		}
 1772              		.loc 1 577 26 is_stmt 0 view .LVU458
 1773 00c6 60EE407A 		vnmul.f32	s15, s0, s0
 577:Src/utils.c   **** 		}
 1774              		.loc 1 577 34 view .LVU459
 1775 00ca 77EEC07A 		vsub.f32	s15, s15, s0
 577:Src/utils.c   **** 		}
 1776              		.loc 1 577 18 view .LVU460
 1777 00ce 9FED0F7A 		vldr.32	s14, .L214+24
 1778 00d2 67EE877A 		vmul.f32	s15, s15, s14
 577:Src/utils.c   **** 		}
 1779              		.loc 1 577 9 view .LVU461
 1780 00d6 37EE800A 		vadd.f32	s0, s15, s0
 1781              	.LVL172:
 577:Src/utils.c   **** 		}
 1782              		.loc 1 577 9 view .LVU462
 1783 00da 7047     		bx	lr
 1784              	.L212:
 590:Src/utils.c   **** 		}
 1785              		.loc 1 590 4 is_stmt 1 view .LVU463
 590:Src/utils.c   **** 		}
 1786              		.loc 1 590 26 is_stmt 0 view .LVU464
 1787 00dc 60EE407A 		vnmul.f32	s15, s0, s0
 590:Src/utils.c   **** 		}
 1788              		.loc 1 590 34 view .LVU465
 1789 00e0 77EEC07A 		vsub.f32	s15, s15, s0
 590:Src/utils.c   **** 		}
 1790              		.loc 1 590 18 view .LVU466
 1791 00e4 9FED097A 		vldr.32	s14, .L214+24
 1792 00e8 67EE877A 		vmul.f32	s15, s15, s14
 590:Src/utils.c   **** 		}
 1793              		.loc 1 590 9 view .LVU467
 1794 00ec 37EE800A 		vadd.f32	s0, s15, s0
 1795              	.LVL173:
 590:Src/utils.c   **** 		}
 1796              		.loc 1 590 9 view .LVU468
 1797 00f0 7047     		bx	lr
 1798              	.L215:
 1799 00f2 00BF     		.align	2
 1800              	.L214:
 1801 00f4 DB0F49C0 		.word	-1068953637
ARM GAS  D:\apps\VSCode\data\tmp\ccbZzZbG.s 			page 55


 1802 00f8 DB0FC940 		.word	1086918619
 1803 00fc DB0F4940 		.word	1078530011
 1804 0100 DB0FC93F 		.word	1070141403
 1805 0104 83F9A23F 		.word	1067645315
 1806 0108 7B81CF3E 		.word	1053786491
 1807 010c 6666663E 		.word	1046898278
 1808              		.cfi_endproc
 1809              	.LFE26:
 1811              		.section	.text.utils_avg_angles_rad_fast,"ax",%progbits
 1812              		.align	1
 1813              		.global	utils_avg_angles_rad_fast
 1814              		.syntax unified
 1815              		.thumb
 1816              		.thumb_func
 1817              		.fpu fpv4-sp-d16
 1819              	utils_avg_angles_rad_fast:
 1820              	.LVL174:
 1821              	.LFB17:
 240:Src/utils.c   **** 	float s_sum = 0.0;
 1822              		.loc 1 240 1 is_stmt 1 view -0
 1823              		.cfi_startproc
 1824              		@ args = 0, pretend = 0, frame = 0
 1825              		@ frame_needed = 0, uses_anonymous_args = 0
 240:Src/utils.c   **** 	float s_sum = 0.0;
 1826              		.loc 1 240 1 is_stmt 0 view .LVU470
 1827 0000 2DE9F041 		push	{r4, r5, r6, r7, r8, lr}
 1828              	.LCFI14:
 1829              		.cfi_def_cfa_offset 24
 1830              		.cfi_offset 4, -24
 1831              		.cfi_offset 5, -20
 1832              		.cfi_offset 6, -16
 1833              		.cfi_offset 7, -12
 1834              		.cfi_offset 8, -8
 1835              		.cfi_offset 14, -4
 1836 0004 2DED048B 		vpush.64	{d8, d9}
 1837              	.LCFI15:
 1838              		.cfi_def_cfa_offset 40
 1839              		.cfi_offset 80, -40
 1840              		.cfi_offset 81, -36
 1841              		.cfi_offset 82, -32
 1842              		.cfi_offset 83, -28
 1843 0008 8046     		mov	r8, r0
 1844 000a 0F46     		mov	r7, r1
 1845 000c 1646     		mov	r6, r2
 241:Src/utils.c   **** 	float c_sum = 0.0;
 1846              		.loc 1 241 2 is_stmt 1 view .LVU471
 1847              	.LVL175:
 242:Src/utils.c   **** 
 1848              		.loc 1 242 2 view .LVU472
 244:Src/utils.c   **** 	{
 1849              		.loc 1 244 2 view .LVU473
 1850              	.LBB7:
 244:Src/utils.c   **** 	{
 1851              		.loc 1 244 7 view .LVU474
 244:Src/utils.c   **** 	{
 1852              		.loc 1 244 11 is_stmt 0 view .LVU475
 1853 000e 0025     		movs	r5, #0
ARM GAS  D:\apps\VSCode\data\tmp\ccbZzZbG.s 			page 56


 1854              	.LBE7:
 242:Src/utils.c   **** 
 1855              		.loc 1 242 8 view .LVU476
 1856 0010 9FED159A 		vldr.32	s18, .L221
 241:Src/utils.c   **** 	float c_sum = 0.0;
 1857              		.loc 1 241 8 view .LVU477
 1858 0014 F0EE499A 		vmov.f32	s19, s18
 1859              	.LVL176:
 1860              	.L217:
 1861              	.LBB9:
 244:Src/utils.c   **** 	{
 1862              		.loc 1 244 2 discriminator 1 view .LVU478
 1863 0018 B542     		cmp	r5, r6
 1864 001a 1BDA     		bge	.L220
 1865              	.LBB8:
 246:Src/utils.c   **** 		s = utSin(angles[i]);
 1866              		.loc 1 246 3 is_stmt 1 discriminator 3 view .LVU479
 247:Src/utils.c   **** 		c = utCos(angles[i]);
 1867              		.loc 1 247 3 discriminator 3 view .LVU480
 247:Src/utils.c   **** 		c = utCos(angles[i]);
 1868              		.loc 1 247 19 is_stmt 0 discriminator 3 view .LVU481
 1869 001c AC00     		lsls	r4, r5, #2
 1870 001e 08EB0403 		add	r3, r8, r4
 247:Src/utils.c   **** 		c = utCos(angles[i]);
 1871              		.loc 1 247 7 discriminator 3 view .LVU482
 1872 0022 D3ED008A 		vldr.32	s17, [r3]
 1873 0026 B0EE680A 		vmov.f32	s0, s17
 1874 002a FFF7FEFF 		bl	utSin
 1875              	.LVL177:
 1876 002e B0EE408A 		vmov.f32	s16, s0
 1877              	.LVL178:
 248:Src/utils.c   **** 		s_sum += s * weights[i];
 1878              		.loc 1 248 3 is_stmt 1 discriminator 3 view .LVU483
 248:Src/utils.c   **** 		s_sum += s * weights[i];
 1879              		.loc 1 248 7 is_stmt 0 discriminator 3 view .LVU484
 1880 0032 B0EE680A 		vmov.f32	s0, s17
 1881              	.LVL179:
 248:Src/utils.c   **** 		s_sum += s * weights[i];
 1882              		.loc 1 248 7 discriminator 3 view .LVU485
 1883 0036 FFF7FEFF 		bl	utCos
 1884              	.LVL180:
 249:Src/utils.c   **** 		c_sum += c * weights[i];
 1885              		.loc 1 249 3 is_stmt 1 discriminator 3 view .LVU486
 249:Src/utils.c   **** 		c_sum += c * weights[i];
 1886              		.loc 1 249 23 is_stmt 0 discriminator 3 view .LVU487
 1887 003a 3C44     		add	r4, r4, r7
 1888 003c D4ED007A 		vldr.32	s15, [r4]
 249:Src/utils.c   **** 		c_sum += c * weights[i];
 1889              		.loc 1 249 14 discriminator 3 view .LVU488
 1890 0040 27EE888A 		vmul.f32	s16, s15, s16
 1891              	.LVL181:
 249:Src/utils.c   **** 		c_sum += c * weights[i];
 1892              		.loc 1 249 9 discriminator 3 view .LVU489
 1893 0044 79EE889A 		vadd.f32	s19, s19, s16
 1894              	.LVL182:
 250:Src/utils.c   **** 	}
 1895              		.loc 1 250 3 is_stmt 1 discriminator 3 view .LVU490
ARM GAS  D:\apps\VSCode\data\tmp\ccbZzZbG.s 			page 57


 250:Src/utils.c   **** 	}
 1896              		.loc 1 250 14 is_stmt 0 discriminator 3 view .LVU491
 1897 0048 27EE800A 		vmul.f32	s0, s15, s0
 1898              	.LVL183:
 250:Src/utils.c   **** 	}
 1899              		.loc 1 250 9 discriminator 3 view .LVU492
 1900 004c 39EE009A 		vadd.f32	s18, s18, s0
 1901              	.LVL184:
 250:Src/utils.c   **** 	}
 1902              		.loc 1 250 9 discriminator 3 view .LVU493
 1903              	.LBE8:
 244:Src/utils.c   **** 	{
 1904              		.loc 1 244 35 discriminator 3 view .LVU494
 1905 0050 0135     		adds	r5, r5, #1
 1906              	.LVL185:
 244:Src/utils.c   **** 	{
 1907              		.loc 1 244 35 discriminator 3 view .LVU495
 1908 0052 E1E7     		b	.L217
 1909              	.L220:
 244:Src/utils.c   **** 	{
 1910              		.loc 1 244 35 discriminator 3 view .LVU496
 1911              	.LBE9:
 253:Src/utils.c   **** }
 1912              		.loc 1 253 2 is_stmt 1 view .LVU497
 253:Src/utils.c   **** }
 1913              		.loc 1 253 9 is_stmt 0 view .LVU498
 1914 0054 F0EE490A 		vmov.f32	s1, s18
 1915 0058 B0EE690A 		vmov.f32	s0, s19
 1916 005c FFF7FEFF 		bl	utils_fast_atan2
 1917              	.LVL186:
 254:Src/utils.c   **** 
 1918              		.loc 1 254 1 view .LVU499
 1919 0060 BDEC048B 		vldm	sp!, {d8-d9}
 1920              	.LCFI16:
 1921              		.cfi_restore 82
 1922              		.cfi_restore 83
 1923              		.cfi_restore 80
 1924              		.cfi_restore 81
 1925              		.cfi_def_cfa_offset 24
 1926              	.LVL187:
 254:Src/utils.c   **** 
 1927              		.loc 1 254 1 view .LVU500
 1928 0064 BDE8F081 		pop	{r4, r5, r6, r7, r8, pc}
 1929              	.LVL188:
 1930              	.L222:
 254:Src/utils.c   **** 
 1931              		.loc 1 254 1 view .LVU501
 1932              		.align	2
 1933              	.L221:
 1934 0068 00000000 		.word	0
 1935              		.cfi_endproc
 1936              	.LFE17:
 1938              		.section	.text.utils_avg_angle_rad_fast,"ax",%progbits
 1939              		.align	1
 1940              		.global	utils_avg_angle_rad_fast
 1941              		.syntax unified
 1942              		.thumb
ARM GAS  D:\apps\VSCode\data\tmp\ccbZzZbG.s 			page 58


 1943              		.thumb_func
 1944              		.fpu fpv4-sp-d16
 1946              	utils_avg_angle_rad_fast:
 1947              	.LVL189:
 1948              	.LFB18:
 258:Src/utils.c   **** 		float s1, c1, s2, c2;
 1949              		.loc 1 258 1 is_stmt 1 view -0
 1950              		.cfi_startproc
 1951              		@ args = 0, pretend = 0, frame = 0
 1952              		@ frame_needed = 0, uses_anonymous_args = 0
 258:Src/utils.c   **** 		float s1, c1, s2, c2;
 1953              		.loc 1 258 1 is_stmt 0 view .LVU503
 1954 0000 08B5     		push	{r3, lr}
 1955              	.LCFI17:
 1956              		.cfi_def_cfa_offset 8
 1957              		.cfi_offset 3, -8
 1958              		.cfi_offset 14, -4
 1959 0002 2DED048B 		vpush.64	{d8, d9}
 1960              	.LCFI18:
 1961              		.cfi_def_cfa_offset 24
 1962              		.cfi_offset 80, -24
 1963              		.cfi_offset 81, -20
 1964              		.cfi_offset 82, -16
 1965              		.cfi_offset 83, -12
 1966 0006 F0EE408A 		vmov.f32	s17, s0
 1967 000a B0EE608A 		vmov.f32	s16, s1
 259:Src/utils.c   **** 		s1 = utSin(angle1);
 1968              		.loc 1 259 3 is_stmt 1 view .LVU504
 260:Src/utils.c   **** 		c1 = utCos(angle1);
 1969              		.loc 1 260 3 view .LVU505
 260:Src/utils.c   **** 		c1 = utCos(angle1);
 1970              		.loc 1 260 8 is_stmt 0 view .LVU506
 1971 000e FFF7FEFF 		bl	utSin
 1972              	.LVL190:
 260:Src/utils.c   **** 		c1 = utCos(angle1);
 1973              		.loc 1 260 8 view .LVU507
 1974 0012 B0EE409A 		vmov.f32	s18, s0
 1975              	.LVL191:
 261:Src/utils.c   **** 		s2 = utSin(angle2);
 1976              		.loc 1 261 3 is_stmt 1 view .LVU508
 261:Src/utils.c   **** 		s2 = utSin(angle2);
 1977              		.loc 1 261 8 is_stmt 0 view .LVU509
 1978 0016 B0EE680A 		vmov.f32	s0, s17
 1979              	.LVL192:
 261:Src/utils.c   **** 		s2 = utSin(angle2);
 1980              		.loc 1 261 8 view .LVU510
 1981 001a FFF7FEFF 		bl	utCos
 1982              	.LVL193:
 1983 001e F0EE409A 		vmov.f32	s19, s0
 1984              	.LVL194:
 262:Src/utils.c   **** 		c2 = utCos(angle2);
 1985              		.loc 1 262 3 is_stmt 1 view .LVU511
 262:Src/utils.c   **** 		c2 = utCos(angle2);
 1986              		.loc 1 262 8 is_stmt 0 view .LVU512
 1987 0022 B0EE480A 		vmov.f32	s0, s16
 1988              	.LVL195:
 262:Src/utils.c   **** 		c2 = utCos(angle2);
ARM GAS  D:\apps\VSCode\data\tmp\ccbZzZbG.s 			page 59


 1989              		.loc 1 262 8 view .LVU513
 1990 0026 FFF7FEFF 		bl	utSin
 1991              	.LVL196:
 1992 002a F0EE408A 		vmov.f32	s17, s0
 1993              	.LVL197:
 263:Src/utils.c   **** 
 1994              		.loc 1 263 3 is_stmt 1 view .LVU514
 263:Src/utils.c   **** 
 1995              		.loc 1 263 8 is_stmt 0 view .LVU515
 1996 002e B0EE480A 		vmov.f32	s0, s16
 1997              	.LVL198:
 263:Src/utils.c   **** 
 1998              		.loc 1 263 8 view .LVU516
 1999 0032 FFF7FEFF 		bl	utCos
 2000              	.LVL199:
 265:Src/utils.c   **** }
 2001              		.loc 1 265 2 is_stmt 1 view .LVU517
 265:Src/utils.c   **** }
 2002              		.loc 1 265 9 is_stmt 0 view .LVU518
 2003 0036 79EE800A 		vadd.f32	s1, s19, s0
 2004 003a 39EE280A 		vadd.f32	s0, s18, s17
 2005              	.LVL200:
 265:Src/utils.c   **** }
 2006              		.loc 1 265 9 view .LVU519
 2007 003e FFF7FEFF 		bl	utils_fast_atan2
 2008              	.LVL201:
 266:Src/utils.c   **** 
 2009              		.loc 1 266 1 view .LVU520
 2010 0042 BDEC048B 		vldm	sp!, {d8-d9}
 2011              	.LCFI19:
 2012              		.cfi_restore 82
 2013              		.cfi_restore 83
 2014              		.cfi_restore 80
 2015              		.cfi_restore 81
 2016              		.cfi_def_cfa_offset 8
 2017              	.LVL202:
 266:Src/utils.c   **** 
 2018              		.loc 1 266 1 view .LVU521
 2019 0046 08BD     		pop	{r3, pc}
 2020              		.cfi_endproc
 2021              	.LFE18:
 2023              		.section	.text.utils_min_abs,"ax",%progbits
 2024              		.align	1
 2025              		.global	utils_min_abs
 2026              		.syntax unified
 2027              		.thumb
 2028              		.thumb_func
 2029              		.fpu fpv4-sp-d16
 2031              	utils_min_abs:
 2032              	.LVL203:
 2033              	.LFB27:
 613:Src/utils.c   **** 	float res;
 2034              		.loc 1 613 1 is_stmt 1 view -0
 2035              		.cfi_startproc
 2036              		@ args = 0, pretend = 0, frame = 0
 2037              		@ frame_needed = 0, uses_anonymous_args = 0
 2038              		@ link register save eliminated.
ARM GAS  D:\apps\VSCode\data\tmp\ccbZzZbG.s 			page 60


 614:Src/utils.c   **** 	if (fabsf(va) < fabsf(vb))
 2039              		.loc 1 614 2 view .LVU523
 615:Src/utils.c   **** 	{
 2040              		.loc 1 615 2 view .LVU524
 615:Src/utils.c   **** 	{
 2041              		.loc 1 615 6 is_stmt 0 view .LVU525
 2042 0000 B0EEC07A 		vabs.f32	s14, s0
 615:Src/utils.c   **** 	{
 2043              		.loc 1 615 18 view .LVU526
 2044 0004 F0EEE07A 		vabs.f32	s15, s1
 615:Src/utils.c   **** 	{
 2045              		.loc 1 615 5 view .LVU527
 2046 0008 B4EEE77A 		vcmpe.f32	s14, s15
 2047 000c F1EE10FA 		vmrs	APSR_nzcv, FPSCR
 2048 0010 01D5     		bpl	.L226
 617:Src/utils.c   **** 	}
 2049              		.loc 1 617 7 view .LVU528
 2050 0012 F0EE400A 		vmov.f32	s1, s0
 2051              	.LVL204:
 2052              	.L226:
 624:Src/utils.c   **** }
 2053              		.loc 1 624 2 is_stmt 1 view .LVU529
 625:Src/utils.c   **** 
 2054              		.loc 1 625 1 is_stmt 0 view .LVU530
 2055 0016 B0EE600A 		vmov.f32	s0, s1
 2056              	.LVL205:
 625:Src/utils.c   **** 
 2057              		.loc 1 625 1 view .LVU531
 2058 001a 7047     		bx	lr
 2059              		.cfi_endproc
 2060              	.LFE27:
 2062              		.section	.text.utils_max_abs,"ax",%progbits
 2063              		.align	1
 2064              		.global	utils_max_abs
 2065              		.syntax unified
 2066              		.thumb
 2067              		.thumb_func
 2068              		.fpu fpv4-sp-d16
 2070              	utils_max_abs:
 2071              	.LVL206:
 2072              	.LFB28:
 640:Src/utils.c   **** 	float res;
 2073              		.loc 1 640 1 is_stmt 1 view -0
 2074              		.cfi_startproc
 2075              		@ args = 0, pretend = 0, frame = 0
 2076              		@ frame_needed = 0, uses_anonymous_args = 0
 2077              		@ link register save eliminated.
 641:Src/utils.c   **** 	if (fabsf(va) > fabsf(vb))
 2078              		.loc 1 641 2 view .LVU533
 642:Src/utils.c   **** 	{
 2079              		.loc 1 642 2 view .LVU534
 642:Src/utils.c   **** 	{
 2080              		.loc 1 642 6 is_stmt 0 view .LVU535
 2081 0000 B0EEC07A 		vabs.f32	s14, s0
 642:Src/utils.c   **** 	{
 2082              		.loc 1 642 18 view .LVU536
 2083 0004 F0EEE07A 		vabs.f32	s15, s1
ARM GAS  D:\apps\VSCode\data\tmp\ccbZzZbG.s 			page 61


 642:Src/utils.c   **** 	{
 2084              		.loc 1 642 5 view .LVU537
 2085 0008 B4EEE77A 		vcmpe.f32	s14, s15
 2086 000c F1EE10FA 		vmrs	APSR_nzcv, FPSCR
 2087 0010 01DD     		ble	.L230
 644:Src/utils.c   **** 	}
 2088              		.loc 1 644 7 view .LVU538
 2089 0012 F0EE400A 		vmov.f32	s1, s0
 2090              	.LVL207:
 2091              	.L230:
 651:Src/utils.c   **** }
 2092              		.loc 1 651 2 is_stmt 1 view .LVU539
 652:Src/utils.c   **** 
 2093              		.loc 1 652 1 is_stmt 0 view .LVU540
 2094 0016 B0EE600A 		vmov.f32	s0, s1
 2095              	.LVL208:
 652:Src/utils.c   **** 
 2096              		.loc 1 652 1 view .LVU541
 2097 001a 7047     		bx	lr
 2098              		.cfi_endproc
 2099              	.LFE28:
 2101              		.section	.text.utils_byte_to_binary,"ax",%progbits
 2102              		.align	1
 2103              		.global	utils_byte_to_binary
 2104              		.syntax unified
 2105              		.thumb
 2106              		.thumb_func
 2107              		.fpu fpv4-sp-d16
 2109              	utils_byte_to_binary:
 2110              	.LVL209:
 2111              	.LFB29:
 664:Src/utils.c   **** 	b[0] = '\0';
 2112              		.loc 1 664 1 is_stmt 1 view -0
 2113              		.cfi_startproc
 2114              		@ args = 0, pretend = 0, frame = 0
 2115              		@ frame_needed = 0, uses_anonymous_args = 0
 664:Src/utils.c   **** 	b[0] = '\0';
 2116              		.loc 1 664 1 is_stmt 0 view .LVU543
 2117 0000 F8B5     		push	{r3, r4, r5, r6, r7, lr}
 2118              	.LCFI20:
 2119              		.cfi_def_cfa_offset 24
 2120              		.cfi_offset 3, -24
 2121              		.cfi_offset 4, -20
 2122              		.cfi_offset 5, -16
 2123              		.cfi_offset 6, -12
 2124              		.cfi_offset 7, -8
 2125              		.cfi_offset 14, -4
 2126 0002 0746     		mov	r7, r0
 2127 0004 0D46     		mov	r5, r1
 665:Src/utils.c   **** 
 2128              		.loc 1 665 2 is_stmt 1 view .LVU544
 665:Src/utils.c   **** 
 2129              		.loc 1 665 7 is_stmt 0 view .LVU545
 2130 0006 0023     		movs	r3, #0
 2131 0008 0B70     		strb	r3, [r1]
 667:Src/utils.c   **** 	for (z = 128; z > 0; z >>= 1)
 2132              		.loc 1 667 2 is_stmt 1 view .LVU546
ARM GAS  D:\apps\VSCode\data\tmp\ccbZzZbG.s 			page 62


 668:Src/utils.c   **** 	{
 2133              		.loc 1 668 2 view .LVU547
 2134              	.LVL210:
 668:Src/utils.c   **** 	{
 2135              		.loc 1 668 9 is_stmt 0 view .LVU548
 2136 000a 8024     		movs	r4, #128
 668:Src/utils.c   **** 	{
 2137              		.loc 1 668 2 view .LVU549
 2138 000c 06E0     		b	.L234
 2139              	.LVL211:
 2140              	.L240:
 670:Src/utils.c   **** 	}
 2141              		.loc 1 670 3 view .LVU550
 2142 000e 074E     		ldr	r6, .L241
 2143              	.L235:
 670:Src/utils.c   **** 	}
 2144              		.loc 1 670 3 discriminator 4 view .LVU551
 2145 0010 2846     		mov	r0, r5
 2146 0012 FFF7FEFF 		bl	strlen
 2147              	.LVL212:
 2148 0016 3388     		ldrh	r3, [r6]
 2149 0018 2B52     		strh	r3, [r5, r0]	@ unaligned
 668:Src/utils.c   **** 	{
 2150              		.loc 1 668 25 discriminator 4 view .LVU552
 2151 001a 6410     		asrs	r4, r4, #1
 2152              	.LVL213:
 2153              	.L234:
 668:Src/utils.c   **** 	{
 2154              		.loc 1 668 2 discriminator 2 view .LVU553
 2155 001c 002C     		cmp	r4, #0
 2156 001e 04DD     		ble	.L239
 670:Src/utils.c   **** 	}
 2157              		.loc 1 670 3 is_stmt 1 view .LVU554
 2158 0020 34EA0703 		bics	r3, r4, r7
 2159 0024 F3D0     		beq	.L240
 2160 0026 024E     		ldr	r6, .L241+4
 2161 0028 F2E7     		b	.L235
 2162              	.L239:
 672:Src/utils.c   **** 
 2163              		.loc 1 672 1 is_stmt 0 view .LVU555
 2164 002a F8BD     		pop	{r3, r4, r5, r6, r7, pc}
 2165              	.LVL214:
 2166              	.L242:
 672:Src/utils.c   **** 
 2167              		.loc 1 672 1 view .LVU556
 2168              		.align	2
 2169              	.L241:
 2170 002c 04000000 		.word	.LC1
 2171 0030 00000000 		.word	.LC0
 2172              		.cfi_endproc
 2173              	.LFE29:
 2175              		.global	__aeabi_ddiv
 2176              		.section	.text.utils_throttle_curve,"ax",%progbits
 2177              		.align	1
 2178              		.global	utils_throttle_curve
 2179              		.syntax unified
 2180              		.thumb
ARM GAS  D:\apps\VSCode\data\tmp\ccbZzZbG.s 			page 63


 2181              		.thumb_func
 2182              		.fpu fpv4-sp-d16
 2184              	utils_throttle_curve:
 2185              	.LVL215:
 2186              	.LFB30:
 675:Src/utils.c   **** 	float ret = 0.0;
 2187              		.loc 1 675 1 is_stmt 1 view -0
 2188              		.cfi_startproc
 2189              		@ args = 0, pretend = 0, frame = 0
 2190              		@ frame_needed = 0, uses_anonymous_args = 0
 675:Src/utils.c   **** 	float ret = 0.0;
 2191              		.loc 1 675 1 is_stmt 0 view .LVU558
 2192 0000 F8B5     		push	{r3, r4, r5, r6, r7, lr}
 2193              	.LCFI21:
 2194              		.cfi_def_cfa_offset 24
 2195              		.cfi_offset 3, -24
 2196              		.cfi_offset 4, -20
 2197              		.cfi_offset 5, -16
 2198              		.cfi_offset 6, -12
 2199              		.cfi_offset 7, -8
 2200              		.cfi_offset 14, -4
 2201 0002 2DED048B 		vpush.64	{d8, d9}
 2202              	.LCFI22:
 2203              		.cfi_def_cfa_offset 40
 2204              		.cfi_offset 80, -40
 2205              		.cfi_offset 81, -36
 2206              		.cfi_offset 82, -32
 2207              		.cfi_offset 83, -28
 2208 0006 B0EE408A 		vmov.f32	s16, s0
 2209 000a B0EE419A 		vmov.f32	s18, s2
 676:Src/utils.c   **** 
 2210              		.loc 1 676 2 is_stmt 1 view .LVU559
 2211              	.LVL216:
 678:Src/utils.c   **** 	{
 2212              		.loc 1 678 2 view .LVU560
 678:Src/utils.c   **** 	{
 2213              		.loc 1 678 5 is_stmt 0 view .LVU561
 2214 000e FFEE007A 		vmov.f32	s15, #-1.0e+0
 2215 0012 B4EEE70A 		vcmpe.f32	s0, s15
 2216 0016 F1EE10FA 		vmrs	APSR_nzcv, FPSCR
 2217 001a 2CD4     		bmi	.L270
 2218              	.L244:
 2219              	.LVL217:
 683:Src/utils.c   **** 	{
 2220              		.loc 1 683 2 is_stmt 1 view .LVU562
 683:Src/utils.c   **** 	{
 2221              		.loc 1 683 5 is_stmt 0 view .LVU563
 2222 001c F7EE007A 		vmov.f32	s15, #1.0e+0
 2223 0020 B4EEE78A 		vcmpe.f32	s16, s15
 2224 0024 F1EE10FA 		vmrs	APSR_nzcv, FPSCR
 2225 0028 01DD     		ble	.L245
 685:Src/utils.c   **** 	}
 2226              		.loc 1 685 7 view .LVU564
 2227 002a B0EE678A 		vmov.f32	s16, s15
 2228              	.LVL218:
 2229              	.L245:
 688:Src/utils.c   **** 
ARM GAS  D:\apps\VSCode\data\tmp\ccbZzZbG.s 			page 64


 2230              		.loc 1 688 2 is_stmt 1 view .LVU565
 688:Src/utils.c   **** 
 2231              		.loc 1 688 8 is_stmt 0 view .LVU566
 2232 002e F0EEC88A 		vabs.f32	s17, s16
 2233              	.LVL219:
 690:Src/utils.c   **** 	if (val >= 0.0)
 2234              		.loc 1 690 2 is_stmt 1 view .LVU567
 691:Src/utils.c   **** 	{
 2235              		.loc 1 691 2 view .LVU568
 691:Src/utils.c   **** 	{
 2236              		.loc 1 691 5 is_stmt 0 view .LVU569
 2237 0032 B5EEC08A 		vcmpe.f32	s16, #0
 2238 0036 F1EE10FA 		vmrs	APSR_nzcv, FPSCR
 2239 003a 01DB     		blt	.L246
 693:Src/utils.c   **** 	}
 2240              		.loc 1 693 9 view .LVU570
 2241 003c B0EE609A 		vmov.f32	s18, s1
 2242              	.L246:
 2243              	.LVL220:
 702:Src/utils.c   **** 	{ // Exponential
 2244              		.loc 1 702 2 is_stmt 1 view .LVU571
 702:Src/utils.c   **** 	{ // Exponential
 2245              		.loc 1 702 5 is_stmt 0 view .LVU572
 2246 0040 38BB     		cbnz	r0, .L248
 704:Src/utils.c   **** 		{
 2247              		.loc 1 704 3 is_stmt 1 view .LVU573
 704:Src/utils.c   **** 		{
 2248              		.loc 1 704 6 is_stmt 0 view .LVU574
 2249 0042 B5EEC09A 		vcmpe.f32	s18, #0
 2250 0046 F1EE10FA 		vmrs	APSR_nzcv, FPSCR
 2251 004a 17DB     		blt	.L266
 706:Src/utils.c   **** 		}
 2252              		.loc 1 706 4 is_stmt 1 view .LVU575
 706:Src/utils.c   **** 		}
 2253              		.loc 1 706 16 is_stmt 0 view .LVU576
 2254 004c F7EE009A 		vmov.f32	s19, #1.0e+0
 2255 0050 79EE290A 		vadd.f32	s1, s18, s19
 2256              	.LVL221:
 706:Src/utils.c   **** 		}
 2257              		.loc 1 706 16 view .LVU577
 2258 0054 39EEE80A 		vsub.f32	s0, s19, s17
 2259 0058 FFF7FEFF 		bl	powf
 2260              	.LVL222:
 706:Src/utils.c   **** 		}
 2261              		.loc 1 706 8 view .LVU578
 2262 005c 79EEC08A 		vsub.f32	s17, s19, s0
 2263              	.LVL223:
 2264              	.L251:
 747:Src/utils.c   **** 	{
 2265              		.loc 1 747 2 is_stmt 1 view .LVU579
 747:Src/utils.c   **** 	{
 2266              		.loc 1 747 5 is_stmt 0 view .LVU580
 2267 0060 B5EEC08A 		vcmpe.f32	s16, #0
 2268 0064 F1EE10FA 		vmrs	APSR_nzcv, FPSCR
 2269 0068 00F1E580 		bmi	.L271
 2270              	.L243:
 753:Src/utils.c   **** 
ARM GAS  D:\apps\VSCode\data\tmp\ccbZzZbG.s 			page 65


 2271              		.loc 1 753 1 view .LVU581
 2272 006c B0EE680A 		vmov.f32	s0, s17
 2273 0070 BDEC048B 		vldm	sp!, {d8-d9}
 2274              	.LCFI23:
 2275              		.cfi_remember_state
 2276              		.cfi_restore 82
 2277              		.cfi_restore 83
 2278              		.cfi_restore 80
 2279              		.cfi_restore 81
 2280              		.cfi_def_cfa_offset 24
 2281              	.LVL224:
 753:Src/utils.c   **** 
 2282              		.loc 1 753 1 view .LVU582
 2283 0074 F8BD     		pop	{r3, r4, r5, r6, r7, pc}
 2284              	.LVL225:
 2285              	.L270:
 2286              	.LCFI24:
 2287              		.cfi_restore_state
 680:Src/utils.c   **** 	}
 2288              		.loc 1 680 7 view .LVU583
 2289 0076 B0EE678A 		vmov.f32	s16, s15
 2290 007a CFE7     		b	.L244
 2291              	.LVL226:
 2292              	.L266:
 710:Src/utils.c   **** 		}
 2293              		.loc 1 710 4 is_stmt 1 view .LVU584
 710:Src/utils.c   **** 		}
 2294              		.loc 1 710 10 is_stmt 0 view .LVU585
 2295 007c F7EE000A 		vmov.f32	s1, #1.0e+0
 2296              	.LVL227:
 710:Src/utils.c   **** 		}
 2297              		.loc 1 710 10 view .LVU586
 2298 0080 70EEC90A 		vsub.f32	s1, s1, s18
 2299 0084 B0EE680A 		vmov.f32	s0, s17
 2300 0088 FFF7FEFF 		bl	powf
 2301              	.LVL228:
 710:Src/utils.c   **** 		}
 2302              		.loc 1 710 10 view .LVU587
 2303 008c F0EE408A 		vmov.f32	s17, s0
 2304              	.LVL229:
 710:Src/utils.c   **** 		}
 2305              		.loc 1 710 10 view .LVU588
 2306 0090 E6E7     		b	.L251
 2307              	.LVL230:
 2308              	.L248:
 713:Src/utils.c   **** 	{ // Natural
 2309              		.loc 1 713 7 is_stmt 1 view .LVU589
 713:Src/utils.c   **** 	{ // Natural
 2310              		.loc 1 713 10 is_stmt 0 view .LVU590
 2311 0092 0128     		cmp	r0, #1
 2312 0094 2ED0     		beq	.L272
 731:Src/utils.c   **** 	{ // Polynomial
 2313              		.loc 1 731 7 is_stmt 1 view .LVU591
 731:Src/utils.c   **** 	{ // Polynomial
 2314              		.loc 1 731 10 is_stmt 0 view .LVU592
 2315 0096 0228     		cmp	r0, #2
 2316 0098 E2D1     		bne	.L251
ARM GAS  D:\apps\VSCode\data\tmp\ccbZzZbG.s 			page 66


 733:Src/utils.c   **** 		{
 2317              		.loc 1 733 3 is_stmt 1 view .LVU593
 733:Src/utils.c   **** 		{
 2318              		.loc 1 733 6 is_stmt 0 view .LVU594
 2319 009a B5EEC09A 		vcmpe.f32	s18, #0
 2320 009e F1EE10FA 		vmrs	APSR_nzcv, FPSCR
 2321 00a2 C0F2A180 		blt	.L268
 735:Src/utils.c   **** 		}
 2322              		.loc 1 735 4 is_stmt 1 view .LVU595
 735:Src/utils.c   **** 		}
 2323              		.loc 1 735 22 is_stmt 0 view .LVU596
 2324 00a6 18EE900A 		vmov	r0, s17
 2325              	.LVL231:
 735:Src/utils.c   **** 		}
 2326              		.loc 1 735 22 view .LVU597
 2327 00aa FFF7FEFF 		bl	__aeabi_f2d
 2328              	.LVL232:
 735:Src/utils.c   **** 		}
 2329              		.loc 1 735 22 view .LVU598
 2330 00ae 0246     		mov	r2, r0
 2331 00b0 0B46     		mov	r3, r1
 2332 00b2 0020     		movs	r0, #0
 2333 00b4 6449     		ldr	r1, .L273+8
 2334 00b6 FFF7FEFF 		bl	__aeabi_dsub
 2335              	.LVL233:
 2336 00ba 0446     		mov	r4, r0
 2337 00bc 0D46     		mov	r5, r1
 735:Src/utils.c   **** 		}
 2338              		.loc 1 735 46 view .LVU599
 2339 00be 69EE287A 		vmul.f32	s15, s18, s17
 2340 00c2 17EE900A 		vmov	r0, s15
 2341 00c6 FFF7FEFF 		bl	__aeabi_f2d
 2342              	.LVL234:
 735:Src/utils.c   **** 		}
 2343              		.loc 1 735 38 view .LVU600
 2344 00ca 0022     		movs	r2, #0
 2345 00cc 5E4B     		ldr	r3, .L273+8
 2346 00ce FFF7FEFF 		bl	__aeabi_dadd
 2347              	.LVL235:
 735:Src/utils.c   **** 		}
 2348              		.loc 1 735 31 view .LVU601
 2349 00d2 0246     		mov	r2, r0
 2350 00d4 0B46     		mov	r3, r1
 2351 00d6 2046     		mov	r0, r4
 2352 00d8 2946     		mov	r1, r5
 2353 00da FFF7FEFF 		bl	__aeabi_ddiv
 2354              	.LVL236:
 735:Src/utils.c   **** 		}
 2355              		.loc 1 735 14 view .LVU602
 2356 00de 0246     		mov	r2, r0
 2357 00e0 0B46     		mov	r3, r1
 2358 00e2 0020     		movs	r0, #0
 2359 00e4 5849     		ldr	r1, .L273+8
 2360 00e6 FFF7FEFF 		bl	__aeabi_dsub
 2361              	.LVL237:
 735:Src/utils.c   **** 		}
 2362              		.loc 1 735 8 view .LVU603
ARM GAS  D:\apps\VSCode\data\tmp\ccbZzZbG.s 			page 67


 2363 00ea FFF7FEFF 		bl	__aeabi_d2f
 2364              	.LVL238:
 2365 00ee 08EE900A 		vmov	s17, r0
 2366              	.LVL239:
 735:Src/utils.c   **** 		}
 2367              		.loc 1 735 8 view .LVU604
 2368 00f2 B5E7     		b	.L251
 2369              	.LVL240:
 2370              	.L272:
 715:Src/utils.c   **** 		{
 2371              		.loc 1 715 3 is_stmt 1 view .LVU605
 715:Src/utils.c   **** 		{
 2372              		.loc 1 715 7 is_stmt 0 view .LVU606
 2373 00f4 F0EEC97A 		vabs.f32	s15, s18
 2374 00f8 17EE900A 		vmov	r0, s15
 2375              	.LVL241:
 715:Src/utils.c   **** 		{
 2376              		.loc 1 715 7 view .LVU607
 2377 00fc FFF7FEFF 		bl	__aeabi_f2d
 2378              	.LVL242:
 715:Src/utils.c   **** 		{
 2379              		.loc 1 715 6 view .LVU608
 2380 0100 4FA3     		adr	r3, .L273
 2381 0102 D3E90023 		ldrd	r2, [r3]
 2382 0106 FFF7FEFF 		bl	__aeabi_dcmplt
 2383              	.LVL243:
 2384 010a 0028     		cmp	r0, #0
 2385 010c A8D1     		bne	.L251
 721:Src/utils.c   **** 			{
 2386              		.loc 1 721 4 is_stmt 1 view .LVU609
 721:Src/utils.c   **** 			{
 2387              		.loc 1 721 7 is_stmt 0 view .LVU610
 2388 010e B5EEC09A 		vcmpe.f32	s18, #0
 2389 0112 F1EE10FA 		vmrs	APSR_nzcv, FPSCR
 2390 0116 40DB     		blt	.L267
 723:Src/utils.c   **** 			}
 2391              		.loc 1 723 5 is_stmt 1 view .LVU611
 723:Src/utils.c   **** 			}
 2392              		.loc 1 723 37 is_stmt 0 view .LVU612
 2393 0118 18EE900A 		vmov	r0, s17
 2394 011c FFF7FEFF 		bl	__aeabi_f2d
 2395              	.LVL244:
 2396 0120 0246     		mov	r2, r0
 2397 0122 0B46     		mov	r3, r1
 2398 0124 0020     		movs	r0, #0
 2399 0126 4849     		ldr	r1, .L273+8
 2400 0128 FFF7FEFF 		bl	__aeabi_dsub
 2401              	.LVL245:
 2402 012c 0446     		mov	r4, r0
 2403 012e 0D46     		mov	r5, r1
 723:Src/utils.c   **** 			}
 2404              		.loc 1 723 30 view .LVU613
 2405 0130 19EE100A 		vmov	r0, s18
 2406 0134 FFF7FEFF 		bl	__aeabi_f2d
 2407              	.LVL246:
 2408 0138 2246     		mov	r2, r4
 2409 013a 2B46     		mov	r3, r5
ARM GAS  D:\apps\VSCode\data\tmp\ccbZzZbG.s 			page 68


 2410 013c FFF7FEFF 		bl	__aeabi_dmul
 2411              	.LVL247:
 723:Src/utils.c   **** 			}
 2412              		.loc 1 723 19 view .LVU614
 2413 0140 FFF7FEFF 		bl	__aeabi_d2f
 2414              	.LVL248:
 2415 0144 00EE100A 		vmov	s0, r0
 2416 0148 FFF7FEFF 		bl	expf
 2417              	.LVL249:
 2418 014c 10EE100A 		vmov	r0, s0
 2419 0150 FFF7FEFF 		bl	__aeabi_f2d
 2420              	.LVL250:
 723:Src/utils.c   **** 			}
 2421              		.loc 1 723 47 view .LVU615
 2422 0154 0022     		movs	r2, #0
 2423 0156 3C4B     		ldr	r3, .L273+8
 2424 0158 FFF7FEFF 		bl	__aeabi_dsub
 2425              	.LVL251:
 2426 015c 0446     		mov	r4, r0
 2427 015e 0D46     		mov	r5, r1
 723:Src/utils.c   **** 			}
 2428              		.loc 1 723 57 view .LVU616
 2429 0160 B0EE490A 		vmov.f32	s0, s18
 2430 0164 FFF7FEFF 		bl	expf
 2431              	.LVL252:
 2432 0168 10EE100A 		vmov	r0, s0
 2433 016c FFF7FEFF 		bl	__aeabi_f2d
 2434              	.LVL253:
 723:Src/utils.c   **** 			}
 2435              		.loc 1 723 69 view .LVU617
 2436 0170 0022     		movs	r2, #0
 2437 0172 354B     		ldr	r3, .L273+8
 2438 0174 FFF7FEFF 		bl	__aeabi_dsub
 2439              	.LVL254:
 723:Src/utils.c   **** 			}
 2440              		.loc 1 723 54 view .LVU618
 2441 0178 0246     		mov	r2, r0
 2442 017a 0B46     		mov	r3, r1
 2443 017c 2046     		mov	r0, r4
 2444 017e 2946     		mov	r1, r5
 2445 0180 FFF7FEFF 		bl	__aeabi_ddiv
 2446              	.LVL255:
 723:Src/utils.c   **** 			}
 2447              		.loc 1 723 15 view .LVU619
 2448 0184 0246     		mov	r2, r0
 2449 0186 0B46     		mov	r3, r1
 2450 0188 0020     		movs	r0, #0
 2451 018a 2F49     		ldr	r1, .L273+8
 2452 018c FFF7FEFF 		bl	__aeabi_dsub
 2453              	.LVL256:
 723:Src/utils.c   **** 			}
 2454              		.loc 1 723 9 view .LVU620
 2455 0190 FFF7FEFF 		bl	__aeabi_d2f
 2456              	.LVL257:
 2457 0194 08EE900A 		vmov	s17, r0
 2458              	.LVL258:
 723:Src/utils.c   **** 			}
ARM GAS  D:\apps\VSCode\data\tmp\ccbZzZbG.s 			page 69


 2459              		.loc 1 723 9 view .LVU621
 2460 0198 62E7     		b	.L251
 2461              	.LVL259:
 2462              	.L267:
 727:Src/utils.c   **** 			}
 2463              		.loc 1 727 5 is_stmt 1 view .LVU622
 727:Src/utils.c   **** 			}
 2464              		.loc 1 727 17 is_stmt 0 view .LVU623
 2465 019a B1EE499A 		vneg.f32	s18, s18
 2466              	.LVL260:
 727:Src/utils.c   **** 			}
 2467              		.loc 1 727 12 view .LVU624
 2468 019e 29EE280A 		vmul.f32	s0, s18, s17
 2469 01a2 FFF7FEFF 		bl	expf
 2470              	.LVL261:
 2471 01a6 10EE100A 		vmov	r0, s0
 2472 01aa FFF7FEFF 		bl	__aeabi_f2d
 2473              	.LVL262:
 727:Src/utils.c   **** 			}
 2474              		.loc 1 727 33 view .LVU625
 2475 01ae 0022     		movs	r2, #0
 2476 01b0 254B     		ldr	r3, .L273+8
 2477 01b2 FFF7FEFF 		bl	__aeabi_dsub
 2478              	.LVL263:
 2479 01b6 0446     		mov	r4, r0
 2480 01b8 0D46     		mov	r5, r1
 727:Src/utils.c   **** 			}
 2481              		.loc 1 727 43 view .LVU626
 2482 01ba B0EE490A 		vmov.f32	s0, s18
 2483 01be FFF7FEFF 		bl	expf
 2484              	.LVL264:
 2485 01c2 10EE100A 		vmov	r0, s0
 2486 01c6 FFF7FEFF 		bl	__aeabi_f2d
 2487              	.LVL265:
 727:Src/utils.c   **** 			}
 2488              		.loc 1 727 56 view .LVU627
 2489 01ca 0022     		movs	r2, #0
 2490 01cc 1E4B     		ldr	r3, .L273+8
 2491 01ce FFF7FEFF 		bl	__aeabi_dsub
 2492              	.LVL266:
 727:Src/utils.c   **** 			}
 2493              		.loc 1 727 40 view .LVU628
 2494 01d2 0246     		mov	r2, r0
 2495 01d4 0B46     		mov	r3, r1
 2496 01d6 2046     		mov	r0, r4
 2497 01d8 2946     		mov	r1, r5
 2498 01da FFF7FEFF 		bl	__aeabi_ddiv
 2499              	.LVL267:
 727:Src/utils.c   **** 			}
 2500              		.loc 1 727 9 view .LVU629
 2501 01de FFF7FEFF 		bl	__aeabi_d2f
 2502              	.LVL268:
 2503 01e2 08EE900A 		vmov	s17, r0
 2504              	.LVL269:
 727:Src/utils.c   **** 			}
 2505              		.loc 1 727 9 view .LVU630
 2506 01e6 3BE7     		b	.L251
ARM GAS  D:\apps\VSCode\data\tmp\ccbZzZbG.s 			page 70


 2507              	.LVL270:
 2508              	.L268:
 739:Src/utils.c   **** 		}
 2509              		.loc 1 739 4 is_stmt 1 view .LVU631
 739:Src/utils.c   **** 		}
 2510              		.loc 1 739 16 is_stmt 0 view .LVU632
 2511 01e8 18EE900A 		vmov	r0, s17
 2512              	.LVL271:
 739:Src/utils.c   **** 		}
 2513              		.loc 1 739 16 view .LVU633
 2514 01ec FFF7FEFF 		bl	__aeabi_f2d
 2515              	.LVL272:
 739:Src/utils.c   **** 		}
 2516              		.loc 1 739 16 view .LVU634
 2517 01f0 0446     		mov	r4, r0
 2518 01f2 0D46     		mov	r5, r1
 739:Src/utils.c   **** 		}
 2519              		.loc 1 739 38 view .LVU635
 2520 01f4 0246     		mov	r2, r0
 2521 01f6 0B46     		mov	r3, r1
 2522 01f8 0020     		movs	r0, #0
 2523 01fa 1349     		ldr	r1, .L273+8
 2524 01fc FFF7FEFF 		bl	__aeabi_dsub
 2525              	.LVL273:
 2526 0200 0646     		mov	r6, r0
 2527 0202 0F46     		mov	r7, r1
 739:Src/utils.c   **** 		}
 2528              		.loc 1 739 31 view .LVU636
 2529 0204 19EE100A 		vmov	r0, s18
 2530 0208 FFF7FEFF 		bl	__aeabi_f2d
 2531              	.LVL274:
 2532 020c 3246     		mov	r2, r6
 2533 020e 3B46     		mov	r3, r7
 2534 0210 FFF7FEFF 		bl	__aeabi_dmul
 2535              	.LVL275:
 739:Src/utils.c   **** 		}
 2536              		.loc 1 739 23 view .LVU637
 2537 0214 0246     		mov	r2, r0
 2538 0216 0B46     		mov	r3, r1
 2539 0218 0020     		movs	r0, #0
 2540 021a 0B49     		ldr	r1, .L273+8
 2541 021c FFF7FEFF 		bl	__aeabi_dsub
 2542              	.LVL276:
 739:Src/utils.c   **** 		}
 2543              		.loc 1 739 16 view .LVU638
 2544 0220 0246     		mov	r2, r0
 2545 0222 0B46     		mov	r3, r1
 2546 0224 2046     		mov	r0, r4
 2547 0226 2946     		mov	r1, r5
 2548 0228 FFF7FEFF 		bl	__aeabi_ddiv
 2549              	.LVL277:
 739:Src/utils.c   **** 		}
 2550              		.loc 1 739 8 view .LVU639
 2551 022c FFF7FEFF 		bl	__aeabi_d2f
 2552              	.LVL278:
 2553 0230 08EE900A 		vmov	s17, r0
 2554              	.LVL279:
ARM GAS  D:\apps\VSCode\data\tmp\ccbZzZbG.s 			page 71


 739:Src/utils.c   **** 		}
 2555              		.loc 1 739 8 view .LVU640
 2556 0234 14E7     		b	.L251
 2557              	.LVL280:
 2558              	.L271:
 749:Src/utils.c   **** 	}
 2559              		.loc 1 749 3 is_stmt 1 view .LVU641
 749:Src/utils.c   **** 	}
 2560              		.loc 1 749 7 is_stmt 0 view .LVU642
 2561 0236 F1EE688A 		vneg.f32	s17, s17
 2562              	.LVL281:
 752:Src/utils.c   **** }
 2563              		.loc 1 752 2 is_stmt 1 view .LVU643
 752:Src/utils.c   **** }
 2564              		.loc 1 752 9 is_stmt 0 view .LVU644
 2565 023a 17E7     		b	.L243
 2566              	.L274:
 2567 023c AFF30080 		.align	3
 2568              	.L273:
 2569 0240 BBBDD7D9 		.word	-640172613
 2570 0244 DF7CDB3D 		.word	1037794527
 2571 0248 0000F03F 		.word	1072693248
 2572              		.cfi_endproc
 2573              	.LFE30:
 2575              		.section	.text.utils_crc32c,"ax",%progbits
 2576              		.align	1
 2577              		.global	utils_crc32c
 2578              		.syntax unified
 2579              		.thumb
 2580              		.thumb_func
 2581              		.fpu fpv4-sp-d16
 2583              	utils_crc32c:
 2584              	.LVL282:
 2585              	.LFB31:
 756:Src/utils.c   **** 	uint32_t crc = 0xFFFFFFFF;
 2586              		.loc 1 756 1 is_stmt 1 view -0
 2587              		.cfi_startproc
 2588              		@ args = 0, pretend = 0, frame = 0
 2589              		@ frame_needed = 0, uses_anonymous_args = 0
 2590              		@ link register save eliminated.
 756:Src/utils.c   **** 	uint32_t crc = 0xFFFFFFFF;
 2591              		.loc 1 756 1 is_stmt 0 view .LVU646
 2592 0000 70B4     		push	{r4, r5, r6}
 2593              	.LCFI25:
 2594              		.cfi_def_cfa_offset 12
 2595              		.cfi_offset 4, -12
 2596              		.cfi_offset 5, -8
 2597              		.cfi_offset 6, -4
 757:Src/utils.c   **** 
 2598              		.loc 1 757 2 is_stmt 1 view .LVU647
 2599              	.LVL283:
 759:Src/utils.c   **** 	{
 2600              		.loc 1 759 2 view .LVU648
 2601              	.LBB10:
 759:Src/utils.c   **** 	{
 2602              		.loc 1 759 7 view .LVU649
 759:Src/utils.c   **** 	{
ARM GAS  D:\apps\VSCode\data\tmp\ccbZzZbG.s 			page 72


 2603              		.loc 1 759 16 is_stmt 0 view .LVU650
 2604 0002 0026     		movs	r6, #0
 2605              	.LBE10:
 757:Src/utils.c   **** 
 2606              		.loc 1 757 11 view .LVU651
 2607 0004 4FF0FF32 		mov	r2, #-1
 2608              	.LBB16:
 759:Src/utils.c   **** 	{
 2609              		.loc 1 759 2 view .LVU652
 2610 0008 09E0     		b	.L276
 2611              	.LVL284:
 2612              	.L278:
 2613              	.LBB11:
 2614              	.LBB12:
 2615              	.LBB13:
 766:Src/utils.c   **** 			crc = (crc >> 1) ^ (0x82F63B78 & mask);
 2616              		.loc 1 766 4 is_stmt 1 discriminator 3 view .LVU653
 766:Src/utils.c   **** 			crc = (crc >> 1) ^ (0x82F63B78 & mask);
 2617              		.loc 1 766 13 is_stmt 0 discriminator 3 view .LVU654
 2618 000a 42F30005 		sbfx	r5, r2, #0, #1
 2619              	.LVL285:
 767:Src/utils.c   **** 		}
 2620              		.loc 1 767 4 is_stmt 1 discriminator 3 view .LVU655
 767:Src/utils.c   **** 		}
 2621              		.loc 1 767 35 is_stmt 0 discriminator 3 view .LVU656
 2622 000e 084B     		ldr	r3, .L282
 2623 0010 2B40     		ands	r3, r3, r5
 767:Src/utils.c   **** 		}
 2624              		.loc 1 767 8 discriminator 3 view .LVU657
 2625 0012 83EA5202 		eor	r2, r3, r2, lsr #1
 2626              	.LVL286:
 767:Src/utils.c   **** 		}
 2627              		.loc 1 767 8 discriminator 3 view .LVU658
 2628              	.LBE13:
 764:Src/utils.c   **** 		{
 2629              		.loc 1 764 28 discriminator 3 view .LVU659
 2630 0016 013C     		subs	r4, r4, #1
 2631              	.LVL287:
 2632              	.L277:
 764:Src/utils.c   **** 		{
 2633              		.loc 1 764 3 discriminator 1 view .LVU660
 2634 0018 002C     		cmp	r4, #0
 2635 001a F6DA     		bge	.L278
 764:Src/utils.c   **** 		{
 2636              		.loc 1 764 3 discriminator 1 view .LVU661
 2637              	.LBE12:
 2638              	.LBE11:
 759:Src/utils.c   **** 	{
 2639              		.loc 1 759 33 discriminator 2 view .LVU662
 2640 001c 0136     		adds	r6, r6, #1
 2641              	.LVL288:
 2642              	.L276:
 759:Src/utils.c   **** 	{
 2643              		.loc 1 759 2 discriminator 1 view .LVU663
 2644 001e 8E42     		cmp	r6, r1
 2645 0020 03D2     		bcs	.L281
 2646              	.LBB15:
ARM GAS  D:\apps\VSCode\data\tmp\ccbZzZbG.s 			page 73


 761:Src/utils.c   **** 		crc = crc ^ byte;
 2647              		.loc 1 761 3 is_stmt 1 view .LVU664
 761:Src/utils.c   **** 		crc = crc ^ byte;
 2648              		.loc 1 761 23 is_stmt 0 view .LVU665
 2649 0022 835D     		ldrb	r3, [r0, r6]	@ zero_extendqisi2
 2650              	.LVL289:
 762:Src/utils.c   **** 
 2651              		.loc 1 762 3 is_stmt 1 view .LVU666
 762:Src/utils.c   **** 
 2652              		.loc 1 762 7 is_stmt 0 view .LVU667
 2653 0024 5A40     		eors	r2, r2, r3
 2654              	.LVL290:
 764:Src/utils.c   **** 		{
 2655              		.loc 1 764 3 is_stmt 1 view .LVU668
 2656              	.LBB14:
 764:Src/utils.c   **** 		{
 2657              		.loc 1 764 8 view .LVU669
 764:Src/utils.c   **** 		{
 2658              		.loc 1 764 12 is_stmt 0 view .LVU670
 2659 0026 0724     		movs	r4, #7
 764:Src/utils.c   **** 		{
 2660              		.loc 1 764 3 view .LVU671
 2661 0028 F6E7     		b	.L277
 2662              	.LVL291:
 2663              	.L281:
 764:Src/utils.c   **** 		{
 2664              		.loc 1 764 3 view .LVU672
 2665              	.LBE14:
 2666              	.LBE15:
 2667              	.LBE16:
 771:Src/utils.c   **** }
 2668              		.loc 1 771 2 is_stmt 1 view .LVU673
 772:Src/utils.c   **** 
 2669              		.loc 1 772 1 is_stmt 0 view .LVU674
 2670 002a D043     		mvns	r0, r2
 2671              	.LVL292:
 772:Src/utils.c   **** 
 2672              		.loc 1 772 1 view .LVU675
 2673 002c 70BC     		pop	{r4, r5, r6}
 2674              	.LCFI26:
 2675              		.cfi_restore 6
 2676              		.cfi_restore 5
 2677              		.cfi_restore 4
 2678              		.cfi_def_cfa_offset 0
 2679              	.LVL293:
 772:Src/utils.c   **** 
 2680              		.loc 1 772 1 view .LVU676
 2681 002e 7047     		bx	lr
 2682              	.L283:
 2683              		.align	2
 2684              	.L282:
 2685 0030 783BF682 		.word	-2097792136
 2686              		.cfi_endproc
 2687              	.LFE31:
 2689              		.section	.text.utils_fft32_bin0,"ax",%progbits
 2690              		.align	1
 2691              		.global	utils_fft32_bin0
ARM GAS  D:\apps\VSCode\data\tmp\ccbZzZbG.s 			page 74


 2692              		.syntax unified
 2693              		.thumb
 2694              		.thumb_func
 2695              		.fpu fpv4-sp-d16
 2697              	utils_fft32_bin0:
 2698              	.LVL294:
 2699              	.LFB32:
 776:Src/utils.c   **** 	*real = 0.0;
 2700              		.loc 1 776 1 is_stmt 1 view -0
 2701              		.cfi_startproc
 2702              		@ args = 0, pretend = 0, frame = 0
 2703              		@ frame_needed = 0, uses_anonymous_args = 0
 2704              		@ link register save eliminated.
 777:Src/utils.c   **** 	*imag = 0.0;
 2705              		.loc 1 777 2 view .LVU678
 777:Src/utils.c   **** 	*imag = 0.0;
 2706              		.loc 1 777 8 is_stmt 0 view .LVU679
 2707 0000 0023     		movs	r3, #0
 2708 0002 0B60     		str	r3, [r1]	@ float
 778:Src/utils.c   **** 
 2709              		.loc 1 778 2 is_stmt 1 view .LVU680
 778:Src/utils.c   **** 
 2710              		.loc 1 778 8 is_stmt 0 view .LVU681
 2711 0004 1360     		str	r3, [r2]	@ float
 780:Src/utils.c   **** 	{
 2712              		.loc 1 780 2 is_stmt 1 view .LVU682
 2713              	.LBB17:
 780:Src/utils.c   **** 	{
 2714              		.loc 1 780 7 view .LVU683
 2715              	.LVL295:
 780:Src/utils.c   **** 	{
 2716              		.loc 1 780 11 is_stmt 0 view .LVU684
 2717 0006 0023     		movs	r3, #0
 2718              	.LVL296:
 2719              	.L285:
 780:Src/utils.c   **** 	{
 2720              		.loc 1 780 2 discriminator 1 view .LVU685
 2721 0008 1F2B     		cmp	r3, #31
 2722 000a 0BDC     		bgt	.L287
 782:Src/utils.c   **** 	}
 2723              		.loc 1 782 3 is_stmt 1 discriminator 3 view .LVU686
 782:Src/utils.c   **** 	}
 2724              		.loc 1 782 19 is_stmt 0 discriminator 3 view .LVU687
 2725 000c 00EB8302 		add	r2, r0, r3, lsl #2
 2726 0010 92ED007A 		vldr.32	s14, [r2]
 782:Src/utils.c   **** 	}
 2727              		.loc 1 782 9 discriminator 3 view .LVU688
 2728 0014 D1ED007A 		vldr.32	s15, [r1]
 2729 0018 77EE877A 		vadd.f32	s15, s15, s14
 2730 001c C1ED007A 		vstr.32	s15, [r1]
 780:Src/utils.c   **** 	{
 2731              		.loc 1 780 27 discriminator 3 view .LVU689
 2732 0020 0133     		adds	r3, r3, #1
 2733              	.LVL297:
 780:Src/utils.c   **** 	{
 2734              		.loc 1 780 27 discriminator 3 view .LVU690
 2735 0022 F1E7     		b	.L285
ARM GAS  D:\apps\VSCode\data\tmp\ccbZzZbG.s 			page 75


 2736              	.L287:
 780:Src/utils.c   **** 	{
 2737              		.loc 1 780 27 discriminator 3 view .LVU691
 2738              	.LBE17:
 785:Src/utils.c   **** }
 2739              		.loc 1 785 2 is_stmt 1 view .LVU692
 785:Src/utils.c   **** }
 2740              		.loc 1 785 8 is_stmt 0 view .LVU693
 2741 0024 D1ED007A 		vldr.32	s15, [r1]
 2742 0028 9FED037A 		vldr.32	s14, .L288
 2743 002c 67EE877A 		vmul.f32	s15, s15, s14
 2744 0030 C1ED007A 		vstr.32	s15, [r1]
 786:Src/utils.c   **** 
 2745              		.loc 1 786 1 view .LVU694
 2746 0034 7047     		bx	lr
 2747              	.L289:
 2748 0036 00BF     		.align	2
 2749              	.L288:
 2750 0038 0000003D 		.word	1023410176
 2751              		.cfi_endproc
 2752              	.LFE32:
 2754              		.section	.text.utils_fft16_bin0,"ax",%progbits
 2755              		.align	1
 2756              		.global	utils_fft16_bin0
 2757              		.syntax unified
 2758              		.thumb
 2759              		.thumb_func
 2760              		.fpu fpv4-sp-d16
 2762              	utils_fft16_bin0:
 2763              	.LVL298:
 2764              	.LFB33:
 789:Src/utils.c   **** 	*real = 0.0;
 2765              		.loc 1 789 1 is_stmt 1 view -0
 2766              		.cfi_startproc
 2767              		@ args = 0, pretend = 0, frame = 0
 2768              		@ frame_needed = 0, uses_anonymous_args = 0
 2769              		@ link register save eliminated.
 790:Src/utils.c   **** 	*imag = 0.0;
 2770              		.loc 1 790 2 view .LVU696
 790:Src/utils.c   **** 	*imag = 0.0;
 2771              		.loc 1 790 8 is_stmt 0 view .LVU697
 2772 0000 0023     		movs	r3, #0
 2773 0002 0B60     		str	r3, [r1]	@ float
 791:Src/utils.c   **** 
 2774              		.loc 1 791 2 is_stmt 1 view .LVU698
 791:Src/utils.c   **** 
 2775              		.loc 1 791 8 is_stmt 0 view .LVU699
 2776 0004 1360     		str	r3, [r2]	@ float
 793:Src/utils.c   **** 	{
 2777              		.loc 1 793 2 is_stmt 1 view .LVU700
 2778              	.LBB18:
 793:Src/utils.c   **** 	{
 2779              		.loc 1 793 7 view .LVU701
 2780              	.LVL299:
 793:Src/utils.c   **** 	{
 2781              		.loc 1 793 11 is_stmt 0 view .LVU702
 2782 0006 0023     		movs	r3, #0
ARM GAS  D:\apps\VSCode\data\tmp\ccbZzZbG.s 			page 76


 2783              	.LVL300:
 2784              	.L291:
 793:Src/utils.c   **** 	{
 2785              		.loc 1 793 2 discriminator 1 view .LVU703
 2786 0008 0F2B     		cmp	r3, #15
 2787 000a 0BDC     		bgt	.L293
 795:Src/utils.c   **** 	}
 2788              		.loc 1 795 3 is_stmt 1 discriminator 3 view .LVU704
 795:Src/utils.c   **** 	}
 2789              		.loc 1 795 19 is_stmt 0 discriminator 3 view .LVU705
 2790 000c 00EB8302 		add	r2, r0, r3, lsl #2
 2791 0010 92ED007A 		vldr.32	s14, [r2]
 795:Src/utils.c   **** 	}
 2792              		.loc 1 795 9 discriminator 3 view .LVU706
 2793 0014 D1ED007A 		vldr.32	s15, [r1]
 2794 0018 77EE877A 		vadd.f32	s15, s15, s14
 2795 001c C1ED007A 		vstr.32	s15, [r1]
 793:Src/utils.c   **** 	{
 2796              		.loc 1 793 27 discriminator 3 view .LVU707
 2797 0020 0133     		adds	r3, r3, #1
 2798              	.LVL301:
 793:Src/utils.c   **** 	{
 2799              		.loc 1 793 27 discriminator 3 view .LVU708
 2800 0022 F1E7     		b	.L291
 2801              	.L293:
 793:Src/utils.c   **** 	{
 2802              		.loc 1 793 27 discriminator 3 view .LVU709
 2803              	.LBE18:
 798:Src/utils.c   **** }
 2804              		.loc 1 798 2 is_stmt 1 view .LVU710
 798:Src/utils.c   **** }
 2805              		.loc 1 798 8 is_stmt 0 view .LVU711
 2806 0024 D1ED007A 		vldr.32	s15, [r1]
 2807 0028 9FED037A 		vldr.32	s14, .L294
 2808 002c 67EE877A 		vmul.f32	s15, s15, s14
 2809 0030 C1ED007A 		vstr.32	s15, [r1]
 799:Src/utils.c   **** 
 2810              		.loc 1 799 1 view .LVU712
 2811 0034 7047     		bx	lr
 2812              	.L295:
 2813 0036 00BF     		.align	2
 2814              	.L294:
 2815 0038 0000803D 		.word	1031798784
 2816              		.cfi_endproc
 2817              	.LFE33:
 2819              		.section	.text.utils_fft8_bin0,"ax",%progbits
 2820              		.align	1
 2821              		.global	utils_fft8_bin0
 2822              		.syntax unified
 2823              		.thumb
 2824              		.thumb_func
 2825              		.fpu fpv4-sp-d16
 2827              	utils_fft8_bin0:
 2828              	.LVL302:
 2829              	.LFB34:
 802:Src/utils.c   **** 	*real = 0.0;
 2830              		.loc 1 802 1 is_stmt 1 view -0
ARM GAS  D:\apps\VSCode\data\tmp\ccbZzZbG.s 			page 77


 2831              		.cfi_startproc
 2832              		@ args = 0, pretend = 0, frame = 0
 2833              		@ frame_needed = 0, uses_anonymous_args = 0
 2834              		@ link register save eliminated.
 803:Src/utils.c   **** 	*imag = 0.0;
 2835              		.loc 1 803 2 view .LVU714
 803:Src/utils.c   **** 	*imag = 0.0;
 2836              		.loc 1 803 8 is_stmt 0 view .LVU715
 2837 0000 0023     		movs	r3, #0
 2838 0002 0B60     		str	r3, [r1]	@ float
 804:Src/utils.c   **** 
 2839              		.loc 1 804 2 is_stmt 1 view .LVU716
 804:Src/utils.c   **** 
 2840              		.loc 1 804 8 is_stmt 0 view .LVU717
 2841 0004 1360     		str	r3, [r2]	@ float
 806:Src/utils.c   **** 	{
 2842              		.loc 1 806 2 is_stmt 1 view .LVU718
 2843              	.LBB19:
 806:Src/utils.c   **** 	{
 2844              		.loc 1 806 7 view .LVU719
 2845              	.LVL303:
 806:Src/utils.c   **** 	{
 2846              		.loc 1 806 11 is_stmt 0 view .LVU720
 2847 0006 0023     		movs	r3, #0
 806:Src/utils.c   **** 	{
 2848              		.loc 1 806 2 view .LVU721
 2849 0008 0AE0     		b	.L297
 2850              	.LVL304:
 2851              	.L298:
 808:Src/utils.c   **** 	}
 2852              		.loc 1 808 3 is_stmt 1 discriminator 3 view .LVU722
 808:Src/utils.c   **** 	}
 2853              		.loc 1 808 19 is_stmt 0 discriminator 3 view .LVU723
 2854 000a 00EB8302 		add	r2, r0, r3, lsl #2
 2855 000e 92ED007A 		vldr.32	s14, [r2]
 808:Src/utils.c   **** 	}
 2856              		.loc 1 808 9 discriminator 3 view .LVU724
 2857 0012 D1ED007A 		vldr.32	s15, [r1]
 2858 0016 77EE877A 		vadd.f32	s15, s15, s14
 2859 001a C1ED007A 		vstr.32	s15, [r1]
 806:Src/utils.c   **** 	{
 2860              		.loc 1 806 26 discriminator 3 view .LVU725
 2861 001e 0133     		adds	r3, r3, #1
 2862              	.LVL305:
 2863              	.L297:
 806:Src/utils.c   **** 	{
 2864              		.loc 1 806 2 discriminator 1 view .LVU726
 2865 0020 072B     		cmp	r3, #7
 2866 0022 F2DD     		ble	.L298
 2867              	.LBE19:
 811:Src/utils.c   **** }
 2868              		.loc 1 811 2 is_stmt 1 view .LVU727
 811:Src/utils.c   **** }
 2869              		.loc 1 811 8 is_stmt 0 view .LVU728
 2870 0024 D1ED007A 		vldr.32	s15, [r1]
 2871 0028 B4EE007A 		vmov.f32	s14, #1.25e-1
 2872 002c 67EE877A 		vmul.f32	s15, s15, s14
ARM GAS  D:\apps\VSCode\data\tmp\ccbZzZbG.s 			page 78


 2873 0030 C1ED007A 		vstr.32	s15, [r1]
 812:Src/utils.c   **** 
 2874              		.loc 1 812 1 view .LVU729
 2875 0034 7047     		bx	lr
 2876              		.cfi_endproc
 2877              	.LFE34:
 2879              		.section	.text.utils_second_motor_id,"ax",%progbits
 2880              		.align	1
 2881              		.global	utils_second_motor_id
 2882              		.syntax unified
 2883              		.thumb
 2884              		.thumb_func
 2885              		.fpu fpv4-sp-d16
 2887              	utils_second_motor_id:
 2888              	.LFB35:
 821:Src/utils.c   **** #ifdef HW_HAS_DUAL_MOTORS
 2889              		.loc 1 821 1 is_stmt 1 view -0
 2890              		.cfi_startproc
 2891              		@ args = 0, pretend = 0, frame = 0
 2892              		@ frame_needed = 0, uses_anonymous_args = 0
 2893              		@ link register save eliminated.
 830:Src/utils.c   **** #endif
 2894              		.loc 1 830 2 view .LVU731
 832:Src/utils.c   **** 
 2895              		.loc 1 832 1 is_stmt 0 view .LVU732
 2896 0000 0020     		movs	r0, #0
 2897 0002 7047     		bx	lr
 2898              		.cfi_endproc
 2899              	.LFE35:
 2901              		.section	.text.utils_batt_liion_norm_v_to_capacity,"ax",%progbits
 2902              		.align	1
 2903              		.global	utils_batt_liion_norm_v_to_capacity
 2904              		.syntax unified
 2905              		.thumb
 2906              		.thumb_func
 2907              		.fpu fpv4-sp-d16
 2909              	utils_batt_liion_norm_v_to_capacity:
 2910              	.LVL306:
 2911              	.LFB36:
 837:Src/utils.c   **** 	// constants for polynomial fit of lithium ion battery
 2912              		.loc 1 837 1 is_stmt 1 view -0
 2913              		.cfi_startproc
 2914              		@ args = 0, pretend = 0, frame = 8
 2915              		@ frame_needed = 0, uses_anonymous_args = 0
 837:Src/utils.c   **** 	// constants for polynomial fit of lithium ion battery
 2916              		.loc 1 837 1 is_stmt 0 view .LVU734
 2917 0000 00B5     		push	{lr}
 2918              	.LCFI27:
 2919              		.cfi_def_cfa_offset 4
 2920              		.cfi_offset 14, -4
 2921 0002 83B0     		sub	sp, sp, #12
 2922              	.LCFI28:
 2923              		.cfi_def_cfa_offset 16
 2924 0004 8DED010A 		vstr.32	s0, [sp, #4]
 839:Src/utils.c   **** 		-2.979767, 5.487810, -3.501286, 1.675683, 0.317147};
 2925              		.loc 1 839 2 is_stmt 1 view .LVU735
 841:Src/utils.c   **** 	float v2 = norm_v * norm_v;
ARM GAS  D:\apps\VSCode\data\tmp\ccbZzZbG.s 			page 79


 2926              		.loc 1 841 2 view .LVU736
 2927 0008 F7EE000A 		vmov.f32	s1, #1.0e+0
 2928 000c 9FED160A 		vldr.32	s0, .L302
 2929              	.LVL307:
 841:Src/utils.c   **** 	float v2 = norm_v * norm_v;
 2930              		.loc 1 841 2 is_stmt 0 view .LVU737
 2931 0010 01A8     		add	r0, sp, #4
 2932              	.LVL308:
 841:Src/utils.c   **** 	float v2 = norm_v * norm_v;
 2933              		.loc 1 841 2 view .LVU738
 2934 0012 FFF7FEFF 		bl	utils_truncate_number
 2935              	.LVL309:
 842:Src/utils.c   **** 	float v3 = v2 * norm_v;
 2936              		.loc 1 842 2 is_stmt 1 view .LVU739
 842:Src/utils.c   **** 	float v3 = v2 * norm_v;
 2937              		.loc 1 842 20 is_stmt 0 view .LVU740
 2938 0016 9DED010A 		vldr.32	s0, [sp, #4]
 842:Src/utils.c   **** 	float v3 = v2 * norm_v;
 2939              		.loc 1 842 8 view .LVU741
 2940 001a 20EE007A 		vmul.f32	s14, s0, s0
 2941              	.LVL310:
 843:Src/utils.c   **** 	float v4 = v3 * norm_v;
 2942              		.loc 1 843 2 is_stmt 1 view .LVU742
 843:Src/utils.c   **** 	float v4 = v3 * norm_v;
 2943              		.loc 1 843 8 is_stmt 0 view .LVU743
 2944 001e 60EE076A 		vmul.f32	s13, s0, s14
 2945              	.LVL311:
 844:Src/utils.c   **** 	float v5 = v4 * norm_v;
 2946              		.loc 1 844 2 is_stmt 1 view .LVU744
 844:Src/utils.c   **** 	float v5 = v4 * norm_v;
 2947              		.loc 1 844 8 is_stmt 0 view .LVU745
 2948 0022 20EE266A 		vmul.f32	s12, s0, s13
 2949              	.LVL312:
 845:Src/utils.c   **** 	float capacity = li_p[0] * v5 + li_p[1] * v4 + li_p[2] * v3 +
 2950              		.loc 1 845 2 is_stmt 1 view .LVU746
 845:Src/utils.c   **** 	float capacity = li_p[0] * v5 + li_p[1] * v4 + li_p[2] * v3 +
 2951              		.loc 1 845 8 is_stmt 0 view .LVU747
 2952 0026 60EE067A 		vmul.f32	s15, s0, s12
 2953              	.LVL313:
 846:Src/utils.c   **** 					 li_p[3] * v2 + li_p[4] * norm_v;
 2954              		.loc 1 846 2 is_stmt 1 view .LVU748
 846:Src/utils.c   **** 					 li_p[3] * v2 + li_p[4] * norm_v;
 2955              		.loc 1 846 27 is_stmt 0 view .LVU749
 2956 002a DFED105A 		vldr.32	s11, .L302+4
 2957 002e 67EEA57A 		vmul.f32	s15, s15, s11
 2958              	.LVL314:
 846:Src/utils.c   **** 					 li_p[3] * v2 + li_p[4] * norm_v;
 2959              		.loc 1 846 42 view .LVU750
 2960 0032 DFED0F5A 		vldr.32	s11, .L302+8
 2961 0036 26EE256A 		vmul.f32	s12, s12, s11
 2962              	.LVL315:
 846:Src/utils.c   **** 					 li_p[3] * v2 + li_p[4] * norm_v;
 2963              		.loc 1 846 32 view .LVU751
 2964 003a 77EE867A 		vadd.f32	s15, s15, s12
 846:Src/utils.c   **** 					 li_p[3] * v2 + li_p[4] * norm_v;
 2965              		.loc 1 846 57 view .LVU752
 2966 003e 9FED0D6A 		vldr.32	s12, .L302+12
ARM GAS  D:\apps\VSCode\data\tmp\ccbZzZbG.s 			page 80


 2967 0042 66EE866A 		vmul.f32	s13, s13, s12
 2968              	.LVL316:
 846:Src/utils.c   **** 					 li_p[3] * v2 + li_p[4] * norm_v;
 2969              		.loc 1 846 47 view .LVU753
 2970 0046 77EEA67A 		vadd.f32	s15, s15, s13
 847:Src/utils.c   **** 	return capacity;
 2971              		.loc 1 847 15 view .LVU754
 2972 004a DFED0B6A 		vldr.32	s13, .L302+16
 2973 004e 27EE267A 		vmul.f32	s14, s14, s13
 2974              	.LVL317:
 846:Src/utils.c   **** 					 li_p[3] * v2 + li_p[4] * norm_v;
 2975              		.loc 1 846 62 view .LVU755
 2976 0052 77EE877A 		vadd.f32	s15, s15, s14
 847:Src/utils.c   **** 	return capacity;
 2977              		.loc 1 847 30 view .LVU756
 2978 0056 9FED097A 		vldr.32	s14, .L302+20
 2979 005a 20EE070A 		vmul.f32	s0, s0, s14
 2980              	.LVL318:
 848:Src/utils.c   **** }
 2981              		.loc 1 848 2 is_stmt 1 view .LVU757
 849:Src/utils.c   **** 
 2982              		.loc 1 849 1 is_stmt 0 view .LVU758
 2983 005e 37EE800A 		vadd.f32	s0, s15, s0
 2984              	.LVL319:
 849:Src/utils.c   **** 
 2985              		.loc 1 849 1 view .LVU759
 2986 0062 03B0     		add	sp, sp, #12
 2987              	.LCFI29:
 2988              		.cfi_def_cfa_offset 4
 2989              		@ sp needed
 2990 0064 5DF804FB 		ldr	pc, [sp], #4
 2991              	.LVL320:
 2992              	.L303:
 849:Src/utils.c   **** 
 2993              		.loc 1 849 1 view .LVU760
 2994              		.align	2
 2995              	.L302:
 2996 0068 00000000 		.word	0
 2997 006c 81B43EC0 		.word	-1069632383
 2998 0070 249CAF40 		.word	1085250596
 2999 0074 121560C0 		.word	-1067444974
 3000 0078 C87CD63F 		.word	1071021256
 3001 007c 1761A23E 		.word	1050829079
 3002              		.cfi_endproc
 3003              	.LFE36:
 3005              		.section	.text.utils_median_filter_uint16_run,"ax",%progbits
 3006              		.align	1
 3007              		.global	utils_median_filter_uint16_run
 3008              		.syntax unified
 3009              		.thumb
 3010              		.thumb_func
 3011              		.fpu fpv4-sp-d16
 3013              	utils_median_filter_uint16_run:
 3014              	.LVL321:
 3015              	.LFB38:
 855:Src/utils.c   **** 
 856:Src/utils.c   **** uint16_t utils_median_filter_uint16_run(uint16_t *buffer,
ARM GAS  D:\apps\VSCode\data\tmp\ccbZzZbG.s 			page 81


 857:Src/utils.c   **** 										unsigned int *buffer_index, unsigned int filter_len, uint16_t sample)
 858:Src/utils.c   **** {
 3016              		.loc 1 858 1 is_stmt 1 view -0
 3017              		.cfi_startproc
 3018              		@ args = 0, pretend = 0, frame = 0
 3019              		@ frame_needed = 1, uses_anonymous_args = 0
 3020              		.loc 1 858 1 is_stmt 0 view .LVU762
 3021 0000 B0B5     		push	{r4, r5, r7, lr}
 3022              	.LCFI30:
 3023              		.cfi_def_cfa_offset 16
 3024              		.cfi_offset 4, -16
 3025              		.cfi_offset 5, -12
 3026              		.cfi_offset 7, -8
 3027              		.cfi_offset 14, -4
 3028 0002 00AF     		add	r7, sp, #0
 3029              	.LCFI31:
 3030              		.cfi_def_cfa_register 7
 3031 0004 1446     		mov	r4, r2
 859:Src/utils.c   **** 	buffer[*buffer_index++] = sample;
 3032              		.loc 1 859 2 is_stmt 1 view .LVU763
 3033              	.LVL322:
 3034              		.loc 1 859 9 is_stmt 0 view .LVU764
 3035 0006 0A68     		ldr	r2, [r1]
 3036              	.LVL323:
 3037              		.loc 1 859 26 view .LVU765
 3038 0008 20F81230 		strh	r3, [r0, r2, lsl #1]	@ movhi
 860:Src/utils.c   **** 	*buffer_index %= filter_len;
 3039              		.loc 1 860 2 is_stmt 1 view .LVU766
 3040              		.loc 1 860 16 is_stmt 0 view .LVU767
 3041 000c 4A68     		ldr	r2, [r1, #4]
 3042 000e B2FBF4F3 		udiv	r3, r2, r4
 3043              	.LVL324:
 3044              		.loc 1 860 16 view .LVU768
 3045 0012 04FB1323 		mls	r3, r4, r3, r2
 3046 0016 4B60     		str	r3, [r1, #4]
 861:Src/utils.c   **** 	uint16_t buffer_sorted[filter_len]; // Assume we have enough stack space
 3047              		.loc 1 861 2 is_stmt 1 view .LVU769
 3048              	.LVL325:
 3049              		.loc 1 861 11 is_stmt 0 view .LVU770
 3050 0018 6200     		lsls	r2, r4, #1
 3051 001a D31D     		adds	r3, r2, #7
 3052 001c 23F00703 		bic	r3, r3, #7
 3053 0020 ADEB030D 		sub	sp, sp, r3
 3054 0024 6D46     		mov	r5, sp
 3055              	.LVL326:
 862:Src/utils.c   **** 	memcpy(buffer_sorted, buffer, sizeof(uint16_t) * filter_len);
 3056              		.loc 1 862 2 is_stmt 1 view .LVU771
 3057 0026 0146     		mov	r1, r0
 3058              	.LVL327:
 3059              		.loc 1 862 2 is_stmt 0 view .LVU772
 3060 0028 2846     		mov	r0, r5
 3061              	.LVL328:
 3062              		.loc 1 862 2 view .LVU773
 3063 002a FFF7FEFF 		bl	memcpy
 3064              	.LVL329:
 863:Src/utils.c   **** 	qsort(buffer_sorted, filter_len, sizeof(uint16_t), uint16_cmp_func);
 3065              		.loc 1 863 2 is_stmt 1 view .LVU774
ARM GAS  D:\apps\VSCode\data\tmp\ccbZzZbG.s 			page 82


 3066 002e 054B     		ldr	r3, .L306
 3067 0030 0222     		movs	r2, #2
 3068 0032 2146     		mov	r1, r4
 3069 0034 2846     		mov	r0, r5
 3070 0036 FFF7FEFF 		bl	qsort
 3071              	.LVL330:
 864:Src/utils.c   **** 	return buffer_sorted[filter_len / 2];
 3072              		.loc 1 864 2 view .LVU775
 3073              		.loc 1 864 34 is_stmt 0 view .LVU776
 3074 003a 6408     		lsrs	r4, r4, #1
 3075              	.LVL331:
 865:Src/utils.c   **** }
 3076              		.loc 1 865 1 view .LVU777
 3077 003c 35F81400 		ldrh	r0, [r5, r4, lsl #1]
 3078 0040 BD46     		mov	sp, r7
 3079              	.LCFI32:
 3080              		.cfi_def_cfa_register 13
 3081              		@ sp needed
 3082 0042 B0BD     		pop	{r4, r5, r7, pc}
 3083              	.LVL332:
 3084              	.L307:
 3085              		.loc 1 865 1 view .LVU778
 3086              		.align	2
 3087              	.L306:
 3088 0044 00000000 		.word	uint16_cmp_func
 3089              		.cfi_endproc
 3090              	.LFE38:
 3092              		.global	utils_tab_cos_32_2
 3093              		.global	utils_tab_cos_32_1
 3094              		.global	utils_tab_sin_32_2
 3095              		.global	utils_tab_sin_32_1
 3096              		.section	.bss.sys_lock_cnt,"aw",%nobits
 3097              		.align	2
 3100              	sys_lock_cnt:
 3101 0000 00000000 		.space	4
 3102              		.section	.rodata.utils_byte_to_binary.str1.4,"aMS",%progbits,1
 3103              		.align	2
 3104              	.LC0:
 3105 0000 3000     		.ascii	"0\000"
 3106 0002 0000     		.space	2
 3107              	.LC1:
 3108 0004 3100     		.ascii	"1\000"
 3109              		.section	.rodata.utils_tab_cos_32_1,"a"
 3110              		.align	2
 3113              	utils_tab_cos_32_1:
 3114 0000 0000803F 		.word	1065353216
 3115 0004 BA147B3F 		.word	1065030842
 3116 0008 66836C3F 		.word	1064076134
 3117 000c 38DB543F 		.word	1062525752
 3118 0010 F704353F 		.word	1060439287
 3119 0014 D6390E3F 		.word	1057896918
 3120 0018 07EFC33E 		.word	1053028103
 3121 001c ACC5473E 		.word	1044891052
 3122 0020 00000000 		.word	0
 3123 0024 ACC547BE 		.word	-1102592596
 3124 0028 07EFC3BE 		.word	-1094455545
 3125 002c D6390EBF 		.word	-1089586730
ARM GAS  D:\apps\VSCode\data\tmp\ccbZzZbG.s 			page 83


 3126 0030 F70435BF 		.word	-1087044361
 3127 0034 38DB54BF 		.word	-1084957896
 3128 0038 66836CBF 		.word	-1083407514
 3129 003c BA147BBF 		.word	-1082452806
 3130 0040 000080BF 		.word	-1082130432
 3131 0044 BA147BBF 		.word	-1082452806
 3132 0048 66836CBF 		.word	-1083407514
 3133 004c 38DB54BF 		.word	-1084957896
 3134 0050 F70435BF 		.word	-1087044361
 3135 0054 D6390EBF 		.word	-1089586730
 3136 0058 07EFC3BE 		.word	-1094455545
 3137 005c ACC547BE 		.word	-1102592596
 3138 0060 00000080 		.word	-2147483648
 3139 0064 ACC5473E 		.word	1044891052
 3140 0068 07EFC33E 		.word	1053028103
 3141 006c D6390E3F 		.word	1057896918
 3142 0070 F704353F 		.word	1060439287
 3143 0074 38DB543F 		.word	1062525752
 3144 0078 66836C3F 		.word	1064076134
 3145 007c BA147B3F 		.word	1065030842
 3146              		.section	.rodata.utils_tab_cos_32_2,"a"
 3147              		.align	2
 3150              	utils_tab_cos_32_2:
 3151 0000 0000803F 		.word	1065353216
 3152 0004 66836C3F 		.word	1064076134
 3153 0008 F704353F 		.word	1060439287
 3154 000c 07EFC33E 		.word	1053028103
 3155 0010 00000000 		.word	0
 3156 0014 07EFC3BE 		.word	-1094455545
 3157 0018 F70435BF 		.word	-1087044361
 3158 001c 66836CBF 		.word	-1083407514
 3159 0020 000080BF 		.word	-1082130432
 3160 0024 66836CBF 		.word	-1083407514
 3161 0028 F70435BF 		.word	-1087044361
 3162 002c 07EFC3BE 		.word	-1094455545
 3163 0030 00000080 		.word	-2147483648
 3164 0034 07EFC33E 		.word	1053028103
 3165 0038 F704353F 		.word	1060439287
 3166 003c 66836C3F 		.word	1064076134
 3167 0040 0000803F 		.word	1065353216
 3168 0044 66836C3F 		.word	1064076134
 3169 0048 F704353F 		.word	1060439287
 3170 004c 07EFC33E 		.word	1053028103
 3171 0050 00000000 		.word	0
 3172 0054 07EFC3BE 		.word	-1094455545
 3173 0058 F70435BF 		.word	-1087044361
 3174 005c 66836CBF 		.word	-1083407514
 3175 0060 000080BF 		.word	-1082130432
 3176 0064 66836CBF 		.word	-1083407514
 3177 0068 F70435BF 		.word	-1087044361
 3178 006c 07EFC3BE 		.word	-1094455545
 3179 0070 00000080 		.word	-2147483648
 3180 0074 07EFC33E 		.word	1053028103
 3181 0078 F704353F 		.word	1060439287
 3182 007c 66836C3F 		.word	1064076134
 3183              		.section	.rodata.utils_tab_sin_32_1,"a"
 3184              		.align	2
ARM GAS  D:\apps\VSCode\data\tmp\ccbZzZbG.s 			page 84


 3187              	utils_tab_sin_32_1:
 3188 0000 00000000 		.word	0
 3189 0004 ACC5473E 		.word	1044891052
 3190 0008 07EFC33E 		.word	1053028103
 3191 000c D6390E3F 		.word	1057896918
 3192 0010 F704353F 		.word	1060439287
 3193 0014 38DB543F 		.word	1062525752
 3194 0018 66836C3F 		.word	1064076134
 3195 001c BA147B3F 		.word	1065030842
 3196 0020 0000803F 		.word	1065353216
 3197 0024 BA147B3F 		.word	1065030842
 3198 0028 66836C3F 		.word	1064076134
 3199 002c 38DB543F 		.word	1062525752
 3200 0030 F704353F 		.word	1060439287
 3201 0034 D6390E3F 		.word	1057896918
 3202 0038 07EFC33E 		.word	1053028103
 3203 003c ACC5473E 		.word	1044891052
 3204 0040 00000000 		.word	0
 3205 0044 ACC547BE 		.word	-1102592596
 3206 0048 07EFC3BE 		.word	-1094455545
 3207 004c D6390EBF 		.word	-1089586730
 3208 0050 F70435BF 		.word	-1087044361
 3209 0054 38DB54BF 		.word	-1084957896
 3210 0058 66836CBF 		.word	-1083407514
 3211 005c BA147BBF 		.word	-1082452806
 3212 0060 000080BF 		.word	-1082130432
 3213 0064 BA147BBF 		.word	-1082452806
 3214 0068 66836CBF 		.word	-1083407514
 3215 006c 38DB54BF 		.word	-1084957896
 3216 0070 F70435BF 		.word	-1087044361
 3217 0074 D6390EBF 		.word	-1089586730
 3218 0078 07EFC3BE 		.word	-1094455545
 3219 007c ACC547BE 		.word	-1102592596
 3220              		.section	.rodata.utils_tab_sin_32_2,"a"
 3221              		.align	2
 3224              	utils_tab_sin_32_2:
 3225 0000 00000000 		.word	0
 3226 0004 07EFC33E 		.word	1053028103
 3227 0008 F704353F 		.word	1060439287
 3228 000c 66836C3F 		.word	1064076134
 3229 0010 0000803F 		.word	1065353216
 3230 0014 66836C3F 		.word	1064076134
 3231 0018 F704353F 		.word	1060439287
 3232 001c 07EFC33E 		.word	1053028103
 3233 0020 00000000 		.word	0
 3234 0024 07EFC3BE 		.word	-1094455545
 3235 0028 F70435BF 		.word	-1087044361
 3236 002c 66836CBF 		.word	-1083407514
 3237 0030 000080BF 		.word	-1082130432
 3238 0034 66836CBF 		.word	-1083407514
 3239 0038 F70435BF 		.word	-1087044361
 3240 003c 07EFC3BE 		.word	-1094455545
 3241 0040 00000080 		.word	-2147483648
 3242 0044 07EFC33E 		.word	1053028103
 3243 0048 F704353F 		.word	1060439287
 3244 004c 66836C3F 		.word	1064076134
 3245 0050 0000803F 		.word	1065353216
ARM GAS  D:\apps\VSCode\data\tmp\ccbZzZbG.s 			page 85


 3246 0054 66836C3F 		.word	1064076134
 3247 0058 F704353F 		.word	1060439287
 3248 005c 07EFC33E 		.word	1053028103
 3249 0060 00000000 		.word	0
 3250 0064 07EFC3BE 		.word	-1094455545
 3251 0068 F70435BF 		.word	-1087044361
 3252 006c 66836CBF 		.word	-1083407514
 3253 0070 000080BF 		.word	-1082130432
 3254 0074 66836CBF 		.word	-1083407514
 3255 0078 F70435BF 		.word	-1087044361
 3256 007c 07EFC3BE 		.word	-1094455545
 3257              		.text
 3258              	.Letext0:
 3259              		.file 2 "d:\\apps\\embedded_gcc\\arm_gcc\\arm-none-eabi\\include\\machine\\_default_types.h"
 3260              		.file 3 "d:\\apps\\embedded_gcc\\arm_gcc\\arm-none-eabi\\include\\sys\\_stdint.h"
 3261              		.file 4 "d:\\apps\\embedded_gcc\\arm_gcc\\arm-none-eabi\\include\\sys\\lock.h"
 3262              		.file 5 "d:\\apps\\embedded_gcc\\arm_gcc\\arm-none-eabi\\include\\sys\\_types.h"
 3263              		.file 6 "d:\\apps\\embedded_gcc\\arm_gcc\\lib\\gcc\\arm-none-eabi\\8.2.1\\include\\stddef.h"
 3264              		.file 7 "d:\\apps\\embedded_gcc\\arm_gcc\\arm-none-eabi\\include\\sys\\reent.h"
 3265              		.file 8 "d:\\apps\\embedded_gcc\\arm_gcc\\arm-none-eabi\\include\\math.h"
 3266              		.file 9 "d:\\apps\\embedded_gcc\\arm_gcc\\arm-none-eabi\\include\\stdlib.h"
 3267              		.file 10 "<built-in>"
ARM GAS  D:\apps\VSCode\data\tmp\ccbZzZbG.s 			page 86

