ARM GAS  D:\apps\VSCode\data\tmp\ccESTIAN.s 			page 1


   1              		.cpu cortex-m4
   2              		.eabi_attribute 27, 1
   3              		.eabi_attribute 28, 1
   4              		.eabi_attribute 20, 1
   5              		.eabi_attribute 21, 1
   6              		.eabi_attribute 23, 3
   7              		.eabi_attribute 24, 1
   8              		.eabi_attribute 25, 1
   9              		.eabi_attribute 26, 1
  10              		.eabi_attribute 30, 6
  11              		.eabi_attribute 34, 1
  12              		.eabi_attribute 18, 4
  13              		.file	"stm32g4xx_ll_dma.c"
  14              		.text
  15              	.Ltext0:
  16              		.cfi_sections	.debug_frame
  17              		.section	.rodata.CHANNEL_OFFSET_TAB,"a"
  18              		.align	2
  21              	CHANNEL_OFFSET_TAB:
  22 0000 08       		.byte	8
  23 0001 1C       		.byte	28
  24 0002 30       		.byte	48
  25 0003 44       		.byte	68
  26 0004 58       		.byte	88
  27 0005 6C       		.byte	108
  28 0006 80       		.byte	-128
  29 0007 94       		.byte	-108
  30              		.section	.text.LL_DMA_ConfigTransfer,"ax",%progbits
  31              		.align	1
  32              		.arch armv7e-m
  33              		.syntax unified
  34              		.thumb
  35              		.thumb_func
  36              		.fpu fpv4-sp-d16
  38              	LL_DMA_ConfigTransfer:
  39              	.LFB202:
  40              		.file 1 "Drivers/STM32G4xx_HAL_Driver/Inc/stm32g4xx_ll_dma.h"
   1:Drivers/STM32G4xx_HAL_Driver/Inc/stm32g4xx_ll_dma.h **** /**
   2:Drivers/STM32G4xx_HAL_Driver/Inc/stm32g4xx_ll_dma.h ****   ******************************************************************************
   3:Drivers/STM32G4xx_HAL_Driver/Inc/stm32g4xx_ll_dma.h ****   * @file    stm32g4xx_ll_dma.h
   4:Drivers/STM32G4xx_HAL_Driver/Inc/stm32g4xx_ll_dma.h ****   * @author  MCD Application Team
   5:Drivers/STM32G4xx_HAL_Driver/Inc/stm32g4xx_ll_dma.h ****   * @brief   Header file of DMA LL module.
   6:Drivers/STM32G4xx_HAL_Driver/Inc/stm32g4xx_ll_dma.h ****   ******************************************************************************
   7:Drivers/STM32G4xx_HAL_Driver/Inc/stm32g4xx_ll_dma.h ****   * @attention
   8:Drivers/STM32G4xx_HAL_Driver/Inc/stm32g4xx_ll_dma.h ****   *
   9:Drivers/STM32G4xx_HAL_Driver/Inc/stm32g4xx_ll_dma.h ****   * <h2><center>&copy; Copyright (c) 2019 STMicroelectronics.
  10:Drivers/STM32G4xx_HAL_Driver/Inc/stm32g4xx_ll_dma.h ****   * All rights reserved.</center></h2>
  11:Drivers/STM32G4xx_HAL_Driver/Inc/stm32g4xx_ll_dma.h ****   *
  12:Drivers/STM32G4xx_HAL_Driver/Inc/stm32g4xx_ll_dma.h ****   * This software component is licensed by ST under BSD 3-Clause license,
  13:Drivers/STM32G4xx_HAL_Driver/Inc/stm32g4xx_ll_dma.h ****   * the "License"; You may not use this file except in compliance with the
  14:Drivers/STM32G4xx_HAL_Driver/Inc/stm32g4xx_ll_dma.h ****   * License. You may obtain a copy of the License at:
  15:Drivers/STM32G4xx_HAL_Driver/Inc/stm32g4xx_ll_dma.h ****   *                        opensource.org/licenses/BSD-3-Clause
  16:Drivers/STM32G4xx_HAL_Driver/Inc/stm32g4xx_ll_dma.h ****   *
  17:Drivers/STM32G4xx_HAL_Driver/Inc/stm32g4xx_ll_dma.h ****   ******************************************************************************
  18:Drivers/STM32G4xx_HAL_Driver/Inc/stm32g4xx_ll_dma.h ****   */
  19:Drivers/STM32G4xx_HAL_Driver/Inc/stm32g4xx_ll_dma.h **** 
  20:Drivers/STM32G4xx_HAL_Driver/Inc/stm32g4xx_ll_dma.h **** /* Define to prevent recursive inclusion -------------------------------------*/
ARM GAS  D:\apps\VSCode\data\tmp\ccESTIAN.s 			page 2


  21:Drivers/STM32G4xx_HAL_Driver/Inc/stm32g4xx_ll_dma.h **** #ifndef __STM32G4xx_LL_DMA_H
  22:Drivers/STM32G4xx_HAL_Driver/Inc/stm32g4xx_ll_dma.h **** #define __STM32G4xx_LL_DMA_H
  23:Drivers/STM32G4xx_HAL_Driver/Inc/stm32g4xx_ll_dma.h **** 
  24:Drivers/STM32G4xx_HAL_Driver/Inc/stm32g4xx_ll_dma.h **** #ifdef __cplusplus
  25:Drivers/STM32G4xx_HAL_Driver/Inc/stm32g4xx_ll_dma.h **** extern "C" {
  26:Drivers/STM32G4xx_HAL_Driver/Inc/stm32g4xx_ll_dma.h **** #endif
  27:Drivers/STM32G4xx_HAL_Driver/Inc/stm32g4xx_ll_dma.h **** 
  28:Drivers/STM32G4xx_HAL_Driver/Inc/stm32g4xx_ll_dma.h **** /* Includes ------------------------------------------------------------------*/
  29:Drivers/STM32G4xx_HAL_Driver/Inc/stm32g4xx_ll_dma.h **** #include "stm32g4xx.h"
  30:Drivers/STM32G4xx_HAL_Driver/Inc/stm32g4xx_ll_dma.h **** #include "stm32g4xx_ll_dmamux.h"
  31:Drivers/STM32G4xx_HAL_Driver/Inc/stm32g4xx_ll_dma.h **** 
  32:Drivers/STM32G4xx_HAL_Driver/Inc/stm32g4xx_ll_dma.h **** /** @addtogroup STM32G4xx_LL_Driver
  33:Drivers/STM32G4xx_HAL_Driver/Inc/stm32g4xx_ll_dma.h ****   * @{
  34:Drivers/STM32G4xx_HAL_Driver/Inc/stm32g4xx_ll_dma.h ****   */
  35:Drivers/STM32G4xx_HAL_Driver/Inc/stm32g4xx_ll_dma.h **** 
  36:Drivers/STM32G4xx_HAL_Driver/Inc/stm32g4xx_ll_dma.h **** #if defined (DMA1) || defined (DMA2)
  37:Drivers/STM32G4xx_HAL_Driver/Inc/stm32g4xx_ll_dma.h **** 
  38:Drivers/STM32G4xx_HAL_Driver/Inc/stm32g4xx_ll_dma.h **** /** @defgroup DMA_LL DMA
  39:Drivers/STM32G4xx_HAL_Driver/Inc/stm32g4xx_ll_dma.h ****   * @{
  40:Drivers/STM32G4xx_HAL_Driver/Inc/stm32g4xx_ll_dma.h ****   */
  41:Drivers/STM32G4xx_HAL_Driver/Inc/stm32g4xx_ll_dma.h **** 
  42:Drivers/STM32G4xx_HAL_Driver/Inc/stm32g4xx_ll_dma.h **** /* Private types -------------------------------------------------------------*/
  43:Drivers/STM32G4xx_HAL_Driver/Inc/stm32g4xx_ll_dma.h **** /* Private variables ---------------------------------------------------------*/
  44:Drivers/STM32G4xx_HAL_Driver/Inc/stm32g4xx_ll_dma.h **** /** @defgroup DMA_LL_Private_Variables DMA Private Variables
  45:Drivers/STM32G4xx_HAL_Driver/Inc/stm32g4xx_ll_dma.h ****   * @{
  46:Drivers/STM32G4xx_HAL_Driver/Inc/stm32g4xx_ll_dma.h ****   */
  47:Drivers/STM32G4xx_HAL_Driver/Inc/stm32g4xx_ll_dma.h **** /* Array used to get the DMA channel register offset versus channel index LL_DMA_CHANNEL_x */
  48:Drivers/STM32G4xx_HAL_Driver/Inc/stm32g4xx_ll_dma.h **** static const uint8_t CHANNEL_OFFSET_TAB[] =
  49:Drivers/STM32G4xx_HAL_Driver/Inc/stm32g4xx_ll_dma.h **** {
  50:Drivers/STM32G4xx_HAL_Driver/Inc/stm32g4xx_ll_dma.h ****   (uint8_t)(DMA1_Channel1_BASE - DMA1_BASE),
  51:Drivers/STM32G4xx_HAL_Driver/Inc/stm32g4xx_ll_dma.h ****   (uint8_t)(DMA1_Channel2_BASE - DMA1_BASE),
  52:Drivers/STM32G4xx_HAL_Driver/Inc/stm32g4xx_ll_dma.h ****   (uint8_t)(DMA1_Channel3_BASE - DMA1_BASE),
  53:Drivers/STM32G4xx_HAL_Driver/Inc/stm32g4xx_ll_dma.h ****   (uint8_t)(DMA1_Channel4_BASE - DMA1_BASE),
  54:Drivers/STM32G4xx_HAL_Driver/Inc/stm32g4xx_ll_dma.h ****   (uint8_t)(DMA1_Channel5_BASE - DMA1_BASE),
  55:Drivers/STM32G4xx_HAL_Driver/Inc/stm32g4xx_ll_dma.h ****   (uint8_t)(DMA1_Channel6_BASE - DMA1_BASE)
  56:Drivers/STM32G4xx_HAL_Driver/Inc/stm32g4xx_ll_dma.h **** #if defined (DMA1_Channel7)
  57:Drivers/STM32G4xx_HAL_Driver/Inc/stm32g4xx_ll_dma.h ****   ,
  58:Drivers/STM32G4xx_HAL_Driver/Inc/stm32g4xx_ll_dma.h ****   (uint8_t)(DMA1_Channel7_BASE - DMA1_BASE)
  59:Drivers/STM32G4xx_HAL_Driver/Inc/stm32g4xx_ll_dma.h **** #endif /* DMA1_Channel7 */
  60:Drivers/STM32G4xx_HAL_Driver/Inc/stm32g4xx_ll_dma.h **** #if defined (DMA1_Channel8)
  61:Drivers/STM32G4xx_HAL_Driver/Inc/stm32g4xx_ll_dma.h ****   ,
  62:Drivers/STM32G4xx_HAL_Driver/Inc/stm32g4xx_ll_dma.h ****   (uint8_t)(DMA1_Channel8_BASE - DMA1_BASE)
  63:Drivers/STM32G4xx_HAL_Driver/Inc/stm32g4xx_ll_dma.h **** #endif /* DMA1_Channel8 */
  64:Drivers/STM32G4xx_HAL_Driver/Inc/stm32g4xx_ll_dma.h **** };
  65:Drivers/STM32G4xx_HAL_Driver/Inc/stm32g4xx_ll_dma.h **** /**
  66:Drivers/STM32G4xx_HAL_Driver/Inc/stm32g4xx_ll_dma.h ****   * @}
  67:Drivers/STM32G4xx_HAL_Driver/Inc/stm32g4xx_ll_dma.h ****   */
  68:Drivers/STM32G4xx_HAL_Driver/Inc/stm32g4xx_ll_dma.h **** 
  69:Drivers/STM32G4xx_HAL_Driver/Inc/stm32g4xx_ll_dma.h **** /* Private constants ---------------------------------------------------------*/
  70:Drivers/STM32G4xx_HAL_Driver/Inc/stm32g4xx_ll_dma.h **** /** @defgroup DMA_LL_Private_Constants DMA Private Constants
  71:Drivers/STM32G4xx_HAL_Driver/Inc/stm32g4xx_ll_dma.h ****   * @{
  72:Drivers/STM32G4xx_HAL_Driver/Inc/stm32g4xx_ll_dma.h ****   */
  73:Drivers/STM32G4xx_HAL_Driver/Inc/stm32g4xx_ll_dma.h **** /* Define used to get CSELR register offset */
  74:Drivers/STM32G4xx_HAL_Driver/Inc/stm32g4xx_ll_dma.h **** #define DMA_CSELR_OFFSET                  (uint32_t)(DMA1_CSELR_BASE - DMA1_BASE)
  75:Drivers/STM32G4xx_HAL_Driver/Inc/stm32g4xx_ll_dma.h **** 
  76:Drivers/STM32G4xx_HAL_Driver/Inc/stm32g4xx_ll_dma.h **** /* Defines used for the bit position in the register and perform offsets */
  77:Drivers/STM32G4xx_HAL_Driver/Inc/stm32g4xx_ll_dma.h **** #define DMA_POSITION_CSELR_CXS            POSITION_VAL(DMA_CSELR_C1S << ((Channel-1U)*4U))
ARM GAS  D:\apps\VSCode\data\tmp\ccESTIAN.s 			page 3


  78:Drivers/STM32G4xx_HAL_Driver/Inc/stm32g4xx_ll_dma.h **** /**
  79:Drivers/STM32G4xx_HAL_Driver/Inc/stm32g4xx_ll_dma.h ****   * @}
  80:Drivers/STM32G4xx_HAL_Driver/Inc/stm32g4xx_ll_dma.h ****   */
  81:Drivers/STM32G4xx_HAL_Driver/Inc/stm32g4xx_ll_dma.h **** 
  82:Drivers/STM32G4xx_HAL_Driver/Inc/stm32g4xx_ll_dma.h **** /* Private macros ------------------------------------------------------------*/
  83:Drivers/STM32G4xx_HAL_Driver/Inc/stm32g4xx_ll_dma.h **** #if defined(USE_FULL_LL_DRIVER)
  84:Drivers/STM32G4xx_HAL_Driver/Inc/stm32g4xx_ll_dma.h **** /** @defgroup DMA_LL_Private_Macros DMA Private Macros
  85:Drivers/STM32G4xx_HAL_Driver/Inc/stm32g4xx_ll_dma.h ****   * @{
  86:Drivers/STM32G4xx_HAL_Driver/Inc/stm32g4xx_ll_dma.h ****   */
  87:Drivers/STM32G4xx_HAL_Driver/Inc/stm32g4xx_ll_dma.h **** /**
  88:Drivers/STM32G4xx_HAL_Driver/Inc/stm32g4xx_ll_dma.h ****   * @}
  89:Drivers/STM32G4xx_HAL_Driver/Inc/stm32g4xx_ll_dma.h ****   */
  90:Drivers/STM32G4xx_HAL_Driver/Inc/stm32g4xx_ll_dma.h **** #endif /*USE_FULL_LL_DRIVER*/
  91:Drivers/STM32G4xx_HAL_Driver/Inc/stm32g4xx_ll_dma.h **** 
  92:Drivers/STM32G4xx_HAL_Driver/Inc/stm32g4xx_ll_dma.h **** /* Exported types ------------------------------------------------------------*/
  93:Drivers/STM32G4xx_HAL_Driver/Inc/stm32g4xx_ll_dma.h **** #if defined(USE_FULL_LL_DRIVER)
  94:Drivers/STM32G4xx_HAL_Driver/Inc/stm32g4xx_ll_dma.h **** /** @defgroup DMA_LL_ES_INIT DMA Exported Init structure
  95:Drivers/STM32G4xx_HAL_Driver/Inc/stm32g4xx_ll_dma.h ****   * @{
  96:Drivers/STM32G4xx_HAL_Driver/Inc/stm32g4xx_ll_dma.h ****   */
  97:Drivers/STM32G4xx_HAL_Driver/Inc/stm32g4xx_ll_dma.h **** typedef struct
  98:Drivers/STM32G4xx_HAL_Driver/Inc/stm32g4xx_ll_dma.h **** {
  99:Drivers/STM32G4xx_HAL_Driver/Inc/stm32g4xx_ll_dma.h ****   uint32_t PeriphOrM2MSrcAddress;  /*!< Specifies the peripheral base address for DMA transfer
 100:Drivers/STM32G4xx_HAL_Driver/Inc/stm32g4xx_ll_dma.h ****                                         or as Source base address in case of memory to memory trans
 101:Drivers/STM32G4xx_HAL_Driver/Inc/stm32g4xx_ll_dma.h **** 
 102:Drivers/STM32G4xx_HAL_Driver/Inc/stm32g4xx_ll_dma.h ****                                         This parameter must be a value between Min_Data = 0 and Max
 103:Drivers/STM32G4xx_HAL_Driver/Inc/stm32g4xx_ll_dma.h **** 
 104:Drivers/STM32G4xx_HAL_Driver/Inc/stm32g4xx_ll_dma.h ****   uint32_t MemoryOrM2MDstAddress;  /*!< Specifies the memory base address for DMA transfer
 105:Drivers/STM32G4xx_HAL_Driver/Inc/stm32g4xx_ll_dma.h ****                                         or as Destination base address in case of memory to memory 
 106:Drivers/STM32G4xx_HAL_Driver/Inc/stm32g4xx_ll_dma.h **** 
 107:Drivers/STM32G4xx_HAL_Driver/Inc/stm32g4xx_ll_dma.h ****                                         This parameter must be a value between Min_Data = 0 and Max
 108:Drivers/STM32G4xx_HAL_Driver/Inc/stm32g4xx_ll_dma.h **** 
 109:Drivers/STM32G4xx_HAL_Driver/Inc/stm32g4xx_ll_dma.h ****   uint32_t Direction;              /*!< Specifies if the data will be transferred from memory to pe
 110:Drivers/STM32G4xx_HAL_Driver/Inc/stm32g4xx_ll_dma.h ****                                         from memory to memory or from peripheral to memory.
 111:Drivers/STM32G4xx_HAL_Driver/Inc/stm32g4xx_ll_dma.h ****                                         This parameter can be a value of @ref DMA_LL_EC_DIRECTION
 112:Drivers/STM32G4xx_HAL_Driver/Inc/stm32g4xx_ll_dma.h **** 
 113:Drivers/STM32G4xx_HAL_Driver/Inc/stm32g4xx_ll_dma.h ****                                         This feature can be modified afterwards using unitary funct
 114:Drivers/STM32G4xx_HAL_Driver/Inc/stm32g4xx_ll_dma.h **** 
 115:Drivers/STM32G4xx_HAL_Driver/Inc/stm32g4xx_ll_dma.h ****   uint32_t Mode;                   /*!< Specifies the normal or circular operation mode.
 116:Drivers/STM32G4xx_HAL_Driver/Inc/stm32g4xx_ll_dma.h ****                                         This parameter can be a value of @ref DMA_LL_EC_MODE
 117:Drivers/STM32G4xx_HAL_Driver/Inc/stm32g4xx_ll_dma.h ****                                         @note: The circular buffer mode cannot be used if the memor
 118:Drivers/STM32G4xx_HAL_Driver/Inc/stm32g4xx_ll_dma.h ****                                                data transfer direction is configured on the selecte
 119:Drivers/STM32G4xx_HAL_Driver/Inc/stm32g4xx_ll_dma.h **** 
 120:Drivers/STM32G4xx_HAL_Driver/Inc/stm32g4xx_ll_dma.h ****                                         This feature can be modified afterwards using unitary funct
 121:Drivers/STM32G4xx_HAL_Driver/Inc/stm32g4xx_ll_dma.h **** 
 122:Drivers/STM32G4xx_HAL_Driver/Inc/stm32g4xx_ll_dma.h ****   uint32_t PeriphOrM2MSrcIncMode;  /*!< Specifies whether the Peripheral address or Source address 
 123:Drivers/STM32G4xx_HAL_Driver/Inc/stm32g4xx_ll_dma.h ****                                         is incremented or not.
 124:Drivers/STM32G4xx_HAL_Driver/Inc/stm32g4xx_ll_dma.h ****                                         This parameter can be a value of @ref DMA_LL_EC_PERIPH
 125:Drivers/STM32G4xx_HAL_Driver/Inc/stm32g4xx_ll_dma.h **** 
 126:Drivers/STM32G4xx_HAL_Driver/Inc/stm32g4xx_ll_dma.h ****                                         This feature can be modified afterwards using unitary funct
 127:Drivers/STM32G4xx_HAL_Driver/Inc/stm32g4xx_ll_dma.h **** 
 128:Drivers/STM32G4xx_HAL_Driver/Inc/stm32g4xx_ll_dma.h ****   uint32_t MemoryOrM2MDstIncMode;  /*!< Specifies whether the Memory address or Destination address
 129:Drivers/STM32G4xx_HAL_Driver/Inc/stm32g4xx_ll_dma.h ****                                         is incremented or not.
 130:Drivers/STM32G4xx_HAL_Driver/Inc/stm32g4xx_ll_dma.h ****                                         This parameter can be a value of @ref DMA_LL_EC_MEMORY
 131:Drivers/STM32G4xx_HAL_Driver/Inc/stm32g4xx_ll_dma.h **** 
 132:Drivers/STM32G4xx_HAL_Driver/Inc/stm32g4xx_ll_dma.h ****                                         This feature can be modified afterwards using unitary funct
 133:Drivers/STM32G4xx_HAL_Driver/Inc/stm32g4xx_ll_dma.h **** 
 134:Drivers/STM32G4xx_HAL_Driver/Inc/stm32g4xx_ll_dma.h ****   uint32_t PeriphOrM2MSrcDataSize; /*!< Specifies the Peripheral data size alignment or Source data
ARM GAS  D:\apps\VSCode\data\tmp\ccESTIAN.s 			page 4


 135:Drivers/STM32G4xx_HAL_Driver/Inc/stm32g4xx_ll_dma.h ****                                         in case of memory to memory transfer direction.
 136:Drivers/STM32G4xx_HAL_Driver/Inc/stm32g4xx_ll_dma.h ****                                         This parameter can be a value of @ref DMA_LL_EC_PDATAALIGN
 137:Drivers/STM32G4xx_HAL_Driver/Inc/stm32g4xx_ll_dma.h **** 
 138:Drivers/STM32G4xx_HAL_Driver/Inc/stm32g4xx_ll_dma.h ****                                         This feature can be modified afterwards using unitary funct
 139:Drivers/STM32G4xx_HAL_Driver/Inc/stm32g4xx_ll_dma.h **** 
 140:Drivers/STM32G4xx_HAL_Driver/Inc/stm32g4xx_ll_dma.h ****   uint32_t MemoryOrM2MDstDataSize; /*!< Specifies the Memory data size alignment or Destination dat
 141:Drivers/STM32G4xx_HAL_Driver/Inc/stm32g4xx_ll_dma.h ****                                         in case of memory to memory transfer direction.
 142:Drivers/STM32G4xx_HAL_Driver/Inc/stm32g4xx_ll_dma.h ****                                         This parameter can be a value of @ref DMA_LL_EC_MDATAALIGN
 143:Drivers/STM32G4xx_HAL_Driver/Inc/stm32g4xx_ll_dma.h **** 
 144:Drivers/STM32G4xx_HAL_Driver/Inc/stm32g4xx_ll_dma.h ****                                         This feature can be modified afterwards using unitary funct
 145:Drivers/STM32G4xx_HAL_Driver/Inc/stm32g4xx_ll_dma.h **** 
 146:Drivers/STM32G4xx_HAL_Driver/Inc/stm32g4xx_ll_dma.h ****   uint32_t NbData;                 /*!< Specifies the number of data to transfer, in data unit.
 147:Drivers/STM32G4xx_HAL_Driver/Inc/stm32g4xx_ll_dma.h ****                                         The data unit is equal to the source buffer configuration s
 148:Drivers/STM32G4xx_HAL_Driver/Inc/stm32g4xx_ll_dma.h ****                                         or MemorySize parameters depending in the transfer directio
 149:Drivers/STM32G4xx_HAL_Driver/Inc/stm32g4xx_ll_dma.h ****                                         This parameter must be a value between Min_Data = 0 and Max
 150:Drivers/STM32G4xx_HAL_Driver/Inc/stm32g4xx_ll_dma.h **** 
 151:Drivers/STM32G4xx_HAL_Driver/Inc/stm32g4xx_ll_dma.h ****                                         This feature can be modified afterwards using unitary funct
 152:Drivers/STM32G4xx_HAL_Driver/Inc/stm32g4xx_ll_dma.h **** 
 153:Drivers/STM32G4xx_HAL_Driver/Inc/stm32g4xx_ll_dma.h ****   uint32_t PeriphRequest;          /*!< Specifies the peripheral request.
 154:Drivers/STM32G4xx_HAL_Driver/Inc/stm32g4xx_ll_dma.h ****                                         This parameter can be a value of @ref DMAMUX_LL_EC_REQUEST
 155:Drivers/STM32G4xx_HAL_Driver/Inc/stm32g4xx_ll_dma.h **** 
 156:Drivers/STM32G4xx_HAL_Driver/Inc/stm32g4xx_ll_dma.h ****                                         This feature can be modified afterwards using unitary funct
 157:Drivers/STM32G4xx_HAL_Driver/Inc/stm32g4xx_ll_dma.h **** 
 158:Drivers/STM32G4xx_HAL_Driver/Inc/stm32g4xx_ll_dma.h ****   uint32_t Priority;               /*!< Specifies the channel priority level.
 159:Drivers/STM32G4xx_HAL_Driver/Inc/stm32g4xx_ll_dma.h ****                                         This parameter can be a value of @ref DMA_LL_EC_PRIORITY
 160:Drivers/STM32G4xx_HAL_Driver/Inc/stm32g4xx_ll_dma.h **** 
 161:Drivers/STM32G4xx_HAL_Driver/Inc/stm32g4xx_ll_dma.h ****                                         This feature can be modified afterwards using unitary funct
 162:Drivers/STM32G4xx_HAL_Driver/Inc/stm32g4xx_ll_dma.h **** 
 163:Drivers/STM32G4xx_HAL_Driver/Inc/stm32g4xx_ll_dma.h **** } LL_DMA_InitTypeDef;
 164:Drivers/STM32G4xx_HAL_Driver/Inc/stm32g4xx_ll_dma.h **** /**
 165:Drivers/STM32G4xx_HAL_Driver/Inc/stm32g4xx_ll_dma.h ****   * @}
 166:Drivers/STM32G4xx_HAL_Driver/Inc/stm32g4xx_ll_dma.h ****   */
 167:Drivers/STM32G4xx_HAL_Driver/Inc/stm32g4xx_ll_dma.h **** #endif /*USE_FULL_LL_DRIVER*/
 168:Drivers/STM32G4xx_HAL_Driver/Inc/stm32g4xx_ll_dma.h **** 
 169:Drivers/STM32G4xx_HAL_Driver/Inc/stm32g4xx_ll_dma.h **** /* Exported constants --------------------------------------------------------*/
 170:Drivers/STM32G4xx_HAL_Driver/Inc/stm32g4xx_ll_dma.h **** /** @defgroup DMA_LL_Exported_Constants DMA Exported Constants
 171:Drivers/STM32G4xx_HAL_Driver/Inc/stm32g4xx_ll_dma.h ****   * @{
 172:Drivers/STM32G4xx_HAL_Driver/Inc/stm32g4xx_ll_dma.h ****   */
 173:Drivers/STM32G4xx_HAL_Driver/Inc/stm32g4xx_ll_dma.h **** /** @defgroup DMA_LL_EC_CLEAR_FLAG Clear Flags Defines
 174:Drivers/STM32G4xx_HAL_Driver/Inc/stm32g4xx_ll_dma.h ****   * @brief    Flags defines which can be used with LL_DMA_WriteReg function
 175:Drivers/STM32G4xx_HAL_Driver/Inc/stm32g4xx_ll_dma.h ****   * @{
 176:Drivers/STM32G4xx_HAL_Driver/Inc/stm32g4xx_ll_dma.h ****   */
 177:Drivers/STM32G4xx_HAL_Driver/Inc/stm32g4xx_ll_dma.h **** #define LL_DMA_IFCR_CGIF1                 DMA_IFCR_CGIF1        /*!< Channel 1 global flag         
 178:Drivers/STM32G4xx_HAL_Driver/Inc/stm32g4xx_ll_dma.h **** #define LL_DMA_IFCR_CTCIF1                DMA_IFCR_CTCIF1       /*!< Channel 1 transfer complete fl
 179:Drivers/STM32G4xx_HAL_Driver/Inc/stm32g4xx_ll_dma.h **** #define LL_DMA_IFCR_CHTIF1                DMA_IFCR_CHTIF1       /*!< Channel 1 half transfer flag  
 180:Drivers/STM32G4xx_HAL_Driver/Inc/stm32g4xx_ll_dma.h **** #define LL_DMA_IFCR_CTEIF1                DMA_IFCR_CTEIF1       /*!< Channel 1 transfer error flag 
 181:Drivers/STM32G4xx_HAL_Driver/Inc/stm32g4xx_ll_dma.h **** #define LL_DMA_IFCR_CGIF2                 DMA_IFCR_CGIF2        /*!< Channel 2 global flag         
 182:Drivers/STM32G4xx_HAL_Driver/Inc/stm32g4xx_ll_dma.h **** #define LL_DMA_IFCR_CTCIF2                DMA_IFCR_CTCIF2       /*!< Channel 2 transfer complete fl
 183:Drivers/STM32G4xx_HAL_Driver/Inc/stm32g4xx_ll_dma.h **** #define LL_DMA_IFCR_CHTIF2                DMA_IFCR_CHTIF2       /*!< Channel 2 half transfer flag  
 184:Drivers/STM32G4xx_HAL_Driver/Inc/stm32g4xx_ll_dma.h **** #define LL_DMA_IFCR_CTEIF2                DMA_IFCR_CTEIF2       /*!< Channel 2 transfer error flag 
 185:Drivers/STM32G4xx_HAL_Driver/Inc/stm32g4xx_ll_dma.h **** #define LL_DMA_IFCR_CGIF3                 DMA_IFCR_CGIF3        /*!< Channel 3 global flag         
 186:Drivers/STM32G4xx_HAL_Driver/Inc/stm32g4xx_ll_dma.h **** #define LL_DMA_IFCR_CTCIF3                DMA_IFCR_CTCIF3       /*!< Channel 3 transfer complete fl
 187:Drivers/STM32G4xx_HAL_Driver/Inc/stm32g4xx_ll_dma.h **** #define LL_DMA_IFCR_CHTIF3                DMA_IFCR_CHTIF3       /*!< Channel 3 half transfer flag  
 188:Drivers/STM32G4xx_HAL_Driver/Inc/stm32g4xx_ll_dma.h **** #define LL_DMA_IFCR_CTEIF3                DMA_IFCR_CTEIF3       /*!< Channel 3 transfer error flag 
 189:Drivers/STM32G4xx_HAL_Driver/Inc/stm32g4xx_ll_dma.h **** #define LL_DMA_IFCR_CGIF4                 DMA_IFCR_CGIF4        /*!< Channel 4 global flag         
 190:Drivers/STM32G4xx_HAL_Driver/Inc/stm32g4xx_ll_dma.h **** #define LL_DMA_IFCR_CTCIF4                DMA_IFCR_CTCIF4       /*!< Channel 4 transfer complete fl
 191:Drivers/STM32G4xx_HAL_Driver/Inc/stm32g4xx_ll_dma.h **** #define LL_DMA_IFCR_CHTIF4                DMA_IFCR_CHTIF4       /*!< Channel 4 half transfer flag  
ARM GAS  D:\apps\VSCode\data\tmp\ccESTIAN.s 			page 5


 192:Drivers/STM32G4xx_HAL_Driver/Inc/stm32g4xx_ll_dma.h **** #define LL_DMA_IFCR_CTEIF4                DMA_IFCR_CTEIF4       /*!< Channel 4 transfer error flag 
 193:Drivers/STM32G4xx_HAL_Driver/Inc/stm32g4xx_ll_dma.h **** #define LL_DMA_IFCR_CGIF5                 DMA_IFCR_CGIF5        /*!< Channel 5 global flag         
 194:Drivers/STM32G4xx_HAL_Driver/Inc/stm32g4xx_ll_dma.h **** #define LL_DMA_IFCR_CTCIF5                DMA_IFCR_CTCIF5       /*!< Channel 5 transfer complete fl
 195:Drivers/STM32G4xx_HAL_Driver/Inc/stm32g4xx_ll_dma.h **** #define LL_DMA_IFCR_CHTIF5                DMA_IFCR_CHTIF5       /*!< Channel 5 half transfer flag  
 196:Drivers/STM32G4xx_HAL_Driver/Inc/stm32g4xx_ll_dma.h **** #define LL_DMA_IFCR_CTEIF5                DMA_IFCR_CTEIF5       /*!< Channel 5 transfer error flag 
 197:Drivers/STM32G4xx_HAL_Driver/Inc/stm32g4xx_ll_dma.h **** #define LL_DMA_IFCR_CGIF6                 DMA_IFCR_CGIF6        /*!< Channel 6 global flag         
 198:Drivers/STM32G4xx_HAL_Driver/Inc/stm32g4xx_ll_dma.h **** #define LL_DMA_IFCR_CTCIF6                DMA_IFCR_CTCIF6       /*!< Channel 6 transfer complete fl
 199:Drivers/STM32G4xx_HAL_Driver/Inc/stm32g4xx_ll_dma.h **** #define LL_DMA_IFCR_CHTIF6                DMA_IFCR_CHTIF6       /*!< Channel 6 half transfer flag  
 200:Drivers/STM32G4xx_HAL_Driver/Inc/stm32g4xx_ll_dma.h **** #define LL_DMA_IFCR_CTEIF6                DMA_IFCR_CTEIF6       /*!< Channel 6 transfer error flag 
 201:Drivers/STM32G4xx_HAL_Driver/Inc/stm32g4xx_ll_dma.h **** #if defined (DMA1_Channel7)
 202:Drivers/STM32G4xx_HAL_Driver/Inc/stm32g4xx_ll_dma.h **** #define LL_DMA_IFCR_CGIF7                 DMA_IFCR_CGIF7        /*!< Channel 7 global flag         
 203:Drivers/STM32G4xx_HAL_Driver/Inc/stm32g4xx_ll_dma.h **** #define LL_DMA_IFCR_CTCIF7                DMA_IFCR_CTCIF7       /*!< Channel 7 transfer complete fl
 204:Drivers/STM32G4xx_HAL_Driver/Inc/stm32g4xx_ll_dma.h **** #define LL_DMA_IFCR_CHTIF7                DMA_IFCR_CHTIF7       /*!< Channel 7 half transfer flag  
 205:Drivers/STM32G4xx_HAL_Driver/Inc/stm32g4xx_ll_dma.h **** #define LL_DMA_IFCR_CTEIF7                DMA_IFCR_CTEIF7       /*!< Channel 7 transfer error flag 
 206:Drivers/STM32G4xx_HAL_Driver/Inc/stm32g4xx_ll_dma.h **** #endif /* DMA1_Channel7 */
 207:Drivers/STM32G4xx_HAL_Driver/Inc/stm32g4xx_ll_dma.h **** #if defined (DMA1_Channel8)
 208:Drivers/STM32G4xx_HAL_Driver/Inc/stm32g4xx_ll_dma.h **** #define LL_DMA_IFCR_CGIF8                 DMA_IFCR_CGIF8        /*!< Channel 8 global flag         
 209:Drivers/STM32G4xx_HAL_Driver/Inc/stm32g4xx_ll_dma.h **** #define LL_DMA_IFCR_CTCIF8                DMA_IFCR_CTCIF8       /*!< Channel 8 transfer complete fl
 210:Drivers/STM32G4xx_HAL_Driver/Inc/stm32g4xx_ll_dma.h **** #define LL_DMA_IFCR_CHTIF8                DMA_IFCR_CHTIF8       /*!< Channel 8 half transfer flag  
 211:Drivers/STM32G4xx_HAL_Driver/Inc/stm32g4xx_ll_dma.h **** #define LL_DMA_IFCR_CTEIF8                DMA_IFCR_CTEIF8       /*!< Channel 8 transfer error flag 
 212:Drivers/STM32G4xx_HAL_Driver/Inc/stm32g4xx_ll_dma.h **** #endif /* DMA1_Channel8 */
 213:Drivers/STM32G4xx_HAL_Driver/Inc/stm32g4xx_ll_dma.h **** /**
 214:Drivers/STM32G4xx_HAL_Driver/Inc/stm32g4xx_ll_dma.h ****   * @}
 215:Drivers/STM32G4xx_HAL_Driver/Inc/stm32g4xx_ll_dma.h ****   */
 216:Drivers/STM32G4xx_HAL_Driver/Inc/stm32g4xx_ll_dma.h **** 
 217:Drivers/STM32G4xx_HAL_Driver/Inc/stm32g4xx_ll_dma.h **** /** @defgroup DMA_LL_EC_GET_FLAG Get Flags Defines
 218:Drivers/STM32G4xx_HAL_Driver/Inc/stm32g4xx_ll_dma.h ****   * @brief    Flags defines which can be used with LL_DMA_ReadReg function
 219:Drivers/STM32G4xx_HAL_Driver/Inc/stm32g4xx_ll_dma.h ****   * @{
 220:Drivers/STM32G4xx_HAL_Driver/Inc/stm32g4xx_ll_dma.h ****   */
 221:Drivers/STM32G4xx_HAL_Driver/Inc/stm32g4xx_ll_dma.h **** #define LL_DMA_ISR_GIF1                   DMA_ISR_GIF1          /*!< Channel 1 global flag         
 222:Drivers/STM32G4xx_HAL_Driver/Inc/stm32g4xx_ll_dma.h **** #define LL_DMA_ISR_TCIF1                  DMA_ISR_TCIF1         /*!< Channel 1 transfer complete fl
 223:Drivers/STM32G4xx_HAL_Driver/Inc/stm32g4xx_ll_dma.h **** #define LL_DMA_ISR_HTIF1                  DMA_ISR_HTIF1         /*!< Channel 1 half transfer flag  
 224:Drivers/STM32G4xx_HAL_Driver/Inc/stm32g4xx_ll_dma.h **** #define LL_DMA_ISR_TEIF1                  DMA_ISR_TEIF1         /*!< Channel 1 transfer error flag 
 225:Drivers/STM32G4xx_HAL_Driver/Inc/stm32g4xx_ll_dma.h **** #define LL_DMA_ISR_GIF2                   DMA_ISR_GIF2          /*!< Channel 2 global flag         
 226:Drivers/STM32G4xx_HAL_Driver/Inc/stm32g4xx_ll_dma.h **** #define LL_DMA_ISR_TCIF2                  DMA_ISR_TCIF2         /*!< Channel 2 transfer complete fl
 227:Drivers/STM32G4xx_HAL_Driver/Inc/stm32g4xx_ll_dma.h **** #define LL_DMA_ISR_HTIF2                  DMA_ISR_HTIF2         /*!< Channel 2 half transfer flag  
 228:Drivers/STM32G4xx_HAL_Driver/Inc/stm32g4xx_ll_dma.h **** #define LL_DMA_ISR_TEIF2                  DMA_ISR_TEIF2         /*!< Channel 2 transfer error flag 
 229:Drivers/STM32G4xx_HAL_Driver/Inc/stm32g4xx_ll_dma.h **** #define LL_DMA_ISR_GIF3                   DMA_ISR_GIF3          /*!< Channel 3 global flag         
 230:Drivers/STM32G4xx_HAL_Driver/Inc/stm32g4xx_ll_dma.h **** #define LL_DMA_ISR_TCIF3                  DMA_ISR_TCIF3         /*!< Channel 3 transfer complete fl
 231:Drivers/STM32G4xx_HAL_Driver/Inc/stm32g4xx_ll_dma.h **** #define LL_DMA_ISR_HTIF3                  DMA_ISR_HTIF3         /*!< Channel 3 half transfer flag  
 232:Drivers/STM32G4xx_HAL_Driver/Inc/stm32g4xx_ll_dma.h **** #define LL_DMA_ISR_TEIF3                  DMA_ISR_TEIF3         /*!< Channel 3 transfer error flag 
 233:Drivers/STM32G4xx_HAL_Driver/Inc/stm32g4xx_ll_dma.h **** #define LL_DMA_ISR_GIF4                   DMA_ISR_GIF4          /*!< Channel 4 global flag         
 234:Drivers/STM32G4xx_HAL_Driver/Inc/stm32g4xx_ll_dma.h **** #define LL_DMA_ISR_TCIF4                  DMA_ISR_TCIF4         /*!< Channel 4 transfer complete fl
 235:Drivers/STM32G4xx_HAL_Driver/Inc/stm32g4xx_ll_dma.h **** #define LL_DMA_ISR_HTIF4                  DMA_ISR_HTIF4         /*!< Channel 4 half transfer flag  
 236:Drivers/STM32G4xx_HAL_Driver/Inc/stm32g4xx_ll_dma.h **** #define LL_DMA_ISR_TEIF4                  DMA_ISR_TEIF4         /*!< Channel 4 transfer error flag 
 237:Drivers/STM32G4xx_HAL_Driver/Inc/stm32g4xx_ll_dma.h **** #define LL_DMA_ISR_GIF5                   DMA_ISR_GIF5          /*!< Channel 5 global flag         
 238:Drivers/STM32G4xx_HAL_Driver/Inc/stm32g4xx_ll_dma.h **** #define LL_DMA_ISR_TCIF5                  DMA_ISR_TCIF5         /*!< Channel 5 transfer complete fl
 239:Drivers/STM32G4xx_HAL_Driver/Inc/stm32g4xx_ll_dma.h **** #define LL_DMA_ISR_HTIF5                  DMA_ISR_HTIF5         /*!< Channel 5 half transfer flag  
 240:Drivers/STM32G4xx_HAL_Driver/Inc/stm32g4xx_ll_dma.h **** #define LL_DMA_ISR_TEIF5                  DMA_ISR_TEIF5         /*!< Channel 5 transfer error flag 
 241:Drivers/STM32G4xx_HAL_Driver/Inc/stm32g4xx_ll_dma.h **** #define LL_DMA_ISR_GIF6                   DMA_ISR_GIF6          /*!< Channel 6 global flag         
 242:Drivers/STM32G4xx_HAL_Driver/Inc/stm32g4xx_ll_dma.h **** #define LL_DMA_ISR_TCIF6                  DMA_ISR_TCIF6         /*!< Channel 6 transfer complete fl
 243:Drivers/STM32G4xx_HAL_Driver/Inc/stm32g4xx_ll_dma.h **** #define LL_DMA_ISR_HTIF6                  DMA_ISR_HTIF6         /*!< Channel 6 half transfer flag  
 244:Drivers/STM32G4xx_HAL_Driver/Inc/stm32g4xx_ll_dma.h **** #define LL_DMA_ISR_TEIF6                  DMA_ISR_TEIF6         /*!< Channel 6 transfer error flag 
 245:Drivers/STM32G4xx_HAL_Driver/Inc/stm32g4xx_ll_dma.h **** #if defined (DMA1_Channel7)
 246:Drivers/STM32G4xx_HAL_Driver/Inc/stm32g4xx_ll_dma.h **** #define LL_DMA_ISR_GIF7                   DMA_ISR_GIF7          /*!< Channel 7 global flag         
 247:Drivers/STM32G4xx_HAL_Driver/Inc/stm32g4xx_ll_dma.h **** #define LL_DMA_ISR_TCIF7                  DMA_ISR_TCIF7         /*!< Channel 7 transfer complete fl
 248:Drivers/STM32G4xx_HAL_Driver/Inc/stm32g4xx_ll_dma.h **** #define LL_DMA_ISR_HTIF7                  DMA_ISR_HTIF7         /*!< Channel 7 half transfer flag  
ARM GAS  D:\apps\VSCode\data\tmp\ccESTIAN.s 			page 6


 249:Drivers/STM32G4xx_HAL_Driver/Inc/stm32g4xx_ll_dma.h **** #define LL_DMA_ISR_TEIF7                  DMA_ISR_TEIF7         /*!< Channel 7 transfer error flag 
 250:Drivers/STM32G4xx_HAL_Driver/Inc/stm32g4xx_ll_dma.h **** #endif /* DMA1_Channel7 */
 251:Drivers/STM32G4xx_HAL_Driver/Inc/stm32g4xx_ll_dma.h **** #if defined (DMA1_Channel8)
 252:Drivers/STM32G4xx_HAL_Driver/Inc/stm32g4xx_ll_dma.h **** #define LL_DMA_ISR_GIF8                   DMA_ISR_GIF8          /*!< Channel 8 global flag         
 253:Drivers/STM32G4xx_HAL_Driver/Inc/stm32g4xx_ll_dma.h **** #define LL_DMA_ISR_TCIF8                  DMA_ISR_TCIF8         /*!< Channel 8 transfer complete fl
 254:Drivers/STM32G4xx_HAL_Driver/Inc/stm32g4xx_ll_dma.h **** #define LL_DMA_ISR_HTIF8                  DMA_ISR_HTIF8         /*!< Channel 8 half transfer flag  
 255:Drivers/STM32G4xx_HAL_Driver/Inc/stm32g4xx_ll_dma.h **** #define LL_DMA_ISR_TEIF8                  DMA_ISR_TEIF8         /*!< Channel 8 transfer error flag 
 256:Drivers/STM32G4xx_HAL_Driver/Inc/stm32g4xx_ll_dma.h **** #endif /* DMA1_Channel8 */
 257:Drivers/STM32G4xx_HAL_Driver/Inc/stm32g4xx_ll_dma.h **** /**
 258:Drivers/STM32G4xx_HAL_Driver/Inc/stm32g4xx_ll_dma.h ****   * @}
 259:Drivers/STM32G4xx_HAL_Driver/Inc/stm32g4xx_ll_dma.h ****   */
 260:Drivers/STM32G4xx_HAL_Driver/Inc/stm32g4xx_ll_dma.h **** 
 261:Drivers/STM32G4xx_HAL_Driver/Inc/stm32g4xx_ll_dma.h **** /** @defgroup DMA_LL_EC_IT IT Defines
 262:Drivers/STM32G4xx_HAL_Driver/Inc/stm32g4xx_ll_dma.h ****   * @brief    IT defines which can be used with LL_DMA_ReadReg and  LL_DMA_WriteReg functions
 263:Drivers/STM32G4xx_HAL_Driver/Inc/stm32g4xx_ll_dma.h ****   * @{
 264:Drivers/STM32G4xx_HAL_Driver/Inc/stm32g4xx_ll_dma.h ****   */
 265:Drivers/STM32G4xx_HAL_Driver/Inc/stm32g4xx_ll_dma.h **** #define LL_DMA_CCR_TCIE                   DMA_CCR_TCIE          /*!< Transfer complete interrupt */
 266:Drivers/STM32G4xx_HAL_Driver/Inc/stm32g4xx_ll_dma.h **** #define LL_DMA_CCR_HTIE                   DMA_CCR_HTIE          /*!< Half Transfer interrupt     */
 267:Drivers/STM32G4xx_HAL_Driver/Inc/stm32g4xx_ll_dma.h **** #define LL_DMA_CCR_TEIE                   DMA_CCR_TEIE          /*!< Transfer error interrupt    */
 268:Drivers/STM32G4xx_HAL_Driver/Inc/stm32g4xx_ll_dma.h **** /**
 269:Drivers/STM32G4xx_HAL_Driver/Inc/stm32g4xx_ll_dma.h ****   * @}
 270:Drivers/STM32G4xx_HAL_Driver/Inc/stm32g4xx_ll_dma.h ****   */
 271:Drivers/STM32G4xx_HAL_Driver/Inc/stm32g4xx_ll_dma.h **** 
 272:Drivers/STM32G4xx_HAL_Driver/Inc/stm32g4xx_ll_dma.h **** /** @defgroup DMA_LL_EC_CHANNEL CHANNEL
 273:Drivers/STM32G4xx_HAL_Driver/Inc/stm32g4xx_ll_dma.h ****   * @{
 274:Drivers/STM32G4xx_HAL_Driver/Inc/stm32g4xx_ll_dma.h ****   */
 275:Drivers/STM32G4xx_HAL_Driver/Inc/stm32g4xx_ll_dma.h **** #define LL_DMA_CHANNEL_1                  0x00000000U /*!< DMA Channel 1 */
 276:Drivers/STM32G4xx_HAL_Driver/Inc/stm32g4xx_ll_dma.h **** #define LL_DMA_CHANNEL_2                  0x00000001U /*!< DMA Channel 2 */
 277:Drivers/STM32G4xx_HAL_Driver/Inc/stm32g4xx_ll_dma.h **** #define LL_DMA_CHANNEL_3                  0x00000002U /*!< DMA Channel 3 */
 278:Drivers/STM32G4xx_HAL_Driver/Inc/stm32g4xx_ll_dma.h **** #define LL_DMA_CHANNEL_4                  0x00000003U /*!< DMA Channel 4 */
 279:Drivers/STM32G4xx_HAL_Driver/Inc/stm32g4xx_ll_dma.h **** #define LL_DMA_CHANNEL_5                  0x00000004U /*!< DMA Channel 5 */
 280:Drivers/STM32G4xx_HAL_Driver/Inc/stm32g4xx_ll_dma.h **** #define LL_DMA_CHANNEL_6                  0x00000005U /*!< DMA Channel 6 */
 281:Drivers/STM32G4xx_HAL_Driver/Inc/stm32g4xx_ll_dma.h **** #if defined (DMA1_Channel7)
 282:Drivers/STM32G4xx_HAL_Driver/Inc/stm32g4xx_ll_dma.h **** #define LL_DMA_CHANNEL_7                  0x00000006U /*!< DMA Channel 7 */
 283:Drivers/STM32G4xx_HAL_Driver/Inc/stm32g4xx_ll_dma.h **** #endif /* DMA1_Channel7 */
 284:Drivers/STM32G4xx_HAL_Driver/Inc/stm32g4xx_ll_dma.h **** #if defined (DMA1_Channel8)
 285:Drivers/STM32G4xx_HAL_Driver/Inc/stm32g4xx_ll_dma.h **** #define LL_DMA_CHANNEL_8                  0x00000007U /*!< DMA Channel 8 */
 286:Drivers/STM32G4xx_HAL_Driver/Inc/stm32g4xx_ll_dma.h **** #endif /* DMA1_Channel8 */
 287:Drivers/STM32G4xx_HAL_Driver/Inc/stm32g4xx_ll_dma.h **** #if defined(USE_FULL_LL_DRIVER)
 288:Drivers/STM32G4xx_HAL_Driver/Inc/stm32g4xx_ll_dma.h **** #define LL_DMA_CHANNEL_ALL                0xFFFF0000U /*!< DMA Channel all (used only for function 
 289:Drivers/STM32G4xx_HAL_Driver/Inc/stm32g4xx_ll_dma.h **** #endif /*USE_FULL_LL_DRIVER*/
 290:Drivers/STM32G4xx_HAL_Driver/Inc/stm32g4xx_ll_dma.h **** /**
 291:Drivers/STM32G4xx_HAL_Driver/Inc/stm32g4xx_ll_dma.h ****   * @}
 292:Drivers/STM32G4xx_HAL_Driver/Inc/stm32g4xx_ll_dma.h ****   */
 293:Drivers/STM32G4xx_HAL_Driver/Inc/stm32g4xx_ll_dma.h **** 
 294:Drivers/STM32G4xx_HAL_Driver/Inc/stm32g4xx_ll_dma.h **** /** @defgroup DMA_LL_EC_DIRECTION Transfer Direction
 295:Drivers/STM32G4xx_HAL_Driver/Inc/stm32g4xx_ll_dma.h ****   * @{
 296:Drivers/STM32G4xx_HAL_Driver/Inc/stm32g4xx_ll_dma.h ****   */
 297:Drivers/STM32G4xx_HAL_Driver/Inc/stm32g4xx_ll_dma.h **** #define LL_DMA_DIRECTION_PERIPH_TO_MEMORY 0x00000000U             /*!< Peripheral to memory directi
 298:Drivers/STM32G4xx_HAL_Driver/Inc/stm32g4xx_ll_dma.h **** #define LL_DMA_DIRECTION_MEMORY_TO_PERIPH DMA_CCR_DIR             /*!< Memory to peripheral directi
 299:Drivers/STM32G4xx_HAL_Driver/Inc/stm32g4xx_ll_dma.h **** #define LL_DMA_DIRECTION_MEMORY_TO_MEMORY DMA_CCR_MEM2MEM         /*!< Memory to memory direction  
 300:Drivers/STM32G4xx_HAL_Driver/Inc/stm32g4xx_ll_dma.h **** /**
 301:Drivers/STM32G4xx_HAL_Driver/Inc/stm32g4xx_ll_dma.h ****   * @}
 302:Drivers/STM32G4xx_HAL_Driver/Inc/stm32g4xx_ll_dma.h ****   */
 303:Drivers/STM32G4xx_HAL_Driver/Inc/stm32g4xx_ll_dma.h **** 
 304:Drivers/STM32G4xx_HAL_Driver/Inc/stm32g4xx_ll_dma.h **** /** @defgroup DMA_LL_EC_MODE Transfer mode
 305:Drivers/STM32G4xx_HAL_Driver/Inc/stm32g4xx_ll_dma.h ****   * @{
ARM GAS  D:\apps\VSCode\data\tmp\ccESTIAN.s 			page 7


 306:Drivers/STM32G4xx_HAL_Driver/Inc/stm32g4xx_ll_dma.h ****   */
 307:Drivers/STM32G4xx_HAL_Driver/Inc/stm32g4xx_ll_dma.h **** #define LL_DMA_MODE_NORMAL                0x00000000U             /*!< Normal Mode                 
 308:Drivers/STM32G4xx_HAL_Driver/Inc/stm32g4xx_ll_dma.h **** #define LL_DMA_MODE_CIRCULAR              DMA_CCR_CIRC            /*!< Circular Mode               
 309:Drivers/STM32G4xx_HAL_Driver/Inc/stm32g4xx_ll_dma.h **** /**
 310:Drivers/STM32G4xx_HAL_Driver/Inc/stm32g4xx_ll_dma.h ****   * @}
 311:Drivers/STM32G4xx_HAL_Driver/Inc/stm32g4xx_ll_dma.h ****   */
 312:Drivers/STM32G4xx_HAL_Driver/Inc/stm32g4xx_ll_dma.h **** 
 313:Drivers/STM32G4xx_HAL_Driver/Inc/stm32g4xx_ll_dma.h **** /** @defgroup DMA_LL_EC_PERIPH Peripheral increment mode
 314:Drivers/STM32G4xx_HAL_Driver/Inc/stm32g4xx_ll_dma.h ****   * @{
 315:Drivers/STM32G4xx_HAL_Driver/Inc/stm32g4xx_ll_dma.h ****   */
 316:Drivers/STM32G4xx_HAL_Driver/Inc/stm32g4xx_ll_dma.h **** #define LL_DMA_PERIPH_INCREMENT           DMA_CCR_PINC            /*!< Peripheral increment mode En
 317:Drivers/STM32G4xx_HAL_Driver/Inc/stm32g4xx_ll_dma.h **** #define LL_DMA_PERIPH_NOINCREMENT         0x00000000U             /*!< Peripheral increment mode Di
 318:Drivers/STM32G4xx_HAL_Driver/Inc/stm32g4xx_ll_dma.h **** /**
 319:Drivers/STM32G4xx_HAL_Driver/Inc/stm32g4xx_ll_dma.h ****   * @}
 320:Drivers/STM32G4xx_HAL_Driver/Inc/stm32g4xx_ll_dma.h ****   */
 321:Drivers/STM32G4xx_HAL_Driver/Inc/stm32g4xx_ll_dma.h **** 
 322:Drivers/STM32G4xx_HAL_Driver/Inc/stm32g4xx_ll_dma.h **** /** @defgroup DMA_LL_EC_MEMORY Memory increment mode
 323:Drivers/STM32G4xx_HAL_Driver/Inc/stm32g4xx_ll_dma.h ****   * @{
 324:Drivers/STM32G4xx_HAL_Driver/Inc/stm32g4xx_ll_dma.h ****   */
 325:Drivers/STM32G4xx_HAL_Driver/Inc/stm32g4xx_ll_dma.h **** #define LL_DMA_MEMORY_INCREMENT           DMA_CCR_MINC            /*!< Memory increment mode Enable
 326:Drivers/STM32G4xx_HAL_Driver/Inc/stm32g4xx_ll_dma.h **** #define LL_DMA_MEMORY_NOINCREMENT         0x00000000U             /*!< Memory increment mode Disabl
 327:Drivers/STM32G4xx_HAL_Driver/Inc/stm32g4xx_ll_dma.h **** /**
 328:Drivers/STM32G4xx_HAL_Driver/Inc/stm32g4xx_ll_dma.h ****   * @}
 329:Drivers/STM32G4xx_HAL_Driver/Inc/stm32g4xx_ll_dma.h ****   */
 330:Drivers/STM32G4xx_HAL_Driver/Inc/stm32g4xx_ll_dma.h **** 
 331:Drivers/STM32G4xx_HAL_Driver/Inc/stm32g4xx_ll_dma.h **** /** @defgroup DMA_LL_EC_PDATAALIGN Peripheral data alignment
 332:Drivers/STM32G4xx_HAL_Driver/Inc/stm32g4xx_ll_dma.h ****   * @{
 333:Drivers/STM32G4xx_HAL_Driver/Inc/stm32g4xx_ll_dma.h ****   */
 334:Drivers/STM32G4xx_HAL_Driver/Inc/stm32g4xx_ll_dma.h **** #define LL_DMA_PDATAALIGN_BYTE            0x00000000U             /*!< Peripheral data alignment : 
 335:Drivers/STM32G4xx_HAL_Driver/Inc/stm32g4xx_ll_dma.h **** #define LL_DMA_PDATAALIGN_HALFWORD        DMA_CCR_PSIZE_0         /*!< Peripheral data alignment : 
 336:Drivers/STM32G4xx_HAL_Driver/Inc/stm32g4xx_ll_dma.h **** #define LL_DMA_PDATAALIGN_WORD            DMA_CCR_PSIZE_1         /*!< Peripheral data alignment : 
 337:Drivers/STM32G4xx_HAL_Driver/Inc/stm32g4xx_ll_dma.h **** /**
 338:Drivers/STM32G4xx_HAL_Driver/Inc/stm32g4xx_ll_dma.h ****   * @}
 339:Drivers/STM32G4xx_HAL_Driver/Inc/stm32g4xx_ll_dma.h ****   */
 340:Drivers/STM32G4xx_HAL_Driver/Inc/stm32g4xx_ll_dma.h **** 
 341:Drivers/STM32G4xx_HAL_Driver/Inc/stm32g4xx_ll_dma.h **** /** @defgroup DMA_LL_EC_MDATAALIGN Memory data alignment
 342:Drivers/STM32G4xx_HAL_Driver/Inc/stm32g4xx_ll_dma.h ****   * @{
 343:Drivers/STM32G4xx_HAL_Driver/Inc/stm32g4xx_ll_dma.h ****   */
 344:Drivers/STM32G4xx_HAL_Driver/Inc/stm32g4xx_ll_dma.h **** #define LL_DMA_MDATAALIGN_BYTE            0x00000000U             /*!< Memory data alignment : Byte
 345:Drivers/STM32G4xx_HAL_Driver/Inc/stm32g4xx_ll_dma.h **** #define LL_DMA_MDATAALIGN_HALFWORD        DMA_CCR_MSIZE_0         /*!< Memory data alignment : Half
 346:Drivers/STM32G4xx_HAL_Driver/Inc/stm32g4xx_ll_dma.h **** #define LL_DMA_MDATAALIGN_WORD            DMA_CCR_MSIZE_1         /*!< Memory data alignment : Word
 347:Drivers/STM32G4xx_HAL_Driver/Inc/stm32g4xx_ll_dma.h **** /**
 348:Drivers/STM32G4xx_HAL_Driver/Inc/stm32g4xx_ll_dma.h ****   * @}
 349:Drivers/STM32G4xx_HAL_Driver/Inc/stm32g4xx_ll_dma.h ****   */
 350:Drivers/STM32G4xx_HAL_Driver/Inc/stm32g4xx_ll_dma.h **** 
 351:Drivers/STM32G4xx_HAL_Driver/Inc/stm32g4xx_ll_dma.h **** /** @defgroup DMA_LL_EC_PRIORITY Transfer Priority level
 352:Drivers/STM32G4xx_HAL_Driver/Inc/stm32g4xx_ll_dma.h ****   * @{
 353:Drivers/STM32G4xx_HAL_Driver/Inc/stm32g4xx_ll_dma.h ****   */
 354:Drivers/STM32G4xx_HAL_Driver/Inc/stm32g4xx_ll_dma.h **** #define LL_DMA_PRIORITY_LOW               0x00000000U             /*!< Priority level : Low       *
 355:Drivers/STM32G4xx_HAL_Driver/Inc/stm32g4xx_ll_dma.h **** #define LL_DMA_PRIORITY_MEDIUM            DMA_CCR_PL_0            /*!< Priority level : Medium    *
 356:Drivers/STM32G4xx_HAL_Driver/Inc/stm32g4xx_ll_dma.h **** #define LL_DMA_PRIORITY_HIGH              DMA_CCR_PL_1            /*!< Priority level : High      *
 357:Drivers/STM32G4xx_HAL_Driver/Inc/stm32g4xx_ll_dma.h **** #define LL_DMA_PRIORITY_VERYHIGH          DMA_CCR_PL              /*!< Priority level : Very_High *
 358:Drivers/STM32G4xx_HAL_Driver/Inc/stm32g4xx_ll_dma.h **** /**
 359:Drivers/STM32G4xx_HAL_Driver/Inc/stm32g4xx_ll_dma.h ****   * @}
 360:Drivers/STM32G4xx_HAL_Driver/Inc/stm32g4xx_ll_dma.h ****   */
 361:Drivers/STM32G4xx_HAL_Driver/Inc/stm32g4xx_ll_dma.h **** 
 362:Drivers/STM32G4xx_HAL_Driver/Inc/stm32g4xx_ll_dma.h **** /**
ARM GAS  D:\apps\VSCode\data\tmp\ccESTIAN.s 			page 8


 363:Drivers/STM32G4xx_HAL_Driver/Inc/stm32g4xx_ll_dma.h ****   * @}
 364:Drivers/STM32G4xx_HAL_Driver/Inc/stm32g4xx_ll_dma.h ****   */
 365:Drivers/STM32G4xx_HAL_Driver/Inc/stm32g4xx_ll_dma.h **** 
 366:Drivers/STM32G4xx_HAL_Driver/Inc/stm32g4xx_ll_dma.h **** /* Exported macro ------------------------------------------------------------*/
 367:Drivers/STM32G4xx_HAL_Driver/Inc/stm32g4xx_ll_dma.h **** /** @defgroup DMA_LL_Exported_Macros DMA Exported Macros
 368:Drivers/STM32G4xx_HAL_Driver/Inc/stm32g4xx_ll_dma.h ****   * @{
 369:Drivers/STM32G4xx_HAL_Driver/Inc/stm32g4xx_ll_dma.h ****   */
 370:Drivers/STM32G4xx_HAL_Driver/Inc/stm32g4xx_ll_dma.h **** 
 371:Drivers/STM32G4xx_HAL_Driver/Inc/stm32g4xx_ll_dma.h **** /** @defgroup DMA_LL_EM_WRITE_READ Common Write and read registers macros
 372:Drivers/STM32G4xx_HAL_Driver/Inc/stm32g4xx_ll_dma.h ****   * @{
 373:Drivers/STM32G4xx_HAL_Driver/Inc/stm32g4xx_ll_dma.h ****   */
 374:Drivers/STM32G4xx_HAL_Driver/Inc/stm32g4xx_ll_dma.h **** /**
 375:Drivers/STM32G4xx_HAL_Driver/Inc/stm32g4xx_ll_dma.h ****   * @brief  Write a value in DMA register
 376:Drivers/STM32G4xx_HAL_Driver/Inc/stm32g4xx_ll_dma.h ****   * @param  __INSTANCE__ DMA Instance
 377:Drivers/STM32G4xx_HAL_Driver/Inc/stm32g4xx_ll_dma.h ****   * @param  __REG__ Register to be written
 378:Drivers/STM32G4xx_HAL_Driver/Inc/stm32g4xx_ll_dma.h ****   * @param  __VALUE__ Value to be written in the register
 379:Drivers/STM32G4xx_HAL_Driver/Inc/stm32g4xx_ll_dma.h ****   * @retval None
 380:Drivers/STM32G4xx_HAL_Driver/Inc/stm32g4xx_ll_dma.h ****   */
 381:Drivers/STM32G4xx_HAL_Driver/Inc/stm32g4xx_ll_dma.h **** #define LL_DMA_WriteReg(__INSTANCE__, __REG__, __VALUE__) WRITE_REG(__INSTANCE__->__REG__, (__VALUE
 382:Drivers/STM32G4xx_HAL_Driver/Inc/stm32g4xx_ll_dma.h **** 
 383:Drivers/STM32G4xx_HAL_Driver/Inc/stm32g4xx_ll_dma.h **** /**
 384:Drivers/STM32G4xx_HAL_Driver/Inc/stm32g4xx_ll_dma.h ****   * @brief  Read a value in DMA register
 385:Drivers/STM32G4xx_HAL_Driver/Inc/stm32g4xx_ll_dma.h ****   * @param  __INSTANCE__ DMA Instance
 386:Drivers/STM32G4xx_HAL_Driver/Inc/stm32g4xx_ll_dma.h ****   * @param  __REG__ Register to be read
 387:Drivers/STM32G4xx_HAL_Driver/Inc/stm32g4xx_ll_dma.h ****   * @retval Register value
 388:Drivers/STM32G4xx_HAL_Driver/Inc/stm32g4xx_ll_dma.h ****   */
 389:Drivers/STM32G4xx_HAL_Driver/Inc/stm32g4xx_ll_dma.h **** #define LL_DMA_ReadReg(__INSTANCE__, __REG__) READ_REG(__INSTANCE__->__REG__)
 390:Drivers/STM32G4xx_HAL_Driver/Inc/stm32g4xx_ll_dma.h **** /**
 391:Drivers/STM32G4xx_HAL_Driver/Inc/stm32g4xx_ll_dma.h ****   * @}
 392:Drivers/STM32G4xx_HAL_Driver/Inc/stm32g4xx_ll_dma.h ****   */
 393:Drivers/STM32G4xx_HAL_Driver/Inc/stm32g4xx_ll_dma.h **** 
 394:Drivers/STM32G4xx_HAL_Driver/Inc/stm32g4xx_ll_dma.h **** /** @defgroup DMA_LL_EM_CONVERT_DMAxCHANNELy Convert DMAxChannely
 395:Drivers/STM32G4xx_HAL_Driver/Inc/stm32g4xx_ll_dma.h ****   * @{
 396:Drivers/STM32G4xx_HAL_Driver/Inc/stm32g4xx_ll_dma.h ****   */
 397:Drivers/STM32G4xx_HAL_Driver/Inc/stm32g4xx_ll_dma.h **** /**
 398:Drivers/STM32G4xx_HAL_Driver/Inc/stm32g4xx_ll_dma.h ****   * @brief  Convert DMAx_Channely into DMAx
 399:Drivers/STM32G4xx_HAL_Driver/Inc/stm32g4xx_ll_dma.h ****   * @param  __CHANNEL_INSTANCE__ DMAx_Channely
 400:Drivers/STM32G4xx_HAL_Driver/Inc/stm32g4xx_ll_dma.h ****   * @retval DMAx
 401:Drivers/STM32G4xx_HAL_Driver/Inc/stm32g4xx_ll_dma.h ****   */
 402:Drivers/STM32G4xx_HAL_Driver/Inc/stm32g4xx_ll_dma.h **** #if defined (DMA1_Channel8)
 403:Drivers/STM32G4xx_HAL_Driver/Inc/stm32g4xx_ll_dma.h **** #define __LL_DMA_GET_INSTANCE(__CHANNEL_INSTANCE__)   \
 404:Drivers/STM32G4xx_HAL_Driver/Inc/stm32g4xx_ll_dma.h ****   (((uint32_t)(__CHANNEL_INSTANCE__) > ((uint32_t)DMA1_Channel8)) ?  DMA2 : DMA1)
 405:Drivers/STM32G4xx_HAL_Driver/Inc/stm32g4xx_ll_dma.h **** #else
 406:Drivers/STM32G4xx_HAL_Driver/Inc/stm32g4xx_ll_dma.h **** #define __LL_DMA_GET_INSTANCE(__CHANNEL_INSTANCE__)   \
 407:Drivers/STM32G4xx_HAL_Driver/Inc/stm32g4xx_ll_dma.h ****   (((uint32_t)(__CHANNEL_INSTANCE__) > ((uint32_t)DMA1_Channel6)) ?  DMA2 : DMA1)
 408:Drivers/STM32G4xx_HAL_Driver/Inc/stm32g4xx_ll_dma.h **** #endif /* DMA1_Channel8 */
 409:Drivers/STM32G4xx_HAL_Driver/Inc/stm32g4xx_ll_dma.h **** /**
 410:Drivers/STM32G4xx_HAL_Driver/Inc/stm32g4xx_ll_dma.h ****   * @brief  Convert DMAx_Channely into LL_DMA_CHANNEL_y
 411:Drivers/STM32G4xx_HAL_Driver/Inc/stm32g4xx_ll_dma.h ****   * @param  __CHANNEL_INSTANCE__ DMAx_Channely
 412:Drivers/STM32G4xx_HAL_Driver/Inc/stm32g4xx_ll_dma.h ****   * @retval LL_DMA_CHANNEL_y
 413:Drivers/STM32G4xx_HAL_Driver/Inc/stm32g4xx_ll_dma.h ****   */
 414:Drivers/STM32G4xx_HAL_Driver/Inc/stm32g4xx_ll_dma.h **** #if defined (DMA1_Channel8)
 415:Drivers/STM32G4xx_HAL_Driver/Inc/stm32g4xx_ll_dma.h **** #define __LL_DMA_GET_CHANNEL(__CHANNEL_INSTANCE__)   \
 416:Drivers/STM32G4xx_HAL_Driver/Inc/stm32g4xx_ll_dma.h ****   (((uint32_t)(__CHANNEL_INSTANCE__) == ((uint32_t)DMA1_Channel1)) ? LL_DMA_CHANNEL_1 : \
 417:Drivers/STM32G4xx_HAL_Driver/Inc/stm32g4xx_ll_dma.h ****    ((uint32_t)(__CHANNEL_INSTANCE__) == ((uint32_t)DMA2_Channel1)) ? LL_DMA_CHANNEL_1 : \
 418:Drivers/STM32G4xx_HAL_Driver/Inc/stm32g4xx_ll_dma.h ****    ((uint32_t)(__CHANNEL_INSTANCE__) == ((uint32_t)DMA1_Channel2)) ? LL_DMA_CHANNEL_2 : \
 419:Drivers/STM32G4xx_HAL_Driver/Inc/stm32g4xx_ll_dma.h ****    ((uint32_t)(__CHANNEL_INSTANCE__) == ((uint32_t)DMA2_Channel2)) ? LL_DMA_CHANNEL_2 : \
ARM GAS  D:\apps\VSCode\data\tmp\ccESTIAN.s 			page 9


 420:Drivers/STM32G4xx_HAL_Driver/Inc/stm32g4xx_ll_dma.h ****    ((uint32_t)(__CHANNEL_INSTANCE__) == ((uint32_t)DMA1_Channel3)) ? LL_DMA_CHANNEL_3 : \
 421:Drivers/STM32G4xx_HAL_Driver/Inc/stm32g4xx_ll_dma.h ****    ((uint32_t)(__CHANNEL_INSTANCE__) == ((uint32_t)DMA2_Channel3)) ? LL_DMA_CHANNEL_3 : \
 422:Drivers/STM32G4xx_HAL_Driver/Inc/stm32g4xx_ll_dma.h ****    ((uint32_t)(__CHANNEL_INSTANCE__) == ((uint32_t)DMA1_Channel4)) ? LL_DMA_CHANNEL_4 : \
 423:Drivers/STM32G4xx_HAL_Driver/Inc/stm32g4xx_ll_dma.h ****    ((uint32_t)(__CHANNEL_INSTANCE__) == ((uint32_t)DMA2_Channel4)) ? LL_DMA_CHANNEL_4 : \
 424:Drivers/STM32G4xx_HAL_Driver/Inc/stm32g4xx_ll_dma.h ****    ((uint32_t)(__CHANNEL_INSTANCE__) == ((uint32_t)DMA1_Channel5)) ? LL_DMA_CHANNEL_5 : \
 425:Drivers/STM32G4xx_HAL_Driver/Inc/stm32g4xx_ll_dma.h ****    ((uint32_t)(__CHANNEL_INSTANCE__) == ((uint32_t)DMA2_Channel5)) ? LL_DMA_CHANNEL_5 : \
 426:Drivers/STM32G4xx_HAL_Driver/Inc/stm32g4xx_ll_dma.h ****    ((uint32_t)(__CHANNEL_INSTANCE__) == ((uint32_t)DMA1_Channel6)) ? LL_DMA_CHANNEL_6 : \
 427:Drivers/STM32G4xx_HAL_Driver/Inc/stm32g4xx_ll_dma.h ****    ((uint32_t)(__CHANNEL_INSTANCE__) == ((uint32_t)DMA2_Channel6)) ? LL_DMA_CHANNEL_6 : \
 428:Drivers/STM32G4xx_HAL_Driver/Inc/stm32g4xx_ll_dma.h ****    ((uint32_t)(__CHANNEL_INSTANCE__) == ((uint32_t)DMA1_Channel7)) ? LL_DMA_CHANNEL_7 : \
 429:Drivers/STM32G4xx_HAL_Driver/Inc/stm32g4xx_ll_dma.h ****    ((uint32_t)(__CHANNEL_INSTANCE__) == ((uint32_t)DMA2_Channel7)) ? LL_DMA_CHANNEL_7 : \
 430:Drivers/STM32G4xx_HAL_Driver/Inc/stm32g4xx_ll_dma.h ****    LL_DMA_CHANNEL_8)
 431:Drivers/STM32G4xx_HAL_Driver/Inc/stm32g4xx_ll_dma.h **** #else
 432:Drivers/STM32G4xx_HAL_Driver/Inc/stm32g4xx_ll_dma.h **** #define __LL_DMA_GET_CHANNEL(__CHANNEL_INSTANCE__)   \
 433:Drivers/STM32G4xx_HAL_Driver/Inc/stm32g4xx_ll_dma.h ****   (((uint32_t)(__CHANNEL_INSTANCE__) == ((uint32_t)DMA1_Channel1)) ? LL_DMA_CHANNEL_1 : \
 434:Drivers/STM32G4xx_HAL_Driver/Inc/stm32g4xx_ll_dma.h ****    ((uint32_t)(__CHANNEL_INSTANCE__) == ((uint32_t)DMA2_Channel1)) ? LL_DMA_CHANNEL_1 : \
 435:Drivers/STM32G4xx_HAL_Driver/Inc/stm32g4xx_ll_dma.h ****    ((uint32_t)(__CHANNEL_INSTANCE__) == ((uint32_t)DMA1_Channel2)) ? LL_DMA_CHANNEL_2 : \
 436:Drivers/STM32G4xx_HAL_Driver/Inc/stm32g4xx_ll_dma.h ****    ((uint32_t)(__CHANNEL_INSTANCE__) == ((uint32_t)DMA2_Channel2)) ? LL_DMA_CHANNEL_2 : \
 437:Drivers/STM32G4xx_HAL_Driver/Inc/stm32g4xx_ll_dma.h ****    ((uint32_t)(__CHANNEL_INSTANCE__) == ((uint32_t)DMA1_Channel3)) ? LL_DMA_CHANNEL_3 : \
 438:Drivers/STM32G4xx_HAL_Driver/Inc/stm32g4xx_ll_dma.h ****    ((uint32_t)(__CHANNEL_INSTANCE__) == ((uint32_t)DMA2_Channel3)) ? LL_DMA_CHANNEL_3 : \
 439:Drivers/STM32G4xx_HAL_Driver/Inc/stm32g4xx_ll_dma.h ****    ((uint32_t)(__CHANNEL_INSTANCE__) == ((uint32_t)DMA1_Channel4)) ? LL_DMA_CHANNEL_4 : \
 440:Drivers/STM32G4xx_HAL_Driver/Inc/stm32g4xx_ll_dma.h ****    ((uint32_t)(__CHANNEL_INSTANCE__) == ((uint32_t)DMA2_Channel4)) ? LL_DMA_CHANNEL_4 : \
 441:Drivers/STM32G4xx_HAL_Driver/Inc/stm32g4xx_ll_dma.h ****    ((uint32_t)(__CHANNEL_INSTANCE__) == ((uint32_t)DMA1_Channel5)) ? LL_DMA_CHANNEL_5 : \
 442:Drivers/STM32G4xx_HAL_Driver/Inc/stm32g4xx_ll_dma.h ****    ((uint32_t)(__CHANNEL_INSTANCE__) == ((uint32_t)DMA2_Channel5)) ? LL_DMA_CHANNEL_5 : \
 443:Drivers/STM32G4xx_HAL_Driver/Inc/stm32g4xx_ll_dma.h ****    LL_DMA_CHANNEL_6)
 444:Drivers/STM32G4xx_HAL_Driver/Inc/stm32g4xx_ll_dma.h **** #endif /* DMA1_Channel8 */
 445:Drivers/STM32G4xx_HAL_Driver/Inc/stm32g4xx_ll_dma.h **** 
 446:Drivers/STM32G4xx_HAL_Driver/Inc/stm32g4xx_ll_dma.h **** /**
 447:Drivers/STM32G4xx_HAL_Driver/Inc/stm32g4xx_ll_dma.h ****   * @brief  Convert DMA Instance DMAx and LL_DMA_CHANNEL_y into DMAx_Channely
 448:Drivers/STM32G4xx_HAL_Driver/Inc/stm32g4xx_ll_dma.h ****   * @param  __DMA_INSTANCE__ DMAx
 449:Drivers/STM32G4xx_HAL_Driver/Inc/stm32g4xx_ll_dma.h ****   * @param  __CHANNEL__ LL_DMA_CHANNEL_y
 450:Drivers/STM32G4xx_HAL_Driver/Inc/stm32g4xx_ll_dma.h ****   * @retval DMAx_Channely
 451:Drivers/STM32G4xx_HAL_Driver/Inc/stm32g4xx_ll_dma.h ****   */
 452:Drivers/STM32G4xx_HAL_Driver/Inc/stm32g4xx_ll_dma.h **** #if defined (DMA1_Channel8)
 453:Drivers/STM32G4xx_HAL_Driver/Inc/stm32g4xx_ll_dma.h **** #define __LL_DMA_GET_CHANNEL_INSTANCE(__DMA_INSTANCE__, __CHANNEL__)   \
 454:Drivers/STM32G4xx_HAL_Driver/Inc/stm32g4xx_ll_dma.h ****   ((((uint32_t)(__DMA_INSTANCE__) == ((uint32_t)DMA1)) && ((uint32_t)(__CHANNEL__) == ((uint32_t)LL
 455:Drivers/STM32G4xx_HAL_Driver/Inc/stm32g4xx_ll_dma.h ****    (((uint32_t)(__DMA_INSTANCE__) == ((uint32_t)DMA2)) && ((uint32_t)(__CHANNEL__) == ((uint32_t)LL
 456:Drivers/STM32G4xx_HAL_Driver/Inc/stm32g4xx_ll_dma.h ****    (((uint32_t)(__DMA_INSTANCE__) == ((uint32_t)DMA1)) && ((uint32_t)(__CHANNEL__) == ((uint32_t)LL
 457:Drivers/STM32G4xx_HAL_Driver/Inc/stm32g4xx_ll_dma.h ****    (((uint32_t)(__DMA_INSTANCE__) == ((uint32_t)DMA2)) && ((uint32_t)(__CHANNEL__) == ((uint32_t)LL
 458:Drivers/STM32G4xx_HAL_Driver/Inc/stm32g4xx_ll_dma.h ****    (((uint32_t)(__DMA_INSTANCE__) == ((uint32_t)DMA1)) && ((uint32_t)(__CHANNEL__) == ((uint32_t)LL
 459:Drivers/STM32G4xx_HAL_Driver/Inc/stm32g4xx_ll_dma.h ****    (((uint32_t)(__DMA_INSTANCE__) == ((uint32_t)DMA2)) && ((uint32_t)(__CHANNEL__) == ((uint32_t)LL
 460:Drivers/STM32G4xx_HAL_Driver/Inc/stm32g4xx_ll_dma.h ****    (((uint32_t)(__DMA_INSTANCE__) == ((uint32_t)DMA1)) && ((uint32_t)(__CHANNEL__) == ((uint32_t)LL
 461:Drivers/STM32G4xx_HAL_Driver/Inc/stm32g4xx_ll_dma.h ****    (((uint32_t)(__DMA_INSTANCE__) == ((uint32_t)DMA2)) && ((uint32_t)(__CHANNEL__) == ((uint32_t)LL
 462:Drivers/STM32G4xx_HAL_Driver/Inc/stm32g4xx_ll_dma.h ****    (((uint32_t)(__DMA_INSTANCE__) == ((uint32_t)DMA1)) && ((uint32_t)(__CHANNEL__) == ((uint32_t)LL
 463:Drivers/STM32G4xx_HAL_Driver/Inc/stm32g4xx_ll_dma.h ****    (((uint32_t)(__DMA_INSTANCE__) == ((uint32_t)DMA2)) && ((uint32_t)(__CHANNEL__) == ((uint32_t)LL
 464:Drivers/STM32G4xx_HAL_Driver/Inc/stm32g4xx_ll_dma.h ****    (((uint32_t)(__DMA_INSTANCE__) == ((uint32_t)DMA1)) && ((uint32_t)(__CHANNEL__) == ((uint32_t)LL
 465:Drivers/STM32G4xx_HAL_Driver/Inc/stm32g4xx_ll_dma.h ****    (((uint32_t)(__DMA_INSTANCE__) == ((uint32_t)DMA2)) && ((uint32_t)(__CHANNEL__) == ((uint32_t)LL
 466:Drivers/STM32G4xx_HAL_Driver/Inc/stm32g4xx_ll_dma.h ****    (((uint32_t)(__DMA_INSTANCE__) == ((uint32_t)DMA1)) && ((uint32_t)(__CHANNEL__) == ((uint32_t)LL
 467:Drivers/STM32G4xx_HAL_Driver/Inc/stm32g4xx_ll_dma.h ****    (((uint32_t)(__DMA_INSTANCE__) == ((uint32_t)DMA2)) && ((uint32_t)(__CHANNEL__) == ((uint32_t)LL
 468:Drivers/STM32G4xx_HAL_Driver/Inc/stm32g4xx_ll_dma.h ****    (((uint32_t)(__DMA_INSTANCE__) == ((uint32_t)DMA1)) && ((uint32_t)(__CHANNEL__) == ((uint32_t)LL
 469:Drivers/STM32G4xx_HAL_Driver/Inc/stm32g4xx_ll_dma.h ****    DMA2_Channel8)
 470:Drivers/STM32G4xx_HAL_Driver/Inc/stm32g4xx_ll_dma.h **** #else
 471:Drivers/STM32G4xx_HAL_Driver/Inc/stm32g4xx_ll_dma.h **** #define __LL_DMA_GET_CHANNEL_INSTANCE(__DMA_INSTANCE__, __CHANNEL__)   \
 472:Drivers/STM32G4xx_HAL_Driver/Inc/stm32g4xx_ll_dma.h ****   ((((uint32_t)(__DMA_INSTANCE__) == ((uint32_t)DMA1)) && ((uint32_t)(__CHANNEL__) == ((uint32_t)LL
 473:Drivers/STM32G4xx_HAL_Driver/Inc/stm32g4xx_ll_dma.h ****    (((uint32_t)(__DMA_INSTANCE__) == ((uint32_t)DMA2)) && ((uint32_t)(__CHANNEL__) == ((uint32_t)LL
 474:Drivers/STM32G4xx_HAL_Driver/Inc/stm32g4xx_ll_dma.h ****    (((uint32_t)(__DMA_INSTANCE__) == ((uint32_t)DMA1)) && ((uint32_t)(__CHANNEL__) == ((uint32_t)LL
 475:Drivers/STM32G4xx_HAL_Driver/Inc/stm32g4xx_ll_dma.h ****    (((uint32_t)(__DMA_INSTANCE__) == ((uint32_t)DMA2)) && ((uint32_t)(__CHANNEL__) == ((uint32_t)LL
 476:Drivers/STM32G4xx_HAL_Driver/Inc/stm32g4xx_ll_dma.h ****    (((uint32_t)(__DMA_INSTANCE__) == ((uint32_t)DMA1)) && ((uint32_t)(__CHANNEL__) == ((uint32_t)LL
ARM GAS  D:\apps\VSCode\data\tmp\ccESTIAN.s 			page 10


 477:Drivers/STM32G4xx_HAL_Driver/Inc/stm32g4xx_ll_dma.h ****    (((uint32_t)(__DMA_INSTANCE__) == ((uint32_t)DMA2)) && ((uint32_t)(__CHANNEL__) == ((uint32_t)LL
 478:Drivers/STM32G4xx_HAL_Driver/Inc/stm32g4xx_ll_dma.h ****    (((uint32_t)(__DMA_INSTANCE__) == ((uint32_t)DMA1)) && ((uint32_t)(__CHANNEL__) == ((uint32_t)LL
 479:Drivers/STM32G4xx_HAL_Driver/Inc/stm32g4xx_ll_dma.h ****    (((uint32_t)(__DMA_INSTANCE__) == ((uint32_t)DMA2)) && ((uint32_t)(__CHANNEL__) == ((uint32_t)LL
 480:Drivers/STM32G4xx_HAL_Driver/Inc/stm32g4xx_ll_dma.h ****    (((uint32_t)(__DMA_INSTANCE__) == ((uint32_t)DMA1)) && ((uint32_t)(__CHANNEL__) == ((uint32_t)LL
 481:Drivers/STM32G4xx_HAL_Driver/Inc/stm32g4xx_ll_dma.h ****    (((uint32_t)(__DMA_INSTANCE__) == ((uint32_t)DMA2)) && ((uint32_t)(__CHANNEL__) == ((uint32_t)LL
 482:Drivers/STM32G4xx_HAL_Driver/Inc/stm32g4xx_ll_dma.h ****    (((uint32_t)(__DMA_INSTANCE__) == ((uint32_t)DMA1)) && ((uint32_t)(__CHANNEL__) == ((uint32_t)LL
 483:Drivers/STM32G4xx_HAL_Driver/Inc/stm32g4xx_ll_dma.h ****    DMA2_Channel6)
 484:Drivers/STM32G4xx_HAL_Driver/Inc/stm32g4xx_ll_dma.h **** #endif /* DMA1_Channel8 */
 485:Drivers/STM32G4xx_HAL_Driver/Inc/stm32g4xx_ll_dma.h **** 
 486:Drivers/STM32G4xx_HAL_Driver/Inc/stm32g4xx_ll_dma.h **** /**
 487:Drivers/STM32G4xx_HAL_Driver/Inc/stm32g4xx_ll_dma.h ****   * @}
 488:Drivers/STM32G4xx_HAL_Driver/Inc/stm32g4xx_ll_dma.h ****   */
 489:Drivers/STM32G4xx_HAL_Driver/Inc/stm32g4xx_ll_dma.h **** 
 490:Drivers/STM32G4xx_HAL_Driver/Inc/stm32g4xx_ll_dma.h **** /**
 491:Drivers/STM32G4xx_HAL_Driver/Inc/stm32g4xx_ll_dma.h ****   * @}
 492:Drivers/STM32G4xx_HAL_Driver/Inc/stm32g4xx_ll_dma.h ****   */
 493:Drivers/STM32G4xx_HAL_Driver/Inc/stm32g4xx_ll_dma.h **** 
 494:Drivers/STM32G4xx_HAL_Driver/Inc/stm32g4xx_ll_dma.h **** /* Exported functions --------------------------------------------------------*/
 495:Drivers/STM32G4xx_HAL_Driver/Inc/stm32g4xx_ll_dma.h **** /** @defgroup DMA_LL_Exported_Functions DMA Exported Functions
 496:Drivers/STM32G4xx_HAL_Driver/Inc/stm32g4xx_ll_dma.h ****   * @{
 497:Drivers/STM32G4xx_HAL_Driver/Inc/stm32g4xx_ll_dma.h ****   */
 498:Drivers/STM32G4xx_HAL_Driver/Inc/stm32g4xx_ll_dma.h **** 
 499:Drivers/STM32G4xx_HAL_Driver/Inc/stm32g4xx_ll_dma.h **** /** @defgroup DMA_LL_EF_Configuration Configuration
 500:Drivers/STM32G4xx_HAL_Driver/Inc/stm32g4xx_ll_dma.h ****   * @{
 501:Drivers/STM32G4xx_HAL_Driver/Inc/stm32g4xx_ll_dma.h ****   */
 502:Drivers/STM32G4xx_HAL_Driver/Inc/stm32g4xx_ll_dma.h **** /**
 503:Drivers/STM32G4xx_HAL_Driver/Inc/stm32g4xx_ll_dma.h ****   * @brief  Enable DMA channel.
 504:Drivers/STM32G4xx_HAL_Driver/Inc/stm32g4xx_ll_dma.h ****   * @rmtoll CCR          EN            LL_DMA_EnableChannel
 505:Drivers/STM32G4xx_HAL_Driver/Inc/stm32g4xx_ll_dma.h ****   * @param  DMAx DMAx Instance
 506:Drivers/STM32G4xx_HAL_Driver/Inc/stm32g4xx_ll_dma.h ****   * @param  Channel This parameter can be one of the following values:
 507:Drivers/STM32G4xx_HAL_Driver/Inc/stm32g4xx_ll_dma.h ****   *         @arg @ref LL_DMA_CHANNEL_1
 508:Drivers/STM32G4xx_HAL_Driver/Inc/stm32g4xx_ll_dma.h ****   *         @arg @ref LL_DMA_CHANNEL_2
 509:Drivers/STM32G4xx_HAL_Driver/Inc/stm32g4xx_ll_dma.h ****   *         @arg @ref LL_DMA_CHANNEL_3
 510:Drivers/STM32G4xx_HAL_Driver/Inc/stm32g4xx_ll_dma.h ****   *         @arg @ref LL_DMA_CHANNEL_4
 511:Drivers/STM32G4xx_HAL_Driver/Inc/stm32g4xx_ll_dma.h ****   *         @arg @ref LL_DMA_CHANNEL_5
 512:Drivers/STM32G4xx_HAL_Driver/Inc/stm32g4xx_ll_dma.h ****   *         @arg @ref LL_DMA_CHANNEL_6
 513:Drivers/STM32G4xx_HAL_Driver/Inc/stm32g4xx_ll_dma.h ****   *         @arg @ref LL_DMA_CHANNEL_7 (*)
 514:Drivers/STM32G4xx_HAL_Driver/Inc/stm32g4xx_ll_dma.h ****   *         @arg @ref LL_DMA_CHANNEL_8 (*)
 515:Drivers/STM32G4xx_HAL_Driver/Inc/stm32g4xx_ll_dma.h ****   *         (*) Not on all G4 devices
 516:Drivers/STM32G4xx_HAL_Driver/Inc/stm32g4xx_ll_dma.h ****   * @retval None
 517:Drivers/STM32G4xx_HAL_Driver/Inc/stm32g4xx_ll_dma.h ****   */
 518:Drivers/STM32G4xx_HAL_Driver/Inc/stm32g4xx_ll_dma.h **** __STATIC_INLINE void LL_DMA_EnableChannel(DMA_TypeDef *DMAx, uint32_t Channel)
 519:Drivers/STM32G4xx_HAL_Driver/Inc/stm32g4xx_ll_dma.h **** {
 520:Drivers/STM32G4xx_HAL_Driver/Inc/stm32g4xx_ll_dma.h ****   uint32_t dma_base_addr = (uint32_t)DMAx;
 521:Drivers/STM32G4xx_HAL_Driver/Inc/stm32g4xx_ll_dma.h ****   SET_BIT(((DMA_Channel_TypeDef *)((uint32_t)(dma_base_addr + CHANNEL_OFFSET_TAB[Channel])))->CCR, 
 522:Drivers/STM32G4xx_HAL_Driver/Inc/stm32g4xx_ll_dma.h **** }
 523:Drivers/STM32G4xx_HAL_Driver/Inc/stm32g4xx_ll_dma.h **** 
 524:Drivers/STM32G4xx_HAL_Driver/Inc/stm32g4xx_ll_dma.h **** /**
 525:Drivers/STM32G4xx_HAL_Driver/Inc/stm32g4xx_ll_dma.h ****   * @brief  Disable DMA channel.
 526:Drivers/STM32G4xx_HAL_Driver/Inc/stm32g4xx_ll_dma.h ****   * @rmtoll CCR          EN            LL_DMA_DisableChannel
 527:Drivers/STM32G4xx_HAL_Driver/Inc/stm32g4xx_ll_dma.h ****   * @param  DMAx DMAx Instance
 528:Drivers/STM32G4xx_HAL_Driver/Inc/stm32g4xx_ll_dma.h ****   * @param  Channel This parameter can be one of the following values:
 529:Drivers/STM32G4xx_HAL_Driver/Inc/stm32g4xx_ll_dma.h ****   *         @arg @ref LL_DMA_CHANNEL_1
 530:Drivers/STM32G4xx_HAL_Driver/Inc/stm32g4xx_ll_dma.h ****   *         @arg @ref LL_DMA_CHANNEL_2
 531:Drivers/STM32G4xx_HAL_Driver/Inc/stm32g4xx_ll_dma.h ****   *         @arg @ref LL_DMA_CHANNEL_3
 532:Drivers/STM32G4xx_HAL_Driver/Inc/stm32g4xx_ll_dma.h ****   *         @arg @ref LL_DMA_CHANNEL_4
 533:Drivers/STM32G4xx_HAL_Driver/Inc/stm32g4xx_ll_dma.h ****   *         @arg @ref LL_DMA_CHANNEL_5
ARM GAS  D:\apps\VSCode\data\tmp\ccESTIAN.s 			page 11


 534:Drivers/STM32G4xx_HAL_Driver/Inc/stm32g4xx_ll_dma.h ****   *         @arg @ref LL_DMA_CHANNEL_6
 535:Drivers/STM32G4xx_HAL_Driver/Inc/stm32g4xx_ll_dma.h ****   *         @arg @ref LL_DMA_CHANNEL_7 (*)
 536:Drivers/STM32G4xx_HAL_Driver/Inc/stm32g4xx_ll_dma.h ****   *         @arg @ref LL_DMA_CHANNEL_8 (*)
 537:Drivers/STM32G4xx_HAL_Driver/Inc/stm32g4xx_ll_dma.h ****   *         (*) Not on all G4 devices
 538:Drivers/STM32G4xx_HAL_Driver/Inc/stm32g4xx_ll_dma.h ****   * @retval None
 539:Drivers/STM32G4xx_HAL_Driver/Inc/stm32g4xx_ll_dma.h ****   */
 540:Drivers/STM32G4xx_HAL_Driver/Inc/stm32g4xx_ll_dma.h **** __STATIC_INLINE void LL_DMA_DisableChannel(DMA_TypeDef *DMAx, uint32_t Channel)
 541:Drivers/STM32G4xx_HAL_Driver/Inc/stm32g4xx_ll_dma.h **** {
 542:Drivers/STM32G4xx_HAL_Driver/Inc/stm32g4xx_ll_dma.h ****   uint32_t dma_base_addr = (uint32_t)DMAx;
 543:Drivers/STM32G4xx_HAL_Driver/Inc/stm32g4xx_ll_dma.h ****   CLEAR_BIT(((DMA_Channel_TypeDef *)((uint32_t)(dma_base_addr + CHANNEL_OFFSET_TAB[Channel])))->CCR
 544:Drivers/STM32G4xx_HAL_Driver/Inc/stm32g4xx_ll_dma.h **** }
 545:Drivers/STM32G4xx_HAL_Driver/Inc/stm32g4xx_ll_dma.h **** 
 546:Drivers/STM32G4xx_HAL_Driver/Inc/stm32g4xx_ll_dma.h **** /**
 547:Drivers/STM32G4xx_HAL_Driver/Inc/stm32g4xx_ll_dma.h ****   * @brief  Check if DMA channel is enabled or disabled.
 548:Drivers/STM32G4xx_HAL_Driver/Inc/stm32g4xx_ll_dma.h ****   * @rmtoll CCR          EN            LL_DMA_IsEnabledChannel
 549:Drivers/STM32G4xx_HAL_Driver/Inc/stm32g4xx_ll_dma.h ****   * @param  DMAx DMAx Instance
 550:Drivers/STM32G4xx_HAL_Driver/Inc/stm32g4xx_ll_dma.h ****   * @param  Channel This parameter can be one of the following values:
 551:Drivers/STM32G4xx_HAL_Driver/Inc/stm32g4xx_ll_dma.h ****   *         @arg @ref LL_DMA_CHANNEL_1
 552:Drivers/STM32G4xx_HAL_Driver/Inc/stm32g4xx_ll_dma.h ****   *         @arg @ref LL_DMA_CHANNEL_2
 553:Drivers/STM32G4xx_HAL_Driver/Inc/stm32g4xx_ll_dma.h ****   *         @arg @ref LL_DMA_CHANNEL_3
 554:Drivers/STM32G4xx_HAL_Driver/Inc/stm32g4xx_ll_dma.h ****   *         @arg @ref LL_DMA_CHANNEL_4
 555:Drivers/STM32G4xx_HAL_Driver/Inc/stm32g4xx_ll_dma.h ****   *         @arg @ref LL_DMA_CHANNEL_5
 556:Drivers/STM32G4xx_HAL_Driver/Inc/stm32g4xx_ll_dma.h ****   *         @arg @ref LL_DMA_CHANNEL_6
 557:Drivers/STM32G4xx_HAL_Driver/Inc/stm32g4xx_ll_dma.h ****   *         @arg @ref LL_DMA_CHANNEL_7 (*)
 558:Drivers/STM32G4xx_HAL_Driver/Inc/stm32g4xx_ll_dma.h ****   *         @arg @ref LL_DMA_CHANNEL_8 (*)
 559:Drivers/STM32G4xx_HAL_Driver/Inc/stm32g4xx_ll_dma.h ****   *         (*) Not on all G4 devices
 560:Drivers/STM32G4xx_HAL_Driver/Inc/stm32g4xx_ll_dma.h ****   * @retval State of bit (1 or 0).
 561:Drivers/STM32G4xx_HAL_Driver/Inc/stm32g4xx_ll_dma.h ****   */
 562:Drivers/STM32G4xx_HAL_Driver/Inc/stm32g4xx_ll_dma.h **** __STATIC_INLINE uint32_t LL_DMA_IsEnabledChannel(DMA_TypeDef *DMAx, uint32_t Channel)
 563:Drivers/STM32G4xx_HAL_Driver/Inc/stm32g4xx_ll_dma.h **** {
 564:Drivers/STM32G4xx_HAL_Driver/Inc/stm32g4xx_ll_dma.h ****   uint32_t dma_base_addr = (uint32_t)DMAx;
 565:Drivers/STM32G4xx_HAL_Driver/Inc/stm32g4xx_ll_dma.h ****   return ((READ_BIT(((DMA_Channel_TypeDef *)((uint32_t)(dma_base_addr + CHANNEL_OFFSET_TAB[Channel]
 566:Drivers/STM32G4xx_HAL_Driver/Inc/stm32g4xx_ll_dma.h ****                     DMA_CCR_EN) == (DMA_CCR_EN)) ? 1UL : 0UL);
 567:Drivers/STM32G4xx_HAL_Driver/Inc/stm32g4xx_ll_dma.h **** }
 568:Drivers/STM32G4xx_HAL_Driver/Inc/stm32g4xx_ll_dma.h **** 
 569:Drivers/STM32G4xx_HAL_Driver/Inc/stm32g4xx_ll_dma.h **** /**
 570:Drivers/STM32G4xx_HAL_Driver/Inc/stm32g4xx_ll_dma.h ****   * @brief  Configure all parameters link to DMA transfer.
 571:Drivers/STM32G4xx_HAL_Driver/Inc/stm32g4xx_ll_dma.h ****   * @rmtoll CCR          DIR           LL_DMA_ConfigTransfer\n
 572:Drivers/STM32G4xx_HAL_Driver/Inc/stm32g4xx_ll_dma.h ****   *         CCR          MEM2MEM       LL_DMA_ConfigTransfer\n
 573:Drivers/STM32G4xx_HAL_Driver/Inc/stm32g4xx_ll_dma.h ****   *         CCR          CIRC          LL_DMA_ConfigTransfer\n
 574:Drivers/STM32G4xx_HAL_Driver/Inc/stm32g4xx_ll_dma.h ****   *         CCR          PINC          LL_DMA_ConfigTransfer\n
 575:Drivers/STM32G4xx_HAL_Driver/Inc/stm32g4xx_ll_dma.h ****   *         CCR          MINC          LL_DMA_ConfigTransfer\n
 576:Drivers/STM32G4xx_HAL_Driver/Inc/stm32g4xx_ll_dma.h ****   *         CCR          PSIZE         LL_DMA_ConfigTransfer\n
 577:Drivers/STM32G4xx_HAL_Driver/Inc/stm32g4xx_ll_dma.h ****   *         CCR          MSIZE         LL_DMA_ConfigTransfer\n
 578:Drivers/STM32G4xx_HAL_Driver/Inc/stm32g4xx_ll_dma.h ****   *         CCR          PL            LL_DMA_ConfigTransfer
 579:Drivers/STM32G4xx_HAL_Driver/Inc/stm32g4xx_ll_dma.h ****   * @param  DMAx DMAx Instance
 580:Drivers/STM32G4xx_HAL_Driver/Inc/stm32g4xx_ll_dma.h ****   * @param  Channel This parameter can be one of the following values:
 581:Drivers/STM32G4xx_HAL_Driver/Inc/stm32g4xx_ll_dma.h ****   *         @arg @ref LL_DMA_CHANNEL_1
 582:Drivers/STM32G4xx_HAL_Driver/Inc/stm32g4xx_ll_dma.h ****   *         @arg @ref LL_DMA_CHANNEL_2
 583:Drivers/STM32G4xx_HAL_Driver/Inc/stm32g4xx_ll_dma.h ****   *         @arg @ref LL_DMA_CHANNEL_3
 584:Drivers/STM32G4xx_HAL_Driver/Inc/stm32g4xx_ll_dma.h ****   *         @arg @ref LL_DMA_CHANNEL_4
 585:Drivers/STM32G4xx_HAL_Driver/Inc/stm32g4xx_ll_dma.h ****   *         @arg @ref LL_DMA_CHANNEL_5
 586:Drivers/STM32G4xx_HAL_Driver/Inc/stm32g4xx_ll_dma.h ****   *         @arg @ref LL_DMA_CHANNEL_6
 587:Drivers/STM32G4xx_HAL_Driver/Inc/stm32g4xx_ll_dma.h ****   *         @arg @ref LL_DMA_CHANNEL_7 (*)
 588:Drivers/STM32G4xx_HAL_Driver/Inc/stm32g4xx_ll_dma.h ****   *         @arg @ref LL_DMA_CHANNEL_8 (*)
 589:Drivers/STM32G4xx_HAL_Driver/Inc/stm32g4xx_ll_dma.h ****   *         (*) Not on all G4 devices
 590:Drivers/STM32G4xx_HAL_Driver/Inc/stm32g4xx_ll_dma.h ****   * @param  Configuration This parameter must be a combination of all the following values:
ARM GAS  D:\apps\VSCode\data\tmp\ccESTIAN.s 			page 12


 591:Drivers/STM32G4xx_HAL_Driver/Inc/stm32g4xx_ll_dma.h ****   *         @arg @ref LL_DMA_DIRECTION_PERIPH_TO_MEMORY or @ref LL_DMA_DIRECTION_MEMORY_TO_PERIPH o
 592:Drivers/STM32G4xx_HAL_Driver/Inc/stm32g4xx_ll_dma.h ****   *         @arg @ref LL_DMA_MODE_NORMAL or @ref LL_DMA_MODE_CIRCULAR
 593:Drivers/STM32G4xx_HAL_Driver/Inc/stm32g4xx_ll_dma.h ****   *         @arg @ref LL_DMA_PERIPH_INCREMENT or @ref LL_DMA_PERIPH_NOINCREMENT
 594:Drivers/STM32G4xx_HAL_Driver/Inc/stm32g4xx_ll_dma.h ****   *         @arg @ref LL_DMA_MEMORY_INCREMENT or @ref LL_DMA_MEMORY_NOINCREMENT
 595:Drivers/STM32G4xx_HAL_Driver/Inc/stm32g4xx_ll_dma.h ****   *         @arg @ref LL_DMA_PDATAALIGN_BYTE or @ref LL_DMA_PDATAALIGN_HALFWORD or @ref LL_DMA_PDAT
 596:Drivers/STM32G4xx_HAL_Driver/Inc/stm32g4xx_ll_dma.h ****   *         @arg @ref LL_DMA_MDATAALIGN_BYTE or @ref LL_DMA_MDATAALIGN_HALFWORD or @ref LL_DMA_MDAT
 597:Drivers/STM32G4xx_HAL_Driver/Inc/stm32g4xx_ll_dma.h ****   *         @arg @ref LL_DMA_PRIORITY_LOW or @ref LL_DMA_PRIORITY_MEDIUM or @ref LL_DMA_PRIORITY_HI
 598:Drivers/STM32G4xx_HAL_Driver/Inc/stm32g4xx_ll_dma.h ****   * @retval None
 599:Drivers/STM32G4xx_HAL_Driver/Inc/stm32g4xx_ll_dma.h ****   */
 600:Drivers/STM32G4xx_HAL_Driver/Inc/stm32g4xx_ll_dma.h **** __STATIC_INLINE void LL_DMA_ConfigTransfer(DMA_TypeDef *DMAx, uint32_t Channel, uint32_t Configurat
 601:Drivers/STM32G4xx_HAL_Driver/Inc/stm32g4xx_ll_dma.h **** {
  41              		.loc 1 601 1
  42              		.cfi_startproc
  43              		@ args = 0, pretend = 0, frame = 24
  44              		@ frame_needed = 1, uses_anonymous_args = 0
  45              		@ link register save eliminated.
  46 0000 80B4     		push	{r7}
  47              	.LCFI0:
  48              		.cfi_def_cfa_offset 4
  49              		.cfi_offset 7, -4
  50 0002 87B0     		sub	sp, sp, #28
  51              	.LCFI1:
  52              		.cfi_def_cfa_offset 32
  53 0004 00AF     		add	r7, sp, #0
  54              	.LCFI2:
  55              		.cfi_def_cfa_register 7
  56 0006 F860     		str	r0, [r7, #12]
  57 0008 B960     		str	r1, [r7, #8]
  58 000a 7A60     		str	r2, [r7, #4]
 602:Drivers/STM32G4xx_HAL_Driver/Inc/stm32g4xx_ll_dma.h ****   uint32_t dma_base_addr = (uint32_t)DMAx;
  59              		.loc 1 602 12
  60 000c FB68     		ldr	r3, [r7, #12]
  61 000e 7B61     		str	r3, [r7, #20]
 603:Drivers/STM32G4xx_HAL_Driver/Inc/stm32g4xx_ll_dma.h ****   MODIFY_REG(((DMA_Channel_TypeDef *)((uint32_t)(dma_base_addr + CHANNEL_OFFSET_TAB[Channel])))->CC
  62              		.loc 1 603 3
  63 0010 0E4A     		ldr	r2, .L2
  64 0012 BB68     		ldr	r3, [r7, #8]
  65 0014 1344     		add	r3, r3, r2
  66 0016 1B78     		ldrb	r3, [r3]	@ zero_extendqisi2
  67 0018 1A46     		mov	r2, r3
  68 001a 7B69     		ldr	r3, [r7, #20]
  69 001c 1344     		add	r3, r3, r2
  70 001e 1B68     		ldr	r3, [r3]
  71 0020 23F4FF43 		bic	r3, r3, #32640
  72 0024 23F07003 		bic	r3, r3, #112
  73 0028 0849     		ldr	r1, .L2
  74 002a BA68     		ldr	r2, [r7, #8]
  75 002c 0A44     		add	r2, r2, r1
  76 002e 1278     		ldrb	r2, [r2]	@ zero_extendqisi2
  77 0030 1146     		mov	r1, r2
  78 0032 7A69     		ldr	r2, [r7, #20]
  79 0034 0A44     		add	r2, r2, r1
  80 0036 1146     		mov	r1, r2
  81 0038 7A68     		ldr	r2, [r7, #4]
  82 003a 1343     		orrs	r3, r3, r2
  83 003c 0B60     		str	r3, [r1]
 604:Drivers/STM32G4xx_HAL_Driver/Inc/stm32g4xx_ll_dma.h ****              DMA_CCR_DIR | DMA_CCR_MEM2MEM | DMA_CCR_CIRC | DMA_CCR_PINC | DMA_CCR_MINC | DMA_CCR_P
ARM GAS  D:\apps\VSCode\data\tmp\ccESTIAN.s 			page 13


 605:Drivers/STM32G4xx_HAL_Driver/Inc/stm32g4xx_ll_dma.h ****              Configuration);
 606:Drivers/STM32G4xx_HAL_Driver/Inc/stm32g4xx_ll_dma.h **** }
  84              		.loc 1 606 1
  85 003e 00BF     		nop
  86 0040 1C37     		adds	r7, r7, #28
  87              	.LCFI3:
  88              		.cfi_def_cfa_offset 4
  89 0042 BD46     		mov	sp, r7
  90              	.LCFI4:
  91              		.cfi_def_cfa_register 13
  92              		@ sp needed
  93 0044 5DF8047B 		ldr	r7, [sp], #4
  94              	.LCFI5:
  95              		.cfi_restore 7
  96              		.cfi_def_cfa_offset 0
  97 0048 7047     		bx	lr
  98              	.L3:
  99 004a 00BF     		.align	2
 100              	.L2:
 101 004c 00000000 		.word	CHANNEL_OFFSET_TAB
 102              		.cfi_endproc
 103              	.LFE202:
 105              		.section	.text.LL_DMA_SetDataLength,"ax",%progbits
 106              		.align	1
 107              		.syntax unified
 108              		.thumb
 109              		.thumb_func
 110              		.fpu fpv4-sp-d16
 112              	LL_DMA_SetDataLength:
 113              	.LFB217:
 607:Drivers/STM32G4xx_HAL_Driver/Inc/stm32g4xx_ll_dma.h **** 
 608:Drivers/STM32G4xx_HAL_Driver/Inc/stm32g4xx_ll_dma.h **** /**
 609:Drivers/STM32G4xx_HAL_Driver/Inc/stm32g4xx_ll_dma.h ****   * @brief  Set Data transfer direction (read from peripheral or from memory).
 610:Drivers/STM32G4xx_HAL_Driver/Inc/stm32g4xx_ll_dma.h ****   * @rmtoll CCR          DIR           LL_DMA_SetDataTransferDirection\n
 611:Drivers/STM32G4xx_HAL_Driver/Inc/stm32g4xx_ll_dma.h ****   *         CCR          MEM2MEM       LL_DMA_SetDataTransferDirection
 612:Drivers/STM32G4xx_HAL_Driver/Inc/stm32g4xx_ll_dma.h ****   * @param  DMAx DMAx Instance
 613:Drivers/STM32G4xx_HAL_Driver/Inc/stm32g4xx_ll_dma.h ****   * @param  Channel This parameter can be one of the following values:
 614:Drivers/STM32G4xx_HAL_Driver/Inc/stm32g4xx_ll_dma.h ****   *         @arg @ref LL_DMA_CHANNEL_1
 615:Drivers/STM32G4xx_HAL_Driver/Inc/stm32g4xx_ll_dma.h ****   *         @arg @ref LL_DMA_CHANNEL_2
 616:Drivers/STM32G4xx_HAL_Driver/Inc/stm32g4xx_ll_dma.h ****   *         @arg @ref LL_DMA_CHANNEL_3
 617:Drivers/STM32G4xx_HAL_Driver/Inc/stm32g4xx_ll_dma.h ****   *         @arg @ref LL_DMA_CHANNEL_4
 618:Drivers/STM32G4xx_HAL_Driver/Inc/stm32g4xx_ll_dma.h ****   *         @arg @ref LL_DMA_CHANNEL_5
 619:Drivers/STM32G4xx_HAL_Driver/Inc/stm32g4xx_ll_dma.h ****   *         @arg @ref LL_DMA_CHANNEL_6
 620:Drivers/STM32G4xx_HAL_Driver/Inc/stm32g4xx_ll_dma.h ****   *         @arg @ref LL_DMA_CHANNEL_7 (*)
 621:Drivers/STM32G4xx_HAL_Driver/Inc/stm32g4xx_ll_dma.h ****   *         @arg @ref LL_DMA_CHANNEL_8 (*)
 622:Drivers/STM32G4xx_HAL_Driver/Inc/stm32g4xx_ll_dma.h ****   *         (*) Not on all G4 devices
 623:Drivers/STM32G4xx_HAL_Driver/Inc/stm32g4xx_ll_dma.h ****   * @param  Direction This parameter can be one of the following values:
 624:Drivers/STM32G4xx_HAL_Driver/Inc/stm32g4xx_ll_dma.h ****   *         @arg @ref LL_DMA_DIRECTION_PERIPH_TO_MEMORY
 625:Drivers/STM32G4xx_HAL_Driver/Inc/stm32g4xx_ll_dma.h ****   *         @arg @ref LL_DMA_DIRECTION_MEMORY_TO_PERIPH
 626:Drivers/STM32G4xx_HAL_Driver/Inc/stm32g4xx_ll_dma.h ****   *         @arg @ref LL_DMA_DIRECTION_MEMORY_TO_MEMORY
 627:Drivers/STM32G4xx_HAL_Driver/Inc/stm32g4xx_ll_dma.h ****   * @retval None
 628:Drivers/STM32G4xx_HAL_Driver/Inc/stm32g4xx_ll_dma.h ****   */
 629:Drivers/STM32G4xx_HAL_Driver/Inc/stm32g4xx_ll_dma.h **** __STATIC_INLINE void LL_DMA_SetDataTransferDirection(DMA_TypeDef *DMAx, uint32_t Channel, uint32_t 
 630:Drivers/STM32G4xx_HAL_Driver/Inc/stm32g4xx_ll_dma.h **** {
 631:Drivers/STM32G4xx_HAL_Driver/Inc/stm32g4xx_ll_dma.h ****   uint32_t dma_base_addr = (uint32_t)DMAx;
 632:Drivers/STM32G4xx_HAL_Driver/Inc/stm32g4xx_ll_dma.h ****   MODIFY_REG(((DMA_Channel_TypeDef *)((uint32_t)(dma_base_addr + CHANNEL_OFFSET_TAB[Channel])))->CC
 633:Drivers/STM32G4xx_HAL_Driver/Inc/stm32g4xx_ll_dma.h ****              DMA_CCR_DIR | DMA_CCR_MEM2MEM, Direction);
ARM GAS  D:\apps\VSCode\data\tmp\ccESTIAN.s 			page 14


 634:Drivers/STM32G4xx_HAL_Driver/Inc/stm32g4xx_ll_dma.h **** }
 635:Drivers/STM32G4xx_HAL_Driver/Inc/stm32g4xx_ll_dma.h **** 
 636:Drivers/STM32G4xx_HAL_Driver/Inc/stm32g4xx_ll_dma.h **** /**
 637:Drivers/STM32G4xx_HAL_Driver/Inc/stm32g4xx_ll_dma.h ****   * @brief  Get Data transfer direction (read from peripheral or from memory).
 638:Drivers/STM32G4xx_HAL_Driver/Inc/stm32g4xx_ll_dma.h ****   * @rmtoll CCR          DIR           LL_DMA_GetDataTransferDirection\n
 639:Drivers/STM32G4xx_HAL_Driver/Inc/stm32g4xx_ll_dma.h ****   *         CCR          MEM2MEM       LL_DMA_GetDataTransferDirection
 640:Drivers/STM32G4xx_HAL_Driver/Inc/stm32g4xx_ll_dma.h ****   * @param  DMAx DMAx Instance
 641:Drivers/STM32G4xx_HAL_Driver/Inc/stm32g4xx_ll_dma.h ****   * @param  Channel This parameter can be one of the following values:
 642:Drivers/STM32G4xx_HAL_Driver/Inc/stm32g4xx_ll_dma.h ****   *         @arg @ref LL_DMA_CHANNEL_1
 643:Drivers/STM32G4xx_HAL_Driver/Inc/stm32g4xx_ll_dma.h ****   *         @arg @ref LL_DMA_CHANNEL_2
 644:Drivers/STM32G4xx_HAL_Driver/Inc/stm32g4xx_ll_dma.h ****   *         @arg @ref LL_DMA_CHANNEL_3
 645:Drivers/STM32G4xx_HAL_Driver/Inc/stm32g4xx_ll_dma.h ****   *         @arg @ref LL_DMA_CHANNEL_4
 646:Drivers/STM32G4xx_HAL_Driver/Inc/stm32g4xx_ll_dma.h ****   *         @arg @ref LL_DMA_CHANNEL_5
 647:Drivers/STM32G4xx_HAL_Driver/Inc/stm32g4xx_ll_dma.h ****   *         @arg @ref LL_DMA_CHANNEL_6
 648:Drivers/STM32G4xx_HAL_Driver/Inc/stm32g4xx_ll_dma.h ****   *         @arg @ref LL_DMA_CHANNEL_7 (*)
 649:Drivers/STM32G4xx_HAL_Driver/Inc/stm32g4xx_ll_dma.h ****   *         @arg @ref LL_DMA_CHANNEL_8 (*)
 650:Drivers/STM32G4xx_HAL_Driver/Inc/stm32g4xx_ll_dma.h ****   *         (*) Not on all G4 devices
 651:Drivers/STM32G4xx_HAL_Driver/Inc/stm32g4xx_ll_dma.h ****   * @retval Returned value can be one of the following values:
 652:Drivers/STM32G4xx_HAL_Driver/Inc/stm32g4xx_ll_dma.h ****   *         @arg @ref LL_DMA_DIRECTION_PERIPH_TO_MEMORY
 653:Drivers/STM32G4xx_HAL_Driver/Inc/stm32g4xx_ll_dma.h ****   *         @arg @ref LL_DMA_DIRECTION_MEMORY_TO_PERIPH
 654:Drivers/STM32G4xx_HAL_Driver/Inc/stm32g4xx_ll_dma.h ****   *         @arg @ref LL_DMA_DIRECTION_MEMORY_TO_MEMORY
 655:Drivers/STM32G4xx_HAL_Driver/Inc/stm32g4xx_ll_dma.h ****   */
 656:Drivers/STM32G4xx_HAL_Driver/Inc/stm32g4xx_ll_dma.h **** __STATIC_INLINE uint32_t LL_DMA_GetDataTransferDirection(DMA_TypeDef *DMAx, uint32_t Channel)
 657:Drivers/STM32G4xx_HAL_Driver/Inc/stm32g4xx_ll_dma.h **** {
 658:Drivers/STM32G4xx_HAL_Driver/Inc/stm32g4xx_ll_dma.h ****   uint32_t dma_base_addr = (uint32_t)DMAx;
 659:Drivers/STM32G4xx_HAL_Driver/Inc/stm32g4xx_ll_dma.h ****   return (READ_BIT(((DMA_Channel_TypeDef *)((uint32_t)(dma_base_addr + CHANNEL_OFFSET_TAB[Channel])
 660:Drivers/STM32G4xx_HAL_Driver/Inc/stm32g4xx_ll_dma.h ****                    DMA_CCR_DIR | DMA_CCR_MEM2MEM));
 661:Drivers/STM32G4xx_HAL_Driver/Inc/stm32g4xx_ll_dma.h **** }
 662:Drivers/STM32G4xx_HAL_Driver/Inc/stm32g4xx_ll_dma.h **** 
 663:Drivers/STM32G4xx_HAL_Driver/Inc/stm32g4xx_ll_dma.h **** /**
 664:Drivers/STM32G4xx_HAL_Driver/Inc/stm32g4xx_ll_dma.h ****   * @brief  Set DMA mode circular or normal.
 665:Drivers/STM32G4xx_HAL_Driver/Inc/stm32g4xx_ll_dma.h ****   * @note The circular buffer mode cannot be used if the memory-to-memory
 666:Drivers/STM32G4xx_HAL_Driver/Inc/stm32g4xx_ll_dma.h ****   * data transfer is configured on the selected Channel.
 667:Drivers/STM32G4xx_HAL_Driver/Inc/stm32g4xx_ll_dma.h ****   * @rmtoll CCR          CIRC          LL_DMA_SetMode
 668:Drivers/STM32G4xx_HAL_Driver/Inc/stm32g4xx_ll_dma.h ****   * @param  DMAx DMAx Instance
 669:Drivers/STM32G4xx_HAL_Driver/Inc/stm32g4xx_ll_dma.h ****   * @param  Channel This parameter can be one of the following values:
 670:Drivers/STM32G4xx_HAL_Driver/Inc/stm32g4xx_ll_dma.h ****   *         @arg @ref LL_DMA_CHANNEL_1
 671:Drivers/STM32G4xx_HAL_Driver/Inc/stm32g4xx_ll_dma.h ****   *         @arg @ref LL_DMA_CHANNEL_2
 672:Drivers/STM32G4xx_HAL_Driver/Inc/stm32g4xx_ll_dma.h ****   *         @arg @ref LL_DMA_CHANNEL_3
 673:Drivers/STM32G4xx_HAL_Driver/Inc/stm32g4xx_ll_dma.h ****   *         @arg @ref LL_DMA_CHANNEL_4
 674:Drivers/STM32G4xx_HAL_Driver/Inc/stm32g4xx_ll_dma.h ****   *         @arg @ref LL_DMA_CHANNEL_5
 675:Drivers/STM32G4xx_HAL_Driver/Inc/stm32g4xx_ll_dma.h ****   *         @arg @ref LL_DMA_CHANNEL_6
 676:Drivers/STM32G4xx_HAL_Driver/Inc/stm32g4xx_ll_dma.h ****   *         @arg @ref LL_DMA_CHANNEL_7 (*)
 677:Drivers/STM32G4xx_HAL_Driver/Inc/stm32g4xx_ll_dma.h ****   *         @arg @ref LL_DMA_CHANNEL_8 (*)
 678:Drivers/STM32G4xx_HAL_Driver/Inc/stm32g4xx_ll_dma.h ****   *         (*) Not on all G4 devices
 679:Drivers/STM32G4xx_HAL_Driver/Inc/stm32g4xx_ll_dma.h ****   * @param  Mode This parameter can be one of the following values:
 680:Drivers/STM32G4xx_HAL_Driver/Inc/stm32g4xx_ll_dma.h ****   *         @arg @ref LL_DMA_MODE_NORMAL
 681:Drivers/STM32G4xx_HAL_Driver/Inc/stm32g4xx_ll_dma.h ****   *         @arg @ref LL_DMA_MODE_CIRCULAR
 682:Drivers/STM32G4xx_HAL_Driver/Inc/stm32g4xx_ll_dma.h ****   * @retval None
 683:Drivers/STM32G4xx_HAL_Driver/Inc/stm32g4xx_ll_dma.h ****   */
 684:Drivers/STM32G4xx_HAL_Driver/Inc/stm32g4xx_ll_dma.h **** __STATIC_INLINE void LL_DMA_SetMode(DMA_TypeDef *DMAx, uint32_t Channel, uint32_t Mode)
 685:Drivers/STM32G4xx_HAL_Driver/Inc/stm32g4xx_ll_dma.h **** {
 686:Drivers/STM32G4xx_HAL_Driver/Inc/stm32g4xx_ll_dma.h ****   uint32_t dma_base_addr = (uint32_t)DMAx;
 687:Drivers/STM32G4xx_HAL_Driver/Inc/stm32g4xx_ll_dma.h ****   MODIFY_REG(((DMA_Channel_TypeDef *)((uint32_t)(dma_base_addr + CHANNEL_OFFSET_TAB[Channel])))->CC
 688:Drivers/STM32G4xx_HAL_Driver/Inc/stm32g4xx_ll_dma.h ****              Mode);
 689:Drivers/STM32G4xx_HAL_Driver/Inc/stm32g4xx_ll_dma.h **** }
 690:Drivers/STM32G4xx_HAL_Driver/Inc/stm32g4xx_ll_dma.h **** 
ARM GAS  D:\apps\VSCode\data\tmp\ccESTIAN.s 			page 15


 691:Drivers/STM32G4xx_HAL_Driver/Inc/stm32g4xx_ll_dma.h **** /**
 692:Drivers/STM32G4xx_HAL_Driver/Inc/stm32g4xx_ll_dma.h ****   * @brief  Get DMA mode circular or normal.
 693:Drivers/STM32G4xx_HAL_Driver/Inc/stm32g4xx_ll_dma.h ****   * @rmtoll CCR          CIRC          LL_DMA_GetMode
 694:Drivers/STM32G4xx_HAL_Driver/Inc/stm32g4xx_ll_dma.h ****   * @param  DMAx DMAx Instance
 695:Drivers/STM32G4xx_HAL_Driver/Inc/stm32g4xx_ll_dma.h ****   * @param  Channel This parameter can be one of the following values:
 696:Drivers/STM32G4xx_HAL_Driver/Inc/stm32g4xx_ll_dma.h ****   *         @arg @ref LL_DMA_CHANNEL_1
 697:Drivers/STM32G4xx_HAL_Driver/Inc/stm32g4xx_ll_dma.h ****   *         @arg @ref LL_DMA_CHANNEL_2
 698:Drivers/STM32G4xx_HAL_Driver/Inc/stm32g4xx_ll_dma.h ****   *         @arg @ref LL_DMA_CHANNEL_3
 699:Drivers/STM32G4xx_HAL_Driver/Inc/stm32g4xx_ll_dma.h ****   *         @arg @ref LL_DMA_CHANNEL_4
 700:Drivers/STM32G4xx_HAL_Driver/Inc/stm32g4xx_ll_dma.h ****   *         @arg @ref LL_DMA_CHANNEL_5
 701:Drivers/STM32G4xx_HAL_Driver/Inc/stm32g4xx_ll_dma.h ****   *         @arg @ref LL_DMA_CHANNEL_6
 702:Drivers/STM32G4xx_HAL_Driver/Inc/stm32g4xx_ll_dma.h ****   *         @arg @ref LL_DMA_CHANNEL_7 (*)
 703:Drivers/STM32G4xx_HAL_Driver/Inc/stm32g4xx_ll_dma.h ****   *         @arg @ref LL_DMA_CHANNEL_8 (*)
 704:Drivers/STM32G4xx_HAL_Driver/Inc/stm32g4xx_ll_dma.h ****   *         (*) Not on all G4 devices
 705:Drivers/STM32G4xx_HAL_Driver/Inc/stm32g4xx_ll_dma.h ****   * @retval Returned value can be one of the following values:
 706:Drivers/STM32G4xx_HAL_Driver/Inc/stm32g4xx_ll_dma.h ****   *         @arg @ref LL_DMA_MODE_NORMAL
 707:Drivers/STM32G4xx_HAL_Driver/Inc/stm32g4xx_ll_dma.h ****   *         @arg @ref LL_DMA_MODE_CIRCULAR
 708:Drivers/STM32G4xx_HAL_Driver/Inc/stm32g4xx_ll_dma.h ****   */
 709:Drivers/STM32G4xx_HAL_Driver/Inc/stm32g4xx_ll_dma.h **** __STATIC_INLINE uint32_t LL_DMA_GetMode(DMA_TypeDef *DMAx, uint32_t Channel)
 710:Drivers/STM32G4xx_HAL_Driver/Inc/stm32g4xx_ll_dma.h **** {
 711:Drivers/STM32G4xx_HAL_Driver/Inc/stm32g4xx_ll_dma.h ****   uint32_t dma_base_addr = (uint32_t)DMAx;
 712:Drivers/STM32G4xx_HAL_Driver/Inc/stm32g4xx_ll_dma.h ****   return (READ_BIT(((DMA_Channel_TypeDef *)((uint32_t)(dma_base_addr + CHANNEL_OFFSET_TAB[Channel])
 713:Drivers/STM32G4xx_HAL_Driver/Inc/stm32g4xx_ll_dma.h ****                    DMA_CCR_CIRC));
 714:Drivers/STM32G4xx_HAL_Driver/Inc/stm32g4xx_ll_dma.h **** }
 715:Drivers/STM32G4xx_HAL_Driver/Inc/stm32g4xx_ll_dma.h **** 
 716:Drivers/STM32G4xx_HAL_Driver/Inc/stm32g4xx_ll_dma.h **** /**
 717:Drivers/STM32G4xx_HAL_Driver/Inc/stm32g4xx_ll_dma.h ****   * @brief  Set Peripheral increment mode.
 718:Drivers/STM32G4xx_HAL_Driver/Inc/stm32g4xx_ll_dma.h ****   * @rmtoll CCR          PINC          LL_DMA_SetPeriphIncMode
 719:Drivers/STM32G4xx_HAL_Driver/Inc/stm32g4xx_ll_dma.h ****   * @param  DMAx DMAx Instance
 720:Drivers/STM32G4xx_HAL_Driver/Inc/stm32g4xx_ll_dma.h ****   * @param  Channel This parameter can be one of the following values:
 721:Drivers/STM32G4xx_HAL_Driver/Inc/stm32g4xx_ll_dma.h ****   *         @arg @ref LL_DMA_CHANNEL_1
 722:Drivers/STM32G4xx_HAL_Driver/Inc/stm32g4xx_ll_dma.h ****   *         @arg @ref LL_DMA_CHANNEL_2
 723:Drivers/STM32G4xx_HAL_Driver/Inc/stm32g4xx_ll_dma.h ****   *         @arg @ref LL_DMA_CHANNEL_3
 724:Drivers/STM32G4xx_HAL_Driver/Inc/stm32g4xx_ll_dma.h ****   *         @arg @ref LL_DMA_CHANNEL_4
 725:Drivers/STM32G4xx_HAL_Driver/Inc/stm32g4xx_ll_dma.h ****   *         @arg @ref LL_DMA_CHANNEL_5
 726:Drivers/STM32G4xx_HAL_Driver/Inc/stm32g4xx_ll_dma.h ****   *         @arg @ref LL_DMA_CHANNEL_6
 727:Drivers/STM32G4xx_HAL_Driver/Inc/stm32g4xx_ll_dma.h ****   *         @arg @ref LL_DMA_CHANNEL_7 (*)
 728:Drivers/STM32G4xx_HAL_Driver/Inc/stm32g4xx_ll_dma.h ****   *         @arg @ref LL_DMA_CHANNEL_8 (*)
 729:Drivers/STM32G4xx_HAL_Driver/Inc/stm32g4xx_ll_dma.h ****   *         (*) Not on all G4 devices
 730:Drivers/STM32G4xx_HAL_Driver/Inc/stm32g4xx_ll_dma.h ****   * @param  PeriphOrM2MSrcIncMode This parameter can be one of the following values:
 731:Drivers/STM32G4xx_HAL_Driver/Inc/stm32g4xx_ll_dma.h ****   *         @arg @ref LL_DMA_PERIPH_INCREMENT
 732:Drivers/STM32G4xx_HAL_Driver/Inc/stm32g4xx_ll_dma.h ****   *         @arg @ref LL_DMA_PERIPH_NOINCREMENT
 733:Drivers/STM32G4xx_HAL_Driver/Inc/stm32g4xx_ll_dma.h ****   * @retval None
 734:Drivers/STM32G4xx_HAL_Driver/Inc/stm32g4xx_ll_dma.h ****   */
 735:Drivers/STM32G4xx_HAL_Driver/Inc/stm32g4xx_ll_dma.h **** __STATIC_INLINE void LL_DMA_SetPeriphIncMode(DMA_TypeDef *DMAx, uint32_t Channel, uint32_t PeriphOr
 736:Drivers/STM32G4xx_HAL_Driver/Inc/stm32g4xx_ll_dma.h **** {
 737:Drivers/STM32G4xx_HAL_Driver/Inc/stm32g4xx_ll_dma.h ****   uint32_t dma_base_addr = (uint32_t)DMAx;
 738:Drivers/STM32G4xx_HAL_Driver/Inc/stm32g4xx_ll_dma.h ****   MODIFY_REG(((DMA_Channel_TypeDef *)((uint32_t)(dma_base_addr + CHANNEL_OFFSET_TAB[Channel])))->CC
 739:Drivers/STM32G4xx_HAL_Driver/Inc/stm32g4xx_ll_dma.h ****              PeriphOrM2MSrcIncMode);
 740:Drivers/STM32G4xx_HAL_Driver/Inc/stm32g4xx_ll_dma.h **** }
 741:Drivers/STM32G4xx_HAL_Driver/Inc/stm32g4xx_ll_dma.h **** 
 742:Drivers/STM32G4xx_HAL_Driver/Inc/stm32g4xx_ll_dma.h **** /**
 743:Drivers/STM32G4xx_HAL_Driver/Inc/stm32g4xx_ll_dma.h ****   * @brief  Get Peripheral increment mode.
 744:Drivers/STM32G4xx_HAL_Driver/Inc/stm32g4xx_ll_dma.h ****   * @rmtoll CCR          PINC          LL_DMA_GetPeriphIncMode
 745:Drivers/STM32G4xx_HAL_Driver/Inc/stm32g4xx_ll_dma.h ****   * @param  DMAx DMAx Instance
 746:Drivers/STM32G4xx_HAL_Driver/Inc/stm32g4xx_ll_dma.h ****   * @param  Channel This parameter can be one of the following values:
 747:Drivers/STM32G4xx_HAL_Driver/Inc/stm32g4xx_ll_dma.h ****   *         @arg @ref LL_DMA_CHANNEL_1
ARM GAS  D:\apps\VSCode\data\tmp\ccESTIAN.s 			page 16


 748:Drivers/STM32G4xx_HAL_Driver/Inc/stm32g4xx_ll_dma.h ****   *         @arg @ref LL_DMA_CHANNEL_2
 749:Drivers/STM32G4xx_HAL_Driver/Inc/stm32g4xx_ll_dma.h ****   *         @arg @ref LL_DMA_CHANNEL_3
 750:Drivers/STM32G4xx_HAL_Driver/Inc/stm32g4xx_ll_dma.h ****   *         @arg @ref LL_DMA_CHANNEL_4
 751:Drivers/STM32G4xx_HAL_Driver/Inc/stm32g4xx_ll_dma.h ****   *         @arg @ref LL_DMA_CHANNEL_5
 752:Drivers/STM32G4xx_HAL_Driver/Inc/stm32g4xx_ll_dma.h ****   *         @arg @ref LL_DMA_CHANNEL_6
 753:Drivers/STM32G4xx_HAL_Driver/Inc/stm32g4xx_ll_dma.h ****   *         @arg @ref LL_DMA_CHANNEL_7 (*)
 754:Drivers/STM32G4xx_HAL_Driver/Inc/stm32g4xx_ll_dma.h ****   *         @arg @ref LL_DMA_CHANNEL_8 (*)
 755:Drivers/STM32G4xx_HAL_Driver/Inc/stm32g4xx_ll_dma.h ****   *         (*) Not on all G4 devices
 756:Drivers/STM32G4xx_HAL_Driver/Inc/stm32g4xx_ll_dma.h ****   * @retval Returned value can be one of the following values:
 757:Drivers/STM32G4xx_HAL_Driver/Inc/stm32g4xx_ll_dma.h ****   *         @arg @ref LL_DMA_PERIPH_INCREMENT
 758:Drivers/STM32G4xx_HAL_Driver/Inc/stm32g4xx_ll_dma.h ****   *         @arg @ref LL_DMA_PERIPH_NOINCREMENT
 759:Drivers/STM32G4xx_HAL_Driver/Inc/stm32g4xx_ll_dma.h ****   */
 760:Drivers/STM32G4xx_HAL_Driver/Inc/stm32g4xx_ll_dma.h **** __STATIC_INLINE uint32_t LL_DMA_GetPeriphIncMode(DMA_TypeDef *DMAx, uint32_t Channel)
 761:Drivers/STM32G4xx_HAL_Driver/Inc/stm32g4xx_ll_dma.h **** {
 762:Drivers/STM32G4xx_HAL_Driver/Inc/stm32g4xx_ll_dma.h ****   uint32_t dma_base_addr = (uint32_t)DMAx;
 763:Drivers/STM32G4xx_HAL_Driver/Inc/stm32g4xx_ll_dma.h ****   return (READ_BIT(((DMA_Channel_TypeDef *)((uint32_t)(dma_base_addr + CHANNEL_OFFSET_TAB[Channel])
 764:Drivers/STM32G4xx_HAL_Driver/Inc/stm32g4xx_ll_dma.h ****                    DMA_CCR_PINC));
 765:Drivers/STM32G4xx_HAL_Driver/Inc/stm32g4xx_ll_dma.h **** }
 766:Drivers/STM32G4xx_HAL_Driver/Inc/stm32g4xx_ll_dma.h **** 
 767:Drivers/STM32G4xx_HAL_Driver/Inc/stm32g4xx_ll_dma.h **** /**
 768:Drivers/STM32G4xx_HAL_Driver/Inc/stm32g4xx_ll_dma.h ****   * @brief  Set Memory increment mode.
 769:Drivers/STM32G4xx_HAL_Driver/Inc/stm32g4xx_ll_dma.h ****   * @rmtoll CCR          MINC          LL_DMA_SetMemoryIncMode
 770:Drivers/STM32G4xx_HAL_Driver/Inc/stm32g4xx_ll_dma.h ****   * @param  DMAx DMAx Instance
 771:Drivers/STM32G4xx_HAL_Driver/Inc/stm32g4xx_ll_dma.h ****   * @param  Channel This parameter can be one of the following values:
 772:Drivers/STM32G4xx_HAL_Driver/Inc/stm32g4xx_ll_dma.h ****   *         @arg @ref LL_DMA_CHANNEL_1
 773:Drivers/STM32G4xx_HAL_Driver/Inc/stm32g4xx_ll_dma.h ****   *         @arg @ref LL_DMA_CHANNEL_2
 774:Drivers/STM32G4xx_HAL_Driver/Inc/stm32g4xx_ll_dma.h ****   *         @arg @ref LL_DMA_CHANNEL_3
 775:Drivers/STM32G4xx_HAL_Driver/Inc/stm32g4xx_ll_dma.h ****   *         @arg @ref LL_DMA_CHANNEL_4
 776:Drivers/STM32G4xx_HAL_Driver/Inc/stm32g4xx_ll_dma.h ****   *         @arg @ref LL_DMA_CHANNEL_5
 777:Drivers/STM32G4xx_HAL_Driver/Inc/stm32g4xx_ll_dma.h ****   *         @arg @ref LL_DMA_CHANNEL_6
 778:Drivers/STM32G4xx_HAL_Driver/Inc/stm32g4xx_ll_dma.h ****   *         @arg @ref LL_DMA_CHANNEL_7 (*)
 779:Drivers/STM32G4xx_HAL_Driver/Inc/stm32g4xx_ll_dma.h ****   *         @arg @ref LL_DMA_CHANNEL_8 (*)
 780:Drivers/STM32G4xx_HAL_Driver/Inc/stm32g4xx_ll_dma.h ****   *         (*) Not on all G4 devices
 781:Drivers/STM32G4xx_HAL_Driver/Inc/stm32g4xx_ll_dma.h ****   * @param  MemoryOrM2MDstIncMode This parameter can be one of the following values:
 782:Drivers/STM32G4xx_HAL_Driver/Inc/stm32g4xx_ll_dma.h ****   *         @arg @ref LL_DMA_MEMORY_INCREMENT
 783:Drivers/STM32G4xx_HAL_Driver/Inc/stm32g4xx_ll_dma.h ****   *         @arg @ref LL_DMA_MEMORY_NOINCREMENT
 784:Drivers/STM32G4xx_HAL_Driver/Inc/stm32g4xx_ll_dma.h ****   * @retval None
 785:Drivers/STM32G4xx_HAL_Driver/Inc/stm32g4xx_ll_dma.h ****   */
 786:Drivers/STM32G4xx_HAL_Driver/Inc/stm32g4xx_ll_dma.h **** __STATIC_INLINE void LL_DMA_SetMemoryIncMode(DMA_TypeDef *DMAx, uint32_t Channel, uint32_t MemoryOr
 787:Drivers/STM32G4xx_HAL_Driver/Inc/stm32g4xx_ll_dma.h **** {
 788:Drivers/STM32G4xx_HAL_Driver/Inc/stm32g4xx_ll_dma.h ****   uint32_t dma_base_addr = (uint32_t)DMAx;
 789:Drivers/STM32G4xx_HAL_Driver/Inc/stm32g4xx_ll_dma.h ****   MODIFY_REG(((DMA_Channel_TypeDef *)((uint32_t)(dma_base_addr + CHANNEL_OFFSET_TAB[Channel])))->CC
 790:Drivers/STM32G4xx_HAL_Driver/Inc/stm32g4xx_ll_dma.h ****              MemoryOrM2MDstIncMode);
 791:Drivers/STM32G4xx_HAL_Driver/Inc/stm32g4xx_ll_dma.h **** }
 792:Drivers/STM32G4xx_HAL_Driver/Inc/stm32g4xx_ll_dma.h **** 
 793:Drivers/STM32G4xx_HAL_Driver/Inc/stm32g4xx_ll_dma.h **** /**
 794:Drivers/STM32G4xx_HAL_Driver/Inc/stm32g4xx_ll_dma.h ****   * @brief  Get Memory increment mode.
 795:Drivers/STM32G4xx_HAL_Driver/Inc/stm32g4xx_ll_dma.h ****   * @rmtoll CCR          MINC          LL_DMA_GetMemoryIncMode
 796:Drivers/STM32G4xx_HAL_Driver/Inc/stm32g4xx_ll_dma.h ****   * @param  DMAx DMAx Instance
 797:Drivers/STM32G4xx_HAL_Driver/Inc/stm32g4xx_ll_dma.h ****   * @param  Channel This parameter can be one of the following values:
 798:Drivers/STM32G4xx_HAL_Driver/Inc/stm32g4xx_ll_dma.h ****   *         @arg @ref LL_DMA_CHANNEL_1
 799:Drivers/STM32G4xx_HAL_Driver/Inc/stm32g4xx_ll_dma.h ****   *         @arg @ref LL_DMA_CHANNEL_2
 800:Drivers/STM32G4xx_HAL_Driver/Inc/stm32g4xx_ll_dma.h ****   *         @arg @ref LL_DMA_CHANNEL_3
 801:Drivers/STM32G4xx_HAL_Driver/Inc/stm32g4xx_ll_dma.h ****   *         @arg @ref LL_DMA_CHANNEL_4
 802:Drivers/STM32G4xx_HAL_Driver/Inc/stm32g4xx_ll_dma.h ****   *         @arg @ref LL_DMA_CHANNEL_5
 803:Drivers/STM32G4xx_HAL_Driver/Inc/stm32g4xx_ll_dma.h ****   *         @arg @ref LL_DMA_CHANNEL_6
 804:Drivers/STM32G4xx_HAL_Driver/Inc/stm32g4xx_ll_dma.h ****   *         @arg @ref LL_DMA_CHANNEL_7 (*)
ARM GAS  D:\apps\VSCode\data\tmp\ccESTIAN.s 			page 17


 805:Drivers/STM32G4xx_HAL_Driver/Inc/stm32g4xx_ll_dma.h ****   *         @arg @ref LL_DMA_CHANNEL_8 (*)
 806:Drivers/STM32G4xx_HAL_Driver/Inc/stm32g4xx_ll_dma.h ****   *         (*) Not on all G4 devices
 807:Drivers/STM32G4xx_HAL_Driver/Inc/stm32g4xx_ll_dma.h ****   * @retval Returned value can be one of the following values:
 808:Drivers/STM32G4xx_HAL_Driver/Inc/stm32g4xx_ll_dma.h ****   *         @arg @ref LL_DMA_MEMORY_INCREMENT
 809:Drivers/STM32G4xx_HAL_Driver/Inc/stm32g4xx_ll_dma.h ****   *         @arg @ref LL_DMA_MEMORY_NOINCREMENT
 810:Drivers/STM32G4xx_HAL_Driver/Inc/stm32g4xx_ll_dma.h ****   */
 811:Drivers/STM32G4xx_HAL_Driver/Inc/stm32g4xx_ll_dma.h **** __STATIC_INLINE uint32_t LL_DMA_GetMemoryIncMode(DMA_TypeDef *DMAx, uint32_t Channel)
 812:Drivers/STM32G4xx_HAL_Driver/Inc/stm32g4xx_ll_dma.h **** {
 813:Drivers/STM32G4xx_HAL_Driver/Inc/stm32g4xx_ll_dma.h ****   uint32_t dma_base_addr = (uint32_t)DMAx;
 814:Drivers/STM32G4xx_HAL_Driver/Inc/stm32g4xx_ll_dma.h ****   return (READ_BIT(((DMA_Channel_TypeDef *)((uint32_t)(dma_base_addr + CHANNEL_OFFSET_TAB[Channel])
 815:Drivers/STM32G4xx_HAL_Driver/Inc/stm32g4xx_ll_dma.h ****                    DMA_CCR_MINC));
 816:Drivers/STM32G4xx_HAL_Driver/Inc/stm32g4xx_ll_dma.h **** }
 817:Drivers/STM32G4xx_HAL_Driver/Inc/stm32g4xx_ll_dma.h **** 
 818:Drivers/STM32G4xx_HAL_Driver/Inc/stm32g4xx_ll_dma.h **** /**
 819:Drivers/STM32G4xx_HAL_Driver/Inc/stm32g4xx_ll_dma.h ****   * @brief  Set Peripheral size.
 820:Drivers/STM32G4xx_HAL_Driver/Inc/stm32g4xx_ll_dma.h ****   * @rmtoll CCR          PSIZE         LL_DMA_SetPeriphSize
 821:Drivers/STM32G4xx_HAL_Driver/Inc/stm32g4xx_ll_dma.h ****   * @param  DMAx DMAx Instance
 822:Drivers/STM32G4xx_HAL_Driver/Inc/stm32g4xx_ll_dma.h ****   * @param  Channel This parameter can be one of the following values:
 823:Drivers/STM32G4xx_HAL_Driver/Inc/stm32g4xx_ll_dma.h ****   *         @arg @ref LL_DMA_CHANNEL_1
 824:Drivers/STM32G4xx_HAL_Driver/Inc/stm32g4xx_ll_dma.h ****   *         @arg @ref LL_DMA_CHANNEL_2
 825:Drivers/STM32G4xx_HAL_Driver/Inc/stm32g4xx_ll_dma.h ****   *         @arg @ref LL_DMA_CHANNEL_3
 826:Drivers/STM32G4xx_HAL_Driver/Inc/stm32g4xx_ll_dma.h ****   *         @arg @ref LL_DMA_CHANNEL_4
 827:Drivers/STM32G4xx_HAL_Driver/Inc/stm32g4xx_ll_dma.h ****   *         @arg @ref LL_DMA_CHANNEL_5
 828:Drivers/STM32G4xx_HAL_Driver/Inc/stm32g4xx_ll_dma.h ****   *         @arg @ref LL_DMA_CHANNEL_6
 829:Drivers/STM32G4xx_HAL_Driver/Inc/stm32g4xx_ll_dma.h ****   *         @arg @ref LL_DMA_CHANNEL_7 (*)
 830:Drivers/STM32G4xx_HAL_Driver/Inc/stm32g4xx_ll_dma.h ****   *         @arg @ref LL_DMA_CHANNEL_8 (*)
 831:Drivers/STM32G4xx_HAL_Driver/Inc/stm32g4xx_ll_dma.h ****   *         (*) Not on all G4 devices
 832:Drivers/STM32G4xx_HAL_Driver/Inc/stm32g4xx_ll_dma.h ****   * @param  PeriphOrM2MSrcDataSize This parameter can be one of the following values:
 833:Drivers/STM32G4xx_HAL_Driver/Inc/stm32g4xx_ll_dma.h ****   *         @arg @ref LL_DMA_PDATAALIGN_BYTE
 834:Drivers/STM32G4xx_HAL_Driver/Inc/stm32g4xx_ll_dma.h ****   *         @arg @ref LL_DMA_PDATAALIGN_HALFWORD
 835:Drivers/STM32G4xx_HAL_Driver/Inc/stm32g4xx_ll_dma.h ****   *         @arg @ref LL_DMA_PDATAALIGN_WORD
 836:Drivers/STM32G4xx_HAL_Driver/Inc/stm32g4xx_ll_dma.h ****   * @retval None
 837:Drivers/STM32G4xx_HAL_Driver/Inc/stm32g4xx_ll_dma.h ****   */
 838:Drivers/STM32G4xx_HAL_Driver/Inc/stm32g4xx_ll_dma.h **** __STATIC_INLINE void LL_DMA_SetPeriphSize(DMA_TypeDef *DMAx, uint32_t Channel, uint32_t PeriphOrM2M
 839:Drivers/STM32G4xx_HAL_Driver/Inc/stm32g4xx_ll_dma.h **** {
 840:Drivers/STM32G4xx_HAL_Driver/Inc/stm32g4xx_ll_dma.h ****   uint32_t dma_base_addr = (uint32_t)DMAx;
 841:Drivers/STM32G4xx_HAL_Driver/Inc/stm32g4xx_ll_dma.h ****   MODIFY_REG(((DMA_Channel_TypeDef *)((uint32_t)(dma_base_addr + CHANNEL_OFFSET_TAB[Channel])))->CC
 842:Drivers/STM32G4xx_HAL_Driver/Inc/stm32g4xx_ll_dma.h ****              PeriphOrM2MSrcDataSize);
 843:Drivers/STM32G4xx_HAL_Driver/Inc/stm32g4xx_ll_dma.h **** }
 844:Drivers/STM32G4xx_HAL_Driver/Inc/stm32g4xx_ll_dma.h **** 
 845:Drivers/STM32G4xx_HAL_Driver/Inc/stm32g4xx_ll_dma.h **** /**
 846:Drivers/STM32G4xx_HAL_Driver/Inc/stm32g4xx_ll_dma.h ****   * @brief  Get Peripheral size.
 847:Drivers/STM32G4xx_HAL_Driver/Inc/stm32g4xx_ll_dma.h ****   * @rmtoll CCR          PSIZE         LL_DMA_GetPeriphSize
 848:Drivers/STM32G4xx_HAL_Driver/Inc/stm32g4xx_ll_dma.h ****   * @param  DMAx DMAx Instance
 849:Drivers/STM32G4xx_HAL_Driver/Inc/stm32g4xx_ll_dma.h ****   * @param  Channel This parameter can be one of the following values:
 850:Drivers/STM32G4xx_HAL_Driver/Inc/stm32g4xx_ll_dma.h ****   *         @arg @ref LL_DMA_CHANNEL_1
 851:Drivers/STM32G4xx_HAL_Driver/Inc/stm32g4xx_ll_dma.h ****   *         @arg @ref LL_DMA_CHANNEL_2
 852:Drivers/STM32G4xx_HAL_Driver/Inc/stm32g4xx_ll_dma.h ****   *         @arg @ref LL_DMA_CHANNEL_3
 853:Drivers/STM32G4xx_HAL_Driver/Inc/stm32g4xx_ll_dma.h ****   *         @arg @ref LL_DMA_CHANNEL_4
 854:Drivers/STM32G4xx_HAL_Driver/Inc/stm32g4xx_ll_dma.h ****   *         @arg @ref LL_DMA_CHANNEL_5
 855:Drivers/STM32G4xx_HAL_Driver/Inc/stm32g4xx_ll_dma.h ****   *         @arg @ref LL_DMA_CHANNEL_6
 856:Drivers/STM32G4xx_HAL_Driver/Inc/stm32g4xx_ll_dma.h ****   *         @arg @ref LL_DMA_CHANNEL_7 (*)
 857:Drivers/STM32G4xx_HAL_Driver/Inc/stm32g4xx_ll_dma.h ****   *         @arg @ref LL_DMA_CHANNEL_8 (*)
 858:Drivers/STM32G4xx_HAL_Driver/Inc/stm32g4xx_ll_dma.h ****   *         (*) Not on all G4 devices
 859:Drivers/STM32G4xx_HAL_Driver/Inc/stm32g4xx_ll_dma.h ****   * @retval Returned value can be one of the following values:
 860:Drivers/STM32G4xx_HAL_Driver/Inc/stm32g4xx_ll_dma.h ****   *         @arg @ref LL_DMA_PDATAALIGN_BYTE
 861:Drivers/STM32G4xx_HAL_Driver/Inc/stm32g4xx_ll_dma.h ****   *         @arg @ref LL_DMA_PDATAALIGN_HALFWORD
ARM GAS  D:\apps\VSCode\data\tmp\ccESTIAN.s 			page 18


 862:Drivers/STM32G4xx_HAL_Driver/Inc/stm32g4xx_ll_dma.h ****   *         @arg @ref LL_DMA_PDATAALIGN_WORD
 863:Drivers/STM32G4xx_HAL_Driver/Inc/stm32g4xx_ll_dma.h ****   */
 864:Drivers/STM32G4xx_HAL_Driver/Inc/stm32g4xx_ll_dma.h **** __STATIC_INLINE uint32_t LL_DMA_GetPeriphSize(DMA_TypeDef *DMAx, uint32_t Channel)
 865:Drivers/STM32G4xx_HAL_Driver/Inc/stm32g4xx_ll_dma.h **** {
 866:Drivers/STM32G4xx_HAL_Driver/Inc/stm32g4xx_ll_dma.h ****   uint32_t dma_base_addr = (uint32_t)DMAx;
 867:Drivers/STM32G4xx_HAL_Driver/Inc/stm32g4xx_ll_dma.h ****   return (READ_BIT(((DMA_Channel_TypeDef *)((uint32_t)(dma_base_addr + CHANNEL_OFFSET_TAB[Channel])
 868:Drivers/STM32G4xx_HAL_Driver/Inc/stm32g4xx_ll_dma.h ****                    DMA_CCR_PSIZE));
 869:Drivers/STM32G4xx_HAL_Driver/Inc/stm32g4xx_ll_dma.h **** }
 870:Drivers/STM32G4xx_HAL_Driver/Inc/stm32g4xx_ll_dma.h **** 
 871:Drivers/STM32G4xx_HAL_Driver/Inc/stm32g4xx_ll_dma.h **** /**
 872:Drivers/STM32G4xx_HAL_Driver/Inc/stm32g4xx_ll_dma.h ****   * @brief  Set Memory size.
 873:Drivers/STM32G4xx_HAL_Driver/Inc/stm32g4xx_ll_dma.h ****   * @rmtoll CCR          MSIZE         LL_DMA_SetMemorySize
 874:Drivers/STM32G4xx_HAL_Driver/Inc/stm32g4xx_ll_dma.h ****   * @param  DMAx DMAx Instance
 875:Drivers/STM32G4xx_HAL_Driver/Inc/stm32g4xx_ll_dma.h ****   * @param  Channel This parameter can be one of the following values:
 876:Drivers/STM32G4xx_HAL_Driver/Inc/stm32g4xx_ll_dma.h ****   *         @arg @ref LL_DMA_CHANNEL_1
 877:Drivers/STM32G4xx_HAL_Driver/Inc/stm32g4xx_ll_dma.h ****   *         @arg @ref LL_DMA_CHANNEL_2
 878:Drivers/STM32G4xx_HAL_Driver/Inc/stm32g4xx_ll_dma.h ****   *         @arg @ref LL_DMA_CHANNEL_3
 879:Drivers/STM32G4xx_HAL_Driver/Inc/stm32g4xx_ll_dma.h ****   *         @arg @ref LL_DMA_CHANNEL_4
 880:Drivers/STM32G4xx_HAL_Driver/Inc/stm32g4xx_ll_dma.h ****   *         @arg @ref LL_DMA_CHANNEL_5
 881:Drivers/STM32G4xx_HAL_Driver/Inc/stm32g4xx_ll_dma.h ****   *         @arg @ref LL_DMA_CHANNEL_6
 882:Drivers/STM32G4xx_HAL_Driver/Inc/stm32g4xx_ll_dma.h ****   *         @arg @ref LL_DMA_CHANNEL_7 (*)
 883:Drivers/STM32G4xx_HAL_Driver/Inc/stm32g4xx_ll_dma.h ****   *         @arg @ref LL_DMA_CHANNEL_8 (*)
 884:Drivers/STM32G4xx_HAL_Driver/Inc/stm32g4xx_ll_dma.h ****   *         (*) Not on all G4 devices
 885:Drivers/STM32G4xx_HAL_Driver/Inc/stm32g4xx_ll_dma.h ****   * @param  MemoryOrM2MDstDataSize This parameter can be one of the following values:
 886:Drivers/STM32G4xx_HAL_Driver/Inc/stm32g4xx_ll_dma.h ****   *         @arg @ref LL_DMA_MDATAALIGN_BYTE
 887:Drivers/STM32G4xx_HAL_Driver/Inc/stm32g4xx_ll_dma.h ****   *         @arg @ref LL_DMA_MDATAALIGN_HALFWORD
 888:Drivers/STM32G4xx_HAL_Driver/Inc/stm32g4xx_ll_dma.h ****   *         @arg @ref LL_DMA_MDATAALIGN_WORD
 889:Drivers/STM32G4xx_HAL_Driver/Inc/stm32g4xx_ll_dma.h ****   * @retval None
 890:Drivers/STM32G4xx_HAL_Driver/Inc/stm32g4xx_ll_dma.h ****   */
 891:Drivers/STM32G4xx_HAL_Driver/Inc/stm32g4xx_ll_dma.h **** __STATIC_INLINE void LL_DMA_SetMemorySize(DMA_TypeDef *DMAx, uint32_t Channel, uint32_t MemoryOrM2M
 892:Drivers/STM32G4xx_HAL_Driver/Inc/stm32g4xx_ll_dma.h **** {
 893:Drivers/STM32G4xx_HAL_Driver/Inc/stm32g4xx_ll_dma.h ****   uint32_t dma_base_addr = (uint32_t)DMAx;
 894:Drivers/STM32G4xx_HAL_Driver/Inc/stm32g4xx_ll_dma.h ****   MODIFY_REG(((DMA_Channel_TypeDef *)((uint32_t)(dma_base_addr + CHANNEL_OFFSET_TAB[Channel])))->CC
 895:Drivers/STM32G4xx_HAL_Driver/Inc/stm32g4xx_ll_dma.h ****              MemoryOrM2MDstDataSize);
 896:Drivers/STM32G4xx_HAL_Driver/Inc/stm32g4xx_ll_dma.h **** }
 897:Drivers/STM32G4xx_HAL_Driver/Inc/stm32g4xx_ll_dma.h **** 
 898:Drivers/STM32G4xx_HAL_Driver/Inc/stm32g4xx_ll_dma.h **** /**
 899:Drivers/STM32G4xx_HAL_Driver/Inc/stm32g4xx_ll_dma.h ****   * @brief  Get Memory size.
 900:Drivers/STM32G4xx_HAL_Driver/Inc/stm32g4xx_ll_dma.h ****   * @rmtoll CCR          MSIZE         LL_DMA_GetMemorySize
 901:Drivers/STM32G4xx_HAL_Driver/Inc/stm32g4xx_ll_dma.h ****   * @param  DMAx DMAx Instance
 902:Drivers/STM32G4xx_HAL_Driver/Inc/stm32g4xx_ll_dma.h ****   * @param  Channel This parameter can be one of the following values:
 903:Drivers/STM32G4xx_HAL_Driver/Inc/stm32g4xx_ll_dma.h ****   *         @arg @ref LL_DMA_CHANNEL_1
 904:Drivers/STM32G4xx_HAL_Driver/Inc/stm32g4xx_ll_dma.h ****   *         @arg @ref LL_DMA_CHANNEL_2
 905:Drivers/STM32G4xx_HAL_Driver/Inc/stm32g4xx_ll_dma.h ****   *         @arg @ref LL_DMA_CHANNEL_3
 906:Drivers/STM32G4xx_HAL_Driver/Inc/stm32g4xx_ll_dma.h ****   *         @arg @ref LL_DMA_CHANNEL_4
 907:Drivers/STM32G4xx_HAL_Driver/Inc/stm32g4xx_ll_dma.h ****   *         @arg @ref LL_DMA_CHANNEL_5
 908:Drivers/STM32G4xx_HAL_Driver/Inc/stm32g4xx_ll_dma.h ****   *         @arg @ref LL_DMA_CHANNEL_6
 909:Drivers/STM32G4xx_HAL_Driver/Inc/stm32g4xx_ll_dma.h ****   *         @arg @ref LL_DMA_CHANNEL_7 (*)
 910:Drivers/STM32G4xx_HAL_Driver/Inc/stm32g4xx_ll_dma.h ****   *         @arg @ref LL_DMA_CHANNEL_8 (*)
 911:Drivers/STM32G4xx_HAL_Driver/Inc/stm32g4xx_ll_dma.h ****   *         (*) Not on all G4 devices
 912:Drivers/STM32G4xx_HAL_Driver/Inc/stm32g4xx_ll_dma.h ****   * @retval Returned value can be one of the following values:
 913:Drivers/STM32G4xx_HAL_Driver/Inc/stm32g4xx_ll_dma.h ****   *         @arg @ref LL_DMA_MDATAALIGN_BYTE
 914:Drivers/STM32G4xx_HAL_Driver/Inc/stm32g4xx_ll_dma.h ****   *         @arg @ref LL_DMA_MDATAALIGN_HALFWORD
 915:Drivers/STM32G4xx_HAL_Driver/Inc/stm32g4xx_ll_dma.h ****   *         @arg @ref LL_DMA_MDATAALIGN_WORD
 916:Drivers/STM32G4xx_HAL_Driver/Inc/stm32g4xx_ll_dma.h ****   */
 917:Drivers/STM32G4xx_HAL_Driver/Inc/stm32g4xx_ll_dma.h **** __STATIC_INLINE uint32_t LL_DMA_GetMemorySize(DMA_TypeDef *DMAx, uint32_t Channel)
 918:Drivers/STM32G4xx_HAL_Driver/Inc/stm32g4xx_ll_dma.h **** {
ARM GAS  D:\apps\VSCode\data\tmp\ccESTIAN.s 			page 19


 919:Drivers/STM32G4xx_HAL_Driver/Inc/stm32g4xx_ll_dma.h ****   uint32_t dma_base_addr = (uint32_t)DMAx;
 920:Drivers/STM32G4xx_HAL_Driver/Inc/stm32g4xx_ll_dma.h ****   return (READ_BIT(((DMA_Channel_TypeDef *)((uint32_t)(dma_base_addr + CHANNEL_OFFSET_TAB[Channel])
 921:Drivers/STM32G4xx_HAL_Driver/Inc/stm32g4xx_ll_dma.h ****                    DMA_CCR_MSIZE));
 922:Drivers/STM32G4xx_HAL_Driver/Inc/stm32g4xx_ll_dma.h **** }
 923:Drivers/STM32G4xx_HAL_Driver/Inc/stm32g4xx_ll_dma.h **** 
 924:Drivers/STM32G4xx_HAL_Driver/Inc/stm32g4xx_ll_dma.h **** /**
 925:Drivers/STM32G4xx_HAL_Driver/Inc/stm32g4xx_ll_dma.h ****   * @brief  Set Channel priority level.
 926:Drivers/STM32G4xx_HAL_Driver/Inc/stm32g4xx_ll_dma.h ****   * @rmtoll CCR          PL            LL_DMA_SetChannelPriorityLevel
 927:Drivers/STM32G4xx_HAL_Driver/Inc/stm32g4xx_ll_dma.h ****   * @param  DMAx DMAx Instance
 928:Drivers/STM32G4xx_HAL_Driver/Inc/stm32g4xx_ll_dma.h ****   * @param  Channel This parameter can be one of the following values:
 929:Drivers/STM32G4xx_HAL_Driver/Inc/stm32g4xx_ll_dma.h ****   *         @arg @ref LL_DMA_CHANNEL_1
 930:Drivers/STM32G4xx_HAL_Driver/Inc/stm32g4xx_ll_dma.h ****   *         @arg @ref LL_DMA_CHANNEL_2
 931:Drivers/STM32G4xx_HAL_Driver/Inc/stm32g4xx_ll_dma.h ****   *         @arg @ref LL_DMA_CHANNEL_3
 932:Drivers/STM32G4xx_HAL_Driver/Inc/stm32g4xx_ll_dma.h ****   *         @arg @ref LL_DMA_CHANNEL_4
 933:Drivers/STM32G4xx_HAL_Driver/Inc/stm32g4xx_ll_dma.h ****   *         @arg @ref LL_DMA_CHANNEL_5
 934:Drivers/STM32G4xx_HAL_Driver/Inc/stm32g4xx_ll_dma.h ****   *         @arg @ref LL_DMA_CHANNEL_6
 935:Drivers/STM32G4xx_HAL_Driver/Inc/stm32g4xx_ll_dma.h ****   *         @arg @ref LL_DMA_CHANNEL_7 (*)
 936:Drivers/STM32G4xx_HAL_Driver/Inc/stm32g4xx_ll_dma.h ****   *         @arg @ref LL_DMA_CHANNEL_8 (*)
 937:Drivers/STM32G4xx_HAL_Driver/Inc/stm32g4xx_ll_dma.h ****   *         (*) Not on all G4 devices
 938:Drivers/STM32G4xx_HAL_Driver/Inc/stm32g4xx_ll_dma.h ****   * @param  Priority This parameter can be one of the following values:
 939:Drivers/STM32G4xx_HAL_Driver/Inc/stm32g4xx_ll_dma.h ****   *         @arg @ref LL_DMA_PRIORITY_LOW
 940:Drivers/STM32G4xx_HAL_Driver/Inc/stm32g4xx_ll_dma.h ****   *         @arg @ref LL_DMA_PRIORITY_MEDIUM
 941:Drivers/STM32G4xx_HAL_Driver/Inc/stm32g4xx_ll_dma.h ****   *         @arg @ref LL_DMA_PRIORITY_HIGH
 942:Drivers/STM32G4xx_HAL_Driver/Inc/stm32g4xx_ll_dma.h ****   *         @arg @ref LL_DMA_PRIORITY_VERYHIGH
 943:Drivers/STM32G4xx_HAL_Driver/Inc/stm32g4xx_ll_dma.h ****   * @retval None
 944:Drivers/STM32G4xx_HAL_Driver/Inc/stm32g4xx_ll_dma.h ****   */
 945:Drivers/STM32G4xx_HAL_Driver/Inc/stm32g4xx_ll_dma.h **** __STATIC_INLINE void LL_DMA_SetChannelPriorityLevel(DMA_TypeDef *DMAx, uint32_t Channel, uint32_t P
 946:Drivers/STM32G4xx_HAL_Driver/Inc/stm32g4xx_ll_dma.h **** {
 947:Drivers/STM32G4xx_HAL_Driver/Inc/stm32g4xx_ll_dma.h ****   uint32_t dma_base_addr = (uint32_t)DMAx;
 948:Drivers/STM32G4xx_HAL_Driver/Inc/stm32g4xx_ll_dma.h ****   MODIFY_REG(((DMA_Channel_TypeDef *)((uint32_t)(dma_base_addr + CHANNEL_OFFSET_TAB[Channel])))->CC
 949:Drivers/STM32G4xx_HAL_Driver/Inc/stm32g4xx_ll_dma.h ****              Priority);
 950:Drivers/STM32G4xx_HAL_Driver/Inc/stm32g4xx_ll_dma.h **** }
 951:Drivers/STM32G4xx_HAL_Driver/Inc/stm32g4xx_ll_dma.h **** 
 952:Drivers/STM32G4xx_HAL_Driver/Inc/stm32g4xx_ll_dma.h **** /**
 953:Drivers/STM32G4xx_HAL_Driver/Inc/stm32g4xx_ll_dma.h ****   * @brief  Get Channel priority level.
 954:Drivers/STM32G4xx_HAL_Driver/Inc/stm32g4xx_ll_dma.h ****   * @rmtoll CCR          PL            LL_DMA_GetChannelPriorityLevel
 955:Drivers/STM32G4xx_HAL_Driver/Inc/stm32g4xx_ll_dma.h ****   * @param  DMAx DMAx Instance
 956:Drivers/STM32G4xx_HAL_Driver/Inc/stm32g4xx_ll_dma.h ****   * @param  Channel This parameter can be one of the following values:
 957:Drivers/STM32G4xx_HAL_Driver/Inc/stm32g4xx_ll_dma.h ****   *         @arg @ref LL_DMA_CHANNEL_1
 958:Drivers/STM32G4xx_HAL_Driver/Inc/stm32g4xx_ll_dma.h ****   *         @arg @ref LL_DMA_CHANNEL_2
 959:Drivers/STM32G4xx_HAL_Driver/Inc/stm32g4xx_ll_dma.h ****   *         @arg @ref LL_DMA_CHANNEL_3
 960:Drivers/STM32G4xx_HAL_Driver/Inc/stm32g4xx_ll_dma.h ****   *         @arg @ref LL_DMA_CHANNEL_4
 961:Drivers/STM32G4xx_HAL_Driver/Inc/stm32g4xx_ll_dma.h ****   *         @arg @ref LL_DMA_CHANNEL_5
 962:Drivers/STM32G4xx_HAL_Driver/Inc/stm32g4xx_ll_dma.h ****   *         @arg @ref LL_DMA_CHANNEL_6
 963:Drivers/STM32G4xx_HAL_Driver/Inc/stm32g4xx_ll_dma.h ****   *         @arg @ref LL_DMA_CHANNEL_7 (*)
 964:Drivers/STM32G4xx_HAL_Driver/Inc/stm32g4xx_ll_dma.h ****   *         @arg @ref LL_DMA_CHANNEL_8 (*)
 965:Drivers/STM32G4xx_HAL_Driver/Inc/stm32g4xx_ll_dma.h ****   *         (*) Not on all G4 devices
 966:Drivers/STM32G4xx_HAL_Driver/Inc/stm32g4xx_ll_dma.h ****   * @retval Returned value can be one of the following values:
 967:Drivers/STM32G4xx_HAL_Driver/Inc/stm32g4xx_ll_dma.h ****   *         @arg @ref LL_DMA_PRIORITY_LOW
 968:Drivers/STM32G4xx_HAL_Driver/Inc/stm32g4xx_ll_dma.h ****   *         @arg @ref LL_DMA_PRIORITY_MEDIUM
 969:Drivers/STM32G4xx_HAL_Driver/Inc/stm32g4xx_ll_dma.h ****   *         @arg @ref LL_DMA_PRIORITY_HIGH
 970:Drivers/STM32G4xx_HAL_Driver/Inc/stm32g4xx_ll_dma.h ****   *         @arg @ref LL_DMA_PRIORITY_VERYHIGH
 971:Drivers/STM32G4xx_HAL_Driver/Inc/stm32g4xx_ll_dma.h ****   */
 972:Drivers/STM32G4xx_HAL_Driver/Inc/stm32g4xx_ll_dma.h **** __STATIC_INLINE uint32_t LL_DMA_GetChannelPriorityLevel(DMA_TypeDef *DMAx, uint32_t Channel)
 973:Drivers/STM32G4xx_HAL_Driver/Inc/stm32g4xx_ll_dma.h **** {
 974:Drivers/STM32G4xx_HAL_Driver/Inc/stm32g4xx_ll_dma.h ****   uint32_t dma_base_addr = (uint32_t)DMAx;
 975:Drivers/STM32G4xx_HAL_Driver/Inc/stm32g4xx_ll_dma.h ****   return (READ_BIT(((DMA_Channel_TypeDef *)((uint32_t)(dma_base_addr + CHANNEL_OFFSET_TAB[Channel])
ARM GAS  D:\apps\VSCode\data\tmp\ccESTIAN.s 			page 20


 976:Drivers/STM32G4xx_HAL_Driver/Inc/stm32g4xx_ll_dma.h ****                    DMA_CCR_PL));
 977:Drivers/STM32G4xx_HAL_Driver/Inc/stm32g4xx_ll_dma.h **** }
 978:Drivers/STM32G4xx_HAL_Driver/Inc/stm32g4xx_ll_dma.h **** 
 979:Drivers/STM32G4xx_HAL_Driver/Inc/stm32g4xx_ll_dma.h **** /**
 980:Drivers/STM32G4xx_HAL_Driver/Inc/stm32g4xx_ll_dma.h ****   * @brief  Set Number of data to transfer.
 981:Drivers/STM32G4xx_HAL_Driver/Inc/stm32g4xx_ll_dma.h ****   * @note   This action has no effect if
 982:Drivers/STM32G4xx_HAL_Driver/Inc/stm32g4xx_ll_dma.h ****   *         channel is enabled.
 983:Drivers/STM32G4xx_HAL_Driver/Inc/stm32g4xx_ll_dma.h ****   * @rmtoll CNDTR        NDT           LL_DMA_SetDataLength
 984:Drivers/STM32G4xx_HAL_Driver/Inc/stm32g4xx_ll_dma.h ****   * @param  DMAx DMAx Instance
 985:Drivers/STM32G4xx_HAL_Driver/Inc/stm32g4xx_ll_dma.h ****   * @param  Channel This parameter can be one of the following values:
 986:Drivers/STM32G4xx_HAL_Driver/Inc/stm32g4xx_ll_dma.h ****   *         @arg @ref LL_DMA_CHANNEL_1
 987:Drivers/STM32G4xx_HAL_Driver/Inc/stm32g4xx_ll_dma.h ****   *         @arg @ref LL_DMA_CHANNEL_2
 988:Drivers/STM32G4xx_HAL_Driver/Inc/stm32g4xx_ll_dma.h ****   *         @arg @ref LL_DMA_CHANNEL_3
 989:Drivers/STM32G4xx_HAL_Driver/Inc/stm32g4xx_ll_dma.h ****   *         @arg @ref LL_DMA_CHANNEL_4
 990:Drivers/STM32G4xx_HAL_Driver/Inc/stm32g4xx_ll_dma.h ****   *         @arg @ref LL_DMA_CHANNEL_5
 991:Drivers/STM32G4xx_HAL_Driver/Inc/stm32g4xx_ll_dma.h ****   *         @arg @ref LL_DMA_CHANNEL_6
 992:Drivers/STM32G4xx_HAL_Driver/Inc/stm32g4xx_ll_dma.h ****   *         @arg @ref LL_DMA_CHANNEL_7 (*)
 993:Drivers/STM32G4xx_HAL_Driver/Inc/stm32g4xx_ll_dma.h ****   *         @arg @ref LL_DMA_CHANNEL_8 (*)
 994:Drivers/STM32G4xx_HAL_Driver/Inc/stm32g4xx_ll_dma.h ****   *         (*) Not on all G4 devices
 995:Drivers/STM32G4xx_HAL_Driver/Inc/stm32g4xx_ll_dma.h ****   * @param  NbData Between Min_Data = 0 and Max_Data = 0x0000FFFF
 996:Drivers/STM32G4xx_HAL_Driver/Inc/stm32g4xx_ll_dma.h ****   * @retval None
 997:Drivers/STM32G4xx_HAL_Driver/Inc/stm32g4xx_ll_dma.h ****   */
 998:Drivers/STM32G4xx_HAL_Driver/Inc/stm32g4xx_ll_dma.h **** __STATIC_INLINE void LL_DMA_SetDataLength(DMA_TypeDef *DMAx, uint32_t Channel, uint32_t NbData)
 999:Drivers/STM32G4xx_HAL_Driver/Inc/stm32g4xx_ll_dma.h **** {
 114              		.loc 1 999 1
 115              		.cfi_startproc
 116              		@ args = 0, pretend = 0, frame = 24
 117              		@ frame_needed = 1, uses_anonymous_args = 0
 118              		@ link register save eliminated.
 119 0000 80B4     		push	{r7}
 120              	.LCFI6:
 121              		.cfi_def_cfa_offset 4
 122              		.cfi_offset 7, -4
 123 0002 87B0     		sub	sp, sp, #28
 124              	.LCFI7:
 125              		.cfi_def_cfa_offset 32
 126 0004 00AF     		add	r7, sp, #0
 127              	.LCFI8:
 128              		.cfi_def_cfa_register 7
 129 0006 F860     		str	r0, [r7, #12]
 130 0008 B960     		str	r1, [r7, #8]
 131 000a 7A60     		str	r2, [r7, #4]
1000:Drivers/STM32G4xx_HAL_Driver/Inc/stm32g4xx_ll_dma.h ****   uint32_t dma_base_addr = (uint32_t)DMAx;
 132              		.loc 1 1000 12
 133 000c FB68     		ldr	r3, [r7, #12]
 134 000e 7B61     		str	r3, [r7, #20]
1001:Drivers/STM32G4xx_HAL_Driver/Inc/stm32g4xx_ll_dma.h ****   MODIFY_REG(((DMA_Channel_TypeDef *)((uint32_t)(dma_base_addr + CHANNEL_OFFSET_TAB[Channel])))->CN
 135              		.loc 1 1001 3
 136 0010 0D4A     		ldr	r2, .L5
 137 0012 BB68     		ldr	r3, [r7, #8]
 138 0014 1344     		add	r3, r3, r2
 139 0016 1B78     		ldrb	r3, [r3]	@ zero_extendqisi2
 140 0018 1A46     		mov	r2, r3
 141 001a 7B69     		ldr	r3, [r7, #20]
 142 001c 1344     		add	r3, r3, r2
 143 001e 5B68     		ldr	r3, [r3, #4]
 144 0020 1B0C     		lsrs	r3, r3, #16
ARM GAS  D:\apps\VSCode\data\tmp\ccESTIAN.s 			page 21


 145 0022 1B04     		lsls	r3, r3, #16
 146 0024 0849     		ldr	r1, .L5
 147 0026 BA68     		ldr	r2, [r7, #8]
 148 0028 0A44     		add	r2, r2, r1
 149 002a 1278     		ldrb	r2, [r2]	@ zero_extendqisi2
 150 002c 1146     		mov	r1, r2
 151 002e 7A69     		ldr	r2, [r7, #20]
 152 0030 0A44     		add	r2, r2, r1
 153 0032 1146     		mov	r1, r2
 154 0034 7A68     		ldr	r2, [r7, #4]
 155 0036 1343     		orrs	r3, r3, r2
 156 0038 4B60     		str	r3, [r1, #4]
1002:Drivers/STM32G4xx_HAL_Driver/Inc/stm32g4xx_ll_dma.h ****              DMA_CNDTR_NDT, NbData);
1003:Drivers/STM32G4xx_HAL_Driver/Inc/stm32g4xx_ll_dma.h **** }
 157              		.loc 1 1003 1
 158 003a 00BF     		nop
 159 003c 1C37     		adds	r7, r7, #28
 160              	.LCFI9:
 161              		.cfi_def_cfa_offset 4
 162 003e BD46     		mov	sp, r7
 163              	.LCFI10:
 164              		.cfi_def_cfa_register 13
 165              		@ sp needed
 166 0040 5DF8047B 		ldr	r7, [sp], #4
 167              	.LCFI11:
 168              		.cfi_restore 7
 169              		.cfi_def_cfa_offset 0
 170 0044 7047     		bx	lr
 171              	.L6:
 172 0046 00BF     		.align	2
 173              	.L5:
 174 0048 00000000 		.word	CHANNEL_OFFSET_TAB
 175              		.cfi_endproc
 176              	.LFE217:
 178              		.section	.text.LL_DMA_SetMemoryAddress,"ax",%progbits
 179              		.align	1
 180              		.syntax unified
 181              		.thumb
 182              		.thumb_func
 183              		.fpu fpv4-sp-d16
 185              	LL_DMA_SetMemoryAddress:
 186              	.LFB220:
1004:Drivers/STM32G4xx_HAL_Driver/Inc/stm32g4xx_ll_dma.h **** 
1005:Drivers/STM32G4xx_HAL_Driver/Inc/stm32g4xx_ll_dma.h **** /**
1006:Drivers/STM32G4xx_HAL_Driver/Inc/stm32g4xx_ll_dma.h ****   * @brief  Get Number of data to transfer.
1007:Drivers/STM32G4xx_HAL_Driver/Inc/stm32g4xx_ll_dma.h ****   * @note   Once the channel is enabled, the return value indicate the
1008:Drivers/STM32G4xx_HAL_Driver/Inc/stm32g4xx_ll_dma.h ****   *         remaining bytes to be transmitted.
1009:Drivers/STM32G4xx_HAL_Driver/Inc/stm32g4xx_ll_dma.h ****   * @rmtoll CNDTR        NDT           LL_DMA_GetDataLength
1010:Drivers/STM32G4xx_HAL_Driver/Inc/stm32g4xx_ll_dma.h ****   * @param  DMAx DMAx Instance
1011:Drivers/STM32G4xx_HAL_Driver/Inc/stm32g4xx_ll_dma.h ****   * @param  Channel This parameter can be one of the following values:
1012:Drivers/STM32G4xx_HAL_Driver/Inc/stm32g4xx_ll_dma.h ****   *         @arg @ref LL_DMA_CHANNEL_1
1013:Drivers/STM32G4xx_HAL_Driver/Inc/stm32g4xx_ll_dma.h ****   *         @arg @ref LL_DMA_CHANNEL_2
1014:Drivers/STM32G4xx_HAL_Driver/Inc/stm32g4xx_ll_dma.h ****   *         @arg @ref LL_DMA_CHANNEL_3
1015:Drivers/STM32G4xx_HAL_Driver/Inc/stm32g4xx_ll_dma.h ****   *         @arg @ref LL_DMA_CHANNEL_4
1016:Drivers/STM32G4xx_HAL_Driver/Inc/stm32g4xx_ll_dma.h ****   *         @arg @ref LL_DMA_CHANNEL_5
1017:Drivers/STM32G4xx_HAL_Driver/Inc/stm32g4xx_ll_dma.h ****   *         @arg @ref LL_DMA_CHANNEL_6
1018:Drivers/STM32G4xx_HAL_Driver/Inc/stm32g4xx_ll_dma.h ****   *         @arg @ref LL_DMA_CHANNEL_7 (*)
ARM GAS  D:\apps\VSCode\data\tmp\ccESTIAN.s 			page 22


1019:Drivers/STM32G4xx_HAL_Driver/Inc/stm32g4xx_ll_dma.h ****   *         @arg @ref LL_DMA_CHANNEL_8 (*)
1020:Drivers/STM32G4xx_HAL_Driver/Inc/stm32g4xx_ll_dma.h ****   *         (*) Not on all G4 devices
1021:Drivers/STM32G4xx_HAL_Driver/Inc/stm32g4xx_ll_dma.h ****   * @retval Between Min_Data = 0 and Max_Data = 0xFFFFFFFF
1022:Drivers/STM32G4xx_HAL_Driver/Inc/stm32g4xx_ll_dma.h ****   */
1023:Drivers/STM32G4xx_HAL_Driver/Inc/stm32g4xx_ll_dma.h **** __STATIC_INLINE uint32_t LL_DMA_GetDataLength(DMA_TypeDef *DMAx, uint32_t Channel)
1024:Drivers/STM32G4xx_HAL_Driver/Inc/stm32g4xx_ll_dma.h **** {
1025:Drivers/STM32G4xx_HAL_Driver/Inc/stm32g4xx_ll_dma.h ****   uint32_t dma_base_addr = (uint32_t)DMAx;
1026:Drivers/STM32G4xx_HAL_Driver/Inc/stm32g4xx_ll_dma.h ****   return (READ_BIT(((DMA_Channel_TypeDef *)((uint32_t)(dma_base_addr + CHANNEL_OFFSET_TAB[Channel])
1027:Drivers/STM32G4xx_HAL_Driver/Inc/stm32g4xx_ll_dma.h ****                    DMA_CNDTR_NDT));
1028:Drivers/STM32G4xx_HAL_Driver/Inc/stm32g4xx_ll_dma.h **** }
1029:Drivers/STM32G4xx_HAL_Driver/Inc/stm32g4xx_ll_dma.h **** 
1030:Drivers/STM32G4xx_HAL_Driver/Inc/stm32g4xx_ll_dma.h **** /**
1031:Drivers/STM32G4xx_HAL_Driver/Inc/stm32g4xx_ll_dma.h ****   * @brief  Configure the Source and Destination addresses.
1032:Drivers/STM32G4xx_HAL_Driver/Inc/stm32g4xx_ll_dma.h ****   * @note   This API must not be called when the DMA channel is enabled.
1033:Drivers/STM32G4xx_HAL_Driver/Inc/stm32g4xx_ll_dma.h ****   * @note   Each IP using DMA provides an API to get directly the register adress (LL_PPP_DMA_GetRe
1034:Drivers/STM32G4xx_HAL_Driver/Inc/stm32g4xx_ll_dma.h ****   * @rmtoll CPAR         PA            LL_DMA_ConfigAddresses\n
1035:Drivers/STM32G4xx_HAL_Driver/Inc/stm32g4xx_ll_dma.h ****   *         CMAR         MA            LL_DMA_ConfigAddresses
1036:Drivers/STM32G4xx_HAL_Driver/Inc/stm32g4xx_ll_dma.h ****   * @param  DMAx DMAx Instance
1037:Drivers/STM32G4xx_HAL_Driver/Inc/stm32g4xx_ll_dma.h ****   * @param  Channel This parameter can be one of the following values:
1038:Drivers/STM32G4xx_HAL_Driver/Inc/stm32g4xx_ll_dma.h ****   *         @arg @ref LL_DMA_CHANNEL_1
1039:Drivers/STM32G4xx_HAL_Driver/Inc/stm32g4xx_ll_dma.h ****   *         @arg @ref LL_DMA_CHANNEL_2
1040:Drivers/STM32G4xx_HAL_Driver/Inc/stm32g4xx_ll_dma.h ****   *         @arg @ref LL_DMA_CHANNEL_3
1041:Drivers/STM32G4xx_HAL_Driver/Inc/stm32g4xx_ll_dma.h ****   *         @arg @ref LL_DMA_CHANNEL_4
1042:Drivers/STM32G4xx_HAL_Driver/Inc/stm32g4xx_ll_dma.h ****   *         @arg @ref LL_DMA_CHANNEL_5
1043:Drivers/STM32G4xx_HAL_Driver/Inc/stm32g4xx_ll_dma.h ****   *         @arg @ref LL_DMA_CHANNEL_6
1044:Drivers/STM32G4xx_HAL_Driver/Inc/stm32g4xx_ll_dma.h ****   *         @arg @ref LL_DMA_CHANNEL_7 (*)
1045:Drivers/STM32G4xx_HAL_Driver/Inc/stm32g4xx_ll_dma.h ****   *         @arg @ref LL_DMA_CHANNEL_8 (*)
1046:Drivers/STM32G4xx_HAL_Driver/Inc/stm32g4xx_ll_dma.h ****   *         (*) Not on all G4 devices
1047:Drivers/STM32G4xx_HAL_Driver/Inc/stm32g4xx_ll_dma.h ****   * @param  SrcAddress Between Min_Data = 0 and Max_Data = 0xFFFFFFFF
1048:Drivers/STM32G4xx_HAL_Driver/Inc/stm32g4xx_ll_dma.h ****   * @param  DstAddress Between Min_Data = 0 and Max_Data = 0xFFFFFFFF
1049:Drivers/STM32G4xx_HAL_Driver/Inc/stm32g4xx_ll_dma.h ****   * @param  Direction This parameter can be one of the following values:
1050:Drivers/STM32G4xx_HAL_Driver/Inc/stm32g4xx_ll_dma.h ****   *         @arg @ref LL_DMA_DIRECTION_PERIPH_TO_MEMORY
1051:Drivers/STM32G4xx_HAL_Driver/Inc/stm32g4xx_ll_dma.h ****   *         @arg @ref LL_DMA_DIRECTION_MEMORY_TO_PERIPH
1052:Drivers/STM32G4xx_HAL_Driver/Inc/stm32g4xx_ll_dma.h ****   *         @arg @ref LL_DMA_DIRECTION_MEMORY_TO_MEMORY
1053:Drivers/STM32G4xx_HAL_Driver/Inc/stm32g4xx_ll_dma.h ****   * @retval None
1054:Drivers/STM32G4xx_HAL_Driver/Inc/stm32g4xx_ll_dma.h ****   */
1055:Drivers/STM32G4xx_HAL_Driver/Inc/stm32g4xx_ll_dma.h **** __STATIC_INLINE void LL_DMA_ConfigAddresses(DMA_TypeDef *DMAx, uint32_t Channel, uint32_t SrcAddres
1056:Drivers/STM32G4xx_HAL_Driver/Inc/stm32g4xx_ll_dma.h ****                                             uint32_t DstAddress, uint32_t Direction)
1057:Drivers/STM32G4xx_HAL_Driver/Inc/stm32g4xx_ll_dma.h **** {
1058:Drivers/STM32G4xx_HAL_Driver/Inc/stm32g4xx_ll_dma.h ****   uint32_t dma_base_addr = (uint32_t)DMAx;
1059:Drivers/STM32G4xx_HAL_Driver/Inc/stm32g4xx_ll_dma.h **** 
1060:Drivers/STM32G4xx_HAL_Driver/Inc/stm32g4xx_ll_dma.h ****   /* Direction Memory to Periph */
1061:Drivers/STM32G4xx_HAL_Driver/Inc/stm32g4xx_ll_dma.h ****   if (Direction == LL_DMA_DIRECTION_MEMORY_TO_PERIPH)
1062:Drivers/STM32G4xx_HAL_Driver/Inc/stm32g4xx_ll_dma.h ****   {
1063:Drivers/STM32G4xx_HAL_Driver/Inc/stm32g4xx_ll_dma.h ****     WRITE_REG(((DMA_Channel_TypeDef *)((uint32_t)(dma_base_addr + CHANNEL_OFFSET_TAB[Channel])))->C
1064:Drivers/STM32G4xx_HAL_Driver/Inc/stm32g4xx_ll_dma.h ****     WRITE_REG(((DMA_Channel_TypeDef *)((uint32_t)(dma_base_addr + CHANNEL_OFFSET_TAB[Channel])))->C
1065:Drivers/STM32G4xx_HAL_Driver/Inc/stm32g4xx_ll_dma.h ****   }
1066:Drivers/STM32G4xx_HAL_Driver/Inc/stm32g4xx_ll_dma.h ****   /* Direction Periph to Memory and Memory to Memory */
1067:Drivers/STM32G4xx_HAL_Driver/Inc/stm32g4xx_ll_dma.h ****   else
1068:Drivers/STM32G4xx_HAL_Driver/Inc/stm32g4xx_ll_dma.h ****   {
1069:Drivers/STM32G4xx_HAL_Driver/Inc/stm32g4xx_ll_dma.h ****     WRITE_REG(((DMA_Channel_TypeDef *)((uint32_t)(dma_base_addr + CHANNEL_OFFSET_TAB[Channel])))->C
1070:Drivers/STM32G4xx_HAL_Driver/Inc/stm32g4xx_ll_dma.h ****     WRITE_REG(((DMA_Channel_TypeDef *)((uint32_t)(dma_base_addr + CHANNEL_OFFSET_TAB[Channel])))->C
1071:Drivers/STM32G4xx_HAL_Driver/Inc/stm32g4xx_ll_dma.h ****   }
1072:Drivers/STM32G4xx_HAL_Driver/Inc/stm32g4xx_ll_dma.h **** }
1073:Drivers/STM32G4xx_HAL_Driver/Inc/stm32g4xx_ll_dma.h **** 
1074:Drivers/STM32G4xx_HAL_Driver/Inc/stm32g4xx_ll_dma.h **** /**
1075:Drivers/STM32G4xx_HAL_Driver/Inc/stm32g4xx_ll_dma.h ****   * @brief  Set the Memory address.
ARM GAS  D:\apps\VSCode\data\tmp\ccESTIAN.s 			page 23


1076:Drivers/STM32G4xx_HAL_Driver/Inc/stm32g4xx_ll_dma.h ****   * @note   Interface used for direction LL_DMA_DIRECTION_PERIPH_TO_MEMORY or LL_DMA_DIRECTION_MEMO
1077:Drivers/STM32G4xx_HAL_Driver/Inc/stm32g4xx_ll_dma.h ****   * @note   This API must not be called when the DMA channel is enabled.
1078:Drivers/STM32G4xx_HAL_Driver/Inc/stm32g4xx_ll_dma.h ****   * @rmtoll CMAR         MA            LL_DMA_SetMemoryAddress
1079:Drivers/STM32G4xx_HAL_Driver/Inc/stm32g4xx_ll_dma.h ****   * @param  DMAx DMAx Instance
1080:Drivers/STM32G4xx_HAL_Driver/Inc/stm32g4xx_ll_dma.h ****   * @param  Channel This parameter can be one of the following values:
1081:Drivers/STM32G4xx_HAL_Driver/Inc/stm32g4xx_ll_dma.h ****   *         @arg @ref LL_DMA_CHANNEL_1
1082:Drivers/STM32G4xx_HAL_Driver/Inc/stm32g4xx_ll_dma.h ****   *         @arg @ref LL_DMA_CHANNEL_2
1083:Drivers/STM32G4xx_HAL_Driver/Inc/stm32g4xx_ll_dma.h ****   *         @arg @ref LL_DMA_CHANNEL_3
1084:Drivers/STM32G4xx_HAL_Driver/Inc/stm32g4xx_ll_dma.h ****   *         @arg @ref LL_DMA_CHANNEL_4
1085:Drivers/STM32G4xx_HAL_Driver/Inc/stm32g4xx_ll_dma.h ****   *         @arg @ref LL_DMA_CHANNEL_5
1086:Drivers/STM32G4xx_HAL_Driver/Inc/stm32g4xx_ll_dma.h ****   *         @arg @ref LL_DMA_CHANNEL_6
1087:Drivers/STM32G4xx_HAL_Driver/Inc/stm32g4xx_ll_dma.h ****   *         @arg @ref LL_DMA_CHANNEL_7 (*)
1088:Drivers/STM32G4xx_HAL_Driver/Inc/stm32g4xx_ll_dma.h ****   *         @arg @ref LL_DMA_CHANNEL_8 (*)
1089:Drivers/STM32G4xx_HAL_Driver/Inc/stm32g4xx_ll_dma.h ****   *         (*) Not on all G4 devices
1090:Drivers/STM32G4xx_HAL_Driver/Inc/stm32g4xx_ll_dma.h ****   * @param  MemoryAddress Between Min_Data = 0 and Max_Data = 0xFFFFFFFF
1091:Drivers/STM32G4xx_HAL_Driver/Inc/stm32g4xx_ll_dma.h ****   * @retval None
1092:Drivers/STM32G4xx_HAL_Driver/Inc/stm32g4xx_ll_dma.h ****   */
1093:Drivers/STM32G4xx_HAL_Driver/Inc/stm32g4xx_ll_dma.h **** __STATIC_INLINE void LL_DMA_SetMemoryAddress(DMA_TypeDef *DMAx, uint32_t Channel, uint32_t MemoryAd
1094:Drivers/STM32G4xx_HAL_Driver/Inc/stm32g4xx_ll_dma.h **** {
 187              		.loc 1 1094 1
 188              		.cfi_startproc
 189              		@ args = 0, pretend = 0, frame = 24
 190              		@ frame_needed = 1, uses_anonymous_args = 0
 191              		@ link register save eliminated.
 192 0000 80B4     		push	{r7}
 193              	.LCFI12:
 194              		.cfi_def_cfa_offset 4
 195              		.cfi_offset 7, -4
 196 0002 87B0     		sub	sp, sp, #28
 197              	.LCFI13:
 198              		.cfi_def_cfa_offset 32
 199 0004 00AF     		add	r7, sp, #0
 200              	.LCFI14:
 201              		.cfi_def_cfa_register 7
 202 0006 F860     		str	r0, [r7, #12]
 203 0008 B960     		str	r1, [r7, #8]
 204 000a 7A60     		str	r2, [r7, #4]
1095:Drivers/STM32G4xx_HAL_Driver/Inc/stm32g4xx_ll_dma.h ****   uint32_t dma_base_addr = (uint32_t)DMAx;
 205              		.loc 1 1095 12
 206 000c FB68     		ldr	r3, [r7, #12]
 207 000e 7B61     		str	r3, [r7, #20]
1096:Drivers/STM32G4xx_HAL_Driver/Inc/stm32g4xx_ll_dma.h ****   WRITE_REG(((DMA_Channel_TypeDef *)((uint32_t)(dma_base_addr + CHANNEL_OFFSET_TAB[Channel])))->CMA
 208              		.loc 1 1096 3
 209 0010 074A     		ldr	r2, .L8
 210 0012 BB68     		ldr	r3, [r7, #8]
 211 0014 1344     		add	r3, r3, r2
 212 0016 1B78     		ldrb	r3, [r3]	@ zero_extendqisi2
 213 0018 1A46     		mov	r2, r3
 214 001a 7B69     		ldr	r3, [r7, #20]
 215 001c 1344     		add	r3, r3, r2
 216 001e 1A46     		mov	r2, r3
 217 0020 7B68     		ldr	r3, [r7, #4]
 218 0022 D360     		str	r3, [r2, #12]
1097:Drivers/STM32G4xx_HAL_Driver/Inc/stm32g4xx_ll_dma.h **** }
 219              		.loc 1 1097 1
 220 0024 00BF     		nop
 221 0026 1C37     		adds	r7, r7, #28
ARM GAS  D:\apps\VSCode\data\tmp\ccESTIAN.s 			page 24


 222              	.LCFI15:
 223              		.cfi_def_cfa_offset 4
 224 0028 BD46     		mov	sp, r7
 225              	.LCFI16:
 226              		.cfi_def_cfa_register 13
 227              		@ sp needed
 228 002a 5DF8047B 		ldr	r7, [sp], #4
 229              	.LCFI17:
 230              		.cfi_restore 7
 231              		.cfi_def_cfa_offset 0
 232 002e 7047     		bx	lr
 233              	.L9:
 234              		.align	2
 235              	.L8:
 236 0030 00000000 		.word	CHANNEL_OFFSET_TAB
 237              		.cfi_endproc
 238              	.LFE220:
 240              		.section	.text.LL_DMA_SetPeriphAddress,"ax",%progbits
 241              		.align	1
 242              		.syntax unified
 243              		.thumb
 244              		.thumb_func
 245              		.fpu fpv4-sp-d16
 247              	LL_DMA_SetPeriphAddress:
 248              	.LFB221:
1098:Drivers/STM32G4xx_HAL_Driver/Inc/stm32g4xx_ll_dma.h **** 
1099:Drivers/STM32G4xx_HAL_Driver/Inc/stm32g4xx_ll_dma.h **** /**
1100:Drivers/STM32G4xx_HAL_Driver/Inc/stm32g4xx_ll_dma.h ****   * @brief  Set the Peripheral address.
1101:Drivers/STM32G4xx_HAL_Driver/Inc/stm32g4xx_ll_dma.h ****   * @note   Interface used for direction LL_DMA_DIRECTION_PERIPH_TO_MEMORY or LL_DMA_DIRECTION_MEMO
1102:Drivers/STM32G4xx_HAL_Driver/Inc/stm32g4xx_ll_dma.h ****   * @note   This API must not be called when the DMA channel is enabled.
1103:Drivers/STM32G4xx_HAL_Driver/Inc/stm32g4xx_ll_dma.h ****   * @rmtoll CPAR         PA            LL_DMA_SetPeriphAddress
1104:Drivers/STM32G4xx_HAL_Driver/Inc/stm32g4xx_ll_dma.h ****   * @param  DMAx DMAx Instance
1105:Drivers/STM32G4xx_HAL_Driver/Inc/stm32g4xx_ll_dma.h ****   * @param  Channel This parameter can be one of the following values:
1106:Drivers/STM32G4xx_HAL_Driver/Inc/stm32g4xx_ll_dma.h ****   *         @arg @ref LL_DMA_CHANNEL_1
1107:Drivers/STM32G4xx_HAL_Driver/Inc/stm32g4xx_ll_dma.h ****   *         @arg @ref LL_DMA_CHANNEL_2
1108:Drivers/STM32G4xx_HAL_Driver/Inc/stm32g4xx_ll_dma.h ****   *         @arg @ref LL_DMA_CHANNEL_3
1109:Drivers/STM32G4xx_HAL_Driver/Inc/stm32g4xx_ll_dma.h ****   *         @arg @ref LL_DMA_CHANNEL_4
1110:Drivers/STM32G4xx_HAL_Driver/Inc/stm32g4xx_ll_dma.h ****   *         @arg @ref LL_DMA_CHANNEL_5
1111:Drivers/STM32G4xx_HAL_Driver/Inc/stm32g4xx_ll_dma.h ****   *         @arg @ref LL_DMA_CHANNEL_6
1112:Drivers/STM32G4xx_HAL_Driver/Inc/stm32g4xx_ll_dma.h ****   *         @arg @ref LL_DMA_CHANNEL_7 (*)
1113:Drivers/STM32G4xx_HAL_Driver/Inc/stm32g4xx_ll_dma.h ****   *         @arg @ref LL_DMA_CHANNEL_8 (*)
1114:Drivers/STM32G4xx_HAL_Driver/Inc/stm32g4xx_ll_dma.h ****   *         (*) Not on all G4 devices
1115:Drivers/STM32G4xx_HAL_Driver/Inc/stm32g4xx_ll_dma.h ****   * @param  PeriphAddress Between Min_Data = 0 and Max_Data = 0xFFFFFFFF
1116:Drivers/STM32G4xx_HAL_Driver/Inc/stm32g4xx_ll_dma.h ****   * @retval None
1117:Drivers/STM32G4xx_HAL_Driver/Inc/stm32g4xx_ll_dma.h ****   */
1118:Drivers/STM32G4xx_HAL_Driver/Inc/stm32g4xx_ll_dma.h **** __STATIC_INLINE void LL_DMA_SetPeriphAddress(DMA_TypeDef *DMAx, uint32_t Channel, uint32_t PeriphAd
1119:Drivers/STM32G4xx_HAL_Driver/Inc/stm32g4xx_ll_dma.h **** {
 249              		.loc 1 1119 1
 250              		.cfi_startproc
 251              		@ args = 0, pretend = 0, frame = 24
 252              		@ frame_needed = 1, uses_anonymous_args = 0
 253              		@ link register save eliminated.
 254 0000 80B4     		push	{r7}
 255              	.LCFI18:
 256              		.cfi_def_cfa_offset 4
 257              		.cfi_offset 7, -4
 258 0002 87B0     		sub	sp, sp, #28
ARM GAS  D:\apps\VSCode\data\tmp\ccESTIAN.s 			page 25


 259              	.LCFI19:
 260              		.cfi_def_cfa_offset 32
 261 0004 00AF     		add	r7, sp, #0
 262              	.LCFI20:
 263              		.cfi_def_cfa_register 7
 264 0006 F860     		str	r0, [r7, #12]
 265 0008 B960     		str	r1, [r7, #8]
 266 000a 7A60     		str	r2, [r7, #4]
1120:Drivers/STM32G4xx_HAL_Driver/Inc/stm32g4xx_ll_dma.h ****   uint32_t dma_base_addr = (uint32_t)DMAx;
 267              		.loc 1 1120 12
 268 000c FB68     		ldr	r3, [r7, #12]
 269 000e 7B61     		str	r3, [r7, #20]
1121:Drivers/STM32G4xx_HAL_Driver/Inc/stm32g4xx_ll_dma.h ****   WRITE_REG(((DMA_Channel_TypeDef *)((uint32_t)(dma_base_addr + CHANNEL_OFFSET_TAB[Channel])))->CPA
 270              		.loc 1 1121 3
 271 0010 074A     		ldr	r2, .L11
 272 0012 BB68     		ldr	r3, [r7, #8]
 273 0014 1344     		add	r3, r3, r2
 274 0016 1B78     		ldrb	r3, [r3]	@ zero_extendqisi2
 275 0018 1A46     		mov	r2, r3
 276 001a 7B69     		ldr	r3, [r7, #20]
 277 001c 1344     		add	r3, r3, r2
 278 001e 1A46     		mov	r2, r3
 279 0020 7B68     		ldr	r3, [r7, #4]
 280 0022 9360     		str	r3, [r2, #8]
1122:Drivers/STM32G4xx_HAL_Driver/Inc/stm32g4xx_ll_dma.h **** }
 281              		.loc 1 1122 1
 282 0024 00BF     		nop
 283 0026 1C37     		adds	r7, r7, #28
 284              	.LCFI21:
 285              		.cfi_def_cfa_offset 4
 286 0028 BD46     		mov	sp, r7
 287              	.LCFI22:
 288              		.cfi_def_cfa_register 13
 289              		@ sp needed
 290 002a 5DF8047B 		ldr	r7, [sp], #4
 291              	.LCFI23:
 292              		.cfi_restore 7
 293              		.cfi_def_cfa_offset 0
 294 002e 7047     		bx	lr
 295              	.L12:
 296              		.align	2
 297              	.L11:
 298 0030 00000000 		.word	CHANNEL_OFFSET_TAB
 299              		.cfi_endproc
 300              	.LFE221:
 302              		.section	.text.LL_DMA_SetPeriphRequest,"ax",%progbits
 303              		.align	1
 304              		.syntax unified
 305              		.thumb
 306              		.thumb_func
 307              		.fpu fpv4-sp-d16
 309              	LL_DMA_SetPeriphRequest:
 310              	.LFB228:
1123:Drivers/STM32G4xx_HAL_Driver/Inc/stm32g4xx_ll_dma.h **** 
1124:Drivers/STM32G4xx_HAL_Driver/Inc/stm32g4xx_ll_dma.h **** /**
1125:Drivers/STM32G4xx_HAL_Driver/Inc/stm32g4xx_ll_dma.h ****   * @brief  Get Memory address.
1126:Drivers/STM32G4xx_HAL_Driver/Inc/stm32g4xx_ll_dma.h ****   * @note   Interface used for direction LL_DMA_DIRECTION_PERIPH_TO_MEMORY or LL_DMA_DIRECTION_MEMO
ARM GAS  D:\apps\VSCode\data\tmp\ccESTIAN.s 			page 26


1127:Drivers/STM32G4xx_HAL_Driver/Inc/stm32g4xx_ll_dma.h ****   * @rmtoll CMAR         MA            LL_DMA_GetMemoryAddress
1128:Drivers/STM32G4xx_HAL_Driver/Inc/stm32g4xx_ll_dma.h ****   * @param  DMAx DMAx Instance
1129:Drivers/STM32G4xx_HAL_Driver/Inc/stm32g4xx_ll_dma.h ****   * @param  Channel This parameter can be one of the following values:
1130:Drivers/STM32G4xx_HAL_Driver/Inc/stm32g4xx_ll_dma.h ****   *         @arg @ref LL_DMA_CHANNEL_1
1131:Drivers/STM32G4xx_HAL_Driver/Inc/stm32g4xx_ll_dma.h ****   *         @arg @ref LL_DMA_CHANNEL_2
1132:Drivers/STM32G4xx_HAL_Driver/Inc/stm32g4xx_ll_dma.h ****   *         @arg @ref LL_DMA_CHANNEL_3
1133:Drivers/STM32G4xx_HAL_Driver/Inc/stm32g4xx_ll_dma.h ****   *         @arg @ref LL_DMA_CHANNEL_4
1134:Drivers/STM32G4xx_HAL_Driver/Inc/stm32g4xx_ll_dma.h ****   *         @arg @ref LL_DMA_CHANNEL_5
1135:Drivers/STM32G4xx_HAL_Driver/Inc/stm32g4xx_ll_dma.h ****   *         @arg @ref LL_DMA_CHANNEL_6
1136:Drivers/STM32G4xx_HAL_Driver/Inc/stm32g4xx_ll_dma.h ****   *         @arg @ref LL_DMA_CHANNEL_7 (*)
1137:Drivers/STM32G4xx_HAL_Driver/Inc/stm32g4xx_ll_dma.h ****   *         @arg @ref LL_DMA_CHANNEL_8 (*)
1138:Drivers/STM32G4xx_HAL_Driver/Inc/stm32g4xx_ll_dma.h ****   *         (*) Not on all G4 devices
1139:Drivers/STM32G4xx_HAL_Driver/Inc/stm32g4xx_ll_dma.h ****   * @retval Between Min_Data = 0 and Max_Data = 0xFFFFFFFF
1140:Drivers/STM32G4xx_HAL_Driver/Inc/stm32g4xx_ll_dma.h ****   */
1141:Drivers/STM32G4xx_HAL_Driver/Inc/stm32g4xx_ll_dma.h **** __STATIC_INLINE uint32_t LL_DMA_GetMemoryAddress(DMA_TypeDef *DMAx, uint32_t Channel)
1142:Drivers/STM32G4xx_HAL_Driver/Inc/stm32g4xx_ll_dma.h **** {
1143:Drivers/STM32G4xx_HAL_Driver/Inc/stm32g4xx_ll_dma.h ****   uint32_t dma_base_addr = (uint32_t)DMAx;
1144:Drivers/STM32G4xx_HAL_Driver/Inc/stm32g4xx_ll_dma.h ****   return (READ_REG(((DMA_Channel_TypeDef *)((uint32_t)(dma_base_addr + CHANNEL_OFFSET_TAB[Channel])
1145:Drivers/STM32G4xx_HAL_Driver/Inc/stm32g4xx_ll_dma.h **** }
1146:Drivers/STM32G4xx_HAL_Driver/Inc/stm32g4xx_ll_dma.h **** 
1147:Drivers/STM32G4xx_HAL_Driver/Inc/stm32g4xx_ll_dma.h **** /**
1148:Drivers/STM32G4xx_HAL_Driver/Inc/stm32g4xx_ll_dma.h ****   * @brief  Get Peripheral address.
1149:Drivers/STM32G4xx_HAL_Driver/Inc/stm32g4xx_ll_dma.h ****   * @note   Interface used for direction LL_DMA_DIRECTION_PERIPH_TO_MEMORY or LL_DMA_DIRECTION_MEMO
1150:Drivers/STM32G4xx_HAL_Driver/Inc/stm32g4xx_ll_dma.h ****   * @rmtoll CPAR         PA            LL_DMA_GetPeriphAddress
1151:Drivers/STM32G4xx_HAL_Driver/Inc/stm32g4xx_ll_dma.h ****   * @param  DMAx DMAx Instance
1152:Drivers/STM32G4xx_HAL_Driver/Inc/stm32g4xx_ll_dma.h ****   * @param  Channel This parameter can be one of the following values:
1153:Drivers/STM32G4xx_HAL_Driver/Inc/stm32g4xx_ll_dma.h ****   *         @arg @ref LL_DMA_CHANNEL_1
1154:Drivers/STM32G4xx_HAL_Driver/Inc/stm32g4xx_ll_dma.h ****   *         @arg @ref LL_DMA_CHANNEL_2
1155:Drivers/STM32G4xx_HAL_Driver/Inc/stm32g4xx_ll_dma.h ****   *         @arg @ref LL_DMA_CHANNEL_3
1156:Drivers/STM32G4xx_HAL_Driver/Inc/stm32g4xx_ll_dma.h ****   *         @arg @ref LL_DMA_CHANNEL_4
1157:Drivers/STM32G4xx_HAL_Driver/Inc/stm32g4xx_ll_dma.h ****   *         @arg @ref LL_DMA_CHANNEL_5
1158:Drivers/STM32G4xx_HAL_Driver/Inc/stm32g4xx_ll_dma.h ****   *         @arg @ref LL_DMA_CHANNEL_6
1159:Drivers/STM32G4xx_HAL_Driver/Inc/stm32g4xx_ll_dma.h ****   *         @arg @ref LL_DMA_CHANNEL_7 (*)
1160:Drivers/STM32G4xx_HAL_Driver/Inc/stm32g4xx_ll_dma.h ****   *         @arg @ref LL_DMA_CHANNEL_8 (*)
1161:Drivers/STM32G4xx_HAL_Driver/Inc/stm32g4xx_ll_dma.h ****   *         (*) Not on all G4 devices
1162:Drivers/STM32G4xx_HAL_Driver/Inc/stm32g4xx_ll_dma.h ****   * @retval Between Min_Data = 0 and Max_Data = 0xFFFFFFFF
1163:Drivers/STM32G4xx_HAL_Driver/Inc/stm32g4xx_ll_dma.h ****   */
1164:Drivers/STM32G4xx_HAL_Driver/Inc/stm32g4xx_ll_dma.h **** __STATIC_INLINE uint32_t LL_DMA_GetPeriphAddress(DMA_TypeDef *DMAx, uint32_t Channel)
1165:Drivers/STM32G4xx_HAL_Driver/Inc/stm32g4xx_ll_dma.h **** {
1166:Drivers/STM32G4xx_HAL_Driver/Inc/stm32g4xx_ll_dma.h ****   uint32_t dma_base_addr = (uint32_t)DMAx;
1167:Drivers/STM32G4xx_HAL_Driver/Inc/stm32g4xx_ll_dma.h ****   return (READ_REG(((DMA_Channel_TypeDef *)((uint32_t)(dma_base_addr + CHANNEL_OFFSET_TAB[Channel])
1168:Drivers/STM32G4xx_HAL_Driver/Inc/stm32g4xx_ll_dma.h **** }
1169:Drivers/STM32G4xx_HAL_Driver/Inc/stm32g4xx_ll_dma.h **** 
1170:Drivers/STM32G4xx_HAL_Driver/Inc/stm32g4xx_ll_dma.h **** /**
1171:Drivers/STM32G4xx_HAL_Driver/Inc/stm32g4xx_ll_dma.h ****   * @brief  Set the Memory to Memory Source address.
1172:Drivers/STM32G4xx_HAL_Driver/Inc/stm32g4xx_ll_dma.h ****   * @note   Interface used for direction LL_DMA_DIRECTION_MEMORY_TO_MEMORY only.
1173:Drivers/STM32G4xx_HAL_Driver/Inc/stm32g4xx_ll_dma.h ****   * @note   This API must not be called when the DMA channel is enabled.
1174:Drivers/STM32G4xx_HAL_Driver/Inc/stm32g4xx_ll_dma.h ****   * @rmtoll CPAR         PA            LL_DMA_SetM2MSrcAddress
1175:Drivers/STM32G4xx_HAL_Driver/Inc/stm32g4xx_ll_dma.h ****   * @param  DMAx DMAx Instance
1176:Drivers/STM32G4xx_HAL_Driver/Inc/stm32g4xx_ll_dma.h ****   * @param  Channel This parameter can be one of the following values:
1177:Drivers/STM32G4xx_HAL_Driver/Inc/stm32g4xx_ll_dma.h ****   *         @arg @ref LL_DMA_CHANNEL_1
1178:Drivers/STM32G4xx_HAL_Driver/Inc/stm32g4xx_ll_dma.h ****   *         @arg @ref LL_DMA_CHANNEL_2
1179:Drivers/STM32G4xx_HAL_Driver/Inc/stm32g4xx_ll_dma.h ****   *         @arg @ref LL_DMA_CHANNEL_3
1180:Drivers/STM32G4xx_HAL_Driver/Inc/stm32g4xx_ll_dma.h ****   *         @arg @ref LL_DMA_CHANNEL_4
1181:Drivers/STM32G4xx_HAL_Driver/Inc/stm32g4xx_ll_dma.h ****   *         @arg @ref LL_DMA_CHANNEL_5
1182:Drivers/STM32G4xx_HAL_Driver/Inc/stm32g4xx_ll_dma.h ****   *         @arg @ref LL_DMA_CHANNEL_6
1183:Drivers/STM32G4xx_HAL_Driver/Inc/stm32g4xx_ll_dma.h ****   *         @arg @ref LL_DMA_CHANNEL_7 (*)
ARM GAS  D:\apps\VSCode\data\tmp\ccESTIAN.s 			page 27


1184:Drivers/STM32G4xx_HAL_Driver/Inc/stm32g4xx_ll_dma.h ****   *         @arg @ref LL_DMA_CHANNEL_8 (*)
1185:Drivers/STM32G4xx_HAL_Driver/Inc/stm32g4xx_ll_dma.h ****   *         (*) Not on all G4 devices
1186:Drivers/STM32G4xx_HAL_Driver/Inc/stm32g4xx_ll_dma.h ****   * @param  MemoryAddress Between Min_Data = 0 and Max_Data = 0xFFFFFFFF
1187:Drivers/STM32G4xx_HAL_Driver/Inc/stm32g4xx_ll_dma.h ****   * @retval None
1188:Drivers/STM32G4xx_HAL_Driver/Inc/stm32g4xx_ll_dma.h ****   */
1189:Drivers/STM32G4xx_HAL_Driver/Inc/stm32g4xx_ll_dma.h **** __STATIC_INLINE void LL_DMA_SetM2MSrcAddress(DMA_TypeDef *DMAx, uint32_t Channel, uint32_t MemoryAd
1190:Drivers/STM32G4xx_HAL_Driver/Inc/stm32g4xx_ll_dma.h **** {
1191:Drivers/STM32G4xx_HAL_Driver/Inc/stm32g4xx_ll_dma.h ****   uint32_t dma_base_addr = (uint32_t)DMAx;
1192:Drivers/STM32G4xx_HAL_Driver/Inc/stm32g4xx_ll_dma.h ****   WRITE_REG(((DMA_Channel_TypeDef *)((uint32_t)(dma_base_addr + CHANNEL_OFFSET_TAB[Channel])))->CPA
1193:Drivers/STM32G4xx_HAL_Driver/Inc/stm32g4xx_ll_dma.h **** }
1194:Drivers/STM32G4xx_HAL_Driver/Inc/stm32g4xx_ll_dma.h **** 
1195:Drivers/STM32G4xx_HAL_Driver/Inc/stm32g4xx_ll_dma.h **** /**
1196:Drivers/STM32G4xx_HAL_Driver/Inc/stm32g4xx_ll_dma.h ****   * @brief  Set the Memory to Memory Destination address.
1197:Drivers/STM32G4xx_HAL_Driver/Inc/stm32g4xx_ll_dma.h ****   * @note   Interface used for direction LL_DMA_DIRECTION_MEMORY_TO_MEMORY only.
1198:Drivers/STM32G4xx_HAL_Driver/Inc/stm32g4xx_ll_dma.h ****   * @note   This API must not be called when the DMA channel is enabled.
1199:Drivers/STM32G4xx_HAL_Driver/Inc/stm32g4xx_ll_dma.h ****   * @rmtoll CMAR         MA            LL_DMA_SetM2MDstAddress
1200:Drivers/STM32G4xx_HAL_Driver/Inc/stm32g4xx_ll_dma.h ****   * @param  DMAx DMAx Instance
1201:Drivers/STM32G4xx_HAL_Driver/Inc/stm32g4xx_ll_dma.h ****   * @param  Channel This parameter can be one of the following values:
1202:Drivers/STM32G4xx_HAL_Driver/Inc/stm32g4xx_ll_dma.h ****   *         @arg @ref LL_DMA_CHANNEL_1
1203:Drivers/STM32G4xx_HAL_Driver/Inc/stm32g4xx_ll_dma.h ****   *         @arg @ref LL_DMA_CHANNEL_2
1204:Drivers/STM32G4xx_HAL_Driver/Inc/stm32g4xx_ll_dma.h ****   *         @arg @ref LL_DMA_CHANNEL_3
1205:Drivers/STM32G4xx_HAL_Driver/Inc/stm32g4xx_ll_dma.h ****   *         @arg @ref LL_DMA_CHANNEL_4
1206:Drivers/STM32G4xx_HAL_Driver/Inc/stm32g4xx_ll_dma.h ****   *         @arg @ref LL_DMA_CHANNEL_5
1207:Drivers/STM32G4xx_HAL_Driver/Inc/stm32g4xx_ll_dma.h ****   *         @arg @ref LL_DMA_CHANNEL_6
1208:Drivers/STM32G4xx_HAL_Driver/Inc/stm32g4xx_ll_dma.h ****   *         @arg @ref LL_DMA_CHANNEL_7 (*)
1209:Drivers/STM32G4xx_HAL_Driver/Inc/stm32g4xx_ll_dma.h ****   *         @arg @ref LL_DMA_CHANNEL_8 (*)
1210:Drivers/STM32G4xx_HAL_Driver/Inc/stm32g4xx_ll_dma.h ****   *         (*) Not on all G4 devices
1211:Drivers/STM32G4xx_HAL_Driver/Inc/stm32g4xx_ll_dma.h ****   * @param  MemoryAddress Between Min_Data = 0 and Max_Data = 0xFFFFFFFF
1212:Drivers/STM32G4xx_HAL_Driver/Inc/stm32g4xx_ll_dma.h ****   * @retval None
1213:Drivers/STM32G4xx_HAL_Driver/Inc/stm32g4xx_ll_dma.h ****   */
1214:Drivers/STM32G4xx_HAL_Driver/Inc/stm32g4xx_ll_dma.h **** __STATIC_INLINE void LL_DMA_SetM2MDstAddress(DMA_TypeDef *DMAx, uint32_t Channel, uint32_t MemoryAd
1215:Drivers/STM32G4xx_HAL_Driver/Inc/stm32g4xx_ll_dma.h **** {
1216:Drivers/STM32G4xx_HAL_Driver/Inc/stm32g4xx_ll_dma.h ****   uint32_t dma_base_addr = (uint32_t)DMAx;
1217:Drivers/STM32G4xx_HAL_Driver/Inc/stm32g4xx_ll_dma.h ****   WRITE_REG(((DMA_Channel_TypeDef *)((uint32_t)(dma_base_addr + CHANNEL_OFFSET_TAB[Channel])))->CMA
1218:Drivers/STM32G4xx_HAL_Driver/Inc/stm32g4xx_ll_dma.h **** }
1219:Drivers/STM32G4xx_HAL_Driver/Inc/stm32g4xx_ll_dma.h **** 
1220:Drivers/STM32G4xx_HAL_Driver/Inc/stm32g4xx_ll_dma.h **** /**
1221:Drivers/STM32G4xx_HAL_Driver/Inc/stm32g4xx_ll_dma.h ****   * @brief  Get the Memory to Memory Source address.
1222:Drivers/STM32G4xx_HAL_Driver/Inc/stm32g4xx_ll_dma.h ****   * @note   Interface used for direction LL_DMA_DIRECTION_MEMORY_TO_MEMORY only.
1223:Drivers/STM32G4xx_HAL_Driver/Inc/stm32g4xx_ll_dma.h ****   * @rmtoll CPAR         PA            LL_DMA_GetM2MSrcAddress
1224:Drivers/STM32G4xx_HAL_Driver/Inc/stm32g4xx_ll_dma.h ****   * @param  DMAx DMAx Instance
1225:Drivers/STM32G4xx_HAL_Driver/Inc/stm32g4xx_ll_dma.h ****   * @param  Channel This parameter can be one of the following values:
1226:Drivers/STM32G4xx_HAL_Driver/Inc/stm32g4xx_ll_dma.h ****   *         @arg @ref LL_DMA_CHANNEL_1
1227:Drivers/STM32G4xx_HAL_Driver/Inc/stm32g4xx_ll_dma.h ****   *         @arg @ref LL_DMA_CHANNEL_2
1228:Drivers/STM32G4xx_HAL_Driver/Inc/stm32g4xx_ll_dma.h ****   *         @arg @ref LL_DMA_CHANNEL_3
1229:Drivers/STM32G4xx_HAL_Driver/Inc/stm32g4xx_ll_dma.h ****   *         @arg @ref LL_DMA_CHANNEL_4
1230:Drivers/STM32G4xx_HAL_Driver/Inc/stm32g4xx_ll_dma.h ****   *         @arg @ref LL_DMA_CHANNEL_5
1231:Drivers/STM32G4xx_HAL_Driver/Inc/stm32g4xx_ll_dma.h ****   *         @arg @ref LL_DMA_CHANNEL_6
1232:Drivers/STM32G4xx_HAL_Driver/Inc/stm32g4xx_ll_dma.h ****   *         @arg @ref LL_DMA_CHANNEL_7 (*)
1233:Drivers/STM32G4xx_HAL_Driver/Inc/stm32g4xx_ll_dma.h ****   *         @arg @ref LL_DMA_CHANNEL_8 (*)
1234:Drivers/STM32G4xx_HAL_Driver/Inc/stm32g4xx_ll_dma.h ****   *         (*) Not on all G4 devices
1235:Drivers/STM32G4xx_HAL_Driver/Inc/stm32g4xx_ll_dma.h ****   * @retval Between Min_Data = 0 and Max_Data = 0xFFFFFFFF
1236:Drivers/STM32G4xx_HAL_Driver/Inc/stm32g4xx_ll_dma.h ****   */
1237:Drivers/STM32G4xx_HAL_Driver/Inc/stm32g4xx_ll_dma.h **** __STATIC_INLINE uint32_t LL_DMA_GetM2MSrcAddress(DMA_TypeDef *DMAx, uint32_t Channel)
1238:Drivers/STM32G4xx_HAL_Driver/Inc/stm32g4xx_ll_dma.h **** {
1239:Drivers/STM32G4xx_HAL_Driver/Inc/stm32g4xx_ll_dma.h ****   uint32_t dma_base_addr = (uint32_t)DMAx;
1240:Drivers/STM32G4xx_HAL_Driver/Inc/stm32g4xx_ll_dma.h ****   return (READ_REG(((DMA_Channel_TypeDef *)((uint32_t)(dma_base_addr + CHANNEL_OFFSET_TAB[Channel])
ARM GAS  D:\apps\VSCode\data\tmp\ccESTIAN.s 			page 28


1241:Drivers/STM32G4xx_HAL_Driver/Inc/stm32g4xx_ll_dma.h **** }
1242:Drivers/STM32G4xx_HAL_Driver/Inc/stm32g4xx_ll_dma.h **** 
1243:Drivers/STM32G4xx_HAL_Driver/Inc/stm32g4xx_ll_dma.h **** /**
1244:Drivers/STM32G4xx_HAL_Driver/Inc/stm32g4xx_ll_dma.h ****   * @brief  Get the Memory to Memory Destination address.
1245:Drivers/STM32G4xx_HAL_Driver/Inc/stm32g4xx_ll_dma.h ****   * @note   Interface used for direction LL_DMA_DIRECTION_MEMORY_TO_MEMORY only.
1246:Drivers/STM32G4xx_HAL_Driver/Inc/stm32g4xx_ll_dma.h ****   * @rmtoll CMAR         MA            LL_DMA_GetM2MDstAddress
1247:Drivers/STM32G4xx_HAL_Driver/Inc/stm32g4xx_ll_dma.h ****   * @param  DMAx DMAx Instance
1248:Drivers/STM32G4xx_HAL_Driver/Inc/stm32g4xx_ll_dma.h ****   * @param  Channel This parameter can be one of the following values:
1249:Drivers/STM32G4xx_HAL_Driver/Inc/stm32g4xx_ll_dma.h ****   *         @arg @ref LL_DMA_CHANNEL_1
1250:Drivers/STM32G4xx_HAL_Driver/Inc/stm32g4xx_ll_dma.h ****   *         @arg @ref LL_DMA_CHANNEL_2
1251:Drivers/STM32G4xx_HAL_Driver/Inc/stm32g4xx_ll_dma.h ****   *         @arg @ref LL_DMA_CHANNEL_3
1252:Drivers/STM32G4xx_HAL_Driver/Inc/stm32g4xx_ll_dma.h ****   *         @arg @ref LL_DMA_CHANNEL_4
1253:Drivers/STM32G4xx_HAL_Driver/Inc/stm32g4xx_ll_dma.h ****   *         @arg @ref LL_DMA_CHANNEL_5
1254:Drivers/STM32G4xx_HAL_Driver/Inc/stm32g4xx_ll_dma.h ****   *         @arg @ref LL_DMA_CHANNEL_6
1255:Drivers/STM32G4xx_HAL_Driver/Inc/stm32g4xx_ll_dma.h ****   *         @arg @ref LL_DMA_CHANNEL_7 (*)
1256:Drivers/STM32G4xx_HAL_Driver/Inc/stm32g4xx_ll_dma.h ****   *         @arg @ref LL_DMA_CHANNEL_8 (*)
1257:Drivers/STM32G4xx_HAL_Driver/Inc/stm32g4xx_ll_dma.h ****   *         (*) Not on all G4 devices
1258:Drivers/STM32G4xx_HAL_Driver/Inc/stm32g4xx_ll_dma.h ****   * @retval Between Min_Data = 0 and Max_Data = 0xFFFFFFFF
1259:Drivers/STM32G4xx_HAL_Driver/Inc/stm32g4xx_ll_dma.h ****   */
1260:Drivers/STM32G4xx_HAL_Driver/Inc/stm32g4xx_ll_dma.h **** __STATIC_INLINE uint32_t LL_DMA_GetM2MDstAddress(DMA_TypeDef *DMAx, uint32_t Channel)
1261:Drivers/STM32G4xx_HAL_Driver/Inc/stm32g4xx_ll_dma.h **** {
1262:Drivers/STM32G4xx_HAL_Driver/Inc/stm32g4xx_ll_dma.h ****   uint32_t dma_base_addr = (uint32_t)DMAx;
1263:Drivers/STM32G4xx_HAL_Driver/Inc/stm32g4xx_ll_dma.h ****   return (READ_REG(((DMA_Channel_TypeDef *)((uint32_t)(dma_base_addr + CHANNEL_OFFSET_TAB[Channel])
1264:Drivers/STM32G4xx_HAL_Driver/Inc/stm32g4xx_ll_dma.h **** }
1265:Drivers/STM32G4xx_HAL_Driver/Inc/stm32g4xx_ll_dma.h **** 
1266:Drivers/STM32G4xx_HAL_Driver/Inc/stm32g4xx_ll_dma.h **** /**
1267:Drivers/STM32G4xx_HAL_Driver/Inc/stm32g4xx_ll_dma.h ****   * @brief  Set DMA request for DMA instance on Channel x.
1268:Drivers/STM32G4xx_HAL_Driver/Inc/stm32g4xx_ll_dma.h ****   * @note   Please refer to Reference Manual to get the available mapping of Request value link to 
1269:Drivers/STM32G4xx_HAL_Driver/Inc/stm32g4xx_ll_dma.h ****   * @rmtoll CSELR        C1S           LL_DMA_SetPeriphRequest\n
1270:Drivers/STM32G4xx_HAL_Driver/Inc/stm32g4xx_ll_dma.h ****   *         CSELR        C2S           LL_DMA_SetPeriphRequest\n
1271:Drivers/STM32G4xx_HAL_Driver/Inc/stm32g4xx_ll_dma.h ****   *         CSELR        C3S           LL_DMA_SetPeriphRequest\n
1272:Drivers/STM32G4xx_HAL_Driver/Inc/stm32g4xx_ll_dma.h ****   *         CSELR        C4S           LL_DMA_SetPeriphRequest\n
1273:Drivers/STM32G4xx_HAL_Driver/Inc/stm32g4xx_ll_dma.h ****   *         CSELR        C5S           LL_DMA_SetPeriphRequest\n
1274:Drivers/STM32G4xx_HAL_Driver/Inc/stm32g4xx_ll_dma.h ****   *         CSELR        C6S           LL_DMA_SetPeriphRequest\n
1275:Drivers/STM32G4xx_HAL_Driver/Inc/stm32g4xx_ll_dma.h ****   *         CSELR        C7S           LL_DMA_SetPeriphRequest
1276:Drivers/STM32G4xx_HAL_Driver/Inc/stm32g4xx_ll_dma.h ****   * @param  DMAx DMAx Instance
1277:Drivers/STM32G4xx_HAL_Driver/Inc/stm32g4xx_ll_dma.h ****   * @param  Channel This parameter can be one of the following values:
1278:Drivers/STM32G4xx_HAL_Driver/Inc/stm32g4xx_ll_dma.h ****   *         @arg @ref LL_DMA_CHANNEL_1
1279:Drivers/STM32G4xx_HAL_Driver/Inc/stm32g4xx_ll_dma.h ****   *         @arg @ref LL_DMA_CHANNEL_2
1280:Drivers/STM32G4xx_HAL_Driver/Inc/stm32g4xx_ll_dma.h ****   *         @arg @ref LL_DMA_CHANNEL_3
1281:Drivers/STM32G4xx_HAL_Driver/Inc/stm32g4xx_ll_dma.h ****   *         @arg @ref LL_DMA_CHANNEL_4
1282:Drivers/STM32G4xx_HAL_Driver/Inc/stm32g4xx_ll_dma.h ****   *         @arg @ref LL_DMA_CHANNEL_5
1283:Drivers/STM32G4xx_HAL_Driver/Inc/stm32g4xx_ll_dma.h ****   *         @arg @ref LL_DMA_CHANNEL_6
1284:Drivers/STM32G4xx_HAL_Driver/Inc/stm32g4xx_ll_dma.h ****   *         @arg @ref LL_DMA_CHANNEL_7 (*)
1285:Drivers/STM32G4xx_HAL_Driver/Inc/stm32g4xx_ll_dma.h ****   *         @arg @ref LL_DMA_CHANNEL_8 (*)
1286:Drivers/STM32G4xx_HAL_Driver/Inc/stm32g4xx_ll_dma.h ****   *         (*) Not on all G4 devices
1287:Drivers/STM32G4xx_HAL_Driver/Inc/stm32g4xx_ll_dma.h ****   * @param  PeriphRequest This parameter can be one of the following values:
1288:Drivers/STM32G4xx_HAL_Driver/Inc/stm32g4xx_ll_dma.h ****   *         @arg @ref LL_DMAMUX_REQ_MEM2MEM
1289:Drivers/STM32G4xx_HAL_Driver/Inc/stm32g4xx_ll_dma.h ****   *         @arg @ref LL_DMAMUX_REQ_GENERATOR0
1290:Drivers/STM32G4xx_HAL_Driver/Inc/stm32g4xx_ll_dma.h ****   *         @arg @ref LL_DMAMUX_REQ_GENERATOR1
1291:Drivers/STM32G4xx_HAL_Driver/Inc/stm32g4xx_ll_dma.h ****   *         @arg @ref LL_DMAMUX_REQ_GENERATOR2
1292:Drivers/STM32G4xx_HAL_Driver/Inc/stm32g4xx_ll_dma.h ****   *         @arg @ref LL_DMAMUX_REQ_GENERATOR3
1293:Drivers/STM32G4xx_HAL_Driver/Inc/stm32g4xx_ll_dma.h ****   *         @arg @ref LL_DMAMUX_REQ_ADC1
1294:Drivers/STM32G4xx_HAL_Driver/Inc/stm32g4xx_ll_dma.h ****   *         @arg @ref LL_DMAMUX_REQ_DAC1_CH1
1295:Drivers/STM32G4xx_HAL_Driver/Inc/stm32g4xx_ll_dma.h ****   *         @arg @ref LL_DMAMUX_REQ_DAC1_CH2
1296:Drivers/STM32G4xx_HAL_Driver/Inc/stm32g4xx_ll_dma.h ****   *         @arg @ref LL_DMAMUX_REQ_TIM6_UP
1297:Drivers/STM32G4xx_HAL_Driver/Inc/stm32g4xx_ll_dma.h ****   *         @arg @ref LL_DMAMUX_REQ_TIM7_UP
ARM GAS  D:\apps\VSCode\data\tmp\ccESTIAN.s 			page 29


1298:Drivers/STM32G4xx_HAL_Driver/Inc/stm32g4xx_ll_dma.h ****   *         @arg @ref LL_DMAMUX_REQ_SPI1_RX
1299:Drivers/STM32G4xx_HAL_Driver/Inc/stm32g4xx_ll_dma.h ****   *         @arg @ref LL_DMAMUX_REQ_SPI1_TX
1300:Drivers/STM32G4xx_HAL_Driver/Inc/stm32g4xx_ll_dma.h ****   *         @arg @ref LL_DMAMUX_REQ_SPI2_RX
1301:Drivers/STM32G4xx_HAL_Driver/Inc/stm32g4xx_ll_dma.h ****   *         @arg @ref LL_DMAMUX_REQ_SPI2_TX
1302:Drivers/STM32G4xx_HAL_Driver/Inc/stm32g4xx_ll_dma.h ****   *         @arg @ref LL_DMAMUX_REQ_SPI3_RX
1303:Drivers/STM32G4xx_HAL_Driver/Inc/stm32g4xx_ll_dma.h ****   *         @arg @ref LL_DMAMUX_REQ_SPI3_TX
1304:Drivers/STM32G4xx_HAL_Driver/Inc/stm32g4xx_ll_dma.h ****   *         @arg @ref LL_DMAMUX_REQ_I2C1_RX
1305:Drivers/STM32G4xx_HAL_Driver/Inc/stm32g4xx_ll_dma.h ****   *         @arg @ref LL_DMAMUX_REQ_I2C1_TX
1306:Drivers/STM32G4xx_HAL_Driver/Inc/stm32g4xx_ll_dma.h ****   *         @arg @ref LL_DMAMUX_REQ_I2C2_RX
1307:Drivers/STM32G4xx_HAL_Driver/Inc/stm32g4xx_ll_dma.h ****   *         @arg @ref LL_DMAMUX_REQ_I2C2_TX
1308:Drivers/STM32G4xx_HAL_Driver/Inc/stm32g4xx_ll_dma.h ****   *         @arg @ref LL_DMAMUX_REQ_I2C3_RX
1309:Drivers/STM32G4xx_HAL_Driver/Inc/stm32g4xx_ll_dma.h ****   *         @arg @ref LL_DMAMUX_REQ_I2C3_TX (*)
1310:Drivers/STM32G4xx_HAL_Driver/Inc/stm32g4xx_ll_dma.h ****   *         @arg @ref LL_DMAMUX_REQ_I2C4_RX (*)
1311:Drivers/STM32G4xx_HAL_Driver/Inc/stm32g4xx_ll_dma.h ****   *         @arg @ref LL_DMAMUX_REQ_I2C4_TX
1312:Drivers/STM32G4xx_HAL_Driver/Inc/stm32g4xx_ll_dma.h ****   *         @arg @ref LL_DMAMUX_REQ_USART1_RX
1313:Drivers/STM32G4xx_HAL_Driver/Inc/stm32g4xx_ll_dma.h ****   *         @arg @ref LL_DMAMUX_REQ_USART1_TX
1314:Drivers/STM32G4xx_HAL_Driver/Inc/stm32g4xx_ll_dma.h ****   *         @arg @ref LL_DMAMUX_REQ_USART2_RX
1315:Drivers/STM32G4xx_HAL_Driver/Inc/stm32g4xx_ll_dma.h ****   *         @arg @ref LL_DMAMUX_REQ_USART2_TX
1316:Drivers/STM32G4xx_HAL_Driver/Inc/stm32g4xx_ll_dma.h ****   *         @arg @ref LL_DMAMUX_REQ_USART3_RX
1317:Drivers/STM32G4xx_HAL_Driver/Inc/stm32g4xx_ll_dma.h ****   *         @arg @ref LL_DMAMUX_REQ_USART3_TX
1318:Drivers/STM32G4xx_HAL_Driver/Inc/stm32g4xx_ll_dma.h ****   *         @arg @ref LL_DMAMUX_REQ_UART4_RX
1319:Drivers/STM32G4xx_HAL_Driver/Inc/stm32g4xx_ll_dma.h ****   *         @arg @ref LL_DMAMUX_REQ_UART4_TX
1320:Drivers/STM32G4xx_HAL_Driver/Inc/stm32g4xx_ll_dma.h ****   *         @arg @ref LL_DMAMUX_REQ_UART5_RX (*)
1321:Drivers/STM32G4xx_HAL_Driver/Inc/stm32g4xx_ll_dma.h ****   *         @arg @ref LL_DMAMUX_REQ_UART5_TX (*)
1322:Drivers/STM32G4xx_HAL_Driver/Inc/stm32g4xx_ll_dma.h ****   *         @arg @ref LL_DMAMUX_REQ_LPUART1_RX
1323:Drivers/STM32G4xx_HAL_Driver/Inc/stm32g4xx_ll_dma.h ****   *         @arg @ref LL_DMAMUX_REQ_LPUART1_TX
1324:Drivers/STM32G4xx_HAL_Driver/Inc/stm32g4xx_ll_dma.h ****   *         @arg @ref LL_DMAMUX_REQ_ADC2
1325:Drivers/STM32G4xx_HAL_Driver/Inc/stm32g4xx_ll_dma.h ****   *         @arg @ref LL_DMAMUX_REQ_ADC3 (*)
1326:Drivers/STM32G4xx_HAL_Driver/Inc/stm32g4xx_ll_dma.h ****   *         @arg @ref LL_DMAMUX_REQ_ADC4 (*)
1327:Drivers/STM32G4xx_HAL_Driver/Inc/stm32g4xx_ll_dma.h ****   *         @arg @ref LL_DMAMUX_REQ_ADC5 (*)
1328:Drivers/STM32G4xx_HAL_Driver/Inc/stm32g4xx_ll_dma.h ****   *         @arg @ref LL_DMAMUX_REQ_QSPI (*)
1329:Drivers/STM32G4xx_HAL_Driver/Inc/stm32g4xx_ll_dma.h ****   *         @arg @ref LL_DMAMUX_REQ_DAC2_CH1 (*)
1330:Drivers/STM32G4xx_HAL_Driver/Inc/stm32g4xx_ll_dma.h ****   *         @arg @ref LL_DMAMUX_REQ_TIM1_CH1
1331:Drivers/STM32G4xx_HAL_Driver/Inc/stm32g4xx_ll_dma.h ****   *         @arg @ref LL_DMAMUX_REQ_TIM1_CH2
1332:Drivers/STM32G4xx_HAL_Driver/Inc/stm32g4xx_ll_dma.h ****   *         @arg @ref LL_DMAMUX_REQ_TIM1_CH3
1333:Drivers/STM32G4xx_HAL_Driver/Inc/stm32g4xx_ll_dma.h ****   *         @arg @ref LL_DMAMUX_REQ_TIM1_CH4
1334:Drivers/STM32G4xx_HAL_Driver/Inc/stm32g4xx_ll_dma.h ****   *         @arg @ref LL_DMAMUX_REQ_TIM1_UP
1335:Drivers/STM32G4xx_HAL_Driver/Inc/stm32g4xx_ll_dma.h ****   *         @arg @ref LL_DMAMUX_REQ_TIM1_TRIG
1336:Drivers/STM32G4xx_HAL_Driver/Inc/stm32g4xx_ll_dma.h ****   *         @arg @ref LL_DMAMUX_REQ_TIM1_COM
1337:Drivers/STM32G4xx_HAL_Driver/Inc/stm32g4xx_ll_dma.h ****   *         @arg @ref LL_DMAMUX_REQ_TIM8_CH1
1338:Drivers/STM32G4xx_HAL_Driver/Inc/stm32g4xx_ll_dma.h ****   *         @arg @ref LL_DMAMUX_REQ_TIM8_CH2
1339:Drivers/STM32G4xx_HAL_Driver/Inc/stm32g4xx_ll_dma.h ****   *         @arg @ref LL_DMAMUX_REQ_TIM8_CH3
1340:Drivers/STM32G4xx_HAL_Driver/Inc/stm32g4xx_ll_dma.h ****   *         @arg @ref LL_DMAMUX_REQ_TIM8_CH4
1341:Drivers/STM32G4xx_HAL_Driver/Inc/stm32g4xx_ll_dma.h ****   *         @arg @ref LL_DMAMUX_REQ_TIM8_UP
1342:Drivers/STM32G4xx_HAL_Driver/Inc/stm32g4xx_ll_dma.h ****   *         @arg @ref LL_DMAMUX_REQ_TIM8_TRIG
1343:Drivers/STM32G4xx_HAL_Driver/Inc/stm32g4xx_ll_dma.h ****   *         @arg @ref LL_DMAMUX_REQ_TIM8_COM
1344:Drivers/STM32G4xx_HAL_Driver/Inc/stm32g4xx_ll_dma.h ****   *         @arg @ref LL_DMAMUX_REQ_TIM2_CH1
1345:Drivers/STM32G4xx_HAL_Driver/Inc/stm32g4xx_ll_dma.h ****   *         @arg @ref LL_DMAMUX_REQ_TIM2_CH2
1346:Drivers/STM32G4xx_HAL_Driver/Inc/stm32g4xx_ll_dma.h ****   *         @arg @ref LL_DMAMUX_REQ_TIM2_CH3
1347:Drivers/STM32G4xx_HAL_Driver/Inc/stm32g4xx_ll_dma.h ****   *         @arg @ref LL_DMAMUX_REQ_TIM2_CH4
1348:Drivers/STM32G4xx_HAL_Driver/Inc/stm32g4xx_ll_dma.h ****   *         @arg @ref LL_DMAMUX_REQ_TIM2_UP
1349:Drivers/STM32G4xx_HAL_Driver/Inc/stm32g4xx_ll_dma.h ****   *         @arg @ref LL_DMAMUX_REQ_TIM3_CH1
1350:Drivers/STM32G4xx_HAL_Driver/Inc/stm32g4xx_ll_dma.h ****   *         @arg @ref LL_DMAMUX_REQ_TIM3_CH2
1351:Drivers/STM32G4xx_HAL_Driver/Inc/stm32g4xx_ll_dma.h ****   *         @arg @ref LL_DMAMUX_REQ_TIM3_CH3
1352:Drivers/STM32G4xx_HAL_Driver/Inc/stm32g4xx_ll_dma.h ****   *         @arg @ref LL_DMAMUX_REQ_TIM3_CH4
1353:Drivers/STM32G4xx_HAL_Driver/Inc/stm32g4xx_ll_dma.h ****   *         @arg @ref LL_DMAMUX_REQ_TIM3_UP
1354:Drivers/STM32G4xx_HAL_Driver/Inc/stm32g4xx_ll_dma.h ****   *         @arg @ref LL_DMAMUX_REQ_TIM3_TRIG
ARM GAS  D:\apps\VSCode\data\tmp\ccESTIAN.s 			page 30


1355:Drivers/STM32G4xx_HAL_Driver/Inc/stm32g4xx_ll_dma.h ****   *         @arg @ref LL_DMAMUX_REQ_TIM4_CH1
1356:Drivers/STM32G4xx_HAL_Driver/Inc/stm32g4xx_ll_dma.h ****   *         @arg @ref LL_DMAMUX_REQ_TIM4_CH2
1357:Drivers/STM32G4xx_HAL_Driver/Inc/stm32g4xx_ll_dma.h ****   *         @arg @ref LL_DMAMUX_REQ_TIM4_CH3
1358:Drivers/STM32G4xx_HAL_Driver/Inc/stm32g4xx_ll_dma.h ****   *         @arg @ref LL_DMAMUX_REQ_TIM4_CH4
1359:Drivers/STM32G4xx_HAL_Driver/Inc/stm32g4xx_ll_dma.h ****   *         @arg @ref LL_DMAMUX_REQ_TIM4_UP
1360:Drivers/STM32G4xx_HAL_Driver/Inc/stm32g4xx_ll_dma.h ****   *         @arg @ref LL_DMAMUX_REQ_TIM5_CH1 (*)
1361:Drivers/STM32G4xx_HAL_Driver/Inc/stm32g4xx_ll_dma.h ****   *         @arg @ref LL_DMAMUX_REQ_TIM5_CH2 (*)
1362:Drivers/STM32G4xx_HAL_Driver/Inc/stm32g4xx_ll_dma.h ****   *         @arg @ref LL_DMAMUX_REQ_TIM5_CH3 (*)
1363:Drivers/STM32G4xx_HAL_Driver/Inc/stm32g4xx_ll_dma.h ****   *         @arg @ref LL_DMAMUX_REQ_TIM5_CH4 (*)
1364:Drivers/STM32G4xx_HAL_Driver/Inc/stm32g4xx_ll_dma.h ****   *         @arg @ref LL_DMAMUX_REQ_TIM5_UP (*)
1365:Drivers/STM32G4xx_HAL_Driver/Inc/stm32g4xx_ll_dma.h ****   *         @arg @ref LL_DMAMUX_REQ_TIM5_TRIG (*)
1366:Drivers/STM32G4xx_HAL_Driver/Inc/stm32g4xx_ll_dma.h ****   *         @arg @ref LL_DMAMUX_REQ_TIM15_CH1
1367:Drivers/STM32G4xx_HAL_Driver/Inc/stm32g4xx_ll_dma.h ****   *         @arg @ref LL_DMAMUX_REQ_TIM15_UP
1368:Drivers/STM32G4xx_HAL_Driver/Inc/stm32g4xx_ll_dma.h ****   *         @arg @ref LL_DMAMUX_REQ_TIM15_TRIG
1369:Drivers/STM32G4xx_HAL_Driver/Inc/stm32g4xx_ll_dma.h ****   *         @arg @ref LL_DMAMUX_REQ_TIM15_COM
1370:Drivers/STM32G4xx_HAL_Driver/Inc/stm32g4xx_ll_dma.h ****   *         @arg @ref LL_DMAMUX_REQ_TIM16_CH1
1371:Drivers/STM32G4xx_HAL_Driver/Inc/stm32g4xx_ll_dma.h ****   *         @arg @ref LL_DMAMUX_REQ_TIM16_UP
1372:Drivers/STM32G4xx_HAL_Driver/Inc/stm32g4xx_ll_dma.h ****   *         @arg @ref LL_DMAMUX_REQ_TIM17_CH1
1373:Drivers/STM32G4xx_HAL_Driver/Inc/stm32g4xx_ll_dma.h ****   *         @arg @ref LL_DMAMUX_REQ_TIM17_UP
1374:Drivers/STM32G4xx_HAL_Driver/Inc/stm32g4xx_ll_dma.h ****   *         @arg @ref LL_DMAMUX_REQ_TIM20_CH1 (*)
1375:Drivers/STM32G4xx_HAL_Driver/Inc/stm32g4xx_ll_dma.h ****   *         @arg @ref LL_DMAMUX_REQ_TIM20_CH2 (*)
1376:Drivers/STM32G4xx_HAL_Driver/Inc/stm32g4xx_ll_dma.h ****   *         @arg @ref LL_DMAMUX_REQ_TIM20_CH3 (*)
1377:Drivers/STM32G4xx_HAL_Driver/Inc/stm32g4xx_ll_dma.h ****   *         @arg @ref LL_DMAMUX_REQ_TIM20_CH4 (*)
1378:Drivers/STM32G4xx_HAL_Driver/Inc/stm32g4xx_ll_dma.h ****   *         @arg @ref LL_DMAMUX_REQ_TIM20_UP (*)
1379:Drivers/STM32G4xx_HAL_Driver/Inc/stm32g4xx_ll_dma.h ****   *         @arg @ref LL_DMAMUX_REQ_AES_IN
1380:Drivers/STM32G4xx_HAL_Driver/Inc/stm32g4xx_ll_dma.h ****   *         @arg @ref LL_DMAMUX_REQ_AES_OUT
1381:Drivers/STM32G4xx_HAL_Driver/Inc/stm32g4xx_ll_dma.h ****   *         @arg @ref LL_DMAMUX_REQ_TIM20_TRIG (*)
1382:Drivers/STM32G4xx_HAL_Driver/Inc/stm32g4xx_ll_dma.h ****   *         @arg @ref LL_DMAMUX_REQ_TIM20_COM (*)
1383:Drivers/STM32G4xx_HAL_Driver/Inc/stm32g4xx_ll_dma.h ****   *         @arg @ref LL_DMAMUX_REQ_HRTIM1_M (*)
1384:Drivers/STM32G4xx_HAL_Driver/Inc/stm32g4xx_ll_dma.h ****   *         @arg @ref LL_DMAMUX_REQ_HRTIM1_A (*)
1385:Drivers/STM32G4xx_HAL_Driver/Inc/stm32g4xx_ll_dma.h ****   *         @arg @ref LL_DMAMUX_REQ_HRTIM1_B (*)
1386:Drivers/STM32G4xx_HAL_Driver/Inc/stm32g4xx_ll_dma.h ****   *         @arg @ref LL_DMAMUX_REQ_HRTIM1_C (*)
1387:Drivers/STM32G4xx_HAL_Driver/Inc/stm32g4xx_ll_dma.h ****   *         @arg @ref LL_DMAMUX_REQ_HRTIM1_D (*)
1388:Drivers/STM32G4xx_HAL_Driver/Inc/stm32g4xx_ll_dma.h ****   *         @arg @ref LL_DMAMUX_REQ_HRTIM1_E (*)
1389:Drivers/STM32G4xx_HAL_Driver/Inc/stm32g4xx_ll_dma.h ****   *         @arg @ref LL_DMAMUX_REQ_HRTIM1_F (*)
1390:Drivers/STM32G4xx_HAL_Driver/Inc/stm32g4xx_ll_dma.h ****   *         @arg @ref LL_DMAMUX_REQ_DAC3_CH1
1391:Drivers/STM32G4xx_HAL_Driver/Inc/stm32g4xx_ll_dma.h ****   *         @arg @ref LL_DMAMUX_REQ_DAC3_CH2
1392:Drivers/STM32G4xx_HAL_Driver/Inc/stm32g4xx_ll_dma.h ****   *         @arg @ref LL_DMAMUX_REQ_DAC4_CH1 (*)
1393:Drivers/STM32G4xx_HAL_Driver/Inc/stm32g4xx_ll_dma.h ****   *         @arg @ref LL_DMAMUX_REQ_DAC4_CH2 (*)
1394:Drivers/STM32G4xx_HAL_Driver/Inc/stm32g4xx_ll_dma.h ****   *         @arg @ref LL_DMAMUX_REQ_SPI4_RX (*)
1395:Drivers/STM32G4xx_HAL_Driver/Inc/stm32g4xx_ll_dma.h ****   *         @arg @ref LL_DMAMUX_REQ_SPI4_TX (*)
1396:Drivers/STM32G4xx_HAL_Driver/Inc/stm32g4xx_ll_dma.h ****   *         @arg @ref LL_DMAMUX_REQ_SAI1_A
1397:Drivers/STM32G4xx_HAL_Driver/Inc/stm32g4xx_ll_dma.h ****   *         @arg @ref LL_DMAMUX_REQ_SAI1_B
1398:Drivers/STM32G4xx_HAL_Driver/Inc/stm32g4xx_ll_dma.h ****   *         @arg @ref LL_DMAMUX_REQ_FMAC_WRITE
1399:Drivers/STM32G4xx_HAL_Driver/Inc/stm32g4xx_ll_dma.h ****   *         @arg @ref LL_DMAMUX_REQ_FMAC_READ
1400:Drivers/STM32G4xx_HAL_Driver/Inc/stm32g4xx_ll_dma.h ****   *         @arg @ref LL_DMAMUX_REQ_CORDIC_WRITE
1401:Drivers/STM32G4xx_HAL_Driver/Inc/stm32g4xx_ll_dma.h ****   *         @arg @ref LL_DMAMUX_REQ_CORDIC_READ
1402:Drivers/STM32G4xx_HAL_Driver/Inc/stm32g4xx_ll_dma.h ****   *         @arg @ref LL_DMAMUX_REQ_UCPD1_RX
1403:Drivers/STM32G4xx_HAL_Driver/Inc/stm32g4xx_ll_dma.h ****   *         @arg @ref LL_DMAMUX_REQ_UCPD1_TX
1404:Drivers/STM32G4xx_HAL_Driver/Inc/stm32g4xx_ll_dma.h ****   *         (*) Not on all G4 devices
1405:Drivers/STM32G4xx_HAL_Driver/Inc/stm32g4xx_ll_dma.h ****   * @retval None
1406:Drivers/STM32G4xx_HAL_Driver/Inc/stm32g4xx_ll_dma.h ****   */
1407:Drivers/STM32G4xx_HAL_Driver/Inc/stm32g4xx_ll_dma.h **** __STATIC_INLINE void LL_DMA_SetPeriphRequest(DMA_TypeDef *DMAx, uint32_t Channel, uint32_t PeriphRe
1408:Drivers/STM32G4xx_HAL_Driver/Inc/stm32g4xx_ll_dma.h **** {
 311              		.loc 1 1408 1
 312              		.cfi_startproc
 313              		@ args = 0, pretend = 0, frame = 24
ARM GAS  D:\apps\VSCode\data\tmp\ccESTIAN.s 			page 31


 314              		@ frame_needed = 1, uses_anonymous_args = 0
 315              		@ link register save eliminated.
 316 0000 80B4     		push	{r7}
 317              	.LCFI24:
 318              		.cfi_def_cfa_offset 4
 319              		.cfi_offset 7, -4
 320 0002 87B0     		sub	sp, sp, #28
 321              	.LCFI25:
 322              		.cfi_def_cfa_offset 32
 323 0004 00AF     		add	r7, sp, #0
 324              	.LCFI26:
 325              		.cfi_def_cfa_register 7
 326 0006 F860     		str	r0, [r7, #12]
 327 0008 B960     		str	r1, [r7, #8]
 328 000a 7A60     		str	r2, [r7, #4]
1409:Drivers/STM32G4xx_HAL_Driver/Inc/stm32g4xx_ll_dma.h ****   uint32_t dmamux_ccr_offset = ((((uint32_t)DMAx ^ (uint32_t)DMA1) >> 10U) * 8U);
 329              		.loc 1 1409 35
 330 000c FB68     		ldr	r3, [r7, #12]
 331              		.loc 1 1409 68
 332 000e 9B0A     		lsrs	r3, r3, #10
 333 0010 83F48013 		eor	r3, r3, #1048576
 334 0014 83F08003 		eor	r3, r3, #128
 335              		.loc 1 1409 12
 336 0018 DB00     		lsls	r3, r3, #3
 337 001a 7B61     		str	r3, [r7, #20]
1410:Drivers/STM32G4xx_HAL_Driver/Inc/stm32g4xx_ll_dma.h ****   MODIFY_REG((DMAMUX1_Channel0 + Channel + dmamux_ccr_offset)->CCR, DMAMUX_CxCR_DMAREQ_ID, PeriphRe
 338              		.loc 1 1410 3
 339 001c BA68     		ldr	r2, [r7, #8]
 340 001e 7B69     		ldr	r3, [r7, #20]
 341 0020 1344     		add	r3, r3, r2
 342 0022 9B00     		lsls	r3, r3, #2
 343 0024 03F18043 		add	r3, r3, #1073741824
 344 0028 03F50233 		add	r3, r3, #133120
 345 002c 1B68     		ldr	r3, [r3]
 346 002e 23F0FF01 		bic	r1, r3, #255
 347 0032 BA68     		ldr	r2, [r7, #8]
 348 0034 7B69     		ldr	r3, [r7, #20]
 349 0036 1344     		add	r3, r3, r2
 350 0038 9B00     		lsls	r3, r3, #2
 351 003a 03F18043 		add	r3, r3, #1073741824
 352 003e 03F50233 		add	r3, r3, #133120
 353 0042 7A68     		ldr	r2, [r7, #4]
 354 0044 0A43     		orrs	r2, r2, r1
 355 0046 1A60     		str	r2, [r3]
1411:Drivers/STM32G4xx_HAL_Driver/Inc/stm32g4xx_ll_dma.h **** }
 356              		.loc 1 1411 1
 357 0048 00BF     		nop
 358 004a 1C37     		adds	r7, r7, #28
 359              	.LCFI27:
 360              		.cfi_def_cfa_offset 4
 361 004c BD46     		mov	sp, r7
 362              	.LCFI28:
 363              		.cfi_def_cfa_register 13
 364              		@ sp needed
 365 004e 5DF8047B 		ldr	r7, [sp], #4
 366              	.LCFI29:
 367              		.cfi_restore 7
ARM GAS  D:\apps\VSCode\data\tmp\ccESTIAN.s 			page 32


 368              		.cfi_def_cfa_offset 0
 369 0052 7047     		bx	lr
 370              		.cfi_endproc
 371              	.LFE228:
 373              		.section	.text.LL_DMA_ClearFlag_GI1,"ax",%progbits
 374              		.align	1
 375              		.syntax unified
 376              		.thumb
 377              		.thumb_func
 378              		.fpu fpv4-sp-d16
 380              	LL_DMA_ClearFlag_GI1:
 381              	.LFB262:
1412:Drivers/STM32G4xx_HAL_Driver/Inc/stm32g4xx_ll_dma.h **** 
1413:Drivers/STM32G4xx_HAL_Driver/Inc/stm32g4xx_ll_dma.h **** /**
1414:Drivers/STM32G4xx_HAL_Driver/Inc/stm32g4xx_ll_dma.h ****   * @brief  Get DMA request for DMA instance on Channel x.
1415:Drivers/STM32G4xx_HAL_Driver/Inc/stm32g4xx_ll_dma.h ****   * @rmtoll CSELR        C1S           LL_DMA_GetPeriphRequest\n
1416:Drivers/STM32G4xx_HAL_Driver/Inc/stm32g4xx_ll_dma.h ****   *         CSELR        C2S           LL_DMA_GetPeriphRequest\n
1417:Drivers/STM32G4xx_HAL_Driver/Inc/stm32g4xx_ll_dma.h ****   *         CSELR        C3S           LL_DMA_GetPeriphRequest\n
1418:Drivers/STM32G4xx_HAL_Driver/Inc/stm32g4xx_ll_dma.h ****   *         CSELR        C4S           LL_DMA_GetPeriphRequest\n
1419:Drivers/STM32G4xx_HAL_Driver/Inc/stm32g4xx_ll_dma.h ****   *         CSELR        C5S           LL_DMA_GetPeriphRequest\n
1420:Drivers/STM32G4xx_HAL_Driver/Inc/stm32g4xx_ll_dma.h ****   *         CSELR        C6S           LL_DMA_GetPeriphRequest\n
1421:Drivers/STM32G4xx_HAL_Driver/Inc/stm32g4xx_ll_dma.h ****   *         CSELR        C7S           LL_DMA_GetPeriphRequest
1422:Drivers/STM32G4xx_HAL_Driver/Inc/stm32g4xx_ll_dma.h ****   * @param  DMAx DMAx Instance
1423:Drivers/STM32G4xx_HAL_Driver/Inc/stm32g4xx_ll_dma.h ****   * @param  Channel This parameter can be one of the following values:
1424:Drivers/STM32G4xx_HAL_Driver/Inc/stm32g4xx_ll_dma.h ****   *         @arg @ref LL_DMA_CHANNEL_1
1425:Drivers/STM32G4xx_HAL_Driver/Inc/stm32g4xx_ll_dma.h ****   *         @arg @ref LL_DMA_CHANNEL_2
1426:Drivers/STM32G4xx_HAL_Driver/Inc/stm32g4xx_ll_dma.h ****   *         @arg @ref LL_DMA_CHANNEL_3
1427:Drivers/STM32G4xx_HAL_Driver/Inc/stm32g4xx_ll_dma.h ****   *         @arg @ref LL_DMA_CHANNEL_4
1428:Drivers/STM32G4xx_HAL_Driver/Inc/stm32g4xx_ll_dma.h ****   *         @arg @ref LL_DMA_CHANNEL_5
1429:Drivers/STM32G4xx_HAL_Driver/Inc/stm32g4xx_ll_dma.h ****   *         @arg @ref LL_DMA_CHANNEL_6
1430:Drivers/STM32G4xx_HAL_Driver/Inc/stm32g4xx_ll_dma.h ****   *         @arg @ref LL_DMA_CHANNEL_7 (*)
1431:Drivers/STM32G4xx_HAL_Driver/Inc/stm32g4xx_ll_dma.h ****   *         @arg @ref LL_DMA_CHANNEL_8 (*)
1432:Drivers/STM32G4xx_HAL_Driver/Inc/stm32g4xx_ll_dma.h ****   *         (*) Not on all G4 devices
1433:Drivers/STM32G4xx_HAL_Driver/Inc/stm32g4xx_ll_dma.h ****   * @retval Returned value can be one of the following values:
1434:Drivers/STM32G4xx_HAL_Driver/Inc/stm32g4xx_ll_dma.h ****   *         @arg @ref LL_DMAMUX_REQ_MEM2MEM
1435:Drivers/STM32G4xx_HAL_Driver/Inc/stm32g4xx_ll_dma.h ****   *         @arg @ref LL_DMAMUX_REQ_GENERATOR0
1436:Drivers/STM32G4xx_HAL_Driver/Inc/stm32g4xx_ll_dma.h ****   *         @arg @ref LL_DMAMUX_REQ_GENERATOR1
1437:Drivers/STM32G4xx_HAL_Driver/Inc/stm32g4xx_ll_dma.h ****   *         @arg @ref LL_DMAMUX_REQ_GENERATOR2
1438:Drivers/STM32G4xx_HAL_Driver/Inc/stm32g4xx_ll_dma.h ****   *         @arg @ref LL_DMAMUX_REQ_GENERATOR3
1439:Drivers/STM32G4xx_HAL_Driver/Inc/stm32g4xx_ll_dma.h ****   *         @arg @ref LL_DMAMUX_REQ_ADC1
1440:Drivers/STM32G4xx_HAL_Driver/Inc/stm32g4xx_ll_dma.h ****   *         @arg @ref LL_DMAMUX_REQ_DAC1_CH1
1441:Drivers/STM32G4xx_HAL_Driver/Inc/stm32g4xx_ll_dma.h ****   *         @arg @ref LL_DMAMUX_REQ_DAC1_CH2
1442:Drivers/STM32G4xx_HAL_Driver/Inc/stm32g4xx_ll_dma.h ****   *         @arg @ref LL_DMAMUX_REQ_TIM6_UP
1443:Drivers/STM32G4xx_HAL_Driver/Inc/stm32g4xx_ll_dma.h ****   *         @arg @ref LL_DMAMUX_REQ_TIM7_UP
1444:Drivers/STM32G4xx_HAL_Driver/Inc/stm32g4xx_ll_dma.h ****   *         @arg @ref LL_DMAMUX_REQ_SPI1_RX
1445:Drivers/STM32G4xx_HAL_Driver/Inc/stm32g4xx_ll_dma.h ****   *         @arg @ref LL_DMAMUX_REQ_SPI1_TX
1446:Drivers/STM32G4xx_HAL_Driver/Inc/stm32g4xx_ll_dma.h ****   *         @arg @ref LL_DMAMUX_REQ_SPI2_RX
1447:Drivers/STM32G4xx_HAL_Driver/Inc/stm32g4xx_ll_dma.h ****   *         @arg @ref LL_DMAMUX_REQ_SPI2_TX
1448:Drivers/STM32G4xx_HAL_Driver/Inc/stm32g4xx_ll_dma.h ****   *         @arg @ref LL_DMAMUX_REQ_SPI3_RX
1449:Drivers/STM32G4xx_HAL_Driver/Inc/stm32g4xx_ll_dma.h ****   *         @arg @ref LL_DMAMUX_REQ_SPI3_TX
1450:Drivers/STM32G4xx_HAL_Driver/Inc/stm32g4xx_ll_dma.h ****   *         @arg @ref LL_DMAMUX_REQ_I2C1_RX
1451:Drivers/STM32G4xx_HAL_Driver/Inc/stm32g4xx_ll_dma.h ****   *         @arg @ref LL_DMAMUX_REQ_I2C1_TX
1452:Drivers/STM32G4xx_HAL_Driver/Inc/stm32g4xx_ll_dma.h ****   *         @arg @ref LL_DMAMUX_REQ_I2C2_RX
1453:Drivers/STM32G4xx_HAL_Driver/Inc/stm32g4xx_ll_dma.h ****   *         @arg @ref LL_DMAMUX_REQ_I2C2_TX
1454:Drivers/STM32G4xx_HAL_Driver/Inc/stm32g4xx_ll_dma.h ****   *         @arg @ref LL_DMAMUX_REQ_I2C3_RX
1455:Drivers/STM32G4xx_HAL_Driver/Inc/stm32g4xx_ll_dma.h ****   *         @arg @ref LL_DMAMUX_REQ_I2C3_TX (*)
1456:Drivers/STM32G4xx_HAL_Driver/Inc/stm32g4xx_ll_dma.h ****   *         @arg @ref LL_DMAMUX_REQ_I2C4_RX (*)
ARM GAS  D:\apps\VSCode\data\tmp\ccESTIAN.s 			page 33


1457:Drivers/STM32G4xx_HAL_Driver/Inc/stm32g4xx_ll_dma.h ****   *         @arg @ref LL_DMAMUX_REQ_I2C4_TX
1458:Drivers/STM32G4xx_HAL_Driver/Inc/stm32g4xx_ll_dma.h ****   *         @arg @ref LL_DMAMUX_REQ_USART1_RX
1459:Drivers/STM32G4xx_HAL_Driver/Inc/stm32g4xx_ll_dma.h ****   *         @arg @ref LL_DMAMUX_REQ_USART1_TX
1460:Drivers/STM32G4xx_HAL_Driver/Inc/stm32g4xx_ll_dma.h ****   *         @arg @ref LL_DMAMUX_REQ_USART2_RX
1461:Drivers/STM32G4xx_HAL_Driver/Inc/stm32g4xx_ll_dma.h ****   *         @arg @ref LL_DMAMUX_REQ_USART2_TX
1462:Drivers/STM32G4xx_HAL_Driver/Inc/stm32g4xx_ll_dma.h ****   *         @arg @ref LL_DMAMUX_REQ_USART3_RX
1463:Drivers/STM32G4xx_HAL_Driver/Inc/stm32g4xx_ll_dma.h ****   *         @arg @ref LL_DMAMUX_REQ_USART3_TX
1464:Drivers/STM32G4xx_HAL_Driver/Inc/stm32g4xx_ll_dma.h ****   *         @arg @ref LL_DMAMUX_REQ_UART4_RX
1465:Drivers/STM32G4xx_HAL_Driver/Inc/stm32g4xx_ll_dma.h ****   *         @arg @ref LL_DMAMUX_REQ_UART4_TX
1466:Drivers/STM32G4xx_HAL_Driver/Inc/stm32g4xx_ll_dma.h ****   *         @arg @ref LL_DMAMUX_REQ_UART5_RX (*)
1467:Drivers/STM32G4xx_HAL_Driver/Inc/stm32g4xx_ll_dma.h ****   *         @arg @ref LL_DMAMUX_REQ_UART5_TX (*)
1468:Drivers/STM32G4xx_HAL_Driver/Inc/stm32g4xx_ll_dma.h ****   *         @arg @ref LL_DMAMUX_REQ_LPUART1_RX
1469:Drivers/STM32G4xx_HAL_Driver/Inc/stm32g4xx_ll_dma.h ****   *         @arg @ref LL_DMAMUX_REQ_LPUART1_TX
1470:Drivers/STM32G4xx_HAL_Driver/Inc/stm32g4xx_ll_dma.h ****   *         @arg @ref LL_DMAMUX_REQ_ADC2
1471:Drivers/STM32G4xx_HAL_Driver/Inc/stm32g4xx_ll_dma.h ****   *         @arg @ref LL_DMAMUX_REQ_ADC3 (*)
1472:Drivers/STM32G4xx_HAL_Driver/Inc/stm32g4xx_ll_dma.h ****   *         @arg @ref LL_DMAMUX_REQ_ADC4 (*)
1473:Drivers/STM32G4xx_HAL_Driver/Inc/stm32g4xx_ll_dma.h ****   *         @arg @ref LL_DMAMUX_REQ_ADC5 (*)
1474:Drivers/STM32G4xx_HAL_Driver/Inc/stm32g4xx_ll_dma.h ****   *         @arg @ref LL_DMAMUX_REQ_QSPI (*)
1475:Drivers/STM32G4xx_HAL_Driver/Inc/stm32g4xx_ll_dma.h ****   *         @arg @ref LL_DMAMUX_REQ_DAC2_CH1 (*)
1476:Drivers/STM32G4xx_HAL_Driver/Inc/stm32g4xx_ll_dma.h ****   *         @arg @ref LL_DMAMUX_REQ_TIM1_CH1
1477:Drivers/STM32G4xx_HAL_Driver/Inc/stm32g4xx_ll_dma.h ****   *         @arg @ref LL_DMAMUX_REQ_TIM1_CH2
1478:Drivers/STM32G4xx_HAL_Driver/Inc/stm32g4xx_ll_dma.h ****   *         @arg @ref LL_DMAMUX_REQ_TIM1_CH3
1479:Drivers/STM32G4xx_HAL_Driver/Inc/stm32g4xx_ll_dma.h ****   *         @arg @ref LL_DMAMUX_REQ_TIM1_CH4
1480:Drivers/STM32G4xx_HAL_Driver/Inc/stm32g4xx_ll_dma.h ****   *         @arg @ref LL_DMAMUX_REQ_TIM1_UP
1481:Drivers/STM32G4xx_HAL_Driver/Inc/stm32g4xx_ll_dma.h ****   *         @arg @ref LL_DMAMUX_REQ_TIM1_TRIG
1482:Drivers/STM32G4xx_HAL_Driver/Inc/stm32g4xx_ll_dma.h ****   *         @arg @ref LL_DMAMUX_REQ_TIM1_COM
1483:Drivers/STM32G4xx_HAL_Driver/Inc/stm32g4xx_ll_dma.h ****   *         @arg @ref LL_DMAMUX_REQ_TIM8_CH1
1484:Drivers/STM32G4xx_HAL_Driver/Inc/stm32g4xx_ll_dma.h ****   *         @arg @ref LL_DMAMUX_REQ_TIM8_CH2
1485:Drivers/STM32G4xx_HAL_Driver/Inc/stm32g4xx_ll_dma.h ****   *         @arg @ref LL_DMAMUX_REQ_TIM8_CH3
1486:Drivers/STM32G4xx_HAL_Driver/Inc/stm32g4xx_ll_dma.h ****   *         @arg @ref LL_DMAMUX_REQ_TIM8_CH4
1487:Drivers/STM32G4xx_HAL_Driver/Inc/stm32g4xx_ll_dma.h ****   *         @arg @ref LL_DMAMUX_REQ_TIM8_UP
1488:Drivers/STM32G4xx_HAL_Driver/Inc/stm32g4xx_ll_dma.h ****   *         @arg @ref LL_DMAMUX_REQ_TIM8_TRIG
1489:Drivers/STM32G4xx_HAL_Driver/Inc/stm32g4xx_ll_dma.h ****   *         @arg @ref LL_DMAMUX_REQ_TIM8_COM
1490:Drivers/STM32G4xx_HAL_Driver/Inc/stm32g4xx_ll_dma.h ****   *         @arg @ref LL_DMAMUX_REQ_TIM2_CH1
1491:Drivers/STM32G4xx_HAL_Driver/Inc/stm32g4xx_ll_dma.h ****   *         @arg @ref LL_DMAMUX_REQ_TIM2_CH2
1492:Drivers/STM32G4xx_HAL_Driver/Inc/stm32g4xx_ll_dma.h ****   *         @arg @ref LL_DMAMUX_REQ_TIM2_CH3
1493:Drivers/STM32G4xx_HAL_Driver/Inc/stm32g4xx_ll_dma.h ****   *         @arg @ref LL_DMAMUX_REQ_TIM2_CH4
1494:Drivers/STM32G4xx_HAL_Driver/Inc/stm32g4xx_ll_dma.h ****   *         @arg @ref LL_DMAMUX_REQ_TIM2_UP
1495:Drivers/STM32G4xx_HAL_Driver/Inc/stm32g4xx_ll_dma.h ****   *         @arg @ref LL_DMAMUX_REQ_TIM3_CH1
1496:Drivers/STM32G4xx_HAL_Driver/Inc/stm32g4xx_ll_dma.h ****   *         @arg @ref LL_DMAMUX_REQ_TIM3_CH2
1497:Drivers/STM32G4xx_HAL_Driver/Inc/stm32g4xx_ll_dma.h ****   *         @arg @ref LL_DMAMUX_REQ_TIM3_CH3
1498:Drivers/STM32G4xx_HAL_Driver/Inc/stm32g4xx_ll_dma.h ****   *         @arg @ref LL_DMAMUX_REQ_TIM3_CH4
1499:Drivers/STM32G4xx_HAL_Driver/Inc/stm32g4xx_ll_dma.h ****   *         @arg @ref LL_DMAMUX_REQ_TIM3_UP
1500:Drivers/STM32G4xx_HAL_Driver/Inc/stm32g4xx_ll_dma.h ****   *         @arg @ref LL_DMAMUX_REQ_TIM3_TRIG
1501:Drivers/STM32G4xx_HAL_Driver/Inc/stm32g4xx_ll_dma.h ****   *         @arg @ref LL_DMAMUX_REQ_TIM4_CH1
1502:Drivers/STM32G4xx_HAL_Driver/Inc/stm32g4xx_ll_dma.h ****   *         @arg @ref LL_DMAMUX_REQ_TIM4_CH2
1503:Drivers/STM32G4xx_HAL_Driver/Inc/stm32g4xx_ll_dma.h ****   *         @arg @ref LL_DMAMUX_REQ_TIM4_CH3
1504:Drivers/STM32G4xx_HAL_Driver/Inc/stm32g4xx_ll_dma.h ****   *         @arg @ref LL_DMAMUX_REQ_TIM4_CH4
1505:Drivers/STM32G4xx_HAL_Driver/Inc/stm32g4xx_ll_dma.h ****   *         @arg @ref LL_DMAMUX_REQ_TIM4_UP
1506:Drivers/STM32G4xx_HAL_Driver/Inc/stm32g4xx_ll_dma.h ****   *         @arg @ref LL_DMAMUX_REQ_TIM5_CH1 (*)
1507:Drivers/STM32G4xx_HAL_Driver/Inc/stm32g4xx_ll_dma.h ****   *         @arg @ref LL_DMAMUX_REQ_TIM5_CH2 (*)
1508:Drivers/STM32G4xx_HAL_Driver/Inc/stm32g4xx_ll_dma.h ****   *         @arg @ref LL_DMAMUX_REQ_TIM5_CH3 (*)
1509:Drivers/STM32G4xx_HAL_Driver/Inc/stm32g4xx_ll_dma.h ****   *         @arg @ref LL_DMAMUX_REQ_TIM5_CH4 (*)
1510:Drivers/STM32G4xx_HAL_Driver/Inc/stm32g4xx_ll_dma.h ****   *         @arg @ref LL_DMAMUX_REQ_TIM5_UP (*)
1511:Drivers/STM32G4xx_HAL_Driver/Inc/stm32g4xx_ll_dma.h ****   *         @arg @ref LL_DMAMUX_REQ_TIM5_TRIG (*)
1512:Drivers/STM32G4xx_HAL_Driver/Inc/stm32g4xx_ll_dma.h ****   *         @arg @ref LL_DMAMUX_REQ_TIM15_CH1
1513:Drivers/STM32G4xx_HAL_Driver/Inc/stm32g4xx_ll_dma.h ****   *         @arg @ref LL_DMAMUX_REQ_TIM15_UP
ARM GAS  D:\apps\VSCode\data\tmp\ccESTIAN.s 			page 34


1514:Drivers/STM32G4xx_HAL_Driver/Inc/stm32g4xx_ll_dma.h ****   *         @arg @ref LL_DMAMUX_REQ_TIM15_TRIG
1515:Drivers/STM32G4xx_HAL_Driver/Inc/stm32g4xx_ll_dma.h ****   *         @arg @ref LL_DMAMUX_REQ_TIM15_COM
1516:Drivers/STM32G4xx_HAL_Driver/Inc/stm32g4xx_ll_dma.h ****   *         @arg @ref LL_DMAMUX_REQ_TIM16_CH1
1517:Drivers/STM32G4xx_HAL_Driver/Inc/stm32g4xx_ll_dma.h ****   *         @arg @ref LL_DMAMUX_REQ_TIM16_UP
1518:Drivers/STM32G4xx_HAL_Driver/Inc/stm32g4xx_ll_dma.h ****   *         @arg @ref LL_DMAMUX_REQ_TIM17_CH1
1519:Drivers/STM32G4xx_HAL_Driver/Inc/stm32g4xx_ll_dma.h ****   *         @arg @ref LL_DMAMUX_REQ_TIM17_UP
1520:Drivers/STM32G4xx_HAL_Driver/Inc/stm32g4xx_ll_dma.h ****   *         @arg @ref LL_DMAMUX_REQ_TIM20_CH1 (*)
1521:Drivers/STM32G4xx_HAL_Driver/Inc/stm32g4xx_ll_dma.h ****   *         @arg @ref LL_DMAMUX_REQ_TIM20_CH2 (*)
1522:Drivers/STM32G4xx_HAL_Driver/Inc/stm32g4xx_ll_dma.h ****   *         @arg @ref LL_DMAMUX_REQ_TIM20_CH3 (*)
1523:Drivers/STM32G4xx_HAL_Driver/Inc/stm32g4xx_ll_dma.h ****   *         @arg @ref LL_DMAMUX_REQ_TIM20_CH4 (*)
1524:Drivers/STM32G4xx_HAL_Driver/Inc/stm32g4xx_ll_dma.h ****   *         @arg @ref LL_DMAMUX_REQ_TIM20_UP (*)
1525:Drivers/STM32G4xx_HAL_Driver/Inc/stm32g4xx_ll_dma.h ****   *         @arg @ref LL_DMAMUX_REQ_AES_IN
1526:Drivers/STM32G4xx_HAL_Driver/Inc/stm32g4xx_ll_dma.h ****   *         @arg @ref LL_DMAMUX_REQ_AES_OUT
1527:Drivers/STM32G4xx_HAL_Driver/Inc/stm32g4xx_ll_dma.h ****   *         @arg @ref LL_DMAMUX_REQ_TIM20_TRIG (*)
1528:Drivers/STM32G4xx_HAL_Driver/Inc/stm32g4xx_ll_dma.h ****   *         @arg @ref LL_DMAMUX_REQ_TIM20_COM (*)
1529:Drivers/STM32G4xx_HAL_Driver/Inc/stm32g4xx_ll_dma.h ****   *         @arg @ref LL_DMAMUX_REQ_HRTIM1_M (*)
1530:Drivers/STM32G4xx_HAL_Driver/Inc/stm32g4xx_ll_dma.h ****   *         @arg @ref LL_DMAMUX_REQ_HRTIM1_A (*)
1531:Drivers/STM32G4xx_HAL_Driver/Inc/stm32g4xx_ll_dma.h ****   *         @arg @ref LL_DMAMUX_REQ_HRTIM1_B (*)
1532:Drivers/STM32G4xx_HAL_Driver/Inc/stm32g4xx_ll_dma.h ****   *         @arg @ref LL_DMAMUX_REQ_HRTIM1_C (*)
1533:Drivers/STM32G4xx_HAL_Driver/Inc/stm32g4xx_ll_dma.h ****   *         @arg @ref LL_DMAMUX_REQ_HRTIM1_D (*)
1534:Drivers/STM32G4xx_HAL_Driver/Inc/stm32g4xx_ll_dma.h ****   *         @arg @ref LL_DMAMUX_REQ_HRTIM1_E (*)
1535:Drivers/STM32G4xx_HAL_Driver/Inc/stm32g4xx_ll_dma.h ****   *         @arg @ref LL_DMAMUX_REQ_HRTIM1_F (*)
1536:Drivers/STM32G4xx_HAL_Driver/Inc/stm32g4xx_ll_dma.h ****   *         @arg @ref LL_DMAMUX_REQ_DAC3_CH1
1537:Drivers/STM32G4xx_HAL_Driver/Inc/stm32g4xx_ll_dma.h ****   *         @arg @ref LL_DMAMUX_REQ_DAC3_CH2
1538:Drivers/STM32G4xx_HAL_Driver/Inc/stm32g4xx_ll_dma.h ****   *         @arg @ref LL_DMAMUX_REQ_DAC4_CH1 (*)
1539:Drivers/STM32G4xx_HAL_Driver/Inc/stm32g4xx_ll_dma.h ****   *         @arg @ref LL_DMAMUX_REQ_DAC4_CH2 (*)
1540:Drivers/STM32G4xx_HAL_Driver/Inc/stm32g4xx_ll_dma.h ****   *         @arg @ref LL_DMAMUX_REQ_SPI4_RX (*)
1541:Drivers/STM32G4xx_HAL_Driver/Inc/stm32g4xx_ll_dma.h ****   *         @arg @ref LL_DMAMUX_REQ_SPI4_TX (*)
1542:Drivers/STM32G4xx_HAL_Driver/Inc/stm32g4xx_ll_dma.h ****   *         @arg @ref LL_DMAMUX_REQ_SAI1_A
1543:Drivers/STM32G4xx_HAL_Driver/Inc/stm32g4xx_ll_dma.h ****   *         @arg @ref LL_DMAMUX_REQ_SAI1_B
1544:Drivers/STM32G4xx_HAL_Driver/Inc/stm32g4xx_ll_dma.h ****   *         @arg @ref LL_DMAMUX_REQ_FMAC_WRITE
1545:Drivers/STM32G4xx_HAL_Driver/Inc/stm32g4xx_ll_dma.h ****   *         @arg @ref LL_DMAMUX_REQ_FMAC_READ
1546:Drivers/STM32G4xx_HAL_Driver/Inc/stm32g4xx_ll_dma.h ****   *         @arg @ref LL_DMAMUX_REQ_CORDIC_WRITE
1547:Drivers/STM32G4xx_HAL_Driver/Inc/stm32g4xx_ll_dma.h ****   *         @arg @ref LL_DMAMUX_REQ_CORDIC_READ
1548:Drivers/STM32G4xx_HAL_Driver/Inc/stm32g4xx_ll_dma.h ****   *         @arg @ref LL_DMAMUX_REQ_UCPD1_RX
1549:Drivers/STM32G4xx_HAL_Driver/Inc/stm32g4xx_ll_dma.h ****   *         @arg @ref LL_DMAMUX_REQ_UCPD1_TX
1550:Drivers/STM32G4xx_HAL_Driver/Inc/stm32g4xx_ll_dma.h ****   *         (*) Not on all G4 devices
1551:Drivers/STM32G4xx_HAL_Driver/Inc/stm32g4xx_ll_dma.h ****   */
1552:Drivers/STM32G4xx_HAL_Driver/Inc/stm32g4xx_ll_dma.h **** __STATIC_INLINE uint32_t LL_DMA_GetPeriphRequest(DMA_TypeDef *DMAx, uint32_t Channel)
1553:Drivers/STM32G4xx_HAL_Driver/Inc/stm32g4xx_ll_dma.h **** {
1554:Drivers/STM32G4xx_HAL_Driver/Inc/stm32g4xx_ll_dma.h ****   uint32_t dmamux_ccr_offset = ((((uint32_t)DMAx ^ (uint32_t)DMA1) >> 10U) * 8U);
1555:Drivers/STM32G4xx_HAL_Driver/Inc/stm32g4xx_ll_dma.h ****   return (READ_BIT((DMAMUX1_Channel0 + Channel + dmamux_ccr_offset)->CCR, DMAMUX_CxCR_DMAREQ_ID));
1556:Drivers/STM32G4xx_HAL_Driver/Inc/stm32g4xx_ll_dma.h **** }
1557:Drivers/STM32G4xx_HAL_Driver/Inc/stm32g4xx_ll_dma.h **** 
1558:Drivers/STM32G4xx_HAL_Driver/Inc/stm32g4xx_ll_dma.h **** /**
1559:Drivers/STM32G4xx_HAL_Driver/Inc/stm32g4xx_ll_dma.h ****   * @}
1560:Drivers/STM32G4xx_HAL_Driver/Inc/stm32g4xx_ll_dma.h ****   */
1561:Drivers/STM32G4xx_HAL_Driver/Inc/stm32g4xx_ll_dma.h **** 
1562:Drivers/STM32G4xx_HAL_Driver/Inc/stm32g4xx_ll_dma.h **** /** @defgroup DMA_LL_EF_FLAG_Management FLAG_Management
1563:Drivers/STM32G4xx_HAL_Driver/Inc/stm32g4xx_ll_dma.h ****   * @{
1564:Drivers/STM32G4xx_HAL_Driver/Inc/stm32g4xx_ll_dma.h ****   */
1565:Drivers/STM32G4xx_HAL_Driver/Inc/stm32g4xx_ll_dma.h **** 
1566:Drivers/STM32G4xx_HAL_Driver/Inc/stm32g4xx_ll_dma.h **** /**
1567:Drivers/STM32G4xx_HAL_Driver/Inc/stm32g4xx_ll_dma.h ****   * @brief  Get Channel 1 global interrupt flag.
1568:Drivers/STM32G4xx_HAL_Driver/Inc/stm32g4xx_ll_dma.h ****   * @rmtoll ISR          GIF1          LL_DMA_IsActiveFlag_GI1
1569:Drivers/STM32G4xx_HAL_Driver/Inc/stm32g4xx_ll_dma.h ****   * @param  DMAx DMAx Instance
1570:Drivers/STM32G4xx_HAL_Driver/Inc/stm32g4xx_ll_dma.h ****   * @retval State of bit (1 or 0).
ARM GAS  D:\apps\VSCode\data\tmp\ccESTIAN.s 			page 35


1571:Drivers/STM32G4xx_HAL_Driver/Inc/stm32g4xx_ll_dma.h ****   */
1572:Drivers/STM32G4xx_HAL_Driver/Inc/stm32g4xx_ll_dma.h **** __STATIC_INLINE uint32_t LL_DMA_IsActiveFlag_GI1(DMA_TypeDef *DMAx)
1573:Drivers/STM32G4xx_HAL_Driver/Inc/stm32g4xx_ll_dma.h **** {
1574:Drivers/STM32G4xx_HAL_Driver/Inc/stm32g4xx_ll_dma.h ****   return ((READ_BIT(DMAx->ISR, DMA_ISR_GIF1) == (DMA_ISR_GIF1)) ? 1UL : 0UL);
1575:Drivers/STM32G4xx_HAL_Driver/Inc/stm32g4xx_ll_dma.h **** }
1576:Drivers/STM32G4xx_HAL_Driver/Inc/stm32g4xx_ll_dma.h **** 
1577:Drivers/STM32G4xx_HAL_Driver/Inc/stm32g4xx_ll_dma.h **** /**
1578:Drivers/STM32G4xx_HAL_Driver/Inc/stm32g4xx_ll_dma.h ****   * @brief  Get Channel 2 global interrupt flag.
1579:Drivers/STM32G4xx_HAL_Driver/Inc/stm32g4xx_ll_dma.h ****   * @rmtoll ISR          GIF2          LL_DMA_IsActiveFlag_GI2
1580:Drivers/STM32G4xx_HAL_Driver/Inc/stm32g4xx_ll_dma.h ****   * @param  DMAx DMAx Instance
1581:Drivers/STM32G4xx_HAL_Driver/Inc/stm32g4xx_ll_dma.h ****   * @retval State of bit (1 or 0).
1582:Drivers/STM32G4xx_HAL_Driver/Inc/stm32g4xx_ll_dma.h ****   */
1583:Drivers/STM32G4xx_HAL_Driver/Inc/stm32g4xx_ll_dma.h **** __STATIC_INLINE uint32_t LL_DMA_IsActiveFlag_GI2(DMA_TypeDef *DMAx)
1584:Drivers/STM32G4xx_HAL_Driver/Inc/stm32g4xx_ll_dma.h **** {
1585:Drivers/STM32G4xx_HAL_Driver/Inc/stm32g4xx_ll_dma.h ****   return ((READ_BIT(DMAx->ISR, DMA_ISR_GIF2) == (DMA_ISR_GIF2)) ? 1UL : 0UL);
1586:Drivers/STM32G4xx_HAL_Driver/Inc/stm32g4xx_ll_dma.h **** }
1587:Drivers/STM32G4xx_HAL_Driver/Inc/stm32g4xx_ll_dma.h **** 
1588:Drivers/STM32G4xx_HAL_Driver/Inc/stm32g4xx_ll_dma.h **** /**
1589:Drivers/STM32G4xx_HAL_Driver/Inc/stm32g4xx_ll_dma.h ****   * @brief  Get Channel 3 global interrupt flag.
1590:Drivers/STM32G4xx_HAL_Driver/Inc/stm32g4xx_ll_dma.h ****   * @rmtoll ISR          GIF3          LL_DMA_IsActiveFlag_GI3
1591:Drivers/STM32G4xx_HAL_Driver/Inc/stm32g4xx_ll_dma.h ****   * @param  DMAx DMAx Instance
1592:Drivers/STM32G4xx_HAL_Driver/Inc/stm32g4xx_ll_dma.h ****   * @retval State of bit (1 or 0).
1593:Drivers/STM32G4xx_HAL_Driver/Inc/stm32g4xx_ll_dma.h ****   */
1594:Drivers/STM32G4xx_HAL_Driver/Inc/stm32g4xx_ll_dma.h **** __STATIC_INLINE uint32_t LL_DMA_IsActiveFlag_GI3(DMA_TypeDef *DMAx)
1595:Drivers/STM32G4xx_HAL_Driver/Inc/stm32g4xx_ll_dma.h **** {
1596:Drivers/STM32G4xx_HAL_Driver/Inc/stm32g4xx_ll_dma.h ****   return ((READ_BIT(DMAx->ISR, DMA_ISR_GIF3) == (DMA_ISR_GIF3)) ? 1UL : 0UL);
1597:Drivers/STM32G4xx_HAL_Driver/Inc/stm32g4xx_ll_dma.h **** }
1598:Drivers/STM32G4xx_HAL_Driver/Inc/stm32g4xx_ll_dma.h **** 
1599:Drivers/STM32G4xx_HAL_Driver/Inc/stm32g4xx_ll_dma.h **** /**
1600:Drivers/STM32G4xx_HAL_Driver/Inc/stm32g4xx_ll_dma.h ****   * @brief  Get Channel 4 global interrupt flag.
1601:Drivers/STM32G4xx_HAL_Driver/Inc/stm32g4xx_ll_dma.h ****   * @rmtoll ISR          GIF4          LL_DMA_IsActiveFlag_GI4
1602:Drivers/STM32G4xx_HAL_Driver/Inc/stm32g4xx_ll_dma.h ****   * @param  DMAx DMAx Instance
1603:Drivers/STM32G4xx_HAL_Driver/Inc/stm32g4xx_ll_dma.h ****   * @retval State of bit (1 or 0).
1604:Drivers/STM32G4xx_HAL_Driver/Inc/stm32g4xx_ll_dma.h ****   */
1605:Drivers/STM32G4xx_HAL_Driver/Inc/stm32g4xx_ll_dma.h **** __STATIC_INLINE uint32_t LL_DMA_IsActiveFlag_GI4(DMA_TypeDef *DMAx)
1606:Drivers/STM32G4xx_HAL_Driver/Inc/stm32g4xx_ll_dma.h **** {
1607:Drivers/STM32G4xx_HAL_Driver/Inc/stm32g4xx_ll_dma.h ****   return ((READ_BIT(DMAx->ISR, DMA_ISR_GIF4) == (DMA_ISR_GIF4)) ? 1UL : 0UL);
1608:Drivers/STM32G4xx_HAL_Driver/Inc/stm32g4xx_ll_dma.h **** }
1609:Drivers/STM32G4xx_HAL_Driver/Inc/stm32g4xx_ll_dma.h **** 
1610:Drivers/STM32G4xx_HAL_Driver/Inc/stm32g4xx_ll_dma.h **** /**
1611:Drivers/STM32G4xx_HAL_Driver/Inc/stm32g4xx_ll_dma.h ****   * @brief  Get Channel 5 global interrupt flag.
1612:Drivers/STM32G4xx_HAL_Driver/Inc/stm32g4xx_ll_dma.h ****   * @rmtoll ISR          GIF5          LL_DMA_IsActiveFlag_GI5
1613:Drivers/STM32G4xx_HAL_Driver/Inc/stm32g4xx_ll_dma.h ****   * @param  DMAx DMAx Instance
1614:Drivers/STM32G4xx_HAL_Driver/Inc/stm32g4xx_ll_dma.h ****   * @retval State of bit (1 or 0).
1615:Drivers/STM32G4xx_HAL_Driver/Inc/stm32g4xx_ll_dma.h ****   */
1616:Drivers/STM32G4xx_HAL_Driver/Inc/stm32g4xx_ll_dma.h **** __STATIC_INLINE uint32_t LL_DMA_IsActiveFlag_GI5(DMA_TypeDef *DMAx)
1617:Drivers/STM32G4xx_HAL_Driver/Inc/stm32g4xx_ll_dma.h **** {
1618:Drivers/STM32G4xx_HAL_Driver/Inc/stm32g4xx_ll_dma.h ****   return ((READ_BIT(DMAx->ISR, DMA_ISR_GIF5) == (DMA_ISR_GIF5)) ? 1UL : 0UL);
1619:Drivers/STM32G4xx_HAL_Driver/Inc/stm32g4xx_ll_dma.h **** }
1620:Drivers/STM32G4xx_HAL_Driver/Inc/stm32g4xx_ll_dma.h **** 
1621:Drivers/STM32G4xx_HAL_Driver/Inc/stm32g4xx_ll_dma.h **** /**
1622:Drivers/STM32G4xx_HAL_Driver/Inc/stm32g4xx_ll_dma.h ****   * @brief  Get Channel 6 global interrupt flag.
1623:Drivers/STM32G4xx_HAL_Driver/Inc/stm32g4xx_ll_dma.h ****   * @rmtoll ISR          GIF6          LL_DMA_IsActiveFlag_GI6
1624:Drivers/STM32G4xx_HAL_Driver/Inc/stm32g4xx_ll_dma.h ****   * @param  DMAx DMAx Instance
1625:Drivers/STM32G4xx_HAL_Driver/Inc/stm32g4xx_ll_dma.h ****   * @retval State of bit (1 or 0).
1626:Drivers/STM32G4xx_HAL_Driver/Inc/stm32g4xx_ll_dma.h ****   */
1627:Drivers/STM32G4xx_HAL_Driver/Inc/stm32g4xx_ll_dma.h **** __STATIC_INLINE uint32_t LL_DMA_IsActiveFlag_GI6(DMA_TypeDef *DMAx)
ARM GAS  D:\apps\VSCode\data\tmp\ccESTIAN.s 			page 36


1628:Drivers/STM32G4xx_HAL_Driver/Inc/stm32g4xx_ll_dma.h **** {
1629:Drivers/STM32G4xx_HAL_Driver/Inc/stm32g4xx_ll_dma.h ****   return ((READ_BIT(DMAx->ISR, DMA_ISR_GIF6) == (DMA_ISR_GIF6)) ? 1UL : 0UL);
1630:Drivers/STM32G4xx_HAL_Driver/Inc/stm32g4xx_ll_dma.h **** }
1631:Drivers/STM32G4xx_HAL_Driver/Inc/stm32g4xx_ll_dma.h **** 
1632:Drivers/STM32G4xx_HAL_Driver/Inc/stm32g4xx_ll_dma.h **** #if defined (DMA1_Channel7)
1633:Drivers/STM32G4xx_HAL_Driver/Inc/stm32g4xx_ll_dma.h **** /**
1634:Drivers/STM32G4xx_HAL_Driver/Inc/stm32g4xx_ll_dma.h ****   * @brief  Get Channel 7 global interrupt flag.
1635:Drivers/STM32G4xx_HAL_Driver/Inc/stm32g4xx_ll_dma.h ****   * @rmtoll ISR          GIF7          LL_DMA_IsActiveFlag_GI7
1636:Drivers/STM32G4xx_HAL_Driver/Inc/stm32g4xx_ll_dma.h ****   * @param  DMAx DMAx Instance
1637:Drivers/STM32G4xx_HAL_Driver/Inc/stm32g4xx_ll_dma.h ****   * @retval State of bit (1 or 0).
1638:Drivers/STM32G4xx_HAL_Driver/Inc/stm32g4xx_ll_dma.h ****   */
1639:Drivers/STM32G4xx_HAL_Driver/Inc/stm32g4xx_ll_dma.h **** __STATIC_INLINE uint32_t LL_DMA_IsActiveFlag_GI7(DMA_TypeDef *DMAx)
1640:Drivers/STM32G4xx_HAL_Driver/Inc/stm32g4xx_ll_dma.h **** {
1641:Drivers/STM32G4xx_HAL_Driver/Inc/stm32g4xx_ll_dma.h ****   return ((READ_BIT(DMAx->ISR, DMA_ISR_GIF7) == (DMA_ISR_GIF7)) ? 1UL : 0UL);
1642:Drivers/STM32G4xx_HAL_Driver/Inc/stm32g4xx_ll_dma.h **** }
1643:Drivers/STM32G4xx_HAL_Driver/Inc/stm32g4xx_ll_dma.h **** #endif /* DMA1_Channel7 */
1644:Drivers/STM32G4xx_HAL_Driver/Inc/stm32g4xx_ll_dma.h **** 
1645:Drivers/STM32G4xx_HAL_Driver/Inc/stm32g4xx_ll_dma.h **** #if defined (DMA1_Channel8)
1646:Drivers/STM32G4xx_HAL_Driver/Inc/stm32g4xx_ll_dma.h **** /**
1647:Drivers/STM32G4xx_HAL_Driver/Inc/stm32g4xx_ll_dma.h ****   * @brief  Get Channel 8 global interrupt flag.
1648:Drivers/STM32G4xx_HAL_Driver/Inc/stm32g4xx_ll_dma.h ****   * @rmtoll ISR          GIF8          LL_DMA_IsActiveFlag_GI8
1649:Drivers/STM32G4xx_HAL_Driver/Inc/stm32g4xx_ll_dma.h ****   * @param  DMAx DMAx Instance
1650:Drivers/STM32G4xx_HAL_Driver/Inc/stm32g4xx_ll_dma.h ****   * @retval State of bit (1 or 0).
1651:Drivers/STM32G4xx_HAL_Driver/Inc/stm32g4xx_ll_dma.h ****   */
1652:Drivers/STM32G4xx_HAL_Driver/Inc/stm32g4xx_ll_dma.h **** __STATIC_INLINE uint32_t LL_DMA_IsActiveFlag_GI8(DMA_TypeDef *DMAx)
1653:Drivers/STM32G4xx_HAL_Driver/Inc/stm32g4xx_ll_dma.h **** {
1654:Drivers/STM32G4xx_HAL_Driver/Inc/stm32g4xx_ll_dma.h ****   return ((READ_BIT(DMAx->ISR, DMA_ISR_GIF8) == (DMA_ISR_GIF8)) ? 1UL : 0UL);
1655:Drivers/STM32G4xx_HAL_Driver/Inc/stm32g4xx_ll_dma.h **** }
1656:Drivers/STM32G4xx_HAL_Driver/Inc/stm32g4xx_ll_dma.h **** #endif /* DMA1_Channel8 */
1657:Drivers/STM32G4xx_HAL_Driver/Inc/stm32g4xx_ll_dma.h **** 
1658:Drivers/STM32G4xx_HAL_Driver/Inc/stm32g4xx_ll_dma.h **** /**
1659:Drivers/STM32G4xx_HAL_Driver/Inc/stm32g4xx_ll_dma.h ****   * @brief  Get Channel 1 transfer complete flag.
1660:Drivers/STM32G4xx_HAL_Driver/Inc/stm32g4xx_ll_dma.h ****   * @rmtoll ISR          TCIF1         LL_DMA_IsActiveFlag_TC1
1661:Drivers/STM32G4xx_HAL_Driver/Inc/stm32g4xx_ll_dma.h ****   * @param  DMAx DMAx Instance
1662:Drivers/STM32G4xx_HAL_Driver/Inc/stm32g4xx_ll_dma.h ****   * @retval State of bit (1 or 0).
1663:Drivers/STM32G4xx_HAL_Driver/Inc/stm32g4xx_ll_dma.h ****   */
1664:Drivers/STM32G4xx_HAL_Driver/Inc/stm32g4xx_ll_dma.h **** __STATIC_INLINE uint32_t LL_DMA_IsActiveFlag_TC1(DMA_TypeDef *DMAx)
1665:Drivers/STM32G4xx_HAL_Driver/Inc/stm32g4xx_ll_dma.h **** {
1666:Drivers/STM32G4xx_HAL_Driver/Inc/stm32g4xx_ll_dma.h ****   return ((READ_BIT(DMAx->ISR, DMA_ISR_TCIF1) == (DMA_ISR_TCIF1)) ? 1UL : 0UL);
1667:Drivers/STM32G4xx_HAL_Driver/Inc/stm32g4xx_ll_dma.h **** }
1668:Drivers/STM32G4xx_HAL_Driver/Inc/stm32g4xx_ll_dma.h **** 
1669:Drivers/STM32G4xx_HAL_Driver/Inc/stm32g4xx_ll_dma.h **** /**
1670:Drivers/STM32G4xx_HAL_Driver/Inc/stm32g4xx_ll_dma.h ****   * @brief  Get Channel 2 transfer complete flag.
1671:Drivers/STM32G4xx_HAL_Driver/Inc/stm32g4xx_ll_dma.h ****   * @rmtoll ISR          TCIF2         LL_DMA_IsActiveFlag_TC2
1672:Drivers/STM32G4xx_HAL_Driver/Inc/stm32g4xx_ll_dma.h ****   * @param  DMAx DMAx Instance
1673:Drivers/STM32G4xx_HAL_Driver/Inc/stm32g4xx_ll_dma.h ****   * @retval State of bit (1 or 0).
1674:Drivers/STM32G4xx_HAL_Driver/Inc/stm32g4xx_ll_dma.h ****   */
1675:Drivers/STM32G4xx_HAL_Driver/Inc/stm32g4xx_ll_dma.h **** __STATIC_INLINE uint32_t LL_DMA_IsActiveFlag_TC2(DMA_TypeDef *DMAx)
1676:Drivers/STM32G4xx_HAL_Driver/Inc/stm32g4xx_ll_dma.h **** {
1677:Drivers/STM32G4xx_HAL_Driver/Inc/stm32g4xx_ll_dma.h ****   return ((READ_BIT(DMAx->ISR, DMA_ISR_TCIF2) == (DMA_ISR_TCIF2)) ? 1UL : 0UL);
1678:Drivers/STM32G4xx_HAL_Driver/Inc/stm32g4xx_ll_dma.h **** }
1679:Drivers/STM32G4xx_HAL_Driver/Inc/stm32g4xx_ll_dma.h **** 
1680:Drivers/STM32G4xx_HAL_Driver/Inc/stm32g4xx_ll_dma.h **** /**
1681:Drivers/STM32G4xx_HAL_Driver/Inc/stm32g4xx_ll_dma.h ****   * @brief  Get Channel 3 transfer complete flag.
1682:Drivers/STM32G4xx_HAL_Driver/Inc/stm32g4xx_ll_dma.h ****   * @rmtoll ISR          TCIF3         LL_DMA_IsActiveFlag_TC3
1683:Drivers/STM32G4xx_HAL_Driver/Inc/stm32g4xx_ll_dma.h ****   * @param  DMAx DMAx Instance
1684:Drivers/STM32G4xx_HAL_Driver/Inc/stm32g4xx_ll_dma.h ****   * @retval State of bit (1 or 0).
ARM GAS  D:\apps\VSCode\data\tmp\ccESTIAN.s 			page 37


1685:Drivers/STM32G4xx_HAL_Driver/Inc/stm32g4xx_ll_dma.h ****   */
1686:Drivers/STM32G4xx_HAL_Driver/Inc/stm32g4xx_ll_dma.h **** __STATIC_INLINE uint32_t LL_DMA_IsActiveFlag_TC3(DMA_TypeDef *DMAx)
1687:Drivers/STM32G4xx_HAL_Driver/Inc/stm32g4xx_ll_dma.h **** {
1688:Drivers/STM32G4xx_HAL_Driver/Inc/stm32g4xx_ll_dma.h ****   return ((READ_BIT(DMAx->ISR, DMA_ISR_TCIF3) == (DMA_ISR_TCIF3)) ? 1UL : 0UL);
1689:Drivers/STM32G4xx_HAL_Driver/Inc/stm32g4xx_ll_dma.h **** }
1690:Drivers/STM32G4xx_HAL_Driver/Inc/stm32g4xx_ll_dma.h **** 
1691:Drivers/STM32G4xx_HAL_Driver/Inc/stm32g4xx_ll_dma.h **** /**
1692:Drivers/STM32G4xx_HAL_Driver/Inc/stm32g4xx_ll_dma.h ****   * @brief  Get Channel 4 transfer complete flag.
1693:Drivers/STM32G4xx_HAL_Driver/Inc/stm32g4xx_ll_dma.h ****   * @rmtoll ISR          TCIF4         LL_DMA_IsActiveFlag_TC4
1694:Drivers/STM32G4xx_HAL_Driver/Inc/stm32g4xx_ll_dma.h ****   * @param  DMAx DMAx Instance
1695:Drivers/STM32G4xx_HAL_Driver/Inc/stm32g4xx_ll_dma.h ****   * @retval State of bit (1 or 0).
1696:Drivers/STM32G4xx_HAL_Driver/Inc/stm32g4xx_ll_dma.h ****   */
1697:Drivers/STM32G4xx_HAL_Driver/Inc/stm32g4xx_ll_dma.h **** __STATIC_INLINE uint32_t LL_DMA_IsActiveFlag_TC4(DMA_TypeDef *DMAx)
1698:Drivers/STM32G4xx_HAL_Driver/Inc/stm32g4xx_ll_dma.h **** {
1699:Drivers/STM32G4xx_HAL_Driver/Inc/stm32g4xx_ll_dma.h ****   return ((READ_BIT(DMAx->ISR, DMA_ISR_TCIF4) == (DMA_ISR_TCIF4)) ? 1UL : 0UL);
1700:Drivers/STM32G4xx_HAL_Driver/Inc/stm32g4xx_ll_dma.h **** }
1701:Drivers/STM32G4xx_HAL_Driver/Inc/stm32g4xx_ll_dma.h **** 
1702:Drivers/STM32G4xx_HAL_Driver/Inc/stm32g4xx_ll_dma.h **** /**
1703:Drivers/STM32G4xx_HAL_Driver/Inc/stm32g4xx_ll_dma.h ****   * @brief  Get Channel 5 transfer complete flag.
1704:Drivers/STM32G4xx_HAL_Driver/Inc/stm32g4xx_ll_dma.h ****   * @rmtoll ISR          TCIF5         LL_DMA_IsActiveFlag_TC5
1705:Drivers/STM32G4xx_HAL_Driver/Inc/stm32g4xx_ll_dma.h ****   * @param  DMAx DMAx Instance
1706:Drivers/STM32G4xx_HAL_Driver/Inc/stm32g4xx_ll_dma.h ****   * @retval State of bit (1 or 0).
1707:Drivers/STM32G4xx_HAL_Driver/Inc/stm32g4xx_ll_dma.h ****   */
1708:Drivers/STM32G4xx_HAL_Driver/Inc/stm32g4xx_ll_dma.h **** __STATIC_INLINE uint32_t LL_DMA_IsActiveFlag_TC5(DMA_TypeDef *DMAx)
1709:Drivers/STM32G4xx_HAL_Driver/Inc/stm32g4xx_ll_dma.h **** {
1710:Drivers/STM32G4xx_HAL_Driver/Inc/stm32g4xx_ll_dma.h ****   return ((READ_BIT(DMAx->ISR, DMA_ISR_TCIF5) == (DMA_ISR_TCIF5)) ? 1UL : 0UL);
1711:Drivers/STM32G4xx_HAL_Driver/Inc/stm32g4xx_ll_dma.h **** }
1712:Drivers/STM32G4xx_HAL_Driver/Inc/stm32g4xx_ll_dma.h **** 
1713:Drivers/STM32G4xx_HAL_Driver/Inc/stm32g4xx_ll_dma.h **** /**
1714:Drivers/STM32G4xx_HAL_Driver/Inc/stm32g4xx_ll_dma.h ****   * @brief  Get Channel 6 transfer complete flag.
1715:Drivers/STM32G4xx_HAL_Driver/Inc/stm32g4xx_ll_dma.h ****   * @rmtoll ISR          TCIF6         LL_DMA_IsActiveFlag_TC6
1716:Drivers/STM32G4xx_HAL_Driver/Inc/stm32g4xx_ll_dma.h ****   * @param  DMAx DMAx Instance
1717:Drivers/STM32G4xx_HAL_Driver/Inc/stm32g4xx_ll_dma.h ****   * @retval State of bit (1 or 0).
1718:Drivers/STM32G4xx_HAL_Driver/Inc/stm32g4xx_ll_dma.h ****   */
1719:Drivers/STM32G4xx_HAL_Driver/Inc/stm32g4xx_ll_dma.h **** __STATIC_INLINE uint32_t LL_DMA_IsActiveFlag_TC6(DMA_TypeDef *DMAx)
1720:Drivers/STM32G4xx_HAL_Driver/Inc/stm32g4xx_ll_dma.h **** {
1721:Drivers/STM32G4xx_HAL_Driver/Inc/stm32g4xx_ll_dma.h ****   return ((READ_BIT(DMAx->ISR, DMA_ISR_TCIF6) == (DMA_ISR_TCIF6)) ? 1UL : 0UL);
1722:Drivers/STM32G4xx_HAL_Driver/Inc/stm32g4xx_ll_dma.h **** }
1723:Drivers/STM32G4xx_HAL_Driver/Inc/stm32g4xx_ll_dma.h **** 
1724:Drivers/STM32G4xx_HAL_Driver/Inc/stm32g4xx_ll_dma.h **** #if defined (DMA1_Channel7)
1725:Drivers/STM32G4xx_HAL_Driver/Inc/stm32g4xx_ll_dma.h **** /**
1726:Drivers/STM32G4xx_HAL_Driver/Inc/stm32g4xx_ll_dma.h ****   * @brief  Get Channel 7 transfer complete flag.
1727:Drivers/STM32G4xx_HAL_Driver/Inc/stm32g4xx_ll_dma.h ****   * @rmtoll ISR          TCIF7         LL_DMA_IsActiveFlag_TC7
1728:Drivers/STM32G4xx_HAL_Driver/Inc/stm32g4xx_ll_dma.h ****   * @param  DMAx DMAx Instance
1729:Drivers/STM32G4xx_HAL_Driver/Inc/stm32g4xx_ll_dma.h ****   * @retval State of bit (1 or 0).
1730:Drivers/STM32G4xx_HAL_Driver/Inc/stm32g4xx_ll_dma.h ****   */
1731:Drivers/STM32G4xx_HAL_Driver/Inc/stm32g4xx_ll_dma.h **** __STATIC_INLINE uint32_t LL_DMA_IsActiveFlag_TC7(DMA_TypeDef *DMAx)
1732:Drivers/STM32G4xx_HAL_Driver/Inc/stm32g4xx_ll_dma.h **** {
1733:Drivers/STM32G4xx_HAL_Driver/Inc/stm32g4xx_ll_dma.h ****   return ((READ_BIT(DMAx->ISR, DMA_ISR_TCIF7) == (DMA_ISR_TCIF7)) ? 1UL : 0UL);
1734:Drivers/STM32G4xx_HAL_Driver/Inc/stm32g4xx_ll_dma.h **** }
1735:Drivers/STM32G4xx_HAL_Driver/Inc/stm32g4xx_ll_dma.h **** #endif /* DMA1_Channel7 */
1736:Drivers/STM32G4xx_HAL_Driver/Inc/stm32g4xx_ll_dma.h **** 
1737:Drivers/STM32G4xx_HAL_Driver/Inc/stm32g4xx_ll_dma.h **** #if defined (DMA1_Channel8)
1738:Drivers/STM32G4xx_HAL_Driver/Inc/stm32g4xx_ll_dma.h **** /**
1739:Drivers/STM32G4xx_HAL_Driver/Inc/stm32g4xx_ll_dma.h ****   * @brief  Get Channel 8 transfer complete flag.
1740:Drivers/STM32G4xx_HAL_Driver/Inc/stm32g4xx_ll_dma.h ****   * @rmtoll ISR          TCIF8         LL_DMA_IsActiveFlag_TC8
1741:Drivers/STM32G4xx_HAL_Driver/Inc/stm32g4xx_ll_dma.h ****   * @param  DMAx DMAx Instance
ARM GAS  D:\apps\VSCode\data\tmp\ccESTIAN.s 			page 38


1742:Drivers/STM32G4xx_HAL_Driver/Inc/stm32g4xx_ll_dma.h ****   * @retval State of bit (1 or 0).
1743:Drivers/STM32G4xx_HAL_Driver/Inc/stm32g4xx_ll_dma.h ****   */
1744:Drivers/STM32G4xx_HAL_Driver/Inc/stm32g4xx_ll_dma.h **** __STATIC_INLINE uint32_t LL_DMA_IsActiveFlag_TC8(DMA_TypeDef *DMAx)
1745:Drivers/STM32G4xx_HAL_Driver/Inc/stm32g4xx_ll_dma.h **** {
1746:Drivers/STM32G4xx_HAL_Driver/Inc/stm32g4xx_ll_dma.h ****   return ((READ_BIT(DMAx->ISR, DMA_ISR_TCIF8) == (DMA_ISR_TCIF8)) ? 1UL : 0UL);
1747:Drivers/STM32G4xx_HAL_Driver/Inc/stm32g4xx_ll_dma.h **** }
1748:Drivers/STM32G4xx_HAL_Driver/Inc/stm32g4xx_ll_dma.h **** #endif /* DMA1_Channel8 */
1749:Drivers/STM32G4xx_HAL_Driver/Inc/stm32g4xx_ll_dma.h **** 
1750:Drivers/STM32G4xx_HAL_Driver/Inc/stm32g4xx_ll_dma.h **** /**
1751:Drivers/STM32G4xx_HAL_Driver/Inc/stm32g4xx_ll_dma.h ****   * @brief  Get Channel 1 half transfer flag.
1752:Drivers/STM32G4xx_HAL_Driver/Inc/stm32g4xx_ll_dma.h ****   * @rmtoll ISR          HTIF1         LL_DMA_IsActiveFlag_HT1
1753:Drivers/STM32G4xx_HAL_Driver/Inc/stm32g4xx_ll_dma.h ****   * @param  DMAx DMAx Instance
1754:Drivers/STM32G4xx_HAL_Driver/Inc/stm32g4xx_ll_dma.h ****   * @retval State of bit (1 or 0).
1755:Drivers/STM32G4xx_HAL_Driver/Inc/stm32g4xx_ll_dma.h ****   */
1756:Drivers/STM32G4xx_HAL_Driver/Inc/stm32g4xx_ll_dma.h **** __STATIC_INLINE uint32_t LL_DMA_IsActiveFlag_HT1(DMA_TypeDef *DMAx)
1757:Drivers/STM32G4xx_HAL_Driver/Inc/stm32g4xx_ll_dma.h **** {
1758:Drivers/STM32G4xx_HAL_Driver/Inc/stm32g4xx_ll_dma.h ****   return ((READ_BIT(DMAx->ISR, DMA_ISR_HTIF1) == (DMA_ISR_HTIF1)) ? 1UL : 0UL);
1759:Drivers/STM32G4xx_HAL_Driver/Inc/stm32g4xx_ll_dma.h **** }
1760:Drivers/STM32G4xx_HAL_Driver/Inc/stm32g4xx_ll_dma.h **** 
1761:Drivers/STM32G4xx_HAL_Driver/Inc/stm32g4xx_ll_dma.h **** /**
1762:Drivers/STM32G4xx_HAL_Driver/Inc/stm32g4xx_ll_dma.h ****   * @brief  Get Channel 2 half transfer flag.
1763:Drivers/STM32G4xx_HAL_Driver/Inc/stm32g4xx_ll_dma.h ****   * @rmtoll ISR          HTIF2         LL_DMA_IsActiveFlag_HT2
1764:Drivers/STM32G4xx_HAL_Driver/Inc/stm32g4xx_ll_dma.h ****   * @param  DMAx DMAx Instance
1765:Drivers/STM32G4xx_HAL_Driver/Inc/stm32g4xx_ll_dma.h ****   * @retval State of bit (1 or 0).
1766:Drivers/STM32G4xx_HAL_Driver/Inc/stm32g4xx_ll_dma.h ****   */
1767:Drivers/STM32G4xx_HAL_Driver/Inc/stm32g4xx_ll_dma.h **** __STATIC_INLINE uint32_t LL_DMA_IsActiveFlag_HT2(DMA_TypeDef *DMAx)
1768:Drivers/STM32G4xx_HAL_Driver/Inc/stm32g4xx_ll_dma.h **** {
1769:Drivers/STM32G4xx_HAL_Driver/Inc/stm32g4xx_ll_dma.h ****   return ((READ_BIT(DMAx->ISR, DMA_ISR_HTIF2) == (DMA_ISR_HTIF2)) ? 1UL : 0UL);
1770:Drivers/STM32G4xx_HAL_Driver/Inc/stm32g4xx_ll_dma.h **** }
1771:Drivers/STM32G4xx_HAL_Driver/Inc/stm32g4xx_ll_dma.h **** 
1772:Drivers/STM32G4xx_HAL_Driver/Inc/stm32g4xx_ll_dma.h **** /**
1773:Drivers/STM32G4xx_HAL_Driver/Inc/stm32g4xx_ll_dma.h ****   * @brief  Get Channel 3 half transfer flag.
1774:Drivers/STM32G4xx_HAL_Driver/Inc/stm32g4xx_ll_dma.h ****   * @rmtoll ISR          HTIF3         LL_DMA_IsActiveFlag_HT3
1775:Drivers/STM32G4xx_HAL_Driver/Inc/stm32g4xx_ll_dma.h ****   * @param  DMAx DMAx Instance
1776:Drivers/STM32G4xx_HAL_Driver/Inc/stm32g4xx_ll_dma.h ****   * @retval State of bit (1 or 0).
1777:Drivers/STM32G4xx_HAL_Driver/Inc/stm32g4xx_ll_dma.h ****   */
1778:Drivers/STM32G4xx_HAL_Driver/Inc/stm32g4xx_ll_dma.h **** __STATIC_INLINE uint32_t LL_DMA_IsActiveFlag_HT3(DMA_TypeDef *DMAx)
1779:Drivers/STM32G4xx_HAL_Driver/Inc/stm32g4xx_ll_dma.h **** {
1780:Drivers/STM32G4xx_HAL_Driver/Inc/stm32g4xx_ll_dma.h ****   return ((READ_BIT(DMAx->ISR, DMA_ISR_HTIF3) == (DMA_ISR_HTIF3)) ? 1UL : 0UL);
1781:Drivers/STM32G4xx_HAL_Driver/Inc/stm32g4xx_ll_dma.h **** }
1782:Drivers/STM32G4xx_HAL_Driver/Inc/stm32g4xx_ll_dma.h **** 
1783:Drivers/STM32G4xx_HAL_Driver/Inc/stm32g4xx_ll_dma.h **** /**
1784:Drivers/STM32G4xx_HAL_Driver/Inc/stm32g4xx_ll_dma.h ****   * @brief  Get Channel 4 half transfer flag.
1785:Drivers/STM32G4xx_HAL_Driver/Inc/stm32g4xx_ll_dma.h ****   * @rmtoll ISR          HTIF4         LL_DMA_IsActiveFlag_HT4
1786:Drivers/STM32G4xx_HAL_Driver/Inc/stm32g4xx_ll_dma.h ****   * @param  DMAx DMAx Instance
1787:Drivers/STM32G4xx_HAL_Driver/Inc/stm32g4xx_ll_dma.h ****   * @retval State of bit (1 or 0).
1788:Drivers/STM32G4xx_HAL_Driver/Inc/stm32g4xx_ll_dma.h ****   */
1789:Drivers/STM32G4xx_HAL_Driver/Inc/stm32g4xx_ll_dma.h **** __STATIC_INLINE uint32_t LL_DMA_IsActiveFlag_HT4(DMA_TypeDef *DMAx)
1790:Drivers/STM32G4xx_HAL_Driver/Inc/stm32g4xx_ll_dma.h **** {
1791:Drivers/STM32G4xx_HAL_Driver/Inc/stm32g4xx_ll_dma.h ****   return ((READ_BIT(DMAx->ISR, DMA_ISR_HTIF4) == (DMA_ISR_HTIF4)) ? 1UL : 0UL);
1792:Drivers/STM32G4xx_HAL_Driver/Inc/stm32g4xx_ll_dma.h **** }
1793:Drivers/STM32G4xx_HAL_Driver/Inc/stm32g4xx_ll_dma.h **** 
1794:Drivers/STM32G4xx_HAL_Driver/Inc/stm32g4xx_ll_dma.h **** /**
1795:Drivers/STM32G4xx_HAL_Driver/Inc/stm32g4xx_ll_dma.h ****   * @brief  Get Channel 5 half transfer flag.
1796:Drivers/STM32G4xx_HAL_Driver/Inc/stm32g4xx_ll_dma.h ****   * @rmtoll ISR          HTIF5         LL_DMA_IsActiveFlag_HT5
1797:Drivers/STM32G4xx_HAL_Driver/Inc/stm32g4xx_ll_dma.h ****   * @param  DMAx DMAx Instance
1798:Drivers/STM32G4xx_HAL_Driver/Inc/stm32g4xx_ll_dma.h ****   * @retval State of bit (1 or 0).
ARM GAS  D:\apps\VSCode\data\tmp\ccESTIAN.s 			page 39


1799:Drivers/STM32G4xx_HAL_Driver/Inc/stm32g4xx_ll_dma.h ****   */
1800:Drivers/STM32G4xx_HAL_Driver/Inc/stm32g4xx_ll_dma.h **** __STATIC_INLINE uint32_t LL_DMA_IsActiveFlag_HT5(DMA_TypeDef *DMAx)
1801:Drivers/STM32G4xx_HAL_Driver/Inc/stm32g4xx_ll_dma.h **** {
1802:Drivers/STM32G4xx_HAL_Driver/Inc/stm32g4xx_ll_dma.h ****   return ((READ_BIT(DMAx->ISR, DMA_ISR_HTIF5) == (DMA_ISR_HTIF5)) ? 1UL : 0UL);
1803:Drivers/STM32G4xx_HAL_Driver/Inc/stm32g4xx_ll_dma.h **** }
1804:Drivers/STM32G4xx_HAL_Driver/Inc/stm32g4xx_ll_dma.h **** 
1805:Drivers/STM32G4xx_HAL_Driver/Inc/stm32g4xx_ll_dma.h **** /**
1806:Drivers/STM32G4xx_HAL_Driver/Inc/stm32g4xx_ll_dma.h ****   * @brief  Get Channel 6 half transfer flag.
1807:Drivers/STM32G4xx_HAL_Driver/Inc/stm32g4xx_ll_dma.h ****   * @rmtoll ISR          HTIF6         LL_DMA_IsActiveFlag_HT6
1808:Drivers/STM32G4xx_HAL_Driver/Inc/stm32g4xx_ll_dma.h ****   * @param  DMAx DMAx Instance
1809:Drivers/STM32G4xx_HAL_Driver/Inc/stm32g4xx_ll_dma.h ****   * @retval State of bit (1 or 0).
1810:Drivers/STM32G4xx_HAL_Driver/Inc/stm32g4xx_ll_dma.h ****   */
1811:Drivers/STM32G4xx_HAL_Driver/Inc/stm32g4xx_ll_dma.h **** __STATIC_INLINE uint32_t LL_DMA_IsActiveFlag_HT6(DMA_TypeDef *DMAx)
1812:Drivers/STM32G4xx_HAL_Driver/Inc/stm32g4xx_ll_dma.h **** {
1813:Drivers/STM32G4xx_HAL_Driver/Inc/stm32g4xx_ll_dma.h ****   return ((READ_BIT(DMAx->ISR, DMA_ISR_HTIF6) == (DMA_ISR_HTIF6)) ? 1UL : 0UL);
1814:Drivers/STM32G4xx_HAL_Driver/Inc/stm32g4xx_ll_dma.h **** }
1815:Drivers/STM32G4xx_HAL_Driver/Inc/stm32g4xx_ll_dma.h **** 
1816:Drivers/STM32G4xx_HAL_Driver/Inc/stm32g4xx_ll_dma.h **** #if defined (DMA1_Channel8)
1817:Drivers/STM32G4xx_HAL_Driver/Inc/stm32g4xx_ll_dma.h **** /**
1818:Drivers/STM32G4xx_HAL_Driver/Inc/stm32g4xx_ll_dma.h ****   * @brief  Get Channel 7 half transfer flag.
1819:Drivers/STM32G4xx_HAL_Driver/Inc/stm32g4xx_ll_dma.h ****   * @rmtoll ISR          HTIF7         LL_DMA_IsActiveFlag_HT7
1820:Drivers/STM32G4xx_HAL_Driver/Inc/stm32g4xx_ll_dma.h ****   * @param  DMAx DMAx Instance
1821:Drivers/STM32G4xx_HAL_Driver/Inc/stm32g4xx_ll_dma.h ****   * @retval State of bit (1 or 0).
1822:Drivers/STM32G4xx_HAL_Driver/Inc/stm32g4xx_ll_dma.h ****   */
1823:Drivers/STM32G4xx_HAL_Driver/Inc/stm32g4xx_ll_dma.h **** __STATIC_INLINE uint32_t LL_DMA_IsActiveFlag_HT7(DMA_TypeDef *DMAx)
1824:Drivers/STM32G4xx_HAL_Driver/Inc/stm32g4xx_ll_dma.h **** {
1825:Drivers/STM32G4xx_HAL_Driver/Inc/stm32g4xx_ll_dma.h ****   return ((READ_BIT(DMAx->ISR, DMA_ISR_HTIF7) == (DMA_ISR_HTIF7)) ? 1UL : 0UL);
1826:Drivers/STM32G4xx_HAL_Driver/Inc/stm32g4xx_ll_dma.h **** }
1827:Drivers/STM32G4xx_HAL_Driver/Inc/stm32g4xx_ll_dma.h **** #endif /* DMA1_Channel7 */
1828:Drivers/STM32G4xx_HAL_Driver/Inc/stm32g4xx_ll_dma.h **** 
1829:Drivers/STM32G4xx_HAL_Driver/Inc/stm32g4xx_ll_dma.h **** #if defined (DMA1_Channel8)
1830:Drivers/STM32G4xx_HAL_Driver/Inc/stm32g4xx_ll_dma.h **** /**
1831:Drivers/STM32G4xx_HAL_Driver/Inc/stm32g4xx_ll_dma.h ****   * @brief  Get Channel 8 half transfer flag.
1832:Drivers/STM32G4xx_HAL_Driver/Inc/stm32g4xx_ll_dma.h ****   * @rmtoll ISR          HTIF8         LL_DMA_IsActiveFlag_HT8
1833:Drivers/STM32G4xx_HAL_Driver/Inc/stm32g4xx_ll_dma.h ****   * @param  DMAx DMAx Instance
1834:Drivers/STM32G4xx_HAL_Driver/Inc/stm32g4xx_ll_dma.h ****   * @retval State of bit (1 or 0).
1835:Drivers/STM32G4xx_HAL_Driver/Inc/stm32g4xx_ll_dma.h ****   */
1836:Drivers/STM32G4xx_HAL_Driver/Inc/stm32g4xx_ll_dma.h **** __STATIC_INLINE uint32_t LL_DMA_IsActiveFlag_HT8(DMA_TypeDef *DMAx)
1837:Drivers/STM32G4xx_HAL_Driver/Inc/stm32g4xx_ll_dma.h **** {
1838:Drivers/STM32G4xx_HAL_Driver/Inc/stm32g4xx_ll_dma.h ****   return ((READ_BIT(DMAx->ISR, DMA_ISR_HTIF8) == (DMA_ISR_HTIF8)) ? 1UL : 0UL);
1839:Drivers/STM32G4xx_HAL_Driver/Inc/stm32g4xx_ll_dma.h **** }
1840:Drivers/STM32G4xx_HAL_Driver/Inc/stm32g4xx_ll_dma.h **** #endif /* DMA1_Channel8 */
1841:Drivers/STM32G4xx_HAL_Driver/Inc/stm32g4xx_ll_dma.h **** 
1842:Drivers/STM32G4xx_HAL_Driver/Inc/stm32g4xx_ll_dma.h **** /**
1843:Drivers/STM32G4xx_HAL_Driver/Inc/stm32g4xx_ll_dma.h ****   * @brief  Get Channel 1 transfer error flag.
1844:Drivers/STM32G4xx_HAL_Driver/Inc/stm32g4xx_ll_dma.h ****   * @rmtoll ISR          TEIF1         LL_DMA_IsActiveFlag_TE1
1845:Drivers/STM32G4xx_HAL_Driver/Inc/stm32g4xx_ll_dma.h ****   * @param  DMAx DMAx Instance
1846:Drivers/STM32G4xx_HAL_Driver/Inc/stm32g4xx_ll_dma.h ****   * @retval State of bit (1 or 0).
1847:Drivers/STM32G4xx_HAL_Driver/Inc/stm32g4xx_ll_dma.h ****   */
1848:Drivers/STM32G4xx_HAL_Driver/Inc/stm32g4xx_ll_dma.h **** __STATIC_INLINE uint32_t LL_DMA_IsActiveFlag_TE1(DMA_TypeDef *DMAx)
1849:Drivers/STM32G4xx_HAL_Driver/Inc/stm32g4xx_ll_dma.h **** {
1850:Drivers/STM32G4xx_HAL_Driver/Inc/stm32g4xx_ll_dma.h ****   return ((READ_BIT(DMAx->ISR, DMA_ISR_TEIF1) == (DMA_ISR_TEIF1)) ? 1UL : 0UL);
1851:Drivers/STM32G4xx_HAL_Driver/Inc/stm32g4xx_ll_dma.h **** }
1852:Drivers/STM32G4xx_HAL_Driver/Inc/stm32g4xx_ll_dma.h **** 
1853:Drivers/STM32G4xx_HAL_Driver/Inc/stm32g4xx_ll_dma.h **** /**
1854:Drivers/STM32G4xx_HAL_Driver/Inc/stm32g4xx_ll_dma.h ****   * @brief  Get Channel 2 transfer error flag.
1855:Drivers/STM32G4xx_HAL_Driver/Inc/stm32g4xx_ll_dma.h ****   * @rmtoll ISR          TEIF2         LL_DMA_IsActiveFlag_TE2
ARM GAS  D:\apps\VSCode\data\tmp\ccESTIAN.s 			page 40


1856:Drivers/STM32G4xx_HAL_Driver/Inc/stm32g4xx_ll_dma.h ****   * @param  DMAx DMAx Instance
1857:Drivers/STM32G4xx_HAL_Driver/Inc/stm32g4xx_ll_dma.h ****   * @retval State of bit (1 or 0).
1858:Drivers/STM32G4xx_HAL_Driver/Inc/stm32g4xx_ll_dma.h ****   */
1859:Drivers/STM32G4xx_HAL_Driver/Inc/stm32g4xx_ll_dma.h **** __STATIC_INLINE uint32_t LL_DMA_IsActiveFlag_TE2(DMA_TypeDef *DMAx)
1860:Drivers/STM32G4xx_HAL_Driver/Inc/stm32g4xx_ll_dma.h **** {
1861:Drivers/STM32G4xx_HAL_Driver/Inc/stm32g4xx_ll_dma.h ****   return ((READ_BIT(DMAx->ISR, DMA_ISR_TEIF2) == (DMA_ISR_TEIF2)) ? 1UL : 0UL);
1862:Drivers/STM32G4xx_HAL_Driver/Inc/stm32g4xx_ll_dma.h **** }
1863:Drivers/STM32G4xx_HAL_Driver/Inc/stm32g4xx_ll_dma.h **** 
1864:Drivers/STM32G4xx_HAL_Driver/Inc/stm32g4xx_ll_dma.h **** /**
1865:Drivers/STM32G4xx_HAL_Driver/Inc/stm32g4xx_ll_dma.h ****   * @brief  Get Channel 3 transfer error flag.
1866:Drivers/STM32G4xx_HAL_Driver/Inc/stm32g4xx_ll_dma.h ****   * @rmtoll ISR          TEIF3         LL_DMA_IsActiveFlag_TE3
1867:Drivers/STM32G4xx_HAL_Driver/Inc/stm32g4xx_ll_dma.h ****   * @param  DMAx DMAx Instance
1868:Drivers/STM32G4xx_HAL_Driver/Inc/stm32g4xx_ll_dma.h ****   * @retval State of bit (1 or 0).
1869:Drivers/STM32G4xx_HAL_Driver/Inc/stm32g4xx_ll_dma.h ****   */
1870:Drivers/STM32G4xx_HAL_Driver/Inc/stm32g4xx_ll_dma.h **** __STATIC_INLINE uint32_t LL_DMA_IsActiveFlag_TE3(DMA_TypeDef *DMAx)
1871:Drivers/STM32G4xx_HAL_Driver/Inc/stm32g4xx_ll_dma.h **** {
1872:Drivers/STM32G4xx_HAL_Driver/Inc/stm32g4xx_ll_dma.h ****   return ((READ_BIT(DMAx->ISR, DMA_ISR_TEIF3) == (DMA_ISR_TEIF3)) ? 1UL : 0UL);
1873:Drivers/STM32G4xx_HAL_Driver/Inc/stm32g4xx_ll_dma.h **** }
1874:Drivers/STM32G4xx_HAL_Driver/Inc/stm32g4xx_ll_dma.h **** 
1875:Drivers/STM32G4xx_HAL_Driver/Inc/stm32g4xx_ll_dma.h **** /**
1876:Drivers/STM32G4xx_HAL_Driver/Inc/stm32g4xx_ll_dma.h ****   * @brief  Get Channel 4 transfer error flag.
1877:Drivers/STM32G4xx_HAL_Driver/Inc/stm32g4xx_ll_dma.h ****   * @rmtoll ISR          TEIF4         LL_DMA_IsActiveFlag_TE4
1878:Drivers/STM32G4xx_HAL_Driver/Inc/stm32g4xx_ll_dma.h ****   * @param  DMAx DMAx Instance
1879:Drivers/STM32G4xx_HAL_Driver/Inc/stm32g4xx_ll_dma.h ****   * @retval State of bit (1 or 0).
1880:Drivers/STM32G4xx_HAL_Driver/Inc/stm32g4xx_ll_dma.h ****   */
1881:Drivers/STM32G4xx_HAL_Driver/Inc/stm32g4xx_ll_dma.h **** __STATIC_INLINE uint32_t LL_DMA_IsActiveFlag_TE4(DMA_TypeDef *DMAx)
1882:Drivers/STM32G4xx_HAL_Driver/Inc/stm32g4xx_ll_dma.h **** {
1883:Drivers/STM32G4xx_HAL_Driver/Inc/stm32g4xx_ll_dma.h ****   return ((READ_BIT(DMAx->ISR, DMA_ISR_TEIF4) == (DMA_ISR_TEIF4)) ? 1UL : 0UL);
1884:Drivers/STM32G4xx_HAL_Driver/Inc/stm32g4xx_ll_dma.h **** }
1885:Drivers/STM32G4xx_HAL_Driver/Inc/stm32g4xx_ll_dma.h **** 
1886:Drivers/STM32G4xx_HAL_Driver/Inc/stm32g4xx_ll_dma.h **** /**
1887:Drivers/STM32G4xx_HAL_Driver/Inc/stm32g4xx_ll_dma.h ****   * @brief  Get Channel 5 transfer error flag.
1888:Drivers/STM32G4xx_HAL_Driver/Inc/stm32g4xx_ll_dma.h ****   * @rmtoll ISR          TEIF5         LL_DMA_IsActiveFlag_TE5
1889:Drivers/STM32G4xx_HAL_Driver/Inc/stm32g4xx_ll_dma.h ****   * @param  DMAx DMAx Instance
1890:Drivers/STM32G4xx_HAL_Driver/Inc/stm32g4xx_ll_dma.h ****   * @retval State of bit (1 or 0).
1891:Drivers/STM32G4xx_HAL_Driver/Inc/stm32g4xx_ll_dma.h ****   */
1892:Drivers/STM32G4xx_HAL_Driver/Inc/stm32g4xx_ll_dma.h **** __STATIC_INLINE uint32_t LL_DMA_IsActiveFlag_TE5(DMA_TypeDef *DMAx)
1893:Drivers/STM32G4xx_HAL_Driver/Inc/stm32g4xx_ll_dma.h **** {
1894:Drivers/STM32G4xx_HAL_Driver/Inc/stm32g4xx_ll_dma.h ****   return ((READ_BIT(DMAx->ISR, DMA_ISR_TEIF5) == (DMA_ISR_TEIF5)) ? 1UL : 0UL);
1895:Drivers/STM32G4xx_HAL_Driver/Inc/stm32g4xx_ll_dma.h **** }
1896:Drivers/STM32G4xx_HAL_Driver/Inc/stm32g4xx_ll_dma.h **** 
1897:Drivers/STM32G4xx_HAL_Driver/Inc/stm32g4xx_ll_dma.h **** /**
1898:Drivers/STM32G4xx_HAL_Driver/Inc/stm32g4xx_ll_dma.h ****   * @brief  Get Channel 6 transfer error flag.
1899:Drivers/STM32G4xx_HAL_Driver/Inc/stm32g4xx_ll_dma.h ****   * @rmtoll ISR          TEIF6         LL_DMA_IsActiveFlag_TE6
1900:Drivers/STM32G4xx_HAL_Driver/Inc/stm32g4xx_ll_dma.h ****   * @param  DMAx DMAx Instance
1901:Drivers/STM32G4xx_HAL_Driver/Inc/stm32g4xx_ll_dma.h ****   * @retval State of bit (1 or 0).
1902:Drivers/STM32G4xx_HAL_Driver/Inc/stm32g4xx_ll_dma.h ****   */
1903:Drivers/STM32G4xx_HAL_Driver/Inc/stm32g4xx_ll_dma.h **** __STATIC_INLINE uint32_t LL_DMA_IsActiveFlag_TE6(DMA_TypeDef *DMAx)
1904:Drivers/STM32G4xx_HAL_Driver/Inc/stm32g4xx_ll_dma.h **** {
1905:Drivers/STM32G4xx_HAL_Driver/Inc/stm32g4xx_ll_dma.h ****   return ((READ_BIT(DMAx->ISR, DMA_ISR_TEIF6) == (DMA_ISR_TEIF6)) ? 1UL : 0UL);
1906:Drivers/STM32G4xx_HAL_Driver/Inc/stm32g4xx_ll_dma.h **** }
1907:Drivers/STM32G4xx_HAL_Driver/Inc/stm32g4xx_ll_dma.h **** 
1908:Drivers/STM32G4xx_HAL_Driver/Inc/stm32g4xx_ll_dma.h **** #if defined (DMA1_Channel7)
1909:Drivers/STM32G4xx_HAL_Driver/Inc/stm32g4xx_ll_dma.h **** /**
1910:Drivers/STM32G4xx_HAL_Driver/Inc/stm32g4xx_ll_dma.h ****   * @brief  Get Channel 7 transfer error flag.
1911:Drivers/STM32G4xx_HAL_Driver/Inc/stm32g4xx_ll_dma.h ****   * @rmtoll ISR          TEIF7         LL_DMA_IsActiveFlag_TE7
1912:Drivers/STM32G4xx_HAL_Driver/Inc/stm32g4xx_ll_dma.h ****   * @param  DMAx DMAx Instance
ARM GAS  D:\apps\VSCode\data\tmp\ccESTIAN.s 			page 41


1913:Drivers/STM32G4xx_HAL_Driver/Inc/stm32g4xx_ll_dma.h ****   * @retval State of bit (1 or 0).
1914:Drivers/STM32G4xx_HAL_Driver/Inc/stm32g4xx_ll_dma.h ****   */
1915:Drivers/STM32G4xx_HAL_Driver/Inc/stm32g4xx_ll_dma.h **** __STATIC_INLINE uint32_t LL_DMA_IsActiveFlag_TE7(DMA_TypeDef *DMAx)
1916:Drivers/STM32G4xx_HAL_Driver/Inc/stm32g4xx_ll_dma.h **** {
1917:Drivers/STM32G4xx_HAL_Driver/Inc/stm32g4xx_ll_dma.h ****   return ((READ_BIT(DMAx->ISR, DMA_ISR_TEIF7) == (DMA_ISR_TEIF7)) ? 1UL : 0UL);
1918:Drivers/STM32G4xx_HAL_Driver/Inc/stm32g4xx_ll_dma.h **** }
1919:Drivers/STM32G4xx_HAL_Driver/Inc/stm32g4xx_ll_dma.h **** #endif /* DMA1_Channel7 */
1920:Drivers/STM32G4xx_HAL_Driver/Inc/stm32g4xx_ll_dma.h **** 
1921:Drivers/STM32G4xx_HAL_Driver/Inc/stm32g4xx_ll_dma.h **** #if defined (DMA1_Channel8)
1922:Drivers/STM32G4xx_HAL_Driver/Inc/stm32g4xx_ll_dma.h **** /**
1923:Drivers/STM32G4xx_HAL_Driver/Inc/stm32g4xx_ll_dma.h ****   * @brief  Get Channel 8 transfer error flag.
1924:Drivers/STM32G4xx_HAL_Driver/Inc/stm32g4xx_ll_dma.h ****   * @rmtoll ISR          TEIF8         LL_DMA_IsActiveFlag_TE8
1925:Drivers/STM32G4xx_HAL_Driver/Inc/stm32g4xx_ll_dma.h ****   * @param  DMAx DMAx Instance
1926:Drivers/STM32G4xx_HAL_Driver/Inc/stm32g4xx_ll_dma.h ****   * @retval State of bit (1 or 0).
1927:Drivers/STM32G4xx_HAL_Driver/Inc/stm32g4xx_ll_dma.h ****   */
1928:Drivers/STM32G4xx_HAL_Driver/Inc/stm32g4xx_ll_dma.h **** __STATIC_INLINE uint32_t LL_DMA_IsActiveFlag_TE8(DMA_TypeDef *DMAx)
1929:Drivers/STM32G4xx_HAL_Driver/Inc/stm32g4xx_ll_dma.h **** {
1930:Drivers/STM32G4xx_HAL_Driver/Inc/stm32g4xx_ll_dma.h ****   return ((READ_BIT(DMAx->ISR, DMA_ISR_TEIF8) == (DMA_ISR_TEIF8)) ? 1UL : 0UL);
1931:Drivers/STM32G4xx_HAL_Driver/Inc/stm32g4xx_ll_dma.h **** }
1932:Drivers/STM32G4xx_HAL_Driver/Inc/stm32g4xx_ll_dma.h **** #endif /* DMA1_Channel8 */
1933:Drivers/STM32G4xx_HAL_Driver/Inc/stm32g4xx_ll_dma.h **** 
1934:Drivers/STM32G4xx_HAL_Driver/Inc/stm32g4xx_ll_dma.h **** /**
1935:Drivers/STM32G4xx_HAL_Driver/Inc/stm32g4xx_ll_dma.h ****   * @brief  Clear Channel 1 global interrupt flag.
1936:Drivers/STM32G4xx_HAL_Driver/Inc/stm32g4xx_ll_dma.h ****   * @rmtoll IFCR         CGIF1         LL_DMA_ClearFlag_GI1
1937:Drivers/STM32G4xx_HAL_Driver/Inc/stm32g4xx_ll_dma.h ****   * @param  DMAx DMAx Instance
1938:Drivers/STM32G4xx_HAL_Driver/Inc/stm32g4xx_ll_dma.h ****   * @retval None
1939:Drivers/STM32G4xx_HAL_Driver/Inc/stm32g4xx_ll_dma.h ****   */
1940:Drivers/STM32G4xx_HAL_Driver/Inc/stm32g4xx_ll_dma.h **** __STATIC_INLINE void LL_DMA_ClearFlag_GI1(DMA_TypeDef *DMAx)
1941:Drivers/STM32G4xx_HAL_Driver/Inc/stm32g4xx_ll_dma.h **** {
 382              		.loc 1 1941 1
 383              		.cfi_startproc
 384              		@ args = 0, pretend = 0, frame = 8
 385              		@ frame_needed = 1, uses_anonymous_args = 0
 386              		@ link register save eliminated.
 387 0000 80B4     		push	{r7}
 388              	.LCFI30:
 389              		.cfi_def_cfa_offset 4
 390              		.cfi_offset 7, -4
 391 0002 83B0     		sub	sp, sp, #12
 392              	.LCFI31:
 393              		.cfi_def_cfa_offset 16
 394 0004 00AF     		add	r7, sp, #0
 395              	.LCFI32:
 396              		.cfi_def_cfa_register 7
 397 0006 7860     		str	r0, [r7, #4]
1942:Drivers/STM32G4xx_HAL_Driver/Inc/stm32g4xx_ll_dma.h ****   WRITE_REG(DMAx->IFCR, DMA_IFCR_CGIF1);
 398              		.loc 1 1942 3
 399 0008 7B68     		ldr	r3, [r7, #4]
 400 000a 0122     		movs	r2, #1
 401 000c 5A60     		str	r2, [r3, #4]
1943:Drivers/STM32G4xx_HAL_Driver/Inc/stm32g4xx_ll_dma.h **** }
 402              		.loc 1 1943 1
 403 000e 00BF     		nop
 404 0010 0C37     		adds	r7, r7, #12
 405              	.LCFI33:
 406              		.cfi_def_cfa_offset 4
 407 0012 BD46     		mov	sp, r7
ARM GAS  D:\apps\VSCode\data\tmp\ccESTIAN.s 			page 42


 408              	.LCFI34:
 409              		.cfi_def_cfa_register 13
 410              		@ sp needed
 411 0014 5DF8047B 		ldr	r7, [sp], #4
 412              	.LCFI35:
 413              		.cfi_restore 7
 414              		.cfi_def_cfa_offset 0
 415 0018 7047     		bx	lr
 416              		.cfi_endproc
 417              	.LFE262:
 419              		.section	.text.LL_DMA_ClearFlag_GI2,"ax",%progbits
 420              		.align	1
 421              		.syntax unified
 422              		.thumb
 423              		.thumb_func
 424              		.fpu fpv4-sp-d16
 426              	LL_DMA_ClearFlag_GI2:
 427              	.LFB263:
1944:Drivers/STM32G4xx_HAL_Driver/Inc/stm32g4xx_ll_dma.h **** 
1945:Drivers/STM32G4xx_HAL_Driver/Inc/stm32g4xx_ll_dma.h **** /**
1946:Drivers/STM32G4xx_HAL_Driver/Inc/stm32g4xx_ll_dma.h ****   * @brief  Clear Channel 2 global interrupt flag.
1947:Drivers/STM32G4xx_HAL_Driver/Inc/stm32g4xx_ll_dma.h ****   * @rmtoll IFCR         CGIF2         LL_DMA_ClearFlag_GI2
1948:Drivers/STM32G4xx_HAL_Driver/Inc/stm32g4xx_ll_dma.h ****   * @param  DMAx DMAx Instance
1949:Drivers/STM32G4xx_HAL_Driver/Inc/stm32g4xx_ll_dma.h ****   * @retval None
1950:Drivers/STM32G4xx_HAL_Driver/Inc/stm32g4xx_ll_dma.h ****   */
1951:Drivers/STM32G4xx_HAL_Driver/Inc/stm32g4xx_ll_dma.h **** __STATIC_INLINE void LL_DMA_ClearFlag_GI2(DMA_TypeDef *DMAx)
1952:Drivers/STM32G4xx_HAL_Driver/Inc/stm32g4xx_ll_dma.h **** {
 428              		.loc 1 1952 1
 429              		.cfi_startproc
 430              		@ args = 0, pretend = 0, frame = 8
 431              		@ frame_needed = 1, uses_anonymous_args = 0
 432              		@ link register save eliminated.
 433 0000 80B4     		push	{r7}
 434              	.LCFI36:
 435              		.cfi_def_cfa_offset 4
 436              		.cfi_offset 7, -4
 437 0002 83B0     		sub	sp, sp, #12
 438              	.LCFI37:
 439              		.cfi_def_cfa_offset 16
 440 0004 00AF     		add	r7, sp, #0
 441              	.LCFI38:
 442              		.cfi_def_cfa_register 7
 443 0006 7860     		str	r0, [r7, #4]
1953:Drivers/STM32G4xx_HAL_Driver/Inc/stm32g4xx_ll_dma.h ****   WRITE_REG(DMAx->IFCR, DMA_IFCR_CGIF2);
 444              		.loc 1 1953 3
 445 0008 7B68     		ldr	r3, [r7, #4]
 446 000a 1022     		movs	r2, #16
 447 000c 5A60     		str	r2, [r3, #4]
1954:Drivers/STM32G4xx_HAL_Driver/Inc/stm32g4xx_ll_dma.h **** }
 448              		.loc 1 1954 1
 449 000e 00BF     		nop
 450 0010 0C37     		adds	r7, r7, #12
 451              	.LCFI39:
 452              		.cfi_def_cfa_offset 4
 453 0012 BD46     		mov	sp, r7
 454              	.LCFI40:
 455              		.cfi_def_cfa_register 13
ARM GAS  D:\apps\VSCode\data\tmp\ccESTIAN.s 			page 43


 456              		@ sp needed
 457 0014 5DF8047B 		ldr	r7, [sp], #4
 458              	.LCFI41:
 459              		.cfi_restore 7
 460              		.cfi_def_cfa_offset 0
 461 0018 7047     		bx	lr
 462              		.cfi_endproc
 463              	.LFE263:
 465              		.section	.text.LL_DMA_ClearFlag_GI3,"ax",%progbits
 466              		.align	1
 467              		.syntax unified
 468              		.thumb
 469              		.thumb_func
 470              		.fpu fpv4-sp-d16
 472              	LL_DMA_ClearFlag_GI3:
 473              	.LFB264:
1955:Drivers/STM32G4xx_HAL_Driver/Inc/stm32g4xx_ll_dma.h **** 
1956:Drivers/STM32G4xx_HAL_Driver/Inc/stm32g4xx_ll_dma.h **** /**
1957:Drivers/STM32G4xx_HAL_Driver/Inc/stm32g4xx_ll_dma.h ****   * @brief  Clear Channel 3 global interrupt flag.
1958:Drivers/STM32G4xx_HAL_Driver/Inc/stm32g4xx_ll_dma.h ****   * @rmtoll IFCR         CGIF3         LL_DMA_ClearFlag_GI3
1959:Drivers/STM32G4xx_HAL_Driver/Inc/stm32g4xx_ll_dma.h ****   * @param  DMAx DMAx Instance
1960:Drivers/STM32G4xx_HAL_Driver/Inc/stm32g4xx_ll_dma.h ****   * @retval None
1961:Drivers/STM32G4xx_HAL_Driver/Inc/stm32g4xx_ll_dma.h ****   */
1962:Drivers/STM32G4xx_HAL_Driver/Inc/stm32g4xx_ll_dma.h **** __STATIC_INLINE void LL_DMA_ClearFlag_GI3(DMA_TypeDef *DMAx)
1963:Drivers/STM32G4xx_HAL_Driver/Inc/stm32g4xx_ll_dma.h **** {
 474              		.loc 1 1963 1
 475              		.cfi_startproc
 476              		@ args = 0, pretend = 0, frame = 8
 477              		@ frame_needed = 1, uses_anonymous_args = 0
 478              		@ link register save eliminated.
 479 0000 80B4     		push	{r7}
 480              	.LCFI42:
 481              		.cfi_def_cfa_offset 4
 482              		.cfi_offset 7, -4
 483 0002 83B0     		sub	sp, sp, #12
 484              	.LCFI43:
 485              		.cfi_def_cfa_offset 16
 486 0004 00AF     		add	r7, sp, #0
 487              	.LCFI44:
 488              		.cfi_def_cfa_register 7
 489 0006 7860     		str	r0, [r7, #4]
1964:Drivers/STM32G4xx_HAL_Driver/Inc/stm32g4xx_ll_dma.h ****   WRITE_REG(DMAx->IFCR, DMA_IFCR_CGIF3);
 490              		.loc 1 1964 3
 491 0008 7B68     		ldr	r3, [r7, #4]
 492 000a 4FF48072 		mov	r2, #256
 493 000e 5A60     		str	r2, [r3, #4]
1965:Drivers/STM32G4xx_HAL_Driver/Inc/stm32g4xx_ll_dma.h **** }
 494              		.loc 1 1965 1
 495 0010 00BF     		nop
 496 0012 0C37     		adds	r7, r7, #12
 497              	.LCFI45:
 498              		.cfi_def_cfa_offset 4
 499 0014 BD46     		mov	sp, r7
 500              	.LCFI46:
 501              		.cfi_def_cfa_register 13
 502              		@ sp needed
 503 0016 5DF8047B 		ldr	r7, [sp], #4
ARM GAS  D:\apps\VSCode\data\tmp\ccESTIAN.s 			page 44


 504              	.LCFI47:
 505              		.cfi_restore 7
 506              		.cfi_def_cfa_offset 0
 507 001a 7047     		bx	lr
 508              		.cfi_endproc
 509              	.LFE264:
 511              		.section	.text.LL_DMA_ClearFlag_GI4,"ax",%progbits
 512              		.align	1
 513              		.syntax unified
 514              		.thumb
 515              		.thumb_func
 516              		.fpu fpv4-sp-d16
 518              	LL_DMA_ClearFlag_GI4:
 519              	.LFB265:
1966:Drivers/STM32G4xx_HAL_Driver/Inc/stm32g4xx_ll_dma.h **** 
1967:Drivers/STM32G4xx_HAL_Driver/Inc/stm32g4xx_ll_dma.h **** /**
1968:Drivers/STM32G4xx_HAL_Driver/Inc/stm32g4xx_ll_dma.h ****   * @brief  Clear Channel 4 global interrupt flag.
1969:Drivers/STM32G4xx_HAL_Driver/Inc/stm32g4xx_ll_dma.h ****   * @rmtoll IFCR         CGIF4         LL_DMA_ClearFlag_GI4
1970:Drivers/STM32G4xx_HAL_Driver/Inc/stm32g4xx_ll_dma.h ****   * @param  DMAx DMAx Instance
1971:Drivers/STM32G4xx_HAL_Driver/Inc/stm32g4xx_ll_dma.h ****   * @retval None
1972:Drivers/STM32G4xx_HAL_Driver/Inc/stm32g4xx_ll_dma.h ****   */
1973:Drivers/STM32G4xx_HAL_Driver/Inc/stm32g4xx_ll_dma.h **** __STATIC_INLINE void LL_DMA_ClearFlag_GI4(DMA_TypeDef *DMAx)
1974:Drivers/STM32G4xx_HAL_Driver/Inc/stm32g4xx_ll_dma.h **** {
 520              		.loc 1 1974 1
 521              		.cfi_startproc
 522              		@ args = 0, pretend = 0, frame = 8
 523              		@ frame_needed = 1, uses_anonymous_args = 0
 524              		@ link register save eliminated.
 525 0000 80B4     		push	{r7}
 526              	.LCFI48:
 527              		.cfi_def_cfa_offset 4
 528              		.cfi_offset 7, -4
 529 0002 83B0     		sub	sp, sp, #12
 530              	.LCFI49:
 531              		.cfi_def_cfa_offset 16
 532 0004 00AF     		add	r7, sp, #0
 533              	.LCFI50:
 534              		.cfi_def_cfa_register 7
 535 0006 7860     		str	r0, [r7, #4]
1975:Drivers/STM32G4xx_HAL_Driver/Inc/stm32g4xx_ll_dma.h ****   WRITE_REG(DMAx->IFCR, DMA_IFCR_CGIF4);
 536              		.loc 1 1975 3
 537 0008 7B68     		ldr	r3, [r7, #4]
 538 000a 4FF48052 		mov	r2, #4096
 539 000e 5A60     		str	r2, [r3, #4]
1976:Drivers/STM32G4xx_HAL_Driver/Inc/stm32g4xx_ll_dma.h **** }
 540              		.loc 1 1976 1
 541 0010 00BF     		nop
 542 0012 0C37     		adds	r7, r7, #12
 543              	.LCFI51:
 544              		.cfi_def_cfa_offset 4
 545 0014 BD46     		mov	sp, r7
 546              	.LCFI52:
 547              		.cfi_def_cfa_register 13
 548              		@ sp needed
 549 0016 5DF8047B 		ldr	r7, [sp], #4
 550              	.LCFI53:
 551              		.cfi_restore 7
ARM GAS  D:\apps\VSCode\data\tmp\ccESTIAN.s 			page 45


 552              		.cfi_def_cfa_offset 0
 553 001a 7047     		bx	lr
 554              		.cfi_endproc
 555              	.LFE265:
 557              		.section	.text.LL_DMA_ClearFlag_GI5,"ax",%progbits
 558              		.align	1
 559              		.syntax unified
 560              		.thumb
 561              		.thumb_func
 562              		.fpu fpv4-sp-d16
 564              	LL_DMA_ClearFlag_GI5:
 565              	.LFB266:
1977:Drivers/STM32G4xx_HAL_Driver/Inc/stm32g4xx_ll_dma.h **** 
1978:Drivers/STM32G4xx_HAL_Driver/Inc/stm32g4xx_ll_dma.h **** /**
1979:Drivers/STM32G4xx_HAL_Driver/Inc/stm32g4xx_ll_dma.h ****   * @brief  Clear Channel 5 global interrupt flag.
1980:Drivers/STM32G4xx_HAL_Driver/Inc/stm32g4xx_ll_dma.h ****   * @rmtoll IFCR         CGIF5         LL_DMA_ClearFlag_GI5
1981:Drivers/STM32G4xx_HAL_Driver/Inc/stm32g4xx_ll_dma.h ****   * @param  DMAx DMAx Instance
1982:Drivers/STM32G4xx_HAL_Driver/Inc/stm32g4xx_ll_dma.h ****   * @retval None
1983:Drivers/STM32G4xx_HAL_Driver/Inc/stm32g4xx_ll_dma.h ****   */
1984:Drivers/STM32G4xx_HAL_Driver/Inc/stm32g4xx_ll_dma.h **** __STATIC_INLINE void LL_DMA_ClearFlag_GI5(DMA_TypeDef *DMAx)
1985:Drivers/STM32G4xx_HAL_Driver/Inc/stm32g4xx_ll_dma.h **** {
 566              		.loc 1 1985 1
 567              		.cfi_startproc
 568              		@ args = 0, pretend = 0, frame = 8
 569              		@ frame_needed = 1, uses_anonymous_args = 0
 570              		@ link register save eliminated.
 571 0000 80B4     		push	{r7}
 572              	.LCFI54:
 573              		.cfi_def_cfa_offset 4
 574              		.cfi_offset 7, -4
 575 0002 83B0     		sub	sp, sp, #12
 576              	.LCFI55:
 577              		.cfi_def_cfa_offset 16
 578 0004 00AF     		add	r7, sp, #0
 579              	.LCFI56:
 580              		.cfi_def_cfa_register 7
 581 0006 7860     		str	r0, [r7, #4]
1986:Drivers/STM32G4xx_HAL_Driver/Inc/stm32g4xx_ll_dma.h ****   WRITE_REG(DMAx->IFCR, DMA_IFCR_CGIF5);
 582              		.loc 1 1986 3
 583 0008 7B68     		ldr	r3, [r7, #4]
 584 000a 4FF48032 		mov	r2, #65536
 585 000e 5A60     		str	r2, [r3, #4]
1987:Drivers/STM32G4xx_HAL_Driver/Inc/stm32g4xx_ll_dma.h **** }
 586              		.loc 1 1987 1
 587 0010 00BF     		nop
 588 0012 0C37     		adds	r7, r7, #12
 589              	.LCFI57:
 590              		.cfi_def_cfa_offset 4
 591 0014 BD46     		mov	sp, r7
 592              	.LCFI58:
 593              		.cfi_def_cfa_register 13
 594              		@ sp needed
 595 0016 5DF8047B 		ldr	r7, [sp], #4
 596              	.LCFI59:
 597              		.cfi_restore 7
 598              		.cfi_def_cfa_offset 0
 599 001a 7047     		bx	lr
ARM GAS  D:\apps\VSCode\data\tmp\ccESTIAN.s 			page 46


 600              		.cfi_endproc
 601              	.LFE266:
 603              		.section	.text.LL_DMA_ClearFlag_GI6,"ax",%progbits
 604              		.align	1
 605              		.syntax unified
 606              		.thumb
 607              		.thumb_func
 608              		.fpu fpv4-sp-d16
 610              	LL_DMA_ClearFlag_GI6:
 611              	.LFB267:
1988:Drivers/STM32G4xx_HAL_Driver/Inc/stm32g4xx_ll_dma.h **** 
1989:Drivers/STM32G4xx_HAL_Driver/Inc/stm32g4xx_ll_dma.h **** /**
1990:Drivers/STM32G4xx_HAL_Driver/Inc/stm32g4xx_ll_dma.h ****   * @brief  Clear Channel 6 global interrupt flag.
1991:Drivers/STM32G4xx_HAL_Driver/Inc/stm32g4xx_ll_dma.h ****   * @rmtoll IFCR         CGIF6         LL_DMA_ClearFlag_GI6
1992:Drivers/STM32G4xx_HAL_Driver/Inc/stm32g4xx_ll_dma.h ****   * @param  DMAx DMAx Instance
1993:Drivers/STM32G4xx_HAL_Driver/Inc/stm32g4xx_ll_dma.h ****   * @retval None
1994:Drivers/STM32G4xx_HAL_Driver/Inc/stm32g4xx_ll_dma.h ****   */
1995:Drivers/STM32G4xx_HAL_Driver/Inc/stm32g4xx_ll_dma.h **** __STATIC_INLINE void LL_DMA_ClearFlag_GI6(DMA_TypeDef *DMAx)
1996:Drivers/STM32G4xx_HAL_Driver/Inc/stm32g4xx_ll_dma.h **** {
 612              		.loc 1 1996 1
 613              		.cfi_startproc
 614              		@ args = 0, pretend = 0, frame = 8
 615              		@ frame_needed = 1, uses_anonymous_args = 0
 616              		@ link register save eliminated.
 617 0000 80B4     		push	{r7}
 618              	.LCFI60:
 619              		.cfi_def_cfa_offset 4
 620              		.cfi_offset 7, -4
 621 0002 83B0     		sub	sp, sp, #12
 622              	.LCFI61:
 623              		.cfi_def_cfa_offset 16
 624 0004 00AF     		add	r7, sp, #0
 625              	.LCFI62:
 626              		.cfi_def_cfa_register 7
 627 0006 7860     		str	r0, [r7, #4]
1997:Drivers/STM32G4xx_HAL_Driver/Inc/stm32g4xx_ll_dma.h ****   WRITE_REG(DMAx->IFCR, DMA_IFCR_CGIF6);
 628              		.loc 1 1997 3
 629 0008 7B68     		ldr	r3, [r7, #4]
 630 000a 4FF48012 		mov	r2, #1048576
 631 000e 5A60     		str	r2, [r3, #4]
1998:Drivers/STM32G4xx_HAL_Driver/Inc/stm32g4xx_ll_dma.h **** }
 632              		.loc 1 1998 1
 633 0010 00BF     		nop
 634 0012 0C37     		adds	r7, r7, #12
 635              	.LCFI63:
 636              		.cfi_def_cfa_offset 4
 637 0014 BD46     		mov	sp, r7
 638              	.LCFI64:
 639              		.cfi_def_cfa_register 13
 640              		@ sp needed
 641 0016 5DF8047B 		ldr	r7, [sp], #4
 642              	.LCFI65:
 643              		.cfi_restore 7
 644              		.cfi_def_cfa_offset 0
 645 001a 7047     		bx	lr
 646              		.cfi_endproc
 647              	.LFE267:
ARM GAS  D:\apps\VSCode\data\tmp\ccESTIAN.s 			page 47


 649              		.section	.text.LL_DMA_ClearFlag_GI7,"ax",%progbits
 650              		.align	1
 651              		.syntax unified
 652              		.thumb
 653              		.thumb_func
 654              		.fpu fpv4-sp-d16
 656              	LL_DMA_ClearFlag_GI7:
 657              	.LFB268:
1999:Drivers/STM32G4xx_HAL_Driver/Inc/stm32g4xx_ll_dma.h **** 
2000:Drivers/STM32G4xx_HAL_Driver/Inc/stm32g4xx_ll_dma.h **** #if defined (DMA1_Channel7)
2001:Drivers/STM32G4xx_HAL_Driver/Inc/stm32g4xx_ll_dma.h **** /**
2002:Drivers/STM32G4xx_HAL_Driver/Inc/stm32g4xx_ll_dma.h ****   * @brief  Clear Channel 7 global interrupt flag.
2003:Drivers/STM32G4xx_HAL_Driver/Inc/stm32g4xx_ll_dma.h ****   * @rmtoll IFCR         CGIF7         LL_DMA_ClearFlag_GI7
2004:Drivers/STM32G4xx_HAL_Driver/Inc/stm32g4xx_ll_dma.h ****   * @param  DMAx DMAx Instance
2005:Drivers/STM32G4xx_HAL_Driver/Inc/stm32g4xx_ll_dma.h ****   * @retval None
2006:Drivers/STM32G4xx_HAL_Driver/Inc/stm32g4xx_ll_dma.h ****   */
2007:Drivers/STM32G4xx_HAL_Driver/Inc/stm32g4xx_ll_dma.h **** __STATIC_INLINE void LL_DMA_ClearFlag_GI7(DMA_TypeDef *DMAx)
2008:Drivers/STM32G4xx_HAL_Driver/Inc/stm32g4xx_ll_dma.h **** {
 658              		.loc 1 2008 1
 659              		.cfi_startproc
 660              		@ args = 0, pretend = 0, frame = 8
 661              		@ frame_needed = 1, uses_anonymous_args = 0
 662              		@ link register save eliminated.
 663 0000 80B4     		push	{r7}
 664              	.LCFI66:
 665              		.cfi_def_cfa_offset 4
 666              		.cfi_offset 7, -4
 667 0002 83B0     		sub	sp, sp, #12
 668              	.LCFI67:
 669              		.cfi_def_cfa_offset 16
 670 0004 00AF     		add	r7, sp, #0
 671              	.LCFI68:
 672              		.cfi_def_cfa_register 7
 673 0006 7860     		str	r0, [r7, #4]
2009:Drivers/STM32G4xx_HAL_Driver/Inc/stm32g4xx_ll_dma.h ****   WRITE_REG(DMAx->IFCR, DMA_IFCR_CGIF7);
 674              		.loc 1 2009 3
 675 0008 7B68     		ldr	r3, [r7, #4]
 676 000a 4FF08072 		mov	r2, #16777216
 677 000e 5A60     		str	r2, [r3, #4]
2010:Drivers/STM32G4xx_HAL_Driver/Inc/stm32g4xx_ll_dma.h **** }
 678              		.loc 1 2010 1
 679 0010 00BF     		nop
 680 0012 0C37     		adds	r7, r7, #12
 681              	.LCFI69:
 682              		.cfi_def_cfa_offset 4
 683 0014 BD46     		mov	sp, r7
 684              	.LCFI70:
 685              		.cfi_def_cfa_register 13
 686              		@ sp needed
 687 0016 5DF8047B 		ldr	r7, [sp], #4
 688              	.LCFI71:
 689              		.cfi_restore 7
 690              		.cfi_def_cfa_offset 0
 691 001a 7047     		bx	lr
 692              		.cfi_endproc
 693              	.LFE268:
 695              		.section	.text.LL_DMA_ClearFlag_GI8,"ax",%progbits
ARM GAS  D:\apps\VSCode\data\tmp\ccESTIAN.s 			page 48


 696              		.align	1
 697              		.syntax unified
 698              		.thumb
 699              		.thumb_func
 700              		.fpu fpv4-sp-d16
 702              	LL_DMA_ClearFlag_GI8:
 703              	.LFB269:
2011:Drivers/STM32G4xx_HAL_Driver/Inc/stm32g4xx_ll_dma.h **** #endif /* DMA1_Channel7 */
2012:Drivers/STM32G4xx_HAL_Driver/Inc/stm32g4xx_ll_dma.h **** 
2013:Drivers/STM32G4xx_HAL_Driver/Inc/stm32g4xx_ll_dma.h **** #if defined (DMA1_Channel8)
2014:Drivers/STM32G4xx_HAL_Driver/Inc/stm32g4xx_ll_dma.h **** /**
2015:Drivers/STM32G4xx_HAL_Driver/Inc/stm32g4xx_ll_dma.h ****   * @brief  Clear Channel 8 global interrupt flag.
2016:Drivers/STM32G4xx_HAL_Driver/Inc/stm32g4xx_ll_dma.h ****   * @rmtoll IFCR         CGIF8         LL_DMA_ClearFlag_GI8
2017:Drivers/STM32G4xx_HAL_Driver/Inc/stm32g4xx_ll_dma.h ****   * @param  DMAx DMAx Instance
2018:Drivers/STM32G4xx_HAL_Driver/Inc/stm32g4xx_ll_dma.h ****   * @retval None
2019:Drivers/STM32G4xx_HAL_Driver/Inc/stm32g4xx_ll_dma.h ****   */
2020:Drivers/STM32G4xx_HAL_Driver/Inc/stm32g4xx_ll_dma.h **** __STATIC_INLINE void LL_DMA_ClearFlag_GI8(DMA_TypeDef *DMAx)
2021:Drivers/STM32G4xx_HAL_Driver/Inc/stm32g4xx_ll_dma.h **** {
 704              		.loc 1 2021 1
 705              		.cfi_startproc
 706              		@ args = 0, pretend = 0, frame = 8
 707              		@ frame_needed = 1, uses_anonymous_args = 0
 708              		@ link register save eliminated.
 709 0000 80B4     		push	{r7}
 710              	.LCFI72:
 711              		.cfi_def_cfa_offset 4
 712              		.cfi_offset 7, -4
 713 0002 83B0     		sub	sp, sp, #12
 714              	.LCFI73:
 715              		.cfi_def_cfa_offset 16
 716 0004 00AF     		add	r7, sp, #0
 717              	.LCFI74:
 718              		.cfi_def_cfa_register 7
 719 0006 7860     		str	r0, [r7, #4]
2022:Drivers/STM32G4xx_HAL_Driver/Inc/stm32g4xx_ll_dma.h ****   WRITE_REG(DMAx->IFCR, DMA_IFCR_CGIF8);
 720              		.loc 1 2022 3
 721 0008 7B68     		ldr	r3, [r7, #4]
 722 000a 4FF08052 		mov	r2, #268435456
 723 000e 5A60     		str	r2, [r3, #4]
2023:Drivers/STM32G4xx_HAL_Driver/Inc/stm32g4xx_ll_dma.h **** }
 724              		.loc 1 2023 1
 725 0010 00BF     		nop
 726 0012 0C37     		adds	r7, r7, #12
 727              	.LCFI75:
 728              		.cfi_def_cfa_offset 4
 729 0014 BD46     		mov	sp, r7
 730              	.LCFI76:
 731              		.cfi_def_cfa_register 13
 732              		@ sp needed
 733 0016 5DF8047B 		ldr	r7, [sp], #4
 734              	.LCFI77:
 735              		.cfi_restore 7
 736              		.cfi_def_cfa_offset 0
 737 001a 7047     		bx	lr
 738              		.cfi_endproc
 739              	.LFE269:
 741              		.section	.text.LL_AHB1_GRP1_ForceReset,"ax",%progbits
ARM GAS  D:\apps\VSCode\data\tmp\ccESTIAN.s 			page 49


 742              		.align	1
 743              		.syntax unified
 744              		.thumb
 745              		.thumb_func
 746              		.fpu fpv4-sp-d16
 748              	LL_AHB1_GRP1_ForceReset:
 749              	.LFB306:
 750              		.file 2 "Drivers/STM32G4xx_HAL_Driver/Inc/stm32g4xx_ll_bus.h"
   1:Drivers/STM32G4xx_HAL_Driver/Inc/stm32g4xx_ll_bus.h **** /**
   2:Drivers/STM32G4xx_HAL_Driver/Inc/stm32g4xx_ll_bus.h ****   ******************************************************************************
   3:Drivers/STM32G4xx_HAL_Driver/Inc/stm32g4xx_ll_bus.h ****   * @file    stm32g4xx_ll_bus.h
   4:Drivers/STM32G4xx_HAL_Driver/Inc/stm32g4xx_ll_bus.h ****   * @author  MCD Application Team
   5:Drivers/STM32G4xx_HAL_Driver/Inc/stm32g4xx_ll_bus.h ****   * @brief   Header file of BUS LL module.
   6:Drivers/STM32G4xx_HAL_Driver/Inc/stm32g4xx_ll_bus.h **** 
   7:Drivers/STM32G4xx_HAL_Driver/Inc/stm32g4xx_ll_bus.h ****   @verbatim
   8:Drivers/STM32G4xx_HAL_Driver/Inc/stm32g4xx_ll_bus.h ****                       ##### RCC Limitations #####
   9:Drivers/STM32G4xx_HAL_Driver/Inc/stm32g4xx_ll_bus.h ****   ==============================================================================
  10:Drivers/STM32G4xx_HAL_Driver/Inc/stm32g4xx_ll_bus.h ****     [..]
  11:Drivers/STM32G4xx_HAL_Driver/Inc/stm32g4xx_ll_bus.h ****       A delay between an RCC peripheral clock enable and the effective peripheral
  12:Drivers/STM32G4xx_HAL_Driver/Inc/stm32g4xx_ll_bus.h ****       enabling should be taken into account in order to manage the peripheral read/write
  13:Drivers/STM32G4xx_HAL_Driver/Inc/stm32g4xx_ll_bus.h ****       from/to registers.
  14:Drivers/STM32G4xx_HAL_Driver/Inc/stm32g4xx_ll_bus.h ****       (+) This delay depends on the peripheral mapping.
  15:Drivers/STM32G4xx_HAL_Driver/Inc/stm32g4xx_ll_bus.h ****         (++) AHB & APB peripherals, 1 dummy read is necessary
  16:Drivers/STM32G4xx_HAL_Driver/Inc/stm32g4xx_ll_bus.h **** 
  17:Drivers/STM32G4xx_HAL_Driver/Inc/stm32g4xx_ll_bus.h ****     [..]
  18:Drivers/STM32G4xx_HAL_Driver/Inc/stm32g4xx_ll_bus.h ****       Workarounds:
  19:Drivers/STM32G4xx_HAL_Driver/Inc/stm32g4xx_ll_bus.h ****       (#) For AHB & APB peripherals, a dummy read to the peripheral register has been
  20:Drivers/STM32G4xx_HAL_Driver/Inc/stm32g4xx_ll_bus.h ****           inserted in each LL_{BUS}_GRP{x}_EnableClock() function.
  21:Drivers/STM32G4xx_HAL_Driver/Inc/stm32g4xx_ll_bus.h **** 
  22:Drivers/STM32G4xx_HAL_Driver/Inc/stm32g4xx_ll_bus.h ****   @endverbatim
  23:Drivers/STM32G4xx_HAL_Driver/Inc/stm32g4xx_ll_bus.h ****   ******************************************************************************
  24:Drivers/STM32G4xx_HAL_Driver/Inc/stm32g4xx_ll_bus.h ****   * @attention
  25:Drivers/STM32G4xx_HAL_Driver/Inc/stm32g4xx_ll_bus.h ****   *
  26:Drivers/STM32G4xx_HAL_Driver/Inc/stm32g4xx_ll_bus.h ****   * <h2><center>&copy; Copyright (c) 2019 STMicroelectronics.
  27:Drivers/STM32G4xx_HAL_Driver/Inc/stm32g4xx_ll_bus.h ****   * All rights reserved.</center></h2>
  28:Drivers/STM32G4xx_HAL_Driver/Inc/stm32g4xx_ll_bus.h ****   *
  29:Drivers/STM32G4xx_HAL_Driver/Inc/stm32g4xx_ll_bus.h ****   * This software component is licensed by ST under BSD 3-Clause license,
  30:Drivers/STM32G4xx_HAL_Driver/Inc/stm32g4xx_ll_bus.h ****   * the "License"; You may not use this file except in compliance with the
  31:Drivers/STM32G4xx_HAL_Driver/Inc/stm32g4xx_ll_bus.h ****   * License. You may obtain a copy of the License at:
  32:Drivers/STM32G4xx_HAL_Driver/Inc/stm32g4xx_ll_bus.h ****   *                        opensource.org/licenses/BSD-3-Clause
  33:Drivers/STM32G4xx_HAL_Driver/Inc/stm32g4xx_ll_bus.h ****   *
  34:Drivers/STM32G4xx_HAL_Driver/Inc/stm32g4xx_ll_bus.h ****   ******************************************************************************
  35:Drivers/STM32G4xx_HAL_Driver/Inc/stm32g4xx_ll_bus.h ****   */
  36:Drivers/STM32G4xx_HAL_Driver/Inc/stm32g4xx_ll_bus.h **** 
  37:Drivers/STM32G4xx_HAL_Driver/Inc/stm32g4xx_ll_bus.h **** /* Define to prevent recursive inclusion -------------------------------------*/
  38:Drivers/STM32G4xx_HAL_Driver/Inc/stm32g4xx_ll_bus.h **** #ifndef STM32G4xx_LL_BUS_H
  39:Drivers/STM32G4xx_HAL_Driver/Inc/stm32g4xx_ll_bus.h **** #define STM32G4xx_LL_BUS_H
  40:Drivers/STM32G4xx_HAL_Driver/Inc/stm32g4xx_ll_bus.h **** 
  41:Drivers/STM32G4xx_HAL_Driver/Inc/stm32g4xx_ll_bus.h **** #ifdef __cplusplus
  42:Drivers/STM32G4xx_HAL_Driver/Inc/stm32g4xx_ll_bus.h **** extern "C" {
  43:Drivers/STM32G4xx_HAL_Driver/Inc/stm32g4xx_ll_bus.h **** #endif
  44:Drivers/STM32G4xx_HAL_Driver/Inc/stm32g4xx_ll_bus.h **** 
  45:Drivers/STM32G4xx_HAL_Driver/Inc/stm32g4xx_ll_bus.h **** /* Includes ------------------------------------------------------------------*/
  46:Drivers/STM32G4xx_HAL_Driver/Inc/stm32g4xx_ll_bus.h **** #include "stm32g4xx.h"
  47:Drivers/STM32G4xx_HAL_Driver/Inc/stm32g4xx_ll_bus.h **** 
  48:Drivers/STM32G4xx_HAL_Driver/Inc/stm32g4xx_ll_bus.h **** /** @addtogroup STM32G4xx_LL_Driver
  49:Drivers/STM32G4xx_HAL_Driver/Inc/stm32g4xx_ll_bus.h ****   * @{
ARM GAS  D:\apps\VSCode\data\tmp\ccESTIAN.s 			page 50


  50:Drivers/STM32G4xx_HAL_Driver/Inc/stm32g4xx_ll_bus.h ****   */
  51:Drivers/STM32G4xx_HAL_Driver/Inc/stm32g4xx_ll_bus.h **** 
  52:Drivers/STM32G4xx_HAL_Driver/Inc/stm32g4xx_ll_bus.h **** #if defined(RCC)
  53:Drivers/STM32G4xx_HAL_Driver/Inc/stm32g4xx_ll_bus.h **** 
  54:Drivers/STM32G4xx_HAL_Driver/Inc/stm32g4xx_ll_bus.h **** /** @defgroup BUS_LL BUS
  55:Drivers/STM32G4xx_HAL_Driver/Inc/stm32g4xx_ll_bus.h ****   * @{
  56:Drivers/STM32G4xx_HAL_Driver/Inc/stm32g4xx_ll_bus.h ****   */
  57:Drivers/STM32G4xx_HAL_Driver/Inc/stm32g4xx_ll_bus.h **** 
  58:Drivers/STM32G4xx_HAL_Driver/Inc/stm32g4xx_ll_bus.h **** /* Private types -------------------------------------------------------------*/
  59:Drivers/STM32G4xx_HAL_Driver/Inc/stm32g4xx_ll_bus.h **** /* Private variables ---------------------------------------------------------*/
  60:Drivers/STM32G4xx_HAL_Driver/Inc/stm32g4xx_ll_bus.h **** 
  61:Drivers/STM32G4xx_HAL_Driver/Inc/stm32g4xx_ll_bus.h **** /* Private constants ---------------------------------------------------------*/
  62:Drivers/STM32G4xx_HAL_Driver/Inc/stm32g4xx_ll_bus.h **** 
  63:Drivers/STM32G4xx_HAL_Driver/Inc/stm32g4xx_ll_bus.h **** /* Private macros ------------------------------------------------------------*/
  64:Drivers/STM32G4xx_HAL_Driver/Inc/stm32g4xx_ll_bus.h **** 
  65:Drivers/STM32G4xx_HAL_Driver/Inc/stm32g4xx_ll_bus.h **** /* Exported types ------------------------------------------------------------*/
  66:Drivers/STM32G4xx_HAL_Driver/Inc/stm32g4xx_ll_bus.h **** /* Exported constants --------------------------------------------------------*/
  67:Drivers/STM32G4xx_HAL_Driver/Inc/stm32g4xx_ll_bus.h **** /** @defgroup BUS_LL_Exported_Constants BUS Exported Constants
  68:Drivers/STM32G4xx_HAL_Driver/Inc/stm32g4xx_ll_bus.h ****   * @{
  69:Drivers/STM32G4xx_HAL_Driver/Inc/stm32g4xx_ll_bus.h ****   */
  70:Drivers/STM32G4xx_HAL_Driver/Inc/stm32g4xx_ll_bus.h **** 
  71:Drivers/STM32G4xx_HAL_Driver/Inc/stm32g4xx_ll_bus.h **** /** @defgroup BUS_LL_EC_AHB1_GRP1_PERIPH  AHB1 GRP1 PERIPH
  72:Drivers/STM32G4xx_HAL_Driver/Inc/stm32g4xx_ll_bus.h ****   * @{
  73:Drivers/STM32G4xx_HAL_Driver/Inc/stm32g4xx_ll_bus.h ****   */
  74:Drivers/STM32G4xx_HAL_Driver/Inc/stm32g4xx_ll_bus.h **** #define LL_AHB1_GRP1_PERIPH_ALL            0xFFFFFFFFU
  75:Drivers/STM32G4xx_HAL_Driver/Inc/stm32g4xx_ll_bus.h **** #define LL_AHB1_GRP1_PERIPH_DMA1           RCC_AHB1ENR_DMA1EN
  76:Drivers/STM32G4xx_HAL_Driver/Inc/stm32g4xx_ll_bus.h **** #define LL_AHB1_GRP1_PERIPH_DMA2           RCC_AHB1ENR_DMA2EN
  77:Drivers/STM32G4xx_HAL_Driver/Inc/stm32g4xx_ll_bus.h **** #define LL_AHB1_GRP1_PERIPH_DMAMUX1        RCC_AHB1ENR_DMAMUX1EN
  78:Drivers/STM32G4xx_HAL_Driver/Inc/stm32g4xx_ll_bus.h **** #define LL_AHB1_GRP1_PERIPH_CORDIC         RCC_AHB1ENR_CORDICEN
  79:Drivers/STM32G4xx_HAL_Driver/Inc/stm32g4xx_ll_bus.h **** #define LL_AHB1_GRP1_PERIPH_FMAC           RCC_AHB1ENR_FMACEN
  80:Drivers/STM32G4xx_HAL_Driver/Inc/stm32g4xx_ll_bus.h **** #define LL_AHB1_GRP1_PERIPH_FLASH          RCC_AHB1ENR_FLASHEN
  81:Drivers/STM32G4xx_HAL_Driver/Inc/stm32g4xx_ll_bus.h **** #define LL_AHB1_GRP1_PERIPH_SRAM1          RCC_AHB1SMENR_SRAM1SMEN
  82:Drivers/STM32G4xx_HAL_Driver/Inc/stm32g4xx_ll_bus.h **** #define LL_AHB1_GRP1_PERIPH_CRC            RCC_AHB1ENR_CRCEN
  83:Drivers/STM32G4xx_HAL_Driver/Inc/stm32g4xx_ll_bus.h **** /**
  84:Drivers/STM32G4xx_HAL_Driver/Inc/stm32g4xx_ll_bus.h ****   * @}
  85:Drivers/STM32G4xx_HAL_Driver/Inc/stm32g4xx_ll_bus.h ****   */
  86:Drivers/STM32G4xx_HAL_Driver/Inc/stm32g4xx_ll_bus.h **** 
  87:Drivers/STM32G4xx_HAL_Driver/Inc/stm32g4xx_ll_bus.h **** /** @defgroup BUS_LL_EC_AHB2_GRP1_PERIPH  AHB2 GRP1 PERIPH
  88:Drivers/STM32G4xx_HAL_Driver/Inc/stm32g4xx_ll_bus.h ****   * @{
  89:Drivers/STM32G4xx_HAL_Driver/Inc/stm32g4xx_ll_bus.h ****   */
  90:Drivers/STM32G4xx_HAL_Driver/Inc/stm32g4xx_ll_bus.h **** #define LL_AHB2_GRP1_PERIPH_ALL            0xFFFFFFFFU
  91:Drivers/STM32G4xx_HAL_Driver/Inc/stm32g4xx_ll_bus.h **** #define LL_AHB2_GRP1_PERIPH_GPIOA          RCC_AHB2ENR_GPIOAEN
  92:Drivers/STM32G4xx_HAL_Driver/Inc/stm32g4xx_ll_bus.h **** #define LL_AHB2_GRP1_PERIPH_GPIOB          RCC_AHB2ENR_GPIOBEN
  93:Drivers/STM32G4xx_HAL_Driver/Inc/stm32g4xx_ll_bus.h **** #define LL_AHB2_GRP1_PERIPH_GPIOC          RCC_AHB2ENR_GPIOCEN
  94:Drivers/STM32G4xx_HAL_Driver/Inc/stm32g4xx_ll_bus.h **** #define LL_AHB2_GRP1_PERIPH_GPIOD          RCC_AHB2ENR_GPIODEN
  95:Drivers/STM32G4xx_HAL_Driver/Inc/stm32g4xx_ll_bus.h **** #define LL_AHB2_GRP1_PERIPH_GPIOE          RCC_AHB2ENR_GPIOEEN
  96:Drivers/STM32G4xx_HAL_Driver/Inc/stm32g4xx_ll_bus.h **** #define LL_AHB2_GRP1_PERIPH_GPIOF          RCC_AHB2ENR_GPIOFEN
  97:Drivers/STM32G4xx_HAL_Driver/Inc/stm32g4xx_ll_bus.h **** #define LL_AHB2_GRP1_PERIPH_GPIOG          RCC_AHB2ENR_GPIOGEN
  98:Drivers/STM32G4xx_HAL_Driver/Inc/stm32g4xx_ll_bus.h **** #define LL_AHB2_GRP1_PERIPH_CCM            RCC_AHB2SMENR_CCMSMEN
  99:Drivers/STM32G4xx_HAL_Driver/Inc/stm32g4xx_ll_bus.h **** #define LL_AHB2_GRP1_PERIPH_SRAM2          RCC_AHB2SMENR_SRAM2SMEN
 100:Drivers/STM32G4xx_HAL_Driver/Inc/stm32g4xx_ll_bus.h **** #define LL_AHB2_GRP1_PERIPH_ADC12          RCC_AHB2ENR_ADC12EN
 101:Drivers/STM32G4xx_HAL_Driver/Inc/stm32g4xx_ll_bus.h **** #if defined(ADC345_COMMON)
 102:Drivers/STM32G4xx_HAL_Driver/Inc/stm32g4xx_ll_bus.h **** #define LL_AHB2_GRP1_PERIPH_ADC345         RCC_AHB2ENR_ADC345EN
 103:Drivers/STM32G4xx_HAL_Driver/Inc/stm32g4xx_ll_bus.h **** #endif /* ADC345_COMMON */
 104:Drivers/STM32G4xx_HAL_Driver/Inc/stm32g4xx_ll_bus.h **** #define LL_AHB2_GRP1_PERIPH_DAC1           RCC_AHB2ENR_DAC1EN
 105:Drivers/STM32G4xx_HAL_Driver/Inc/stm32g4xx_ll_bus.h **** #if defined(DAC2)
 106:Drivers/STM32G4xx_HAL_Driver/Inc/stm32g4xx_ll_bus.h **** #define LL_AHB2_GRP1_PERIPH_DAC2           RCC_AHB2ENR_DAC2EN
